
bomb-squad.elf:     file format elf32-avr

Sections:
Idx Name          Size      VMA       LMA       File off  Algn
  0 .data         0000012a  00800100  00003c0c  00003ca0  2**0
                  CONTENTS, ALLOC, LOAD, DATA
  1 .text         00003c0c  00000000  00000000  00000094  2**1
                  CONTENTS, ALLOC, LOAD, READONLY, CODE
  2 .bss          0000007d  0080022a  0080022a  00003dca  2**0
                  ALLOC
  3 .debug_aranges 00000858  00000000  00000000  00003dca  2**0
                  CONTENTS, READONLY, DEBUGGING
  4 .debug_pubnames 00001a3e  00000000  00000000  00004622  2**0
                  CONTENTS, READONLY, DEBUGGING
  5 .debug_info   000062a7  00000000  00000000  00006060  2**0
                  CONTENTS, READONLY, DEBUGGING
  6 .debug_abbrev 0000232f  00000000  00000000  0000c307  2**0
                  CONTENTS, READONLY, DEBUGGING
  7 .debug_line   00004944  00000000  00000000  0000e636  2**0
                  CONTENTS, READONLY, DEBUGGING
  8 .debug_frame  00000ec0  00000000  00000000  00012f7c  2**2
                  CONTENTS, READONLY, DEBUGGING
  9 .debug_str    000028f7  00000000  00000000  00013e3c  2**0
                  CONTENTS, READONLY, DEBUGGING
 10 .debug_loc    00003340  00000000  00000000  00016733  2**0
                  CONTENTS, READONLY, DEBUGGING
 11 .debug_ranges 00000760  00000000  00000000  00019a73  2**0
                  CONTENTS, READONLY, DEBUGGING

Disassembly of section .text:

00000000 <__vectors>:
       0:	0c 94 42 00 	jmp	0x84	; 0x84 <__dtors_end>
       4:	0c 94 6a 00 	jmp	0xd4	; 0xd4 <__bad_interrupt>
       8:	0c 94 6a 00 	jmp	0xd4	; 0xd4 <__bad_interrupt>
       c:	0c 94 6a 00 	jmp	0xd4	; 0xd4 <__bad_interrupt>
      10:	0c 94 6a 00 	jmp	0xd4	; 0xd4 <__bad_interrupt>
      14:	0c 94 6a 00 	jmp	0xd4	; 0xd4 <__bad_interrupt>
      18:	0c 94 6a 00 	jmp	0xd4	; 0xd4 <__bad_interrupt>
      1c:	0c 94 6a 00 	jmp	0xd4	; 0xd4 <__bad_interrupt>
      20:	0c 94 6a 00 	jmp	0xd4	; 0xd4 <__bad_interrupt>
      24:	0c 94 48 13 	jmp	0x2690	; 0x2690 <__vector_9>
      28:	0c 94 6a 00 	jmp	0xd4	; 0xd4 <__bad_interrupt>
      2c:	0c 94 6a 00 	jmp	0xd4	; 0xd4 <__bad_interrupt>
      30:	0c 94 6a 00 	jmp	0xd4	; 0xd4 <__bad_interrupt>
      34:	0c 94 c5 0b 	jmp	0x178a	; 0x178a <__vector_13>
      38:	0c 94 6a 00 	jmp	0xd4	; 0xd4 <__bad_interrupt>
      3c:	0c 94 6a 00 	jmp	0xd4	; 0xd4 <__bad_interrupt>
      40:	0c 94 6a 00 	jmp	0xd4	; 0xd4 <__bad_interrupt>
      44:	0c 94 6a 00 	jmp	0xd4	; 0xd4 <__bad_interrupt>
      48:	0c 94 6a 00 	jmp	0xd4	; 0xd4 <__bad_interrupt>
      4c:	0c 94 6a 00 	jmp	0xd4	; 0xd4 <__bad_interrupt>
      50:	0c 94 6a 00 	jmp	0xd4	; 0xd4 <__bad_interrupt>
      54:	0c 94 6a 00 	jmp	0xd4	; 0xd4 <__bad_interrupt>
      58:	0c 94 6a 00 	jmp	0xd4	; 0xd4 <__bad_interrupt>
      5c:	0c 94 6a 00 	jmp	0xd4	; 0xd4 <__bad_interrupt>
      60:	0c 94 6a 00 	jmp	0xd4	; 0xd4 <__bad_interrupt>
      64:	0c 94 6a 00 	jmp	0xd4	; 0xd4 <__bad_interrupt>
      68:	e5 08       	sbc	r14, r5
      6a:	eb 08       	sbc	r14, r11
      6c:	ee 08       	sbc	r14, r14
      6e:	f1 08       	sbc	r15, r1
      70:	f4 08       	sbc	r15, r4
      72:	f7 08       	sbc	r15, r7
      74:	fa 08       	sbc	r15, r10
      76:	fd 08       	sbc	r15, r13
      78:	00 09       	sbc	r16, r0
      7a:	03 09       	sbc	r16, r3
      7c:	06 09       	sbc	r16, r6
      7e:	09 09       	sbc	r16, r9

00000080 <__ctors_start>:
      80:	68 14       	cp	r6, r8

00000082 <__ctors_end>:
      82:	69 14       	cp	r6, r9

00000084 <__dtors_end>:
      84:	11 24       	eor	r1, r1
      86:	1f be       	out	0x3f, r1	; 63
      88:	cf ef       	ldi	r28, 0xFF	; 255
      8a:	d4 e0       	ldi	r29, 0x04	; 4
      8c:	de bf       	out	0x3e, r29	; 62
      8e:	cd bf       	out	0x3d, r28	; 61

00000090 <__do_copy_data>:
      90:	12 e0       	ldi	r17, 0x02	; 2
      92:	a0 e0       	ldi	r26, 0x00	; 0
      94:	b1 e0       	ldi	r27, 0x01	; 1
      96:	ec e0       	ldi	r30, 0x0C	; 12
      98:	fc e3       	ldi	r31, 0x3C	; 60
      9a:	02 c0       	rjmp	.+4      	; 0xa0 <.do_copy_data_start>

0000009c <.do_copy_data_loop>:
      9c:	05 90       	lpm	r0, Z+
      9e:	0d 92       	st	X+, r0

000000a0 <.do_copy_data_start>:
      a0:	aa 32       	cpi	r26, 0x2A	; 42
      a2:	b1 07       	cpc	r27, r17
      a4:	d9 f7       	brne	.-10     	; 0x9c <.do_copy_data_loop>

000000a6 <__do_clear_bss>:
      a6:	12 e0       	ldi	r17, 0x02	; 2
      a8:	aa e2       	ldi	r26, 0x2A	; 42
      aa:	b2 e0       	ldi	r27, 0x02	; 2
      ac:	01 c0       	rjmp	.+2      	; 0xb0 <.do_clear_bss_start>

000000ae <.do_clear_bss_loop>:
      ae:	1d 92       	st	X+, r1

000000b0 <.do_clear_bss_start>:
      b0:	a7 3a       	cpi	r26, 0xA7	; 167
      b2:	b1 07       	cpc	r27, r17
      b4:	e1 f7       	brne	.-8      	; 0xae <.do_clear_bss_loop>

000000b6 <__do_global_ctors>:
      b6:	10 e0       	ldi	r17, 0x00	; 0
      b8:	c2 e8       	ldi	r28, 0x82	; 130
      ba:	d0 e0       	ldi	r29, 0x00	; 0
      bc:	04 c0       	rjmp	.+8      	; 0xc6 <.do_global_ctors_start>

000000be <.do_global_ctors_loop>:
      be:	22 97       	sbiw	r28, 0x02	; 2
      c0:	fe 01       	movw	r30, r28
      c2:	0e 94 81 1c 	call	0x3902	; 0x3902 <__tablejump__>

000000c6 <.do_global_ctors_start>:
      c6:	c0 38       	cpi	r28, 0x80	; 128
      c8:	d1 07       	cpc	r29, r17
      ca:	c9 f7       	brne	.-14     	; 0xbe <.do_global_ctors_loop>
      cc:	0e 94 2d 01 	call	0x25a	; 0x25a <main>
      d0:	0c 94 f9 1d 	jmp	0x3bf2	; 0x3bf2 <__do_global_dtors>

000000d4 <__bad_interrupt>:
      d4:	0c 94 00 00 	jmp	0	; 0x0 <__vectors>

000000d8 <turn_right>:
	set_motors(0,0);
}

//////////////////////////////////////////////////////////////////
void turn_right(int power, int angle)
{
      d8:	af 92       	push	r10
      da:	bf 92       	push	r11
      dc:	cf 92       	push	r12
      de:	df 92       	push	r13
      e0:	ef 92       	push	r14
      e2:	ff 92       	push	r15
      e4:	0f 93       	push	r16
      e6:	1f 93       	push	r17
      e8:	5c 01       	movw	r10, r24
      ea:	7b 01       	movw	r14, r22
	int delay = (DELAY_PER_ANGLE_PER_POWER * angle)/power;

	set_motors(power,-power);
      ec:	66 27       	eor	r22, r22
      ee:	77 27       	eor	r23, r23
      f0:	68 1b       	sub	r22, r24
      f2:	79 0b       	sbc	r23, r25
      f4:	0e 94 3b 11 	call	0x2276	; 0x2276 <set_motors>
	delay_ms(delay);
      f8:	00 27       	eor	r16, r16
      fa:	f7 fc       	sbrc	r15, 7
      fc:	00 95       	com	r16
      fe:	10 2f       	mov	r17, r16
     100:	c8 01       	movw	r24, r16
     102:	b7 01       	movw	r22, r14
     104:	0e 94 93 03 	call	0x726	; 0x726 <__floatsisf>
     108:	28 e4       	ldi	r18, 0x48	; 72
     10a:	31 ee       	ldi	r19, 0xE1	; 225
     10c:	4a e5       	ldi	r20, 0x5A	; 90
     10e:	53 e4       	ldi	r21, 0x43	; 67
     110:	0e 94 ed 01 	call	0x3da	; 0x3da <__mulsf3>
     114:	7b 01       	movw	r14, r22
     116:	8c 01       	movw	r16, r24
     118:	cc 24       	eor	r12, r12
     11a:	b7 fc       	sbrc	r11, 7
     11c:	c0 94       	com	r12
     11e:	dc 2c       	mov	r13, r12
     120:	c6 01       	movw	r24, r12
     122:	b5 01       	movw	r22, r10
     124:	0e 94 93 03 	call	0x726	; 0x726 <__floatsisf>
     128:	9b 01       	movw	r18, r22
     12a:	ac 01       	movw	r20, r24
     12c:	c8 01       	movw	r24, r16
     12e:	b7 01       	movw	r22, r14
     130:	0e 94 e7 02 	call	0x5ce	; 0x5ce <__divsf3>
     134:	0e 94 f1 03 	call	0x7e2	; 0x7e2 <__fixsfsi>
     138:	dc 01       	movw	r26, r24
     13a:	cb 01       	movw	r24, r22
     13c:	0e 94 82 13 	call	0x2704	; 0x2704 <delay_ms>
	set_motors(0,0);
     140:	80 e0       	ldi	r24, 0x00	; 0
     142:	90 e0       	ldi	r25, 0x00	; 0
     144:	60 e0       	ldi	r22, 0x00	; 0
     146:	70 e0       	ldi	r23, 0x00	; 0
     148:	0e 94 3b 11 	call	0x2276	; 0x2276 <set_motors>
}
     14c:	1f 91       	pop	r17
     14e:	0f 91       	pop	r16
     150:	ff 90       	pop	r15
     152:	ef 90       	pop	r14
     154:	df 90       	pop	r13
     156:	cf 90       	pop	r12
     158:	bf 90       	pop	r11
     15a:	af 90       	pop	r10
     15c:	08 95       	ret

0000015e <turn_left>:
	delay_ms(500);
}

//////////////////////////////////////////////////////////////////
void turn_left(int power, int angle)
{
     15e:	af 92       	push	r10
     160:	bf 92       	push	r11
     162:	cf 92       	push	r12
     164:	df 92       	push	r13
     166:	ef 92       	push	r14
     168:	ff 92       	push	r15
     16a:	0f 93       	push	r16
     16c:	1f 93       	push	r17
     16e:	5c 01       	movw	r10, r24
     170:	7b 01       	movw	r14, r22
	int delay = (DELAY_PER_ANGLE_PER_POWER * angle)/power;

	set_motors(-power,power);
     172:	88 27       	eor	r24, r24
     174:	99 27       	eor	r25, r25
     176:	8a 19       	sub	r24, r10
     178:	9b 09       	sbc	r25, r11
     17a:	b5 01       	movw	r22, r10
     17c:	0e 94 3b 11 	call	0x2276	; 0x2276 <set_motors>
	delay_ms(delay);
     180:	00 27       	eor	r16, r16
     182:	f7 fc       	sbrc	r15, 7
     184:	00 95       	com	r16
     186:	10 2f       	mov	r17, r16
     188:	c8 01       	movw	r24, r16
     18a:	b7 01       	movw	r22, r14
     18c:	0e 94 93 03 	call	0x726	; 0x726 <__floatsisf>
     190:	28 e4       	ldi	r18, 0x48	; 72
     192:	31 ee       	ldi	r19, 0xE1	; 225
     194:	4a e5       	ldi	r20, 0x5A	; 90
     196:	53 e4       	ldi	r21, 0x43	; 67
     198:	0e 94 ed 01 	call	0x3da	; 0x3da <__mulsf3>
     19c:	7b 01       	movw	r14, r22
     19e:	8c 01       	movw	r16, r24
     1a0:	cc 24       	eor	r12, r12
     1a2:	b7 fc       	sbrc	r11, 7
     1a4:	c0 94       	com	r12
     1a6:	dc 2c       	mov	r13, r12
     1a8:	c6 01       	movw	r24, r12
     1aa:	b5 01       	movw	r22, r10
     1ac:	0e 94 93 03 	call	0x726	; 0x726 <__floatsisf>
     1b0:	9b 01       	movw	r18, r22
     1b2:	ac 01       	movw	r20, r24
     1b4:	c8 01       	movw	r24, r16
     1b6:	b7 01       	movw	r22, r14
     1b8:	0e 94 e7 02 	call	0x5ce	; 0x5ce <__divsf3>
     1bc:	0e 94 f1 03 	call	0x7e2	; 0x7e2 <__fixsfsi>
     1c0:	dc 01       	movw	r26, r24
     1c2:	cb 01       	movw	r24, r22
     1c4:	0e 94 82 13 	call	0x2704	; 0x2704 <delay_ms>
	set_motors(0,0);
     1c8:	80 e0       	ldi	r24, 0x00	; 0
     1ca:	90 e0       	ldi	r25, 0x00	; 0
     1cc:	60 e0       	ldi	r22, 0x00	; 0
     1ce:	70 e0       	ldi	r23, 0x00	; 0
     1d0:	0e 94 3b 11 	call	0x2276	; 0x2276 <set_motors>
}
     1d4:	1f 91       	pop	r17
     1d6:	0f 91       	pop	r16
     1d8:	ff 90       	pop	r15
     1da:	ef 90       	pop	r14
     1dc:	df 90       	pop	r13
     1de:	cf 90       	pop	r12
     1e0:	bf 90       	pop	r11
     1e2:	af 90       	pop	r10
     1e4:	08 95       	ret

000001e6 <wait_with_message>:
	while(1);
}

//////////////////////////////////////////////////////////////////
void wait_with_message(char *str)
{
     1e6:	0f 93       	push	r16
     1e8:	1f 93       	push	r17
     1ea:	8c 01       	movw	r16, r24
	 play_frequency(200, 50, 14);
     1ec:	88 ec       	ldi	r24, 0xC8	; 200
     1ee:	90 e0       	ldi	r25, 0x00	; 0
     1f0:	62 e3       	ldi	r22, 0x32	; 50
     1f2:	70 e0       	ldi	r23, 0x00	; 0
     1f4:	4e e0       	ldi	r20, 0x0E	; 14
     1f6:	0e 94 b4 08 	call	0x1168	; 0x1168 <play_frequency>
	 delay_ms(75);
     1fa:	8b e4       	ldi	r24, 0x4B	; 75
     1fc:	90 e0       	ldi	r25, 0x00	; 0
     1fe:	0e 94 82 13 	call	0x2704	; 0x2704 <delay_ms>
	 play_frequency(300, 50, 14);
     202:	8c e2       	ldi	r24, 0x2C	; 44
     204:	91 e0       	ldi	r25, 0x01	; 1
     206:	62 e3       	ldi	r22, 0x32	; 50
     208:	70 e0       	ldi	r23, 0x00	; 0
     20a:	4e e0       	ldi	r20, 0x0E	; 14
     20c:	0e 94 b4 08 	call	0x1168	; 0x1168 <play_frequency>

	 play_frequency(200, 50, 14);
     210:	88 ec       	ldi	r24, 0xC8	; 200
     212:	90 e0       	ldi	r25, 0x00	; 0
     214:	62 e3       	ldi	r22, 0x32	; 50
     216:	70 e0       	ldi	r23, 0x00	; 0
     218:	4e e0       	ldi	r20, 0x0E	; 14
     21a:	0e 94 b4 08 	call	0x1168	; 0x1168 <play_frequency>
	 delay_ms(75);
     21e:	8b e4       	ldi	r24, 0x4B	; 75
     220:	90 e0       	ldi	r25, 0x00	; 0
     222:	0e 94 82 13 	call	0x2704	; 0x2704 <delay_ms>
	 play_frequency(300, 50, 14);
     226:	8c e2       	ldi	r24, 0x2C	; 44
     228:	91 e0       	ldi	r25, 0x01	; 1
     22a:	62 e3       	ldi	r22, 0x32	; 50
     22c:	70 e0       	ldi	r23, 0x00	; 0
     22e:	4e e0       	ldi	r20, 0x0E	; 14
     230:	0e 94 b4 08 	call	0x1168	; 0x1168 <play_frequency>

	lcd_goto_xy(0,0);
     234:	80 e0       	ldi	r24, 0x00	; 0
     236:	60 e0       	ldi	r22, 0x00	; 0
     238:	0e 94 dd 0d 	call	0x1bba	; 0x1bba <lcd_goto_xy>
	print(str);
     23c:	c8 01       	movw	r24, r16
     23e:	0e 94 f9 0e 	call	0x1df2	; 0x1df2 <print>

	while(!button_is_pressed(BUTTON_B));
     242:	80 e1       	ldi	r24, 0x10	; 16
     244:	0e 94 70 11 	call	0x22e0	; 0x22e0 <button_is_pressed>
     248:	88 23       	and	r24, r24
     24a:	d9 f3       	breq	.-10     	; 0x242 <wait_with_message+0x5c>
	delay_ms(500);
     24c:	84 ef       	ldi	r24, 0xF4	; 244
     24e:	91 e0       	ldi	r25, 0x01	; 1
     250:	0e 94 82 13 	call	0x2704	; 0x2704 <delay_ms>
}
     254:	1f 91       	pop	r17
     256:	0f 91       	pop	r16
     258:	08 95       	ret

0000025a <main>:
#include <pololu/3pi.h>

#define DELAY_PER_ANGLE_PER_POWER 218.88

int main()
{
     25a:	8f 92       	push	r8
     25c:	9f 92       	push	r9
     25e:	af 92       	push	r10
     260:	bf 92       	push	r11
     262:	cf 92       	push	r12
     264:	df 92       	push	r13
     266:	ef 92       	push	r14
     268:	ff 92       	push	r15
     26a:	0f 93       	push	r16
     26c:	1f 93       	push	r17
     26e:	df 93       	push	r29
     270:	cf 93       	push	r28
     272:	cd b7       	in	r28, 0x3d	; 61
     274:	de b7       	in	r29, 0x3e	; 62
     276:	2a 97       	sbiw	r28, 0x0a	; 10
     278:	0f b6       	in	r0, 0x3f	; 63
     27a:	f8 94       	cli
     27c:	de bf       	out	0x3e, r29	; 62
     27e:	0f be       	out	0x3f, r0	; 63
     280:	cd bf       	out	0x3d, r28	; 61
	// wait
	wait_with_message("Press B");
     282:	80 e0       	ldi	r24, 0x00	; 0
     284:	91 e0       	ldi	r25, 0x01	; 1
     286:	0e 94 f3 00 	call	0x1e6	; 0x1e6 <wait_with_message>

	// init and calibrate light sensors
	unsigned int sensors[5];
	pololu_3pi_init_disable_emitter_pin(2000); // (2000 for the timeout corresponds to 2000*0.4 us = 0.8 ms on our 20 MHz processor)
     28a:	80 ed       	ldi	r24, 0xD0	; 208
     28c:	97 e0       	ldi	r25, 0x07	; 7
     28e:	0e 94 f3 14 	call	0x29e6	; 0x29e6 <pololu_3pi_init_disable_emitter_pin>
	wait_for_button_release(BUTTON_B);
     292:	80 e1       	ldi	r24, 0x10	; 16
     294:	0e 94 f2 12 	call	0x25e4	; 0x25e4 <wait_for_button_release>
	delay_ms(1000);
     298:	88 ee       	ldi	r24, 0xE8	; 232
     29a:	93 e0       	ldi	r25, 0x03	; 3
     29c:	0e 94 82 13 	call	0x2704	; 0x2704 <delay_ms>
     2a0:	0c ee       	ldi	r16, 0xEC	; 236
     2a2:	1f ef       	ldi	r17, 0xFF	; 255
	for(int counter=0;counter<80;counter++)
	{
		if(counter < 20 || counter >= 60)
     2a4:	08 32       	cpi	r16, 0x28	; 40
     2a6:	11 05       	cpc	r17, r1
     2a8:	28 f0       	brcs	.+10     	; 0x2b4 <main+0x5a>
			set_motors(40,-40);
     2aa:	88 e2       	ldi	r24, 0x28	; 40
     2ac:	90 e0       	ldi	r25, 0x00	; 0
     2ae:	68 ed       	ldi	r22, 0xD8	; 216
     2b0:	7f ef       	ldi	r23, 0xFF	; 255
     2b2:	04 c0       	rjmp	.+8      	; 0x2bc <main+0x62>
		else
			set_motors(-40,40);
     2b4:	88 ed       	ldi	r24, 0xD8	; 216
     2b6:	9f ef       	ldi	r25, 0xFF	; 255
     2b8:	68 e2       	ldi	r22, 0x28	; 40
     2ba:	70 e0       	ldi	r23, 0x00	; 0
     2bc:	0e 94 3b 11 	call	0x2276	; 0x2276 <set_motors>

		calibrate_line_sensors(IR_EMITTERS_ON);
     2c0:	81 e0       	ldi	r24, 0x01	; 1
     2c2:	0e 94 97 14 	call	0x292e	; 0x292e <calibrate_line_sensors>

		delay_ms(20);
     2c6:	84 e1       	ldi	r24, 0x14	; 20
     2c8:	90 e0       	ldi	r25, 0x00	; 0
     2ca:	0e 94 82 13 	call	0x2704	; 0x2704 <delay_ms>
     2ce:	0f 5f       	subi	r16, 0xFF	; 255
     2d0:	1f 4f       	sbci	r17, 0xFF	; 255
	// init and calibrate light sensors
	unsigned int sensors[5];
	pololu_3pi_init_disable_emitter_pin(2000); // (2000 for the timeout corresponds to 2000*0.4 us = 0.8 ms on our 20 MHz processor)
	wait_for_button_release(BUTTON_B);
	delay_ms(1000);
	for(int counter=0;counter<80;counter++)
     2d2:	0c 33       	cpi	r16, 0x3C	; 60
     2d4:	11 05       	cpc	r17, r1
     2d6:	31 f7       	brne	.-52     	; 0x2a4 <main+0x4a>

		calibrate_line_sensors(IR_EMITTERS_ON);

		delay_ms(20);
	}
	set_motors(0,0);
     2d8:	80 e0       	ldi	r24, 0x00	; 0
     2da:	90 e0       	ldi	r25, 0x00	; 0
     2dc:	60 e0       	ldi	r22, 0x00	; 0
     2de:	70 e0       	ldi	r23, 0x00	; 0
     2e0:	0e 94 3b 11 	call	0x2276	; 0x2276 <set_motors>
static inline void set_analog_mode(unsigned char mode)
{
	if (mode == MODE_10_BIT)
		ADMUX &= ~(1 << ADLAR);	// right-adjust result (ADC has result)
	else
		ADMUX |= 1 << ADLAR;		// left-adjust result (ADCH has result)	
     2e4:	80 91 7c 00 	lds	r24, 0x007C
     2e8:	80 62       	ori	r24, 0x20	; 32
     2ea:	80 93 7c 00 	sts	0x007C, r24


	// init IR sensors
	set_analog_mode(MODE_8_BIT);
	DDRC &= ~(1<< PORTC5);
     2ee:	3d 98       	cbi	0x07, 5	; 7
	PORTC &= ~(1<< PORTC5);
     2f0:	45 98       	cbi	0x08, 5	; 8

	// wait
	wait_with_message("Press B");
     2f2:	80 e0       	ldi	r24, 0x00	; 0
     2f4:	91 e0       	ldi	r25, 0x01	; 1
     2f6:	0e 94 f3 00 	call	0x1e6	; 0x1e6 <wait_with_message>
	delay_ms(1000);
     2fa:	88 ee       	ldi	r24, 0xE8	; 232
     2fc:	93 e0       	ldi	r25, 0x03	; 3
     2fe:	0e 94 82 13 	call	0x2704	; 0x2704 <delay_ms>
     302:	cc 24       	eor	r12, r12
     304:	dd 24       	eor	r13, r13
	int set_point = 0;

	while(1)
	{
		// check light sensors for our boundary
		unsigned int position = read_line(sensors,IR_EMITTERS_ON);
     306:	4e 01       	movw	r8, r28
     308:	08 94       	sec
     30a:	81 1c       	adc	r8, r1
     30c:	91 1c       	adc	r9, r1
			set_point = 1;
			set_motors(25,25);
		}
		else
		{
			set_motors(left_speed + balance,right_speed - balance);
     30e:	9e e6       	ldi	r25, 0x6E	; 110
     310:	a9 2e       	mov	r10, r25
     312:	b1 2c       	mov	r11, r1
	int set_point = 0;

	while(1)
	{
		// check light sensors for our boundary
		unsigned int position = read_line(sensors,IR_EMITTERS_ON);
     314:	c4 01       	movw	r24, r8
     316:	61 e0       	ldi	r22, 0x01	; 1
     318:	0e 94 7c 14 	call	0x28f8	; 0x28f8 <read_line>
     31c:	9c 01       	movw	r18, r24

		if(position > 5 && position < 1000)
     31e:	06 97       	sbiw	r24, 0x06	; 6
     320:	82 5e       	subi	r24, 0xE2	; 226
     322:	93 40       	sbci	r25, 0x03	; 3
     324:	28 f4       	brcc	.+10     	; 0x330 <main+0xd6>
		{
			turn_right(55,65);
     326:	87 e3       	ldi	r24, 0x37	; 55
     328:	90 e0       	ldi	r25, 0x00	; 0
     32a:	61 e4       	ldi	r22, 0x41	; 65
     32c:	70 e0       	ldi	r23, 0x00	; 0
     32e:	0a c0       	rjmp	.+20     	; 0x344 <main+0xea>
		}
		else if(position > 1000 && position < 1800)
     330:	c9 01       	movw	r24, r18
     332:	89 5e       	subi	r24, 0xE9	; 233
     334:	93 40       	sbci	r25, 0x03	; 3
     336:	8f 51       	subi	r24, 0x1F	; 31
     338:	93 40       	sbci	r25, 0x03	; 3
     33a:	38 f4       	brcc	.+14     	; 0x34a <main+0xf0>
		{
			turn_right(55,95);
     33c:	87 e3       	ldi	r24, 0x37	; 55
     33e:	90 e0       	ldi	r25, 0x00	; 0
     340:	6f e5       	ldi	r22, 0x5F	; 95
     342:	70 e0       	ldi	r23, 0x00	; 0
     344:	0e 94 6c 00 	call	0xd8	; 0xd8 <turn_right>
     348:	16 c0       	rjmp	.+44     	; 0x376 <main+0x11c>
		}
		else if(position > 1800 && position < 3000)
     34a:	c9 01       	movw	r24, r18
     34c:	89 50       	subi	r24, 0x09	; 9
     34e:	97 40       	sbci	r25, 0x07	; 7
     350:	8f 5a       	subi	r24, 0xAF	; 175
     352:	94 40       	sbci	r25, 0x04	; 4
     354:	28 f4       	brcc	.+10     	; 0x360 <main+0x106>
		{
			turn_left(55,95);
     356:	87 e3       	ldi	r24, 0x37	; 55
     358:	90 e0       	ldi	r25, 0x00	; 0
     35a:	6f e5       	ldi	r22, 0x5F	; 95
     35c:	70 e0       	ldi	r23, 0x00	; 0
     35e:	09 c0       	rjmp	.+18     	; 0x372 <main+0x118>
		}
		else if(position > 3000 && position < 3995)
     360:	29 5b       	subi	r18, 0xB9	; 185
     362:	3b 40       	sbci	r19, 0x0B	; 11
     364:	22 5e       	subi	r18, 0xE2	; 226
     366:	33 40       	sbci	r19, 0x03	; 3
     368:	30 f4       	brcc	.+12     	; 0x376 <main+0x11c>
		{
			turn_left(55,65);
     36a:	87 e3       	ldi	r24, 0x37	; 55
     36c:	90 e0       	ldi	r25, 0x00	; 0
     36e:	61 e4       	ldi	r22, 0x41	; 65
     370:	70 e0       	ldi	r23, 0x00	; 0
     372:	0e 94 af 00 	call	0x15e	; 0x15e <turn_left>
		}

		// check IR sensors
		int left = analog_read(6);
     376:	86 e0       	ldi	r24, 0x06	; 6
     378:	0e 94 3a 06 	call	0xc74	; 0xc74 <analog_read>
     37c:	7c 01       	movw	r14, r24
		int right = analog_read(5);
     37e:	85 e0       	ldi	r24, 0x05	; 5
     380:	0e 94 3a 06 	call	0xc74	; 0xc74 <analog_read>
     384:	8c 01       	movw	r16, r24
		int front = analog_read(7);
     386:	87 e0       	ldi	r24, 0x07	; 7
     388:	0e 94 3a 06 	call	0xc74	; 0xc74 <analog_read>
     38c:	9c 01       	movw	r18, r24
			lcd_goto_xy(0,1);
			print_long(right);
		}*/

		int balance = 0;
		if (left > 20 || right > 20)
     38e:	45 e1       	ldi	r20, 0x15	; 21
     390:	e4 16       	cp	r14, r20
     392:	f1 04       	cpc	r15, r1
     394:	34 f4       	brge	.+12     	; 0x3a2 <main+0x148>
     396:	05 31       	cpi	r16, 0x15	; 21
     398:	11 05       	cpc	r17, r1
     39a:	1c f4       	brge	.+6      	; 0x3a2 <main+0x148>
     39c:	80 e0       	ldi	r24, 0x00	; 0
     39e:	90 e0       	ldi	r25, 0x00	; 0
     3a0:	04 c0       	rjmp	.+8      	; 0x3aa <main+0x150>
		{
			balance = right - left - 20;
     3a2:	c8 01       	movw	r24, r16
     3a4:	44 97       	sbiw	r24, 0x14	; 20
     3a6:	8e 19       	sub	r24, r14
     3a8:	9f 09       	sbc	r25, r15
		}

		if (set_point == 0 && front > 162)
     3aa:	c1 14       	cp	r12, r1
     3ac:	d1 04       	cpc	r13, r1
     3ae:	69 f4       	brne	.+26     	; 0x3ca <main+0x170>
     3b0:	23 3a       	cpi	r18, 0xA3	; 163
     3b2:	31 05       	cpc	r19, r1
     3b4:	54 f0       	brlt	.+20     	; 0x3ca <main+0x170>
		{
			set_point = 1;
			set_motors(25,25);
     3b6:	89 e1       	ldi	r24, 0x19	; 25
     3b8:	90 e0       	ldi	r25, 0x00	; 0
     3ba:	69 e1       	ldi	r22, 0x19	; 25
     3bc:	70 e0       	ldi	r23, 0x00	; 0
     3be:	0e 94 3b 11 	call	0x2276	; 0x2276 <set_motors>
     3c2:	81 e0       	ldi	r24, 0x01	; 1
     3c4:	c8 2e       	mov	r12, r24
     3c6:	d1 2c       	mov	r13, r1
     3c8:	a5 cf       	rjmp	.-182    	; 0x314 <main+0xba>
		}
		else
		{
			set_motors(left_speed + balance,right_speed - balance);
     3ca:	b5 01       	movw	r22, r10
     3cc:	68 1b       	sub	r22, r24
     3ce:	79 0b       	sbc	r23, r25
     3d0:	82 59       	subi	r24, 0x92	; 146
     3d2:	9f 4f       	sbci	r25, 0xFF	; 255
     3d4:	0e 94 3b 11 	call	0x2276	; 0x2276 <set_motors>
     3d8:	9d cf       	rjmp	.-198    	; 0x314 <main+0xba>

000003da <__mulsf3>:
     3da:	a0 e2       	ldi	r26, 0x20	; 32
     3dc:	b0 e0       	ldi	r27, 0x00	; 0
     3de:	e3 ef       	ldi	r30, 0xF3	; 243
     3e0:	f1 e0       	ldi	r31, 0x01	; 1
     3e2:	0c 94 48 1c 	jmp	0x3890	; 0x3890 <__prologue_saves__>
     3e6:	69 83       	std	Y+1, r22	; 0x01
     3e8:	7a 83       	std	Y+2, r23	; 0x02
     3ea:	8b 83       	std	Y+3, r24	; 0x03
     3ec:	9c 83       	std	Y+4, r25	; 0x04
     3ee:	2d 83       	std	Y+5, r18	; 0x05
     3f0:	3e 83       	std	Y+6, r19	; 0x06
     3f2:	4f 83       	std	Y+7, r20	; 0x07
     3f4:	58 87       	std	Y+8, r21	; 0x08
     3f6:	ce 01       	movw	r24, r28
     3f8:	01 96       	adiw	r24, 0x01	; 1
     3fa:	be 01       	movw	r22, r28
     3fc:	67 5f       	subi	r22, 0xF7	; 247
     3fe:	7f 4f       	sbci	r23, 0xFF	; 255
     400:	0e 94 69 05 	call	0xad2	; 0xad2 <__unpack_f>
     404:	ce 01       	movw	r24, r28
     406:	05 96       	adiw	r24, 0x05	; 5
     408:	be 01       	movw	r22, r28
     40a:	6f 5e       	subi	r22, 0xEF	; 239
     40c:	7f 4f       	sbci	r23, 0xFF	; 255
     40e:	0e 94 69 05 	call	0xad2	; 0xad2 <__unpack_f>
     412:	99 85       	ldd	r25, Y+9	; 0x09
     414:	92 30       	cpi	r25, 0x02	; 2
     416:	88 f0       	brcs	.+34     	; 0x43a <__mulsf3+0x60>
     418:	89 89       	ldd	r24, Y+17	; 0x11
     41a:	82 30       	cpi	r24, 0x02	; 2
     41c:	c8 f0       	brcs	.+50     	; 0x450 <__mulsf3+0x76>
     41e:	94 30       	cpi	r25, 0x04	; 4
     420:	19 f4       	brne	.+6      	; 0x428 <__mulsf3+0x4e>
     422:	82 30       	cpi	r24, 0x02	; 2
     424:	51 f4       	brne	.+20     	; 0x43a <__mulsf3+0x60>
     426:	04 c0       	rjmp	.+8      	; 0x430 <__mulsf3+0x56>
     428:	84 30       	cpi	r24, 0x04	; 4
     42a:	29 f4       	brne	.+10     	; 0x436 <__mulsf3+0x5c>
     42c:	92 30       	cpi	r25, 0x02	; 2
     42e:	81 f4       	brne	.+32     	; 0x450 <__mulsf3+0x76>
     430:	8b e1       	ldi	r24, 0x1B	; 27
     432:	91 e0       	ldi	r25, 0x01	; 1
     434:	c6 c0       	rjmp	.+396    	; 0x5c2 <__stack+0xc3>
     436:	92 30       	cpi	r25, 0x02	; 2
     438:	49 f4       	brne	.+18     	; 0x44c <__mulsf3+0x72>
     43a:	20 e0       	ldi	r18, 0x00	; 0
     43c:	9a 85       	ldd	r25, Y+10	; 0x0a
     43e:	8a 89       	ldd	r24, Y+18	; 0x12
     440:	98 13       	cpse	r25, r24
     442:	21 e0       	ldi	r18, 0x01	; 1
     444:	2a 87       	std	Y+10, r18	; 0x0a
     446:	ce 01       	movw	r24, r28
     448:	09 96       	adiw	r24, 0x09	; 9
     44a:	bb c0       	rjmp	.+374    	; 0x5c2 <__stack+0xc3>
     44c:	82 30       	cpi	r24, 0x02	; 2
     44e:	49 f4       	brne	.+18     	; 0x462 <__mulsf3+0x88>
     450:	20 e0       	ldi	r18, 0x00	; 0
     452:	9a 85       	ldd	r25, Y+10	; 0x0a
     454:	8a 89       	ldd	r24, Y+18	; 0x12
     456:	98 13       	cpse	r25, r24
     458:	21 e0       	ldi	r18, 0x01	; 1
     45a:	2a 8b       	std	Y+18, r18	; 0x12
     45c:	ce 01       	movw	r24, r28
     45e:	41 96       	adiw	r24, 0x11	; 17
     460:	b0 c0       	rjmp	.+352    	; 0x5c2 <__stack+0xc3>
     462:	2d 84       	ldd	r2, Y+13	; 0x0d
     464:	3e 84       	ldd	r3, Y+14	; 0x0e
     466:	4f 84       	ldd	r4, Y+15	; 0x0f
     468:	58 88       	ldd	r5, Y+16	; 0x10
     46a:	6d 88       	ldd	r6, Y+21	; 0x15
     46c:	7e 88       	ldd	r7, Y+22	; 0x16
     46e:	8f 88       	ldd	r8, Y+23	; 0x17
     470:	98 8c       	ldd	r9, Y+24	; 0x18
     472:	ee 24       	eor	r14, r14
     474:	ff 24       	eor	r15, r15
     476:	87 01       	movw	r16, r14
     478:	aa 24       	eor	r10, r10
     47a:	bb 24       	eor	r11, r11
     47c:	65 01       	movw	r12, r10
     47e:	40 e0       	ldi	r20, 0x00	; 0
     480:	50 e0       	ldi	r21, 0x00	; 0
     482:	60 e0       	ldi	r22, 0x00	; 0
     484:	70 e0       	ldi	r23, 0x00	; 0
     486:	e0 e0       	ldi	r30, 0x00	; 0
     488:	f0 e0       	ldi	r31, 0x00	; 0
     48a:	c1 01       	movw	r24, r2
     48c:	81 70       	andi	r24, 0x01	; 1
     48e:	90 70       	andi	r25, 0x00	; 0
     490:	89 2b       	or	r24, r25
     492:	e9 f0       	breq	.+58     	; 0x4ce <__mulsf3+0xf4>
     494:	e6 0c       	add	r14, r6
     496:	f7 1c       	adc	r15, r7
     498:	08 1d       	adc	r16, r8
     49a:	19 1d       	adc	r17, r9
     49c:	9a 01       	movw	r18, r20
     49e:	ab 01       	movw	r20, r22
     4a0:	2a 0d       	add	r18, r10
     4a2:	3b 1d       	adc	r19, r11
     4a4:	4c 1d       	adc	r20, r12
     4a6:	5d 1d       	adc	r21, r13
     4a8:	80 e0       	ldi	r24, 0x00	; 0
     4aa:	90 e0       	ldi	r25, 0x00	; 0
     4ac:	a0 e0       	ldi	r26, 0x00	; 0
     4ae:	b0 e0       	ldi	r27, 0x00	; 0
     4b0:	e6 14       	cp	r14, r6
     4b2:	f7 04       	cpc	r15, r7
     4b4:	08 05       	cpc	r16, r8
     4b6:	19 05       	cpc	r17, r9
     4b8:	20 f4       	brcc	.+8      	; 0x4c2 <__mulsf3+0xe8>
     4ba:	81 e0       	ldi	r24, 0x01	; 1
     4bc:	90 e0       	ldi	r25, 0x00	; 0
     4be:	a0 e0       	ldi	r26, 0x00	; 0
     4c0:	b0 e0       	ldi	r27, 0x00	; 0
     4c2:	ba 01       	movw	r22, r20
     4c4:	a9 01       	movw	r20, r18
     4c6:	48 0f       	add	r20, r24
     4c8:	59 1f       	adc	r21, r25
     4ca:	6a 1f       	adc	r22, r26
     4cc:	7b 1f       	adc	r23, r27
     4ce:	aa 0c       	add	r10, r10
     4d0:	bb 1c       	adc	r11, r11
     4d2:	cc 1c       	adc	r12, r12
     4d4:	dd 1c       	adc	r13, r13
     4d6:	97 fe       	sbrs	r9, 7
     4d8:	08 c0       	rjmp	.+16     	; 0x4ea <__mulsf3+0x110>
     4da:	81 e0       	ldi	r24, 0x01	; 1
     4dc:	90 e0       	ldi	r25, 0x00	; 0
     4de:	a0 e0       	ldi	r26, 0x00	; 0
     4e0:	b0 e0       	ldi	r27, 0x00	; 0
     4e2:	a8 2a       	or	r10, r24
     4e4:	b9 2a       	or	r11, r25
     4e6:	ca 2a       	or	r12, r26
     4e8:	db 2a       	or	r13, r27
     4ea:	31 96       	adiw	r30, 0x01	; 1
     4ec:	e0 32       	cpi	r30, 0x20	; 32
     4ee:	f1 05       	cpc	r31, r1
     4f0:	49 f0       	breq	.+18     	; 0x504 <__stack+0x5>
     4f2:	66 0c       	add	r6, r6
     4f4:	77 1c       	adc	r7, r7
     4f6:	88 1c       	adc	r8, r8
     4f8:	99 1c       	adc	r9, r9
     4fa:	56 94       	lsr	r5
     4fc:	47 94       	ror	r4
     4fe:	37 94       	ror	r3
     500:	27 94       	ror	r2
     502:	c3 cf       	rjmp	.-122    	; 0x48a <__mulsf3+0xb0>
     504:	fa 85       	ldd	r31, Y+10	; 0x0a
     506:	ea 89       	ldd	r30, Y+18	; 0x12
     508:	2b 89       	ldd	r18, Y+19	; 0x13
     50a:	3c 89       	ldd	r19, Y+20	; 0x14
     50c:	8b 85       	ldd	r24, Y+11	; 0x0b
     50e:	9c 85       	ldd	r25, Y+12	; 0x0c
     510:	28 0f       	add	r18, r24
     512:	39 1f       	adc	r19, r25
     514:	2e 5f       	subi	r18, 0xFE	; 254
     516:	3f 4f       	sbci	r19, 0xFF	; 255
     518:	17 c0       	rjmp	.+46     	; 0x548 <__stack+0x49>
     51a:	ca 01       	movw	r24, r20
     51c:	81 70       	andi	r24, 0x01	; 1
     51e:	90 70       	andi	r25, 0x00	; 0
     520:	89 2b       	or	r24, r25
     522:	61 f0       	breq	.+24     	; 0x53c <__stack+0x3d>
     524:	16 95       	lsr	r17
     526:	07 95       	ror	r16
     528:	f7 94       	ror	r15
     52a:	e7 94       	ror	r14
     52c:	80 e0       	ldi	r24, 0x00	; 0
     52e:	90 e0       	ldi	r25, 0x00	; 0
     530:	a0 e0       	ldi	r26, 0x00	; 0
     532:	b0 e8       	ldi	r27, 0x80	; 128
     534:	e8 2a       	or	r14, r24
     536:	f9 2a       	or	r15, r25
     538:	0a 2b       	or	r16, r26
     53a:	1b 2b       	or	r17, r27
     53c:	76 95       	lsr	r23
     53e:	67 95       	ror	r22
     540:	57 95       	ror	r21
     542:	47 95       	ror	r20
     544:	2f 5f       	subi	r18, 0xFF	; 255
     546:	3f 4f       	sbci	r19, 0xFF	; 255
     548:	77 fd       	sbrc	r23, 7
     54a:	e7 cf       	rjmp	.-50     	; 0x51a <__stack+0x1b>
     54c:	0c c0       	rjmp	.+24     	; 0x566 <__stack+0x67>
     54e:	44 0f       	add	r20, r20
     550:	55 1f       	adc	r21, r21
     552:	66 1f       	adc	r22, r22
     554:	77 1f       	adc	r23, r23
     556:	17 fd       	sbrc	r17, 7
     558:	41 60       	ori	r20, 0x01	; 1
     55a:	ee 0c       	add	r14, r14
     55c:	ff 1c       	adc	r15, r15
     55e:	00 1f       	adc	r16, r16
     560:	11 1f       	adc	r17, r17
     562:	21 50       	subi	r18, 0x01	; 1
     564:	30 40       	sbci	r19, 0x00	; 0
     566:	40 30       	cpi	r20, 0x00	; 0
     568:	90 e0       	ldi	r25, 0x00	; 0
     56a:	59 07       	cpc	r21, r25
     56c:	90 e0       	ldi	r25, 0x00	; 0
     56e:	69 07       	cpc	r22, r25
     570:	90 e4       	ldi	r25, 0x40	; 64
     572:	79 07       	cpc	r23, r25
     574:	60 f3       	brcs	.-40     	; 0x54e <__stack+0x4f>
     576:	2b 8f       	std	Y+27, r18	; 0x1b
     578:	3c 8f       	std	Y+28, r19	; 0x1c
     57a:	db 01       	movw	r26, r22
     57c:	ca 01       	movw	r24, r20
     57e:	8f 77       	andi	r24, 0x7F	; 127
     580:	90 70       	andi	r25, 0x00	; 0
     582:	a0 70       	andi	r26, 0x00	; 0
     584:	b0 70       	andi	r27, 0x00	; 0
     586:	80 34       	cpi	r24, 0x40	; 64
     588:	91 05       	cpc	r25, r1
     58a:	a1 05       	cpc	r26, r1
     58c:	b1 05       	cpc	r27, r1
     58e:	61 f4       	brne	.+24     	; 0x5a8 <__stack+0xa9>
     590:	47 fd       	sbrc	r20, 7
     592:	0a c0       	rjmp	.+20     	; 0x5a8 <__stack+0xa9>
     594:	e1 14       	cp	r14, r1
     596:	f1 04       	cpc	r15, r1
     598:	01 05       	cpc	r16, r1
     59a:	11 05       	cpc	r17, r1
     59c:	29 f0       	breq	.+10     	; 0x5a8 <__stack+0xa9>
     59e:	40 5c       	subi	r20, 0xC0	; 192
     5a0:	5f 4f       	sbci	r21, 0xFF	; 255
     5a2:	6f 4f       	sbci	r22, 0xFF	; 255
     5a4:	7f 4f       	sbci	r23, 0xFF	; 255
     5a6:	40 78       	andi	r20, 0x80	; 128
     5a8:	1a 8e       	std	Y+26, r1	; 0x1a
     5aa:	fe 17       	cp	r31, r30
     5ac:	11 f0       	breq	.+4      	; 0x5b2 <__stack+0xb3>
     5ae:	81 e0       	ldi	r24, 0x01	; 1
     5b0:	8a 8f       	std	Y+26, r24	; 0x1a
     5b2:	4d 8f       	std	Y+29, r20	; 0x1d
     5b4:	5e 8f       	std	Y+30, r21	; 0x1e
     5b6:	6f 8f       	std	Y+31, r22	; 0x1f
     5b8:	78 a3       	std	Y+32, r23	; 0x20
     5ba:	83 e0       	ldi	r24, 0x03	; 3
     5bc:	89 8f       	std	Y+25, r24	; 0x19
     5be:	ce 01       	movw	r24, r28
     5c0:	49 96       	adiw	r24, 0x19	; 25
     5c2:	0e 94 94 04 	call	0x928	; 0x928 <__pack_f>
     5c6:	a0 96       	adiw	r28, 0x20	; 32
     5c8:	e2 e1       	ldi	r30, 0x12	; 18
     5ca:	0c 94 64 1c 	jmp	0x38c8	; 0x38c8 <__epilogue_restores__>

000005ce <__divsf3>:
     5ce:	a8 e1       	ldi	r26, 0x18	; 24
     5d0:	b0 e0       	ldi	r27, 0x00	; 0
     5d2:	ed ee       	ldi	r30, 0xED	; 237
     5d4:	f2 e0       	ldi	r31, 0x02	; 2
     5d6:	0c 94 50 1c 	jmp	0x38a0	; 0x38a0 <__prologue_saves__+0x10>
     5da:	69 83       	std	Y+1, r22	; 0x01
     5dc:	7a 83       	std	Y+2, r23	; 0x02
     5de:	8b 83       	std	Y+3, r24	; 0x03
     5e0:	9c 83       	std	Y+4, r25	; 0x04
     5e2:	2d 83       	std	Y+5, r18	; 0x05
     5e4:	3e 83       	std	Y+6, r19	; 0x06
     5e6:	4f 83       	std	Y+7, r20	; 0x07
     5e8:	58 87       	std	Y+8, r21	; 0x08
     5ea:	b9 e0       	ldi	r27, 0x09	; 9
     5ec:	eb 2e       	mov	r14, r27
     5ee:	f1 2c       	mov	r15, r1
     5f0:	ec 0e       	add	r14, r28
     5f2:	fd 1e       	adc	r15, r29
     5f4:	ce 01       	movw	r24, r28
     5f6:	01 96       	adiw	r24, 0x01	; 1
     5f8:	b7 01       	movw	r22, r14
     5fa:	0e 94 69 05 	call	0xad2	; 0xad2 <__unpack_f>
     5fe:	8e 01       	movw	r16, r28
     600:	0f 5e       	subi	r16, 0xEF	; 239
     602:	1f 4f       	sbci	r17, 0xFF	; 255
     604:	ce 01       	movw	r24, r28
     606:	05 96       	adiw	r24, 0x05	; 5
     608:	b8 01       	movw	r22, r16
     60a:	0e 94 69 05 	call	0xad2	; 0xad2 <__unpack_f>
     60e:	29 85       	ldd	r18, Y+9	; 0x09
     610:	22 30       	cpi	r18, 0x02	; 2
     612:	08 f4       	brcc	.+2      	; 0x616 <__divsf3+0x48>
     614:	7e c0       	rjmp	.+252    	; 0x712 <__divsf3+0x144>
     616:	39 89       	ldd	r19, Y+17	; 0x11
     618:	32 30       	cpi	r19, 0x02	; 2
     61a:	10 f4       	brcc	.+4      	; 0x620 <__divsf3+0x52>
     61c:	b8 01       	movw	r22, r16
     61e:	7c c0       	rjmp	.+248    	; 0x718 <__divsf3+0x14a>
     620:	8a 85       	ldd	r24, Y+10	; 0x0a
     622:	9a 89       	ldd	r25, Y+18	; 0x12
     624:	89 27       	eor	r24, r25
     626:	8a 87       	std	Y+10, r24	; 0x0a
     628:	24 30       	cpi	r18, 0x04	; 4
     62a:	11 f0       	breq	.+4      	; 0x630 <__divsf3+0x62>
     62c:	22 30       	cpi	r18, 0x02	; 2
     62e:	31 f4       	brne	.+12     	; 0x63c <__divsf3+0x6e>
     630:	23 17       	cp	r18, r19
     632:	09 f0       	breq	.+2      	; 0x636 <__divsf3+0x68>
     634:	6e c0       	rjmp	.+220    	; 0x712 <__divsf3+0x144>
     636:	6b e1       	ldi	r22, 0x1B	; 27
     638:	71 e0       	ldi	r23, 0x01	; 1
     63a:	6e c0       	rjmp	.+220    	; 0x718 <__divsf3+0x14a>
     63c:	34 30       	cpi	r19, 0x04	; 4
     63e:	39 f4       	brne	.+14     	; 0x64e <__divsf3+0x80>
     640:	1d 86       	std	Y+13, r1	; 0x0d
     642:	1e 86       	std	Y+14, r1	; 0x0e
     644:	1f 86       	std	Y+15, r1	; 0x0f
     646:	18 8a       	std	Y+16, r1	; 0x10
     648:	1c 86       	std	Y+12, r1	; 0x0c
     64a:	1b 86       	std	Y+11, r1	; 0x0b
     64c:	04 c0       	rjmp	.+8      	; 0x656 <__divsf3+0x88>
     64e:	32 30       	cpi	r19, 0x02	; 2
     650:	21 f4       	brne	.+8      	; 0x65a <__divsf3+0x8c>
     652:	84 e0       	ldi	r24, 0x04	; 4
     654:	89 87       	std	Y+9, r24	; 0x09
     656:	b7 01       	movw	r22, r14
     658:	5f c0       	rjmp	.+190    	; 0x718 <__divsf3+0x14a>
     65a:	2b 85       	ldd	r18, Y+11	; 0x0b
     65c:	3c 85       	ldd	r19, Y+12	; 0x0c
     65e:	8b 89       	ldd	r24, Y+19	; 0x13
     660:	9c 89       	ldd	r25, Y+20	; 0x14
     662:	28 1b       	sub	r18, r24
     664:	39 0b       	sbc	r19, r25
     666:	3c 87       	std	Y+12, r19	; 0x0c
     668:	2b 87       	std	Y+11, r18	; 0x0b
     66a:	ed 84       	ldd	r14, Y+13	; 0x0d
     66c:	fe 84       	ldd	r15, Y+14	; 0x0e
     66e:	0f 85       	ldd	r16, Y+15	; 0x0f
     670:	18 89       	ldd	r17, Y+16	; 0x10
     672:	ad 88       	ldd	r10, Y+21	; 0x15
     674:	be 88       	ldd	r11, Y+22	; 0x16
     676:	cf 88       	ldd	r12, Y+23	; 0x17
     678:	d8 8c       	ldd	r13, Y+24	; 0x18
     67a:	ea 14       	cp	r14, r10
     67c:	fb 04       	cpc	r15, r11
     67e:	0c 05       	cpc	r16, r12
     680:	1d 05       	cpc	r17, r13
     682:	40 f4       	brcc	.+16     	; 0x694 <__divsf3+0xc6>
     684:	ee 0c       	add	r14, r14
     686:	ff 1c       	adc	r15, r15
     688:	00 1f       	adc	r16, r16
     68a:	11 1f       	adc	r17, r17
     68c:	21 50       	subi	r18, 0x01	; 1
     68e:	30 40       	sbci	r19, 0x00	; 0
     690:	3c 87       	std	Y+12, r19	; 0x0c
     692:	2b 87       	std	Y+11, r18	; 0x0b
     694:	20 e0       	ldi	r18, 0x00	; 0
     696:	30 e0       	ldi	r19, 0x00	; 0
     698:	40 e0       	ldi	r20, 0x00	; 0
     69a:	50 e0       	ldi	r21, 0x00	; 0
     69c:	80 e0       	ldi	r24, 0x00	; 0
     69e:	90 e0       	ldi	r25, 0x00	; 0
     6a0:	a0 e0       	ldi	r26, 0x00	; 0
     6a2:	b0 e4       	ldi	r27, 0x40	; 64
     6a4:	60 e0       	ldi	r22, 0x00	; 0
     6a6:	70 e0       	ldi	r23, 0x00	; 0
     6a8:	ea 14       	cp	r14, r10
     6aa:	fb 04       	cpc	r15, r11
     6ac:	0c 05       	cpc	r16, r12
     6ae:	1d 05       	cpc	r17, r13
     6b0:	40 f0       	brcs	.+16     	; 0x6c2 <__divsf3+0xf4>
     6b2:	28 2b       	or	r18, r24
     6b4:	39 2b       	or	r19, r25
     6b6:	4a 2b       	or	r20, r26
     6b8:	5b 2b       	or	r21, r27
     6ba:	ea 18       	sub	r14, r10
     6bc:	fb 08       	sbc	r15, r11
     6be:	0c 09       	sbc	r16, r12
     6c0:	1d 09       	sbc	r17, r13
     6c2:	b6 95       	lsr	r27
     6c4:	a7 95       	ror	r26
     6c6:	97 95       	ror	r25
     6c8:	87 95       	ror	r24
     6ca:	ee 0c       	add	r14, r14
     6cc:	ff 1c       	adc	r15, r15
     6ce:	00 1f       	adc	r16, r16
     6d0:	11 1f       	adc	r17, r17
     6d2:	6f 5f       	subi	r22, 0xFF	; 255
     6d4:	7f 4f       	sbci	r23, 0xFF	; 255
     6d6:	6f 31       	cpi	r22, 0x1F	; 31
     6d8:	71 05       	cpc	r23, r1
     6da:	31 f7       	brne	.-52     	; 0x6a8 <__divsf3+0xda>
     6dc:	da 01       	movw	r26, r20
     6de:	c9 01       	movw	r24, r18
     6e0:	8f 77       	andi	r24, 0x7F	; 127
     6e2:	90 70       	andi	r25, 0x00	; 0
     6e4:	a0 70       	andi	r26, 0x00	; 0
     6e6:	b0 70       	andi	r27, 0x00	; 0
     6e8:	80 34       	cpi	r24, 0x40	; 64
     6ea:	91 05       	cpc	r25, r1
     6ec:	a1 05       	cpc	r26, r1
     6ee:	b1 05       	cpc	r27, r1
     6f0:	61 f4       	brne	.+24     	; 0x70a <__divsf3+0x13c>
     6f2:	27 fd       	sbrc	r18, 7
     6f4:	0a c0       	rjmp	.+20     	; 0x70a <__divsf3+0x13c>
     6f6:	e1 14       	cp	r14, r1
     6f8:	f1 04       	cpc	r15, r1
     6fa:	01 05       	cpc	r16, r1
     6fc:	11 05       	cpc	r17, r1
     6fe:	29 f0       	breq	.+10     	; 0x70a <__divsf3+0x13c>
     700:	20 5c       	subi	r18, 0xC0	; 192
     702:	3f 4f       	sbci	r19, 0xFF	; 255
     704:	4f 4f       	sbci	r20, 0xFF	; 255
     706:	5f 4f       	sbci	r21, 0xFF	; 255
     708:	20 78       	andi	r18, 0x80	; 128
     70a:	2d 87       	std	Y+13, r18	; 0x0d
     70c:	3e 87       	std	Y+14, r19	; 0x0e
     70e:	4f 87       	std	Y+15, r20	; 0x0f
     710:	58 8b       	std	Y+16, r21	; 0x10
     712:	be 01       	movw	r22, r28
     714:	67 5f       	subi	r22, 0xF7	; 247
     716:	7f 4f       	sbci	r23, 0xFF	; 255
     718:	cb 01       	movw	r24, r22
     71a:	0e 94 94 04 	call	0x928	; 0x928 <__pack_f>
     71e:	68 96       	adiw	r28, 0x18	; 24
     720:	ea e0       	ldi	r30, 0x0A	; 10
     722:	0c 94 6c 1c 	jmp	0x38d8	; 0x38d8 <__epilogue_restores__+0x10>

00000726 <__floatsisf>:
     726:	a8 e0       	ldi	r26, 0x08	; 8
     728:	b0 e0       	ldi	r27, 0x00	; 0
     72a:	e9 e9       	ldi	r30, 0x99	; 153
     72c:	f3 e0       	ldi	r31, 0x03	; 3
     72e:	0c 94 51 1c 	jmp	0x38a2	; 0x38a2 <__prologue_saves__+0x12>
     732:	9b 01       	movw	r18, r22
     734:	ac 01       	movw	r20, r24
     736:	83 e0       	ldi	r24, 0x03	; 3
     738:	89 83       	std	Y+1, r24	; 0x01
     73a:	da 01       	movw	r26, r20
     73c:	c9 01       	movw	r24, r18
     73e:	88 27       	eor	r24, r24
     740:	b7 fd       	sbrc	r27, 7
     742:	83 95       	inc	r24
     744:	99 27       	eor	r25, r25
     746:	aa 27       	eor	r26, r26
     748:	bb 27       	eor	r27, r27
     74a:	b8 2e       	mov	r11, r24
     74c:	21 15       	cp	r18, r1
     74e:	31 05       	cpc	r19, r1
     750:	41 05       	cpc	r20, r1
     752:	51 05       	cpc	r21, r1
     754:	19 f4       	brne	.+6      	; 0x75c <__floatsisf+0x36>
     756:	82 e0       	ldi	r24, 0x02	; 2
     758:	89 83       	std	Y+1, r24	; 0x01
     75a:	3a c0       	rjmp	.+116    	; 0x7d0 <__floatsisf+0xaa>
     75c:	88 23       	and	r24, r24
     75e:	a9 f0       	breq	.+42     	; 0x78a <__floatsisf+0x64>
     760:	20 30       	cpi	r18, 0x00	; 0
     762:	80 e0       	ldi	r24, 0x00	; 0
     764:	38 07       	cpc	r19, r24
     766:	80 e0       	ldi	r24, 0x00	; 0
     768:	48 07       	cpc	r20, r24
     76a:	80 e8       	ldi	r24, 0x80	; 128
     76c:	58 07       	cpc	r21, r24
     76e:	29 f4       	brne	.+10     	; 0x77a <__floatsisf+0x54>
     770:	60 e0       	ldi	r22, 0x00	; 0
     772:	70 e0       	ldi	r23, 0x00	; 0
     774:	80 e0       	ldi	r24, 0x00	; 0
     776:	9f ec       	ldi	r25, 0xCF	; 207
     778:	30 c0       	rjmp	.+96     	; 0x7da <__floatsisf+0xb4>
     77a:	ee 24       	eor	r14, r14
     77c:	ff 24       	eor	r15, r15
     77e:	87 01       	movw	r16, r14
     780:	e2 1a       	sub	r14, r18
     782:	f3 0a       	sbc	r15, r19
     784:	04 0b       	sbc	r16, r20
     786:	15 0b       	sbc	r17, r21
     788:	02 c0       	rjmp	.+4      	; 0x78e <__floatsisf+0x68>
     78a:	79 01       	movw	r14, r18
     78c:	8a 01       	movw	r16, r20
     78e:	8e e1       	ldi	r24, 0x1E	; 30
     790:	c8 2e       	mov	r12, r24
     792:	d1 2c       	mov	r13, r1
     794:	dc 82       	std	Y+4, r13	; 0x04
     796:	cb 82       	std	Y+3, r12	; 0x03
     798:	ed 82       	std	Y+5, r14	; 0x05
     79a:	fe 82       	std	Y+6, r15	; 0x06
     79c:	0f 83       	std	Y+7, r16	; 0x07
     79e:	18 87       	std	Y+8, r17	; 0x08
     7a0:	c8 01       	movw	r24, r16
     7a2:	b7 01       	movw	r22, r14
     7a4:	0e 94 45 04 	call	0x88a	; 0x88a <__clzsi2>
     7a8:	01 97       	sbiw	r24, 0x01	; 1
     7aa:	18 16       	cp	r1, r24
     7ac:	19 06       	cpc	r1, r25
     7ae:	84 f4       	brge	.+32     	; 0x7d0 <__floatsisf+0xaa>
     7b0:	08 2e       	mov	r0, r24
     7b2:	04 c0       	rjmp	.+8      	; 0x7bc <__floatsisf+0x96>
     7b4:	ee 0c       	add	r14, r14
     7b6:	ff 1c       	adc	r15, r15
     7b8:	00 1f       	adc	r16, r16
     7ba:	11 1f       	adc	r17, r17
     7bc:	0a 94       	dec	r0
     7be:	d2 f7       	brpl	.-12     	; 0x7b4 <__floatsisf+0x8e>
     7c0:	ed 82       	std	Y+5, r14	; 0x05
     7c2:	fe 82       	std	Y+6, r15	; 0x06
     7c4:	0f 83       	std	Y+7, r16	; 0x07
     7c6:	18 87       	std	Y+8, r17	; 0x08
     7c8:	c8 1a       	sub	r12, r24
     7ca:	d9 0a       	sbc	r13, r25
     7cc:	dc 82       	std	Y+4, r13	; 0x04
     7ce:	cb 82       	std	Y+3, r12	; 0x03
     7d0:	ba 82       	std	Y+2, r11	; 0x02
     7d2:	ce 01       	movw	r24, r28
     7d4:	01 96       	adiw	r24, 0x01	; 1
     7d6:	0e 94 94 04 	call	0x928	; 0x928 <__pack_f>
     7da:	28 96       	adiw	r28, 0x08	; 8
     7dc:	e9 e0       	ldi	r30, 0x09	; 9
     7de:	0c 94 6d 1c 	jmp	0x38da	; 0x38da <__epilogue_restores__+0x12>

000007e2 <__fixsfsi>:
     7e2:	ac e0       	ldi	r26, 0x0C	; 12
     7e4:	b0 e0       	ldi	r27, 0x00	; 0
     7e6:	e7 ef       	ldi	r30, 0xF7	; 247
     7e8:	f3 e0       	ldi	r31, 0x03	; 3
     7ea:	0c 94 58 1c 	jmp	0x38b0	; 0x38b0 <__prologue_saves__+0x20>
     7ee:	69 83       	std	Y+1, r22	; 0x01
     7f0:	7a 83       	std	Y+2, r23	; 0x02
     7f2:	8b 83       	std	Y+3, r24	; 0x03
     7f4:	9c 83       	std	Y+4, r25	; 0x04
     7f6:	ce 01       	movw	r24, r28
     7f8:	01 96       	adiw	r24, 0x01	; 1
     7fa:	be 01       	movw	r22, r28
     7fc:	6b 5f       	subi	r22, 0xFB	; 251
     7fe:	7f 4f       	sbci	r23, 0xFF	; 255
     800:	0e 94 69 05 	call	0xad2	; 0xad2 <__unpack_f>
     804:	8d 81       	ldd	r24, Y+5	; 0x05
     806:	82 30       	cpi	r24, 0x02	; 2
     808:	61 f1       	breq	.+88     	; 0x862 <__fixsfsi+0x80>
     80a:	82 30       	cpi	r24, 0x02	; 2
     80c:	50 f1       	brcs	.+84     	; 0x862 <__fixsfsi+0x80>
     80e:	84 30       	cpi	r24, 0x04	; 4
     810:	21 f4       	brne	.+8      	; 0x81a <__fixsfsi+0x38>
     812:	8e 81       	ldd	r24, Y+6	; 0x06
     814:	88 23       	and	r24, r24
     816:	51 f1       	breq	.+84     	; 0x86c <__fixsfsi+0x8a>
     818:	2e c0       	rjmp	.+92     	; 0x876 <__fixsfsi+0x94>
     81a:	2f 81       	ldd	r18, Y+7	; 0x07
     81c:	38 85       	ldd	r19, Y+8	; 0x08
     81e:	37 fd       	sbrc	r19, 7
     820:	20 c0       	rjmp	.+64     	; 0x862 <__fixsfsi+0x80>
     822:	6e 81       	ldd	r22, Y+6	; 0x06
     824:	2f 31       	cpi	r18, 0x1F	; 31
     826:	31 05       	cpc	r19, r1
     828:	1c f0       	brlt	.+6      	; 0x830 <__fixsfsi+0x4e>
     82a:	66 23       	and	r22, r22
     82c:	f9 f0       	breq	.+62     	; 0x86c <__fixsfsi+0x8a>
     82e:	23 c0       	rjmp	.+70     	; 0x876 <__fixsfsi+0x94>
     830:	8e e1       	ldi	r24, 0x1E	; 30
     832:	90 e0       	ldi	r25, 0x00	; 0
     834:	82 1b       	sub	r24, r18
     836:	93 0b       	sbc	r25, r19
     838:	29 85       	ldd	r18, Y+9	; 0x09
     83a:	3a 85       	ldd	r19, Y+10	; 0x0a
     83c:	4b 85       	ldd	r20, Y+11	; 0x0b
     83e:	5c 85       	ldd	r21, Y+12	; 0x0c
     840:	04 c0       	rjmp	.+8      	; 0x84a <__fixsfsi+0x68>
     842:	56 95       	lsr	r21
     844:	47 95       	ror	r20
     846:	37 95       	ror	r19
     848:	27 95       	ror	r18
     84a:	8a 95       	dec	r24
     84c:	d2 f7       	brpl	.-12     	; 0x842 <__fixsfsi+0x60>
     84e:	66 23       	and	r22, r22
     850:	b1 f0       	breq	.+44     	; 0x87e <__fixsfsi+0x9c>
     852:	50 95       	com	r21
     854:	40 95       	com	r20
     856:	30 95       	com	r19
     858:	21 95       	neg	r18
     85a:	3f 4f       	sbci	r19, 0xFF	; 255
     85c:	4f 4f       	sbci	r20, 0xFF	; 255
     85e:	5f 4f       	sbci	r21, 0xFF	; 255
     860:	0e c0       	rjmp	.+28     	; 0x87e <__fixsfsi+0x9c>
     862:	20 e0       	ldi	r18, 0x00	; 0
     864:	30 e0       	ldi	r19, 0x00	; 0
     866:	40 e0       	ldi	r20, 0x00	; 0
     868:	50 e0       	ldi	r21, 0x00	; 0
     86a:	09 c0       	rjmp	.+18     	; 0x87e <__fixsfsi+0x9c>
     86c:	2f ef       	ldi	r18, 0xFF	; 255
     86e:	3f ef       	ldi	r19, 0xFF	; 255
     870:	4f ef       	ldi	r20, 0xFF	; 255
     872:	5f e7       	ldi	r21, 0x7F	; 127
     874:	04 c0       	rjmp	.+8      	; 0x87e <__fixsfsi+0x9c>
     876:	20 e0       	ldi	r18, 0x00	; 0
     878:	30 e0       	ldi	r19, 0x00	; 0
     87a:	40 e0       	ldi	r20, 0x00	; 0
     87c:	50 e8       	ldi	r21, 0x80	; 128
     87e:	b9 01       	movw	r22, r18
     880:	ca 01       	movw	r24, r20
     882:	2c 96       	adiw	r28, 0x0c	; 12
     884:	e2 e0       	ldi	r30, 0x02	; 2
     886:	0c 94 74 1c 	jmp	0x38e8	; 0x38e8 <__epilogue_restores__+0x20>

0000088a <__clzsi2>:
     88a:	ef 92       	push	r14
     88c:	ff 92       	push	r15
     88e:	0f 93       	push	r16
     890:	1f 93       	push	r17
     892:	7b 01       	movw	r14, r22
     894:	8c 01       	movw	r16, r24
     896:	80 e0       	ldi	r24, 0x00	; 0
     898:	e8 16       	cp	r14, r24
     89a:	80 e0       	ldi	r24, 0x00	; 0
     89c:	f8 06       	cpc	r15, r24
     89e:	81 e0       	ldi	r24, 0x01	; 1
     8a0:	08 07       	cpc	r16, r24
     8a2:	80 e0       	ldi	r24, 0x00	; 0
     8a4:	18 07       	cpc	r17, r24
     8a6:	88 f4       	brcc	.+34     	; 0x8ca <__clzsi2+0x40>
     8a8:	8f ef       	ldi	r24, 0xFF	; 255
     8aa:	e8 16       	cp	r14, r24
     8ac:	f1 04       	cpc	r15, r1
     8ae:	01 05       	cpc	r16, r1
     8b0:	11 05       	cpc	r17, r1
     8b2:	31 f0       	breq	.+12     	; 0x8c0 <__clzsi2+0x36>
     8b4:	28 f0       	brcs	.+10     	; 0x8c0 <__clzsi2+0x36>
     8b6:	88 e0       	ldi	r24, 0x08	; 8
     8b8:	90 e0       	ldi	r25, 0x00	; 0
     8ba:	a0 e0       	ldi	r26, 0x00	; 0
     8bc:	b0 e0       	ldi	r27, 0x00	; 0
     8be:	17 c0       	rjmp	.+46     	; 0x8ee <__clzsi2+0x64>
     8c0:	80 e0       	ldi	r24, 0x00	; 0
     8c2:	90 e0       	ldi	r25, 0x00	; 0
     8c4:	a0 e0       	ldi	r26, 0x00	; 0
     8c6:	b0 e0       	ldi	r27, 0x00	; 0
     8c8:	12 c0       	rjmp	.+36     	; 0x8ee <__clzsi2+0x64>
     8ca:	80 e0       	ldi	r24, 0x00	; 0
     8cc:	e8 16       	cp	r14, r24
     8ce:	80 e0       	ldi	r24, 0x00	; 0
     8d0:	f8 06       	cpc	r15, r24
     8d2:	80 e0       	ldi	r24, 0x00	; 0
     8d4:	08 07       	cpc	r16, r24
     8d6:	81 e0       	ldi	r24, 0x01	; 1
     8d8:	18 07       	cpc	r17, r24
     8da:	28 f0       	brcs	.+10     	; 0x8e6 <__clzsi2+0x5c>
     8dc:	88 e1       	ldi	r24, 0x18	; 24
     8de:	90 e0       	ldi	r25, 0x00	; 0
     8e0:	a0 e0       	ldi	r26, 0x00	; 0
     8e2:	b0 e0       	ldi	r27, 0x00	; 0
     8e4:	04 c0       	rjmp	.+8      	; 0x8ee <__clzsi2+0x64>
     8e6:	80 e1       	ldi	r24, 0x10	; 16
     8e8:	90 e0       	ldi	r25, 0x00	; 0
     8ea:	a0 e0       	ldi	r26, 0x00	; 0
     8ec:	b0 e0       	ldi	r27, 0x00	; 0
     8ee:	20 e2       	ldi	r18, 0x20	; 32
     8f0:	30 e0       	ldi	r19, 0x00	; 0
     8f2:	40 e0       	ldi	r20, 0x00	; 0
     8f4:	50 e0       	ldi	r21, 0x00	; 0
     8f6:	28 1b       	sub	r18, r24
     8f8:	39 0b       	sbc	r19, r25
     8fa:	4a 0b       	sbc	r20, r26
     8fc:	5b 0b       	sbc	r21, r27
     8fe:	04 c0       	rjmp	.+8      	; 0x908 <__clzsi2+0x7e>
     900:	16 95       	lsr	r17
     902:	07 95       	ror	r16
     904:	f7 94       	ror	r15
     906:	e7 94       	ror	r14
     908:	8a 95       	dec	r24
     90a:	d2 f7       	brpl	.-12     	; 0x900 <__clzsi2+0x76>
     90c:	f7 01       	movw	r30, r14
     90e:	ed 5d       	subi	r30, 0xDD	; 221
     910:	fe 4f       	sbci	r31, 0xFE	; 254
     912:	80 81       	ld	r24, Z
     914:	28 1b       	sub	r18, r24
     916:	31 09       	sbc	r19, r1
     918:	41 09       	sbc	r20, r1
     91a:	51 09       	sbc	r21, r1
     91c:	c9 01       	movw	r24, r18
     91e:	1f 91       	pop	r17
     920:	0f 91       	pop	r16
     922:	ff 90       	pop	r15
     924:	ef 90       	pop	r14
     926:	08 95       	ret

00000928 <__pack_f>:
     928:	df 92       	push	r13
     92a:	ef 92       	push	r14
     92c:	ff 92       	push	r15
     92e:	0f 93       	push	r16
     930:	1f 93       	push	r17
     932:	fc 01       	movw	r30, r24
     934:	e4 80       	ldd	r14, Z+4	; 0x04
     936:	f5 80       	ldd	r15, Z+5	; 0x05
     938:	06 81       	ldd	r16, Z+6	; 0x06
     93a:	17 81       	ldd	r17, Z+7	; 0x07
     93c:	d1 80       	ldd	r13, Z+1	; 0x01
     93e:	80 81       	ld	r24, Z
     940:	82 30       	cpi	r24, 0x02	; 2
     942:	48 f4       	brcc	.+18     	; 0x956 <__pack_f+0x2e>
     944:	80 e0       	ldi	r24, 0x00	; 0
     946:	90 e0       	ldi	r25, 0x00	; 0
     948:	a0 e1       	ldi	r26, 0x10	; 16
     94a:	b0 e0       	ldi	r27, 0x00	; 0
     94c:	e8 2a       	or	r14, r24
     94e:	f9 2a       	or	r15, r25
     950:	0a 2b       	or	r16, r26
     952:	1b 2b       	or	r17, r27
     954:	a5 c0       	rjmp	.+330    	; 0xaa0 <__pack_f+0x178>
     956:	84 30       	cpi	r24, 0x04	; 4
     958:	09 f4       	brne	.+2      	; 0x95c <__pack_f+0x34>
     95a:	9f c0       	rjmp	.+318    	; 0xa9a <__pack_f+0x172>
     95c:	82 30       	cpi	r24, 0x02	; 2
     95e:	21 f4       	brne	.+8      	; 0x968 <__pack_f+0x40>
     960:	ee 24       	eor	r14, r14
     962:	ff 24       	eor	r15, r15
     964:	87 01       	movw	r16, r14
     966:	05 c0       	rjmp	.+10     	; 0x972 <__pack_f+0x4a>
     968:	e1 14       	cp	r14, r1
     96a:	f1 04       	cpc	r15, r1
     96c:	01 05       	cpc	r16, r1
     96e:	11 05       	cpc	r17, r1
     970:	19 f4       	brne	.+6      	; 0x978 <__pack_f+0x50>
     972:	e0 e0       	ldi	r30, 0x00	; 0
     974:	f0 e0       	ldi	r31, 0x00	; 0
     976:	96 c0       	rjmp	.+300    	; 0xaa4 <__pack_f+0x17c>
     978:	62 81       	ldd	r22, Z+2	; 0x02
     97a:	73 81       	ldd	r23, Z+3	; 0x03
     97c:	9f ef       	ldi	r25, 0xFF	; 255
     97e:	62 38       	cpi	r22, 0x82	; 130
     980:	79 07       	cpc	r23, r25
     982:	0c f0       	brlt	.+2      	; 0x986 <__pack_f+0x5e>
     984:	5b c0       	rjmp	.+182    	; 0xa3c <__pack_f+0x114>
     986:	22 e8       	ldi	r18, 0x82	; 130
     988:	3f ef       	ldi	r19, 0xFF	; 255
     98a:	26 1b       	sub	r18, r22
     98c:	37 0b       	sbc	r19, r23
     98e:	2a 31       	cpi	r18, 0x1A	; 26
     990:	31 05       	cpc	r19, r1
     992:	2c f0       	brlt	.+10     	; 0x99e <__pack_f+0x76>
     994:	20 e0       	ldi	r18, 0x00	; 0
     996:	30 e0       	ldi	r19, 0x00	; 0
     998:	40 e0       	ldi	r20, 0x00	; 0
     99a:	50 e0       	ldi	r21, 0x00	; 0
     99c:	2a c0       	rjmp	.+84     	; 0x9f2 <__pack_f+0xca>
     99e:	b8 01       	movw	r22, r16
     9a0:	a7 01       	movw	r20, r14
     9a2:	02 2e       	mov	r0, r18
     9a4:	04 c0       	rjmp	.+8      	; 0x9ae <__pack_f+0x86>
     9a6:	76 95       	lsr	r23
     9a8:	67 95       	ror	r22
     9aa:	57 95       	ror	r21
     9ac:	47 95       	ror	r20
     9ae:	0a 94       	dec	r0
     9b0:	d2 f7       	brpl	.-12     	; 0x9a6 <__pack_f+0x7e>
     9b2:	81 e0       	ldi	r24, 0x01	; 1
     9b4:	90 e0       	ldi	r25, 0x00	; 0
     9b6:	a0 e0       	ldi	r26, 0x00	; 0
     9b8:	b0 e0       	ldi	r27, 0x00	; 0
     9ba:	04 c0       	rjmp	.+8      	; 0x9c4 <__pack_f+0x9c>
     9bc:	88 0f       	add	r24, r24
     9be:	99 1f       	adc	r25, r25
     9c0:	aa 1f       	adc	r26, r26
     9c2:	bb 1f       	adc	r27, r27
     9c4:	2a 95       	dec	r18
     9c6:	d2 f7       	brpl	.-12     	; 0x9bc <__pack_f+0x94>
     9c8:	01 97       	sbiw	r24, 0x01	; 1
     9ca:	a1 09       	sbc	r26, r1
     9cc:	b1 09       	sbc	r27, r1
     9ce:	8e 21       	and	r24, r14
     9d0:	9f 21       	and	r25, r15
     9d2:	a0 23       	and	r26, r16
     9d4:	b1 23       	and	r27, r17
     9d6:	00 97       	sbiw	r24, 0x00	; 0
     9d8:	a1 05       	cpc	r26, r1
     9da:	b1 05       	cpc	r27, r1
     9dc:	21 f0       	breq	.+8      	; 0x9e6 <__pack_f+0xbe>
     9de:	81 e0       	ldi	r24, 0x01	; 1
     9e0:	90 e0       	ldi	r25, 0x00	; 0
     9e2:	a0 e0       	ldi	r26, 0x00	; 0
     9e4:	b0 e0       	ldi	r27, 0x00	; 0
     9e6:	9a 01       	movw	r18, r20
     9e8:	ab 01       	movw	r20, r22
     9ea:	28 2b       	or	r18, r24
     9ec:	39 2b       	or	r19, r25
     9ee:	4a 2b       	or	r20, r26
     9f0:	5b 2b       	or	r21, r27
     9f2:	da 01       	movw	r26, r20
     9f4:	c9 01       	movw	r24, r18
     9f6:	8f 77       	andi	r24, 0x7F	; 127
     9f8:	90 70       	andi	r25, 0x00	; 0
     9fa:	a0 70       	andi	r26, 0x00	; 0
     9fc:	b0 70       	andi	r27, 0x00	; 0
     9fe:	80 34       	cpi	r24, 0x40	; 64
     a00:	91 05       	cpc	r25, r1
     a02:	a1 05       	cpc	r26, r1
     a04:	b1 05       	cpc	r27, r1
     a06:	39 f4       	brne	.+14     	; 0xa16 <__pack_f+0xee>
     a08:	27 ff       	sbrs	r18, 7
     a0a:	09 c0       	rjmp	.+18     	; 0xa1e <__pack_f+0xf6>
     a0c:	20 5c       	subi	r18, 0xC0	; 192
     a0e:	3f 4f       	sbci	r19, 0xFF	; 255
     a10:	4f 4f       	sbci	r20, 0xFF	; 255
     a12:	5f 4f       	sbci	r21, 0xFF	; 255
     a14:	04 c0       	rjmp	.+8      	; 0xa1e <__pack_f+0xf6>
     a16:	21 5c       	subi	r18, 0xC1	; 193
     a18:	3f 4f       	sbci	r19, 0xFF	; 255
     a1a:	4f 4f       	sbci	r20, 0xFF	; 255
     a1c:	5f 4f       	sbci	r21, 0xFF	; 255
     a1e:	e0 e0       	ldi	r30, 0x00	; 0
     a20:	f0 e0       	ldi	r31, 0x00	; 0
     a22:	20 30       	cpi	r18, 0x00	; 0
     a24:	a0 e0       	ldi	r26, 0x00	; 0
     a26:	3a 07       	cpc	r19, r26
     a28:	a0 e0       	ldi	r26, 0x00	; 0
     a2a:	4a 07       	cpc	r20, r26
     a2c:	a0 e4       	ldi	r26, 0x40	; 64
     a2e:	5a 07       	cpc	r21, r26
     a30:	10 f0       	brcs	.+4      	; 0xa36 <__pack_f+0x10e>
     a32:	e1 e0       	ldi	r30, 0x01	; 1
     a34:	f0 e0       	ldi	r31, 0x00	; 0
     a36:	79 01       	movw	r14, r18
     a38:	8a 01       	movw	r16, r20
     a3a:	27 c0       	rjmp	.+78     	; 0xa8a <__pack_f+0x162>
     a3c:	60 38       	cpi	r22, 0x80	; 128
     a3e:	71 05       	cpc	r23, r1
     a40:	64 f5       	brge	.+88     	; 0xa9a <__pack_f+0x172>
     a42:	fb 01       	movw	r30, r22
     a44:	e1 58       	subi	r30, 0x81	; 129
     a46:	ff 4f       	sbci	r31, 0xFF	; 255
     a48:	d8 01       	movw	r26, r16
     a4a:	c7 01       	movw	r24, r14
     a4c:	8f 77       	andi	r24, 0x7F	; 127
     a4e:	90 70       	andi	r25, 0x00	; 0
     a50:	a0 70       	andi	r26, 0x00	; 0
     a52:	b0 70       	andi	r27, 0x00	; 0
     a54:	80 34       	cpi	r24, 0x40	; 64
     a56:	91 05       	cpc	r25, r1
     a58:	a1 05       	cpc	r26, r1
     a5a:	b1 05       	cpc	r27, r1
     a5c:	39 f4       	brne	.+14     	; 0xa6c <__pack_f+0x144>
     a5e:	e7 fe       	sbrs	r14, 7
     a60:	0d c0       	rjmp	.+26     	; 0xa7c <__pack_f+0x154>
     a62:	80 e4       	ldi	r24, 0x40	; 64
     a64:	90 e0       	ldi	r25, 0x00	; 0
     a66:	a0 e0       	ldi	r26, 0x00	; 0
     a68:	b0 e0       	ldi	r27, 0x00	; 0
     a6a:	04 c0       	rjmp	.+8      	; 0xa74 <__pack_f+0x14c>
     a6c:	8f e3       	ldi	r24, 0x3F	; 63
     a6e:	90 e0       	ldi	r25, 0x00	; 0
     a70:	a0 e0       	ldi	r26, 0x00	; 0
     a72:	b0 e0       	ldi	r27, 0x00	; 0
     a74:	e8 0e       	add	r14, r24
     a76:	f9 1e       	adc	r15, r25
     a78:	0a 1f       	adc	r16, r26
     a7a:	1b 1f       	adc	r17, r27
     a7c:	17 ff       	sbrs	r17, 7
     a7e:	05 c0       	rjmp	.+10     	; 0xa8a <__pack_f+0x162>
     a80:	16 95       	lsr	r17
     a82:	07 95       	ror	r16
     a84:	f7 94       	ror	r15
     a86:	e7 94       	ror	r14
     a88:	31 96       	adiw	r30, 0x01	; 1
     a8a:	87 e0       	ldi	r24, 0x07	; 7
     a8c:	16 95       	lsr	r17
     a8e:	07 95       	ror	r16
     a90:	f7 94       	ror	r15
     a92:	e7 94       	ror	r14
     a94:	8a 95       	dec	r24
     a96:	d1 f7       	brne	.-12     	; 0xa8c <__pack_f+0x164>
     a98:	05 c0       	rjmp	.+10     	; 0xaa4 <__pack_f+0x17c>
     a9a:	ee 24       	eor	r14, r14
     a9c:	ff 24       	eor	r15, r15
     a9e:	87 01       	movw	r16, r14
     aa0:	ef ef       	ldi	r30, 0xFF	; 255
     aa2:	f0 e0       	ldi	r31, 0x00	; 0
     aa4:	6e 2f       	mov	r22, r30
     aa6:	67 95       	ror	r22
     aa8:	66 27       	eor	r22, r22
     aaa:	67 95       	ror	r22
     aac:	90 2f       	mov	r25, r16
     aae:	9f 77       	andi	r25, 0x7F	; 127
     ab0:	d7 94       	ror	r13
     ab2:	dd 24       	eor	r13, r13
     ab4:	d7 94       	ror	r13
     ab6:	8e 2f       	mov	r24, r30
     ab8:	86 95       	lsr	r24
     aba:	49 2f       	mov	r20, r25
     abc:	46 2b       	or	r20, r22
     abe:	58 2f       	mov	r21, r24
     ac0:	5d 29       	or	r21, r13
     ac2:	b7 01       	movw	r22, r14
     ac4:	ca 01       	movw	r24, r20
     ac6:	1f 91       	pop	r17
     ac8:	0f 91       	pop	r16
     aca:	ff 90       	pop	r15
     acc:	ef 90       	pop	r14
     ace:	df 90       	pop	r13
     ad0:	08 95       	ret

00000ad2 <__unpack_f>:
     ad2:	fc 01       	movw	r30, r24
     ad4:	db 01       	movw	r26, r22
     ad6:	40 81       	ld	r20, Z
     ad8:	51 81       	ldd	r21, Z+1	; 0x01
     ada:	22 81       	ldd	r18, Z+2	; 0x02
     adc:	62 2f       	mov	r22, r18
     ade:	6f 77       	andi	r22, 0x7F	; 127
     ae0:	70 e0       	ldi	r23, 0x00	; 0
     ae2:	22 1f       	adc	r18, r18
     ae4:	22 27       	eor	r18, r18
     ae6:	22 1f       	adc	r18, r18
     ae8:	93 81       	ldd	r25, Z+3	; 0x03
     aea:	89 2f       	mov	r24, r25
     aec:	88 0f       	add	r24, r24
     aee:	82 2b       	or	r24, r18
     af0:	28 2f       	mov	r18, r24
     af2:	30 e0       	ldi	r19, 0x00	; 0
     af4:	99 1f       	adc	r25, r25
     af6:	99 27       	eor	r25, r25
     af8:	99 1f       	adc	r25, r25
     afa:	11 96       	adiw	r26, 0x01	; 1
     afc:	9c 93       	st	X, r25
     afe:	11 97       	sbiw	r26, 0x01	; 1
     b00:	21 15       	cp	r18, r1
     b02:	31 05       	cpc	r19, r1
     b04:	a9 f5       	brne	.+106    	; 0xb70 <__unpack_f+0x9e>
     b06:	41 15       	cp	r20, r1
     b08:	51 05       	cpc	r21, r1
     b0a:	61 05       	cpc	r22, r1
     b0c:	71 05       	cpc	r23, r1
     b0e:	11 f4       	brne	.+4      	; 0xb14 <__unpack_f+0x42>
     b10:	82 e0       	ldi	r24, 0x02	; 2
     b12:	37 c0       	rjmp	.+110    	; 0xb82 <__unpack_f+0xb0>
     b14:	82 e8       	ldi	r24, 0x82	; 130
     b16:	9f ef       	ldi	r25, 0xFF	; 255
     b18:	13 96       	adiw	r26, 0x03	; 3
     b1a:	9c 93       	st	X, r25
     b1c:	8e 93       	st	-X, r24
     b1e:	12 97       	sbiw	r26, 0x02	; 2
     b20:	9a 01       	movw	r18, r20
     b22:	ab 01       	movw	r20, r22
     b24:	67 e0       	ldi	r22, 0x07	; 7
     b26:	22 0f       	add	r18, r18
     b28:	33 1f       	adc	r19, r19
     b2a:	44 1f       	adc	r20, r20
     b2c:	55 1f       	adc	r21, r21
     b2e:	6a 95       	dec	r22
     b30:	d1 f7       	brne	.-12     	; 0xb26 <__unpack_f+0x54>
     b32:	83 e0       	ldi	r24, 0x03	; 3
     b34:	8c 93       	st	X, r24
     b36:	0d c0       	rjmp	.+26     	; 0xb52 <__unpack_f+0x80>
     b38:	22 0f       	add	r18, r18
     b3a:	33 1f       	adc	r19, r19
     b3c:	44 1f       	adc	r20, r20
     b3e:	55 1f       	adc	r21, r21
     b40:	12 96       	adiw	r26, 0x02	; 2
     b42:	8d 91       	ld	r24, X+
     b44:	9c 91       	ld	r25, X
     b46:	13 97       	sbiw	r26, 0x03	; 3
     b48:	01 97       	sbiw	r24, 0x01	; 1
     b4a:	13 96       	adiw	r26, 0x03	; 3
     b4c:	9c 93       	st	X, r25
     b4e:	8e 93       	st	-X, r24
     b50:	12 97       	sbiw	r26, 0x02	; 2
     b52:	20 30       	cpi	r18, 0x00	; 0
     b54:	80 e0       	ldi	r24, 0x00	; 0
     b56:	38 07       	cpc	r19, r24
     b58:	80 e0       	ldi	r24, 0x00	; 0
     b5a:	48 07       	cpc	r20, r24
     b5c:	80 e4       	ldi	r24, 0x40	; 64
     b5e:	58 07       	cpc	r21, r24
     b60:	58 f3       	brcs	.-42     	; 0xb38 <__unpack_f+0x66>
     b62:	14 96       	adiw	r26, 0x04	; 4
     b64:	2d 93       	st	X+, r18
     b66:	3d 93       	st	X+, r19
     b68:	4d 93       	st	X+, r20
     b6a:	5c 93       	st	X, r21
     b6c:	17 97       	sbiw	r26, 0x07	; 7
     b6e:	08 95       	ret
     b70:	2f 3f       	cpi	r18, 0xFF	; 255
     b72:	31 05       	cpc	r19, r1
     b74:	79 f4       	brne	.+30     	; 0xb94 <__unpack_f+0xc2>
     b76:	41 15       	cp	r20, r1
     b78:	51 05       	cpc	r21, r1
     b7a:	61 05       	cpc	r22, r1
     b7c:	71 05       	cpc	r23, r1
     b7e:	19 f4       	brne	.+6      	; 0xb86 <__unpack_f+0xb4>
     b80:	84 e0       	ldi	r24, 0x04	; 4
     b82:	8c 93       	st	X, r24
     b84:	08 95       	ret
     b86:	64 ff       	sbrs	r22, 4
     b88:	03 c0       	rjmp	.+6      	; 0xb90 <__unpack_f+0xbe>
     b8a:	81 e0       	ldi	r24, 0x01	; 1
     b8c:	8c 93       	st	X, r24
     b8e:	12 c0       	rjmp	.+36     	; 0xbb4 <__unpack_f+0xe2>
     b90:	1c 92       	st	X, r1
     b92:	10 c0       	rjmp	.+32     	; 0xbb4 <__unpack_f+0xe2>
     b94:	2f 57       	subi	r18, 0x7F	; 127
     b96:	30 40       	sbci	r19, 0x00	; 0
     b98:	13 96       	adiw	r26, 0x03	; 3
     b9a:	3c 93       	st	X, r19
     b9c:	2e 93       	st	-X, r18
     b9e:	12 97       	sbiw	r26, 0x02	; 2
     ba0:	83 e0       	ldi	r24, 0x03	; 3
     ba2:	8c 93       	st	X, r24
     ba4:	87 e0       	ldi	r24, 0x07	; 7
     ba6:	44 0f       	add	r20, r20
     ba8:	55 1f       	adc	r21, r21
     baa:	66 1f       	adc	r22, r22
     bac:	77 1f       	adc	r23, r23
     bae:	8a 95       	dec	r24
     bb0:	d1 f7       	brne	.-12     	; 0xba6 <__unpack_f+0xd4>
     bb2:	70 64       	ori	r23, 0x40	; 64
     bb4:	14 96       	adiw	r26, 0x04	; 4
     bb6:	4d 93       	st	X+, r20
     bb8:	5d 93       	st	X+, r21
     bba:	6d 93       	st	X+, r22
     bbc:	7c 93       	st	X, r23
     bbe:	17 97       	sbiw	r26, 0x07	; 7
     bc0:	08 95       	ret

00000bc2 <analog_conversion_result>:
     bc2:	80 91 7c 00 	lds	r24, 0x007C
     bc6:	85 ff       	sbrs	r24, 5
     bc8:	05 c0       	rjmp	.+10     	; 0xbd4 <analog_conversion_result+0x12>
     bca:	80 91 79 00 	lds	r24, 0x0079
     bce:	28 2f       	mov	r18, r24
     bd0:	30 e0       	ldi	r19, 0x00	; 0
     bd2:	04 c0       	rjmp	.+8      	; 0xbdc <analog_conversion_result+0x1a>
     bd4:	20 91 78 00 	lds	r18, 0x0078
     bd8:	30 91 79 00 	lds	r19, 0x0079
     bdc:	c9 01       	movw	r24, r18
     bde:	08 95       	ret

00000be0 <set_millivolt_calibration>:
     be0:	90 93 09 01 	sts	0x0109, r25
     be4:	80 93 08 01 	sts	0x0108, r24
     be8:	08 95       	ret

00000bea <_ZN15OrangutanAnalogC2Ev>:
     bea:	08 95       	ret

00000bec <_ZN15OrangutanAnalogC1Ev>:
     bec:	08 95       	ret

00000bee <_ZN15OrangutanAnalog16conversionResultEv>:
     bee:	80 91 7c 00 	lds	r24, 0x007C
     bf2:	85 ff       	sbrs	r24, 5
     bf4:	05 c0       	rjmp	.+10     	; 0xc00 <_ZN15OrangutanAnalog16conversionResultEv+0x12>
     bf6:	80 91 79 00 	lds	r24, 0x0079
     bfa:	28 2f       	mov	r18, r24
     bfc:	30 e0       	ldi	r19, 0x00	; 0
     bfe:	04 c0       	rjmp	.+8      	; 0xc08 <_ZN15OrangutanAnalog16conversionResultEv+0x1a>
     c00:	20 91 78 00 	lds	r18, 0x0078
     c04:	30 91 79 00 	lds	r19, 0x0079
     c08:	c9 01       	movw	r24, r18
     c0a:	08 95       	ret

00000c0c <_ZN15OrangutanAnalog15startConversionEhh>:
     c0c:	28 2f       	mov	r18, r24
     c0e:	80 32       	cpi	r24, 0x20	; 32
     c10:	b0 f4       	brcc	.+44     	; 0xc3e <_ZN15OrangutanAnalog15startConversionEhh+0x32>
     c12:	87 e8       	ldi	r24, 0x87	; 135
     c14:	80 93 7a 00 	sts	0x007A, r24
     c18:	80 91 7c 00 	lds	r24, 0x007C
     c1c:	98 2f       	mov	r25, r24
     c1e:	90 64       	ori	r25, 0x40	; 64
     c20:	66 23       	and	r22, r22
     c22:	11 f0       	breq	.+4      	; 0xc28 <_ZN15OrangutanAnalog15startConversionEhh+0x1c>
     c24:	80 6c       	ori	r24, 0xC0	; 192
     c26:	02 c0       	rjmp	.+4      	; 0xc2c <_ZN15OrangutanAnalog15startConversionEhh+0x20>
     c28:	89 2f       	mov	r24, r25
     c2a:	8f 77       	andi	r24, 0x7F	; 127
     c2c:	80 7e       	andi	r24, 0xE0	; 224
     c2e:	82 2b       	or	r24, r18
     c30:	80 93 7c 00 	sts	0x007C, r24
     c34:	80 91 7a 00 	lds	r24, 0x007A
     c38:	80 64       	ori	r24, 0x40	; 64
     c3a:	80 93 7a 00 	sts	0x007A, r24
     c3e:	08 95       	ret

00000c40 <start_analog_conversion>:
     c40:	60 e0       	ldi	r22, 0x00	; 0
     c42:	0e 94 06 06 	call	0xc0c	; 0xc0c <_ZN15OrangutanAnalog15startConversionEhh>
     c46:	08 95       	ret

00000c48 <_ZN15OrangutanAnalog4readEh>:
     c48:	60 e0       	ldi	r22, 0x00	; 0
     c4a:	0e 94 06 06 	call	0xc0c	; 0xc0c <_ZN15OrangutanAnalog15startConversionEhh>
     c4e:	80 91 7a 00 	lds	r24, 0x007A
     c52:	86 fd       	sbrc	r24, 6
     c54:	fc cf       	rjmp	.-8      	; 0xc4e <_ZN15OrangutanAnalog4readEh+0x6>
     c56:	80 91 7c 00 	lds	r24, 0x007C
     c5a:	85 ff       	sbrs	r24, 5
     c5c:	05 c0       	rjmp	.+10     	; 0xc68 <_ZN15OrangutanAnalog4readEh+0x20>
     c5e:	80 91 79 00 	lds	r24, 0x0079
     c62:	28 2f       	mov	r18, r24
     c64:	30 e0       	ldi	r19, 0x00	; 0
     c66:	04 c0       	rjmp	.+8      	; 0xc70 <_ZN15OrangutanAnalog4readEh+0x28>
     c68:	20 91 78 00 	lds	r18, 0x0078
     c6c:	30 91 79 00 	lds	r19, 0x0079
     c70:	c9 01       	movw	r24, r18
     c72:	08 95       	ret

00000c74 <analog_read>:
     c74:	0e 94 24 06 	call	0xc48	; 0xc48 <_ZN15OrangutanAnalog4readEh>
     c78:	08 95       	ret

00000c7a <_ZN15OrangutanAnalog11readAverageEhj>:
     c7a:	ef 92       	push	r14
     c7c:	ff 92       	push	r15
     c7e:	0f 93       	push	r16
     c80:	1f 93       	push	r17
     c82:	cf 93       	push	r28
     c84:	df 93       	push	r29
     c86:	eb 01       	movw	r28, r22
     c88:	60 e0       	ldi	r22, 0x00	; 0
     c8a:	0e 94 06 06 	call	0xc0c	; 0xc0c <_ZN15OrangutanAnalog15startConversionEhh>
     c8e:	80 91 7a 00 	lds	r24, 0x007A
     c92:	86 fd       	sbrc	r24, 6
     c94:	fc cf       	rjmp	.-8      	; 0xc8e <_ZN15OrangutanAnalog11readAverageEhj+0x14>
     c96:	9e 01       	movw	r18, r28
     c98:	ee 24       	eor	r14, r14
     c9a:	ff 24       	eor	r15, r15
     c9c:	87 01       	movw	r16, r14
     c9e:	80 91 7a 00 	lds	r24, 0x007A
     ca2:	80 64       	ori	r24, 0x40	; 64
     ca4:	80 93 7a 00 	sts	0x007A, r24
     ca8:	80 91 7a 00 	lds	r24, 0x007A
     cac:	86 fd       	sbrc	r24, 6
     cae:	fc cf       	rjmp	.-8      	; 0xca8 <_ZN15OrangutanAnalog11readAverageEhj+0x2e>
     cb0:	80 91 7c 00 	lds	r24, 0x007C
     cb4:	85 ff       	sbrs	r24, 5
     cb6:	04 c0       	rjmp	.+8      	; 0xcc0 <_ZN15OrangutanAnalog11readAverageEhj+0x46>
     cb8:	80 91 79 00 	lds	r24, 0x0079
     cbc:	90 e0       	ldi	r25, 0x00	; 0
     cbe:	04 c0       	rjmp	.+8      	; 0xcc8 <_ZN15OrangutanAnalog11readAverageEhj+0x4e>
     cc0:	80 91 78 00 	lds	r24, 0x0078
     cc4:	90 91 79 00 	lds	r25, 0x0079
     cc8:	a0 e0       	ldi	r26, 0x00	; 0
     cca:	b0 e0       	ldi	r27, 0x00	; 0
     ccc:	e8 0e       	add	r14, r24
     cce:	f9 1e       	adc	r15, r25
     cd0:	0a 1f       	adc	r16, r26
     cd2:	1b 1f       	adc	r17, r27
     cd4:	21 50       	subi	r18, 0x01	; 1
     cd6:	30 40       	sbci	r19, 0x00	; 0
     cd8:	11 f7       	brne	.-60     	; 0xc9e <_ZN15OrangutanAnalog11readAverageEhj+0x24>
     cda:	ce 01       	movw	r24, r28
     cdc:	96 95       	lsr	r25
     cde:	87 95       	ror	r24
     ce0:	c0 34       	cpi	r28, 0x40	; 64
     ce2:	d1 05       	cpc	r29, r1
     ce4:	40 f4       	brcc	.+16     	; 0xcf6 <_ZN15OrangutanAnalog11readAverageEhj+0x7c>
     ce6:	8e 0d       	add	r24, r14
     ce8:	9f 1d       	adc	r25, r15
     cea:	6c 2f       	mov	r22, r28
     cec:	70 e0       	ldi	r23, 0x00	; 0
     cee:	0e 94 e4 1b 	call	0x37c8	; 0x37c8 <__udivmodhi4>
     cf2:	9b 01       	movw	r18, r22
     cf4:	0d c0       	rjmp	.+26     	; 0xd10 <_ZN15OrangutanAnalog11readAverageEhj+0x96>
     cf6:	a0 e0       	ldi	r26, 0x00	; 0
     cf8:	b0 e0       	ldi	r27, 0x00	; 0
     cfa:	e8 0e       	add	r14, r24
     cfc:	f9 1e       	adc	r15, r25
     cfe:	0a 1f       	adc	r16, r26
     d00:	1b 1f       	adc	r17, r27
     d02:	9e 01       	movw	r18, r28
     d04:	40 e0       	ldi	r20, 0x00	; 0
     d06:	50 e0       	ldi	r21, 0x00	; 0
     d08:	c8 01       	movw	r24, r16
     d0a:	b7 01       	movw	r22, r14
     d0c:	0e 94 0b 1c 	call	0x3816	; 0x3816 <__udivmodsi4>
     d10:	c9 01       	movw	r24, r18
     d12:	cd b7       	in	r28, 0x3d	; 61
     d14:	de b7       	in	r29, 0x3e	; 62
     d16:	e6 e0       	ldi	r30, 0x06	; 6
     d18:	0c 94 70 1c 	jmp	0x38e0	; 0x38e0 <__epilogue_restores__+0x18>

00000d1c <read_trimpot>:
     d1c:	87 e0       	ldi	r24, 0x07	; 7
     d1e:	64 e1       	ldi	r22, 0x14	; 20
     d20:	70 e0       	ldi	r23, 0x00	; 0
     d22:	0e 94 3d 06 	call	0xc7a	; 0xc7a <_ZN15OrangutanAnalog11readAverageEhj>
     d26:	08 95       	ret

00000d28 <analog_read_average>:
     d28:	0e 94 3d 06 	call	0xc7a	; 0xc7a <_ZN15OrangutanAnalog11readAverageEhj>
     d2c:	08 95       	ret

00000d2e <_ZN15OrangutanAnalog23setMillivoltCalibrationEj>:
     d2e:	90 93 09 01 	sts	0x0109, r25
     d32:	80 93 08 01 	sts	0x0108, r24
     d36:	08 95       	ret

00000d38 <_ZN15OrangutanAnalog17readVCCMillivoltsEv>:
     d38:	1f 93       	push	r17
     d3a:	10 91 7c 00 	lds	r17, 0x007C
     d3e:	80 91 7c 00 	lds	r24, 0x007C
     d42:	8f 7d       	andi	r24, 0xDF	; 223
     d44:	80 93 7c 00 	sts	0x007C, r24
     d48:	8e e1       	ldi	r24, 0x1E	; 30
     d4a:	64 e1       	ldi	r22, 0x14	; 20
     d4c:	70 e0       	ldi	r23, 0x00	; 0
     d4e:	0e 94 3d 06 	call	0xc7a	; 0xc7a <_ZN15OrangutanAnalog11readAverageEhj>
     d52:	8e e1       	ldi	r24, 0x1E	; 30
     d54:	64 e1       	ldi	r22, 0x14	; 20
     d56:	70 e0       	ldi	r23, 0x00	; 0
     d58:	0e 94 3d 06 	call	0xc7a	; 0xc7a <_ZN15OrangutanAnalog11readAverageEhj>
     d5c:	9c 01       	movw	r18, r24
     d5e:	15 fd       	sbrc	r17, 5
     d60:	04 c0       	rjmp	.+8      	; 0xd6a <_ZN15OrangutanAnalog17readVCCMillivoltsEv+0x32>
     d62:	80 91 7c 00 	lds	r24, 0x007C
     d66:	8f 7d       	andi	r24, 0xDF	; 223
     d68:	03 c0       	rjmp	.+6      	; 0xd70 <_ZN15OrangutanAnalog17readVCCMillivoltsEv+0x38>
     d6a:	80 91 7c 00 	lds	r24, 0x007C
     d6e:	80 62       	ori	r24, 0x20	; 32
     d70:	80 93 7c 00 	sts	0x007C, r24
     d74:	b9 01       	movw	r22, r18
     d76:	76 95       	lsr	r23
     d78:	67 95       	ror	r22
     d7a:	80 e0       	ldi	r24, 0x00	; 0
     d7c:	90 e0       	ldi	r25, 0x00	; 0
     d7e:	6c 54       	subi	r22, 0x4C	; 76
     d80:	74 4d       	sbci	r23, 0xD4	; 212
     d82:	8e 4e       	sbci	r24, 0xEE	; 238
     d84:	9f 4f       	sbci	r25, 0xFF	; 255
     d86:	40 e0       	ldi	r20, 0x00	; 0
     d88:	50 e0       	ldi	r21, 0x00	; 0
     d8a:	0e 94 0b 1c 	call	0x3816	; 0x3816 <__udivmodsi4>
     d8e:	c9 01       	movw	r24, r18
     d90:	1f 91       	pop	r17
     d92:	08 95       	ret

00000d94 <read_vcc_millivolts>:
     d94:	0e 94 9c 06 	call	0xd38	; 0xd38 <_ZN15OrangutanAnalog17readVCCMillivoltsEv>
     d98:	08 95       	ret

00000d9a <_ZN15OrangutanAnalog12toMillivoltsEj>:
     d9a:	a0 e0       	ldi	r26, 0x00	; 0
     d9c:	b0 e0       	ldi	r27, 0x00	; 0
     d9e:	20 91 08 01 	lds	r18, 0x0108
     da2:	30 91 09 01 	lds	r19, 0x0109
     da6:	40 e0       	ldi	r20, 0x00	; 0
     da8:	50 e0       	ldi	r21, 0x00	; 0
     daa:	bc 01       	movw	r22, r24
     dac:	cd 01       	movw	r24, r26
     dae:	0e 94 b9 1b 	call	0x3772	; 0x3772 <__mulsi3>
     db2:	9b 01       	movw	r18, r22
     db4:	ac 01       	movw	r20, r24
     db6:	80 91 7c 00 	lds	r24, 0x007C
     dba:	85 ff       	sbrs	r24, 5
     dbc:	0b c0       	rjmp	.+22     	; 0xdd4 <_ZN15OrangutanAnalog12toMillivoltsEj+0x3a>
     dbe:	b9 01       	movw	r22, r18
     dc0:	ca 01       	movw	r24, r20
     dc2:	61 58       	subi	r22, 0x81	; 129
     dc4:	7f 4f       	sbci	r23, 0xFF	; 255
     dc6:	8f 4f       	sbci	r24, 0xFF	; 255
     dc8:	9f 4f       	sbci	r25, 0xFF	; 255
     dca:	2f ef       	ldi	r18, 0xFF	; 255
     dcc:	30 e0       	ldi	r19, 0x00	; 0
     dce:	40 e0       	ldi	r20, 0x00	; 0
     dd0:	50 e0       	ldi	r21, 0x00	; 0
     dd2:	0a c0       	rjmp	.+20     	; 0xde8 <_ZN15OrangutanAnalog12toMillivoltsEj+0x4e>
     dd4:	b9 01       	movw	r22, r18
     dd6:	ca 01       	movw	r24, r20
     dd8:	61 50       	subi	r22, 0x01	; 1
     dda:	7e 4f       	sbci	r23, 0xFE	; 254
     ddc:	8f 4f       	sbci	r24, 0xFF	; 255
     dde:	9f 4f       	sbci	r25, 0xFF	; 255
     de0:	2f ef       	ldi	r18, 0xFF	; 255
     de2:	33 e0       	ldi	r19, 0x03	; 3
     de4:	40 e0       	ldi	r20, 0x00	; 0
     de6:	50 e0       	ldi	r21, 0x00	; 0
     de8:	0e 94 0b 1c 	call	0x3816	; 0x3816 <__udivmodsi4>
     dec:	c9 01       	movw	r24, r18
     dee:	08 95       	ret

00000df0 <_ZN15OrangutanAnalog21readAverageMillivoltsEhj>:
     df0:	0e 94 3d 06 	call	0xc7a	; 0xc7a <_ZN15OrangutanAnalog11readAverageEhj>
     df4:	0e 94 cd 06 	call	0xd9a	; 0xd9a <_ZN15OrangutanAnalog12toMillivoltsEj>
     df8:	08 95       	ret

00000dfa <analog_read_average_millivolts>:
     dfa:	0e 94 f8 06 	call	0xdf0	; 0xdf0 <_ZN15OrangutanAnalog21readAverageMillivoltsEhj>
     dfe:	08 95       	ret

00000e00 <_ZN15OrangutanAnalog26conversionResultMillivoltsEv>:
     e00:	80 91 7c 00 	lds	r24, 0x007C
     e04:	85 ff       	sbrs	r24, 5
     e06:	06 c0       	rjmp	.+12     	; 0xe14 <_ZN15OrangutanAnalog26conversionResultMillivoltsEv+0x14>
     e08:	80 91 79 00 	lds	r24, 0x0079
     e0c:	90 e0       	ldi	r25, 0x00	; 0
     e0e:	0e 94 cd 06 	call	0xd9a	; 0xd9a <_ZN15OrangutanAnalog12toMillivoltsEj>
     e12:	08 95       	ret
     e14:	80 91 78 00 	lds	r24, 0x0078
     e18:	90 91 79 00 	lds	r25, 0x0079
     e1c:	0e 94 cd 06 	call	0xd9a	; 0xd9a <_ZN15OrangutanAnalog12toMillivoltsEj>
     e20:	08 95       	ret

00000e22 <_ZN15OrangutanAnalog14readMillivoltsEh>:
     e22:	60 e0       	ldi	r22, 0x00	; 0
     e24:	0e 94 06 06 	call	0xc0c	; 0xc0c <_ZN15OrangutanAnalog15startConversionEhh>
     e28:	80 91 7a 00 	lds	r24, 0x007A
     e2c:	86 fd       	sbrc	r24, 6
     e2e:	fc cf       	rjmp	.-8      	; 0xe28 <_ZN15OrangutanAnalog14readMillivoltsEh+0x6>
     e30:	0e 94 00 07 	call	0xe00	; 0xe00 <_ZN15OrangutanAnalog26conversionResultMillivoltsEv>
     e34:	08 95       	ret

00000e36 <analog_read_millivolts>:
     e36:	0e 94 11 07 	call	0xe22	; 0xe22 <_ZN15OrangutanAnalog14readMillivoltsEh>
     e3a:	08 95       	ret

00000e3c <analog_conversion_result_millivolts>:
     e3c:	0e 94 00 07 	call	0xe00	; 0xe00 <_ZN15OrangutanAnalog26conversionResultMillivoltsEv>
     e40:	08 95       	ret

00000e42 <read_trimpot_millivolts>:
     e42:	87 e0       	ldi	r24, 0x07	; 7
     e44:	64 e1       	ldi	r22, 0x14	; 20
     e46:	70 e0       	ldi	r23, 0x00	; 0
     e48:	0e 94 3d 06 	call	0xc7a	; 0xc7a <_ZN15OrangutanAnalog11readAverageEhj>
     e4c:	0e 94 cd 06 	call	0xd9a	; 0xd9a <_ZN15OrangutanAnalog12toMillivoltsEj>
     e50:	08 95       	ret

00000e52 <to_millivolts>:
     e52:	0e 94 cd 06 	call	0xd9a	; 0xd9a <_ZN15OrangutanAnalog12toMillivoltsEj>
     e56:	08 95       	ret

00000e58 <_ZN15OrangutanAnalog16readTemperatureFEv>:
     e58:	1f 93       	push	r17
     e5a:	10 91 7c 00 	lds	r17, 0x007C
     e5e:	80 91 7c 00 	lds	r24, 0x007C
     e62:	8f 7d       	andi	r24, 0xDF	; 223
     e64:	80 93 7c 00 	sts	0x007C, r24
     e68:	86 e0       	ldi	r24, 0x06	; 6
     e6a:	64 e1       	ldi	r22, 0x14	; 20
     e6c:	70 e0       	ldi	r23, 0x00	; 0
     e6e:	0e 94 f8 06 	call	0xdf0	; 0xdf0 <_ZN15OrangutanAnalog21readAverageMillivoltsEhj>
     e72:	9c 01       	movw	r18, r24
     e74:	15 fd       	sbrc	r17, 5
     e76:	04 c0       	rjmp	.+8      	; 0xe80 <_ZN15OrangutanAnalog16readTemperatureFEv+0x28>
     e78:	80 91 7c 00 	lds	r24, 0x007C
     e7c:	8f 7d       	andi	r24, 0xDF	; 223
     e7e:	03 c0       	rjmp	.+6      	; 0xe86 <_ZN15OrangutanAnalog16readTemperatureFEv+0x2e>
     e80:	80 91 7c 00 	lds	r24, 0x007C
     e84:	80 62       	ori	r24, 0x20	; 32
     e86:	80 93 7c 00 	sts	0x007C, r24
     e8a:	c9 01       	movw	r24, r18
     e8c:	88 0f       	add	r24, r24
     e8e:	99 1f       	adc	r25, r25
     e90:	82 0f       	add	r24, r18
     e92:	93 1f       	adc	r25, r19
     e94:	88 0f       	add	r24, r24
     e96:	99 1f       	adc	r25, r25
     e98:	88 0f       	add	r24, r24
     e9a:	99 1f       	adc	r25, r25
     e9c:	8a 57       	subi	r24, 0x7A	; 122
     e9e:	92 40       	sbci	r25, 0x02	; 2
     ea0:	6d e0       	ldi	r22, 0x0D	; 13
     ea2:	70 e0       	ldi	r23, 0x00	; 0
     ea4:	0e 94 f8 1b 	call	0x37f0	; 0x37f0 <__divmodhi4>
     ea8:	cb 01       	movw	r24, r22
     eaa:	1f 91       	pop	r17
     eac:	08 95       	ret

00000eae <read_temperature_f>:
     eae:	0e 94 2c 07 	call	0xe58	; 0xe58 <_ZN15OrangutanAnalog16readTemperatureFEv>
     eb2:	08 95       	ret

00000eb4 <_ZN15OrangutanAnalog16readTemperatureCEv>:
     eb4:	1f 93       	push	r17
     eb6:	10 91 7c 00 	lds	r17, 0x007C
     eba:	80 91 7c 00 	lds	r24, 0x007C
     ebe:	8f 7d       	andi	r24, 0xDF	; 223
     ec0:	80 93 7c 00 	sts	0x007C, r24
     ec4:	86 e0       	ldi	r24, 0x06	; 6
     ec6:	64 e1       	ldi	r22, 0x14	; 20
     ec8:	70 e0       	ldi	r23, 0x00	; 0
     eca:	0e 94 f8 06 	call	0xdf0	; 0xdf0 <_ZN15OrangutanAnalog21readAverageMillivoltsEhj>
     ece:	9c 01       	movw	r18, r24
     ed0:	15 fd       	sbrc	r17, 5
     ed2:	04 c0       	rjmp	.+8      	; 0xedc <_ZN15OrangutanAnalog16readTemperatureCEv+0x28>
     ed4:	80 91 7c 00 	lds	r24, 0x007C
     ed8:	8f 7d       	andi	r24, 0xDF	; 223
     eda:	03 c0       	rjmp	.+6      	; 0xee2 <_ZN15OrangutanAnalog16readTemperatureCEv+0x2e>
     edc:	80 91 7c 00 	lds	r24, 0x007C
     ee0:	80 62       	ori	r24, 0x20	; 32
     ee2:	80 93 7c 00 	sts	0x007C, r24
     ee6:	84 e1       	ldi	r24, 0x14	; 20
     ee8:	90 e0       	ldi	r25, 0x00	; 0
     eea:	ac 01       	movw	r20, r24
     eec:	24 9f       	mul	r18, r20
     eee:	c0 01       	movw	r24, r0
     ef0:	25 9f       	mul	r18, r21
     ef2:	90 0d       	add	r25, r0
     ef4:	34 9f       	mul	r19, r20
     ef6:	90 0d       	add	r25, r0
     ef8:	11 24       	eor	r1, r1
     efa:	8e 52       	subi	r24, 0x2E	; 46
     efc:	9f 41       	sbci	r25, 0x1F	; 31
     efe:	67 e2       	ldi	r22, 0x27	; 39
     f00:	70 e0       	ldi	r23, 0x00	; 0
     f02:	0e 94 f8 1b 	call	0x37f0	; 0x37f0 <__divmodhi4>
     f06:	cb 01       	movw	r24, r22
     f08:	1f 91       	pop	r17
     f0a:	08 95       	ret

00000f0c <read_temperature_c>:
     f0c:	0e 94 5a 07 	call	0xeb4	; 0xeb4 <_ZN15OrangutanAnalog16readTemperatureCEv>
     f10:	08 95       	ret

00000f12 <_ZN15OrangutanAnalog25readBatteryMillivolts_3piEv>:
     f12:	1f 93       	push	r17
     f14:	10 91 7c 00 	lds	r17, 0x007C
     f18:	80 91 7c 00 	lds	r24, 0x007C
     f1c:	8f 7d       	andi	r24, 0xDF	; 223
     f1e:	80 93 7c 00 	sts	0x007C, r24
     f22:	86 e0       	ldi	r24, 0x06	; 6
     f24:	6a e0       	ldi	r22, 0x0A	; 10
     f26:	70 e0       	ldi	r23, 0x00	; 0
     f28:	0e 94 f8 06 	call	0xdf0	; 0xdf0 <_ZN15OrangutanAnalog21readAverageMillivoltsEhj>
     f2c:	ac 01       	movw	r20, r24
     f2e:	15 fd       	sbrc	r17, 5
     f30:	04 c0       	rjmp	.+8      	; 0xf3a <_ZN15OrangutanAnalog25readBatteryMillivolts_3piEv+0x28>
     f32:	80 91 7c 00 	lds	r24, 0x007C
     f36:	8f 7d       	andi	r24, 0xDF	; 223
     f38:	03 c0       	rjmp	.+6      	; 0xf40 <_ZN15OrangutanAnalog25readBatteryMillivolts_3piEv+0x2e>
     f3a:	80 91 7c 00 	lds	r24, 0x007C
     f3e:	80 62       	ori	r24, 0x20	; 32
     f40:	80 93 7c 00 	sts	0x007C, r24
     f44:	9a 01       	movw	r18, r20
     f46:	22 0f       	add	r18, r18
     f48:	33 1f       	adc	r19, r19
     f4a:	24 0f       	add	r18, r20
     f4c:	35 1f       	adc	r19, r21
     f4e:	2f 5f       	subi	r18, 0xFF	; 255
     f50:	3f 4f       	sbci	r19, 0xFF	; 255
     f52:	36 95       	lsr	r19
     f54:	27 95       	ror	r18
     f56:	c9 01       	movw	r24, r18
     f58:	1f 91       	pop	r17
     f5a:	08 95       	ret

00000f5c <read_battery_millivolts_3pi>:
     f5c:	0e 94 89 07 	call	0xf12	; 0xf12 <_ZN15OrangutanAnalog25readBatteryMillivolts_3piEv>
     f60:	08 95       	ret

00000f62 <_ZN15OrangutanAnalog24readBatteryMillivolts_SVEv>:
     f62:	1f 93       	push	r17
     f64:	10 91 7c 00 	lds	r17, 0x007C
     f68:	80 91 7c 00 	lds	r24, 0x007C
     f6c:	8f 7d       	andi	r24, 0xDF	; 223
     f6e:	80 93 7c 00 	sts	0x007C, r24
     f72:	86 e0       	ldi	r24, 0x06	; 6
     f74:	6a e0       	ldi	r22, 0x0A	; 10
     f76:	70 e0       	ldi	r23, 0x00	; 0
     f78:	0e 94 f8 06 	call	0xdf0	; 0xdf0 <_ZN15OrangutanAnalog21readAverageMillivoltsEhj>
     f7c:	ac 01       	movw	r20, r24
     f7e:	15 fd       	sbrc	r17, 5
     f80:	04 c0       	rjmp	.+8      	; 0xf8a <_ZN15OrangutanAnalog24readBatteryMillivolts_SVEv+0x28>
     f82:	80 91 7c 00 	lds	r24, 0x007C
     f86:	8f 7d       	andi	r24, 0xDF	; 223
     f88:	03 c0       	rjmp	.+6      	; 0xf90 <_ZN15OrangutanAnalog24readBatteryMillivolts_SVEv+0x2e>
     f8a:	80 91 7c 00 	lds	r24, 0x007C
     f8e:	80 62       	ori	r24, 0x20	; 32
     f90:	80 93 7c 00 	sts	0x007C, r24
     f94:	9a 01       	movw	r18, r20
     f96:	22 0f       	add	r18, r18
     f98:	33 1f       	adc	r19, r19
     f9a:	24 0f       	add	r18, r20
     f9c:	35 1f       	adc	r19, r21
     f9e:	c9 01       	movw	r24, r18
     fa0:	1f 91       	pop	r17
     fa2:	08 95       	ret

00000fa4 <read_battery_millivolts_sv168>:
     fa4:	0e 94 b1 07 	call	0xf62	; 0xf62 <_ZN15OrangutanAnalog24readBatteryMillivolts_SVEv>
     fa8:	08 95       	ret

00000faa <read_battery_millivolts_sv>:
     faa:	0e 94 b1 07 	call	0xf62	; 0xf62 <_ZN15OrangutanAnalog24readBatteryMillivolts_SVEv>
     fae:	08 95       	ret

00000fb0 <_ZN15OrangutanBuzzerC2Ev>:
     fb0:	08 95       	ret

00000fb2 <_ZN15OrangutanBuzzerC1Ev>:
     fb2:	08 95       	ret

00000fb4 <is_playing>:
     fb4:	80 91 15 01 	lds	r24, 0x0115
     fb8:	88 23       	and	r24, r24
     fba:	39 f0       	breq	.+14     	; 0xfca <is_playing+0x16>
     fbc:	20 e0       	ldi	r18, 0x00	; 0
     fbe:	80 91 48 02 	lds	r24, 0x0248
     fc2:	90 91 49 02 	lds	r25, 0x0249
     fc6:	89 2b       	or	r24, r25
     fc8:	09 f0       	breq	.+2      	; 0xfcc <is_playing+0x18>
     fca:	21 e0       	ldi	r18, 0x01	; 1
     fcc:	82 2f       	mov	r24, r18
     fce:	08 95       	ret

00000fd0 <_ZN15OrangutanBuzzer5init2Ev>:
     fd0:	10 92 6f 00 	sts	0x006F, r1
     fd4:	83 e2       	ldi	r24, 0x23	; 35
     fd6:	80 93 80 00 	sts	0x0080, r24
     fda:	81 e1       	ldi	r24, 0x11	; 17
     fdc:	80 93 81 00 	sts	0x0081, r24
     fe0:	10 92 82 00 	sts	0x0082, r1
     fe4:	80 e1       	ldi	r24, 0x10	; 16
     fe6:	97 e2       	ldi	r25, 0x27	; 39
     fe8:	90 93 89 00 	sts	0x0089, r25
     fec:	80 93 88 00 	sts	0x0088, r24
     ff0:	10 92 8b 00 	sts	0x008B, r1
     ff4:	10 92 8a 00 	sts	0x008A, r1
     ff8:	22 9a       	sbi	0x04, 2	; 4
     ffa:	78 94       	sei
     ffc:	08 95       	ret

00000ffe <_ZN15OrangutanBuzzer13playFrequencyEjjh>:
     ffe:	a0 e0       	ldi	r26, 0x00	; 0
    1000:	b0 e0       	ldi	r27, 0x00	; 0
    1002:	e5 e0       	ldi	r30, 0x05	; 5
    1004:	f8 e0       	ldi	r31, 0x08	; 8
    1006:	0c 94 50 1c 	jmp	0x38a0	; 0x38a0 <__prologue_saves__+0x10>
    100a:	8c 01       	movw	r16, r24
    100c:	5b 01       	movw	r10, r22
    100e:	c4 2e       	mov	r12, r20
    1010:	80 91 47 02 	lds	r24, 0x0247
    1014:	88 23       	and	r24, r24
    1016:	29 f4       	brne	.+10     	; 0x1022 <_ZN15OrangutanBuzzer13playFrequencyEjjh+0x24>
    1018:	81 e0       	ldi	r24, 0x01	; 1
    101a:	80 93 47 02 	sts	0x0247, r24
    101e:	0e 94 e8 07 	call	0xfd0	; 0xfd0 <_ZN15OrangutanBuzzer5init2Ev>
    1022:	10 92 15 01 	sts	0x0115, r1
    1026:	17 fd       	sbrc	r17, 7
    1028:	03 c0       	rjmp	.+6      	; 0x1030 <_ZN15OrangutanBuzzer13playFrequencyEjjh+0x32>
    102a:	dd 24       	eor	r13, r13
    102c:	d3 94       	inc	r13
    102e:	03 c0       	rjmp	.+6      	; 0x1036 <_ZN15OrangutanBuzzer13playFrequencyEjjh+0x38>
    1030:	1f 77       	andi	r17, 0x7F	; 127
    1032:	2a e0       	ldi	r18, 0x0A	; 10
    1034:	d2 2e       	mov	r13, r18
    1036:	80 91 81 00 	lds	r24, 0x0081
    103a:	e8 2e       	mov	r14, r24
    103c:	ff 24       	eor	r15, r15
    103e:	88 ef       	ldi	r24, 0xF8	; 248
    1040:	e8 22       	and	r14, r24
    1042:	ff 24       	eor	r15, r15
    1044:	88 ec       	ldi	r24, 0xC8	; 200
    1046:	d8 9e       	mul	r13, r24
    1048:	c0 01       	movw	r24, r0
    104a:	11 24       	eor	r1, r1
    104c:	80 17       	cp	r24, r16
    104e:	91 07       	cpc	r25, r17
    1050:	c8 f4       	brcc	.+50     	; 0x1084 <_ZN15OrangutanBuzzer13playFrequencyEjjh+0x86>
    1052:	e8 01       	movw	r28, r16
    1054:	97 e2       	ldi	r25, 0x27	; 39
    1056:	01 31       	cpi	r16, 0x11	; 17
    1058:	19 07       	cpc	r17, r25
    105a:	10 f0       	brcs	.+4      	; 0x1060 <_ZN15OrangutanBuzzer13playFrequencyEjjh+0x62>
    105c:	c0 e1       	ldi	r28, 0x10	; 16
    105e:	d7 e2       	ldi	r29, 0x27	; 39
    1060:	be 01       	movw	r22, r28
    1062:	76 95       	lsr	r23
    1064:	67 95       	ror	r22
    1066:	80 e0       	ldi	r24, 0x00	; 0
    1068:	90 e0       	ldi	r25, 0x00	; 0
    106a:	60 58       	subi	r22, 0x80	; 128
    106c:	79 46       	sbci	r23, 0x69	; 105
    106e:	87 46       	sbci	r24, 0x67	; 103
    1070:	9f 4f       	sbci	r25, 0xFF	; 255
    1072:	9e 01       	movw	r18, r28
    1074:	40 e0       	ldi	r20, 0x00	; 0
    1076:	50 e0       	ldi	r21, 0x00	; 0
    1078:	0e 94 0b 1c 	call	0x3816	; 0x3816 <__udivmodsi4>
    107c:	89 01       	movw	r16, r18
    107e:	81 e0       	ldi	r24, 0x01	; 1
    1080:	90 e0       	ldi	r25, 0x00	; 0
    1082:	25 c0       	rjmp	.+74     	; 0x10ce <_ZN15OrangutanBuzzer13playFrequencyEjjh+0xd0>
    1084:	88 e2       	ldi	r24, 0x28	; 40
    1086:	d8 9e       	mul	r13, r24
    1088:	80 2d       	mov	r24, r0
    108a:	11 24       	eor	r1, r1
    108c:	c8 2f       	mov	r28, r24
    108e:	d0 e0       	ldi	r29, 0x00	; 0
    1090:	c0 17       	cp	r28, r16
    1092:	d1 07       	cpc	r29, r17
    1094:	08 f4       	brcc	.+2      	; 0x1098 <_ZN15OrangutanBuzzer13playFrequencyEjjh+0x9a>
    1096:	e8 01       	movw	r28, r16
    1098:	be 01       	movw	r22, r28
    109a:	76 95       	lsr	r23
    109c:	67 95       	ror	r22
    109e:	9e 01       	movw	r18, r28
    10a0:	40 e0       	ldi	r20, 0x00	; 0
    10a2:	50 e0       	ldi	r21, 0x00	; 0
    10a4:	9a e0       	ldi	r25, 0x0A	; 10
    10a6:	d9 16       	cp	r13, r25
    10a8:	39 f4       	brne	.+14     	; 0x10b8 <_ZN15OrangutanBuzzer13playFrequencyEjjh+0xba>
    10aa:	80 e0       	ldi	r24, 0x00	; 0
    10ac:	90 e0       	ldi	r25, 0x00	; 0
    10ae:	60 5e       	subi	r22, 0xE0	; 224
    10b0:	73 44       	sbci	r23, 0x43	; 67
    10b2:	81 44       	sbci	r24, 0x41	; 65
    10b4:	9f 4f       	sbci	r25, 0xFF	; 255
    10b6:	06 c0       	rjmp	.+12     	; 0x10c4 <_ZN15OrangutanBuzzer13playFrequencyEjjh+0xc6>
    10b8:	80 e0       	ldi	r24, 0x00	; 0
    10ba:	90 e0       	ldi	r25, 0x00	; 0
    10bc:	60 53       	subi	r22, 0x30	; 48
    10be:	7d 4e       	sbci	r23, 0xED	; 237
    10c0:	8c 4e       	sbci	r24, 0xEC	; 236
    10c2:	9f 4f       	sbci	r25, 0xFF	; 255
    10c4:	0e 94 0b 1c 	call	0x3816	; 0x3816 <__udivmodsi4>
    10c8:	89 01       	movw	r16, r18
    10ca:	82 e0       	ldi	r24, 0x02	; 2
    10cc:	90 e0       	ldi	r25, 0x00	; 0
    10ce:	e8 2a       	or	r14, r24
    10d0:	f9 2a       	or	r15, r25
    10d2:	9a e0       	ldi	r25, 0x0A	; 10
    10d4:	d9 16       	cp	r13, r25
    10d6:	39 f4       	brne	.+14     	; 0x10e6 <_ZN15OrangutanBuzzer13playFrequencyEjjh+0xe8>
    10d8:	ce 01       	movw	r24, r28
    10da:	05 96       	adiw	r24, 0x05	; 5
    10dc:	6a e0       	ldi	r22, 0x0A	; 10
    10de:	70 e0       	ldi	r23, 0x00	; 0
    10e0:	0e 94 e4 1b 	call	0x37c8	; 0x37c8 <__udivmodhi4>
    10e4:	eb 01       	movw	r28, r22
    10e6:	83 e0       	ldi	r24, 0x03	; 3
    10e8:	c8 3e       	cpi	r28, 0xE8	; 232
    10ea:	d8 07       	cpc	r29, r24
    10ec:	11 f4       	brne	.+4      	; 0x10f2 <_ZN15OrangutanBuzzer13playFrequencyEjjh+0xf4>
    10ee:	b5 01       	movw	r22, r10
    10f0:	0f c0       	rjmp	.+30     	; 0x1110 <_ZN15OrangutanBuzzer13playFrequencyEjjh+0x112>
    10f2:	be 01       	movw	r22, r28
    10f4:	80 e0       	ldi	r24, 0x00	; 0
    10f6:	90 e0       	ldi	r25, 0x00	; 0
    10f8:	95 01       	movw	r18, r10
    10fa:	40 e0       	ldi	r20, 0x00	; 0
    10fc:	50 e0       	ldi	r21, 0x00	; 0
    10fe:	0e 94 b9 1b 	call	0x3772	; 0x3772 <__mulsi3>
    1102:	28 ee       	ldi	r18, 0xE8	; 232
    1104:	33 e0       	ldi	r19, 0x03	; 3
    1106:	40 e0       	ldi	r20, 0x00	; 0
    1108:	50 e0       	ldi	r21, 0x00	; 0
    110a:	0e 94 2d 1c 	call	0x385a	; 0x385a <__divmodsi4>
    110e:	b9 01       	movw	r22, r18
    1110:	10 92 6f 00 	sts	0x006F, r1
    1114:	e0 92 81 00 	sts	0x0081, r14
    1118:	10 93 89 00 	sts	0x0089, r17
    111c:	00 93 88 00 	sts	0x0088, r16
    1120:	e0 91 88 00 	lds	r30, 0x0088
    1124:	f0 91 89 00 	lds	r31, 0x0089
    1128:	ac 2d       	mov	r26, r12
    112a:	a0 31       	cpi	r26, 0x10	; 16
    112c:	08 f0       	brcs	.+2      	; 0x1130 <_ZN15OrangutanBuzzer13playFrequencyEjjh+0x132>
    112e:	af e0       	ldi	r26, 0x0F	; 15
    1130:	80 e1       	ldi	r24, 0x10	; 16
    1132:	90 e0       	ldi	r25, 0x00	; 0
    1134:	8a 1b       	sub	r24, r26
    1136:	91 09       	sbc	r25, r1
    1138:	02 c0       	rjmp	.+4      	; 0x113e <_ZN15OrangutanBuzzer13playFrequencyEjjh+0x140>
    113a:	f6 95       	lsr	r31
    113c:	e7 95       	ror	r30
    113e:	8a 95       	dec	r24
    1140:	e2 f7       	brpl	.-8      	; 0x113a <_ZN15OrangutanBuzzer13playFrequencyEjjh+0x13c>
    1142:	f0 93 8b 00 	sts	0x008B, r31
    1146:	e0 93 8a 00 	sts	0x008A, r30
    114a:	70 93 2f 02 	sts	0x022F, r23
    114e:	60 93 2e 02 	sts	0x022E, r22
    1152:	86 b3       	in	r24, 0x16	; 22
    1154:	8f ef       	ldi	r24, 0xFF	; 255
    1156:	86 bb       	out	0x16, r24	; 22
    1158:	81 e0       	ldi	r24, 0x01	; 1
    115a:	80 93 6f 00 	sts	0x006F, r24
    115e:	cd b7       	in	r28, 0x3d	; 61
    1160:	de b7       	in	r29, 0x3e	; 62
    1162:	ea e0       	ldi	r30, 0x0A	; 10
    1164:	0c 94 6c 1c 	jmp	0x38d8	; 0x38d8 <__epilogue_restores__+0x10>

00001168 <play_frequency>:
    1168:	0e 94 ff 07 	call	0xffe	; 0xffe <_ZN15OrangutanBuzzer13playFrequencyEjjh>
    116c:	08 95       	ret

0000116e <_ZN15OrangutanBuzzer8playNoteEhjh>:
    116e:	cf 93       	push	r28
    1170:	df 93       	push	r29
    1172:	eb 01       	movw	r28, r22
    1174:	8f 3f       	cpi	r24, 0xFF	; 255
    1176:	11 f0       	breq	.+4      	; 0x117c <_ZN15OrangutanBuzzer8playNoteEhjh+0xe>
    1178:	44 23       	and	r20, r20
    117a:	29 f4       	brne	.+10     	; 0x1186 <_ZN15OrangutanBuzzer8playNoteEhjh+0x18>
    117c:	88 ee       	ldi	r24, 0xE8	; 232
    117e:	93 e0       	ldi	r25, 0x03	; 3
    1180:	be 01       	movw	r22, r28
    1182:	40 e0       	ldi	r20, 0x00	; 0
    1184:	67 c0       	rjmp	.+206    	; 0x1254 <_ZN15OrangutanBuzzer8playNoteEhjh+0xe6>
    1186:	81 31       	cpi	r24, 0x11	; 17
    1188:	10 f4       	brcc	.+4      	; 0x118e <_ZN15OrangutanBuzzer8playNoteEhjh+0x20>
    118a:	20 e0       	ldi	r18, 0x00	; 0
    118c:	05 c0       	rjmp	.+10     	; 0x1198 <_ZN15OrangutanBuzzer8playNoteEhjh+0x2a>
    118e:	28 2f       	mov	r18, r24
    1190:	20 51       	subi	r18, 0x10	; 16
    1192:	20 36       	cpi	r18, 0x60	; 96
    1194:	08 f0       	brcs	.+2      	; 0x1198 <_ZN15OrangutanBuzzer8playNoteEhjh+0x2a>
    1196:	2f e5       	ldi	r18, 0x5F	; 95
    1198:	82 2f       	mov	r24, r18
    119a:	6c e0       	ldi	r22, 0x0C	; 12
    119c:	0e 94 d8 1b 	call	0x37b0	; 0x37b0 <__udivmodqi4>
    11a0:	38 2f       	mov	r19, r24
    11a2:	68 2f       	mov	r22, r24
    11a4:	70 e0       	ldi	r23, 0x00	; 0
    11a6:	84 ef       	ldi	r24, 0xF4	; 244
    11a8:	9f ef       	ldi	r25, 0xFF	; 255
    11aa:	68 9f       	mul	r22, r24
    11ac:	f0 01       	movw	r30, r0
    11ae:	69 9f       	mul	r22, r25
    11b0:	f0 0d       	add	r31, r0
    11b2:	78 9f       	mul	r23, r24
    11b4:	f0 0d       	add	r31, r0
    11b6:	11 24       	eor	r1, r1
    11b8:	e2 0f       	add	r30, r18
    11ba:	f1 1d       	adc	r31, r1
    11bc:	ec 30       	cpi	r30, 0x0C	; 12
    11be:	f1 05       	cpc	r31, r1
    11c0:	38 f4       	brcc	.+14     	; 0x11d0 <_ZN15OrangutanBuzzer8playNoteEhjh+0x62>
    11c2:	ec 5c       	subi	r30, 0xCC	; 204
    11c4:	ff 4f       	sbci	r31, 0xFF	; 255
    11c6:	0c 94 7f 1c 	jmp	0x38fe	; 0x38fe <__tablejump2__>
    11ca:	8c e9       	ldi	r24, 0x9C	; 156
    11cc:	91 e0       	ldi	r25, 0x01	; 1
    11ce:	23 c0       	rjmp	.+70     	; 0x1216 <_ZN15OrangutanBuzzer8playNoteEhjh+0xa8>
    11d0:	80 e0       	ldi	r24, 0x00	; 0
    11d2:	90 e0       	ldi	r25, 0x00	; 0
    11d4:	20 c0       	rjmp	.+64     	; 0x1216 <_ZN15OrangutanBuzzer8playNoteEhjh+0xa8>
    11d6:	85 eb       	ldi	r24, 0xB5	; 181
    11d8:	91 e0       	ldi	r25, 0x01	; 1
    11da:	1d c0       	rjmp	.+58     	; 0x1216 <_ZN15OrangutanBuzzer8playNoteEhjh+0xa8>
    11dc:	8f ec       	ldi	r24, 0xCF	; 207
    11de:	91 e0       	ldi	r25, 0x01	; 1
    11e0:	1a c0       	rjmp	.+52     	; 0x1216 <_ZN15OrangutanBuzzer8playNoteEhjh+0xa8>
    11e2:	8a ee       	ldi	r24, 0xEA	; 234
    11e4:	91 e0       	ldi	r25, 0x01	; 1
    11e6:	17 c0       	rjmp	.+46     	; 0x1216 <_ZN15OrangutanBuzzer8playNoteEhjh+0xa8>
    11e8:	87 e0       	ldi	r24, 0x07	; 7
    11ea:	92 e0       	ldi	r25, 0x02	; 2
    11ec:	14 c0       	rjmp	.+40     	; 0x1216 <_ZN15OrangutanBuzzer8playNoteEhjh+0xa8>
    11ee:	86 e2       	ldi	r24, 0x26	; 38
    11f0:	92 e0       	ldi	r25, 0x02	; 2
    11f2:	11 c0       	rjmp	.+34     	; 0x1216 <_ZN15OrangutanBuzzer8playNoteEhjh+0xa8>
    11f4:	87 e4       	ldi	r24, 0x47	; 71
    11f6:	92 e0       	ldi	r25, 0x02	; 2
    11f8:	0e c0       	rjmp	.+28     	; 0x1216 <_ZN15OrangutanBuzzer8playNoteEhjh+0xa8>
    11fa:	89 e6       	ldi	r24, 0x69	; 105
    11fc:	92 e0       	ldi	r25, 0x02	; 2
    11fe:	0b c0       	rjmp	.+22     	; 0x1216 <_ZN15OrangutanBuzzer8playNoteEhjh+0xa8>
    1200:	8e e8       	ldi	r24, 0x8E	; 142
    1202:	92 e0       	ldi	r25, 0x02	; 2
    1204:	08 c0       	rjmp	.+16     	; 0x1216 <_ZN15OrangutanBuzzer8playNoteEhjh+0xa8>
    1206:	85 eb       	ldi	r24, 0xB5	; 181
    1208:	92 e0       	ldi	r25, 0x02	; 2
    120a:	05 c0       	rjmp	.+10     	; 0x1216 <_ZN15OrangutanBuzzer8playNoteEhjh+0xa8>
    120c:	8e ed       	ldi	r24, 0xDE	; 222
    120e:	92 e0       	ldi	r25, 0x02	; 2
    1210:	02 c0       	rjmp	.+4      	; 0x1216 <_ZN15OrangutanBuzzer8playNoteEhjh+0xa8>
    1212:	8a e0       	ldi	r24, 0x0A	; 10
    1214:	93 e0       	ldi	r25, 0x03	; 3
    1216:	37 30       	cpi	r19, 0x07	; 7
    1218:	71 f0       	breq	.+28     	; 0x1236 <_ZN15OrangutanBuzzer8playNoteEhjh+0xc8>
    121a:	02 c0       	rjmp	.+4      	; 0x1220 <_ZN15OrangutanBuzzer8playNoteEhjh+0xb2>
    121c:	88 0f       	add	r24, r24
    121e:	99 1f       	adc	r25, r25
    1220:	6a 95       	dec	r22
    1222:	e2 f7       	brpl	.-8      	; 0x121c <_ZN15OrangutanBuzzer8playNoteEhjh+0xae>
    1224:	32 30       	cpi	r19, 0x02	; 2
    1226:	20 f0       	brcs	.+8      	; 0x1230 <_ZN15OrangutanBuzzer8playNoteEhjh+0xc2>
    1228:	05 96       	adiw	r24, 0x05	; 5
    122a:	6a e0       	ldi	r22, 0x0A	; 10
    122c:	70 e0       	ldi	r23, 0x00	; 0
    122e:	0b c0       	rjmp	.+22     	; 0x1246 <_ZN15OrangutanBuzzer8playNoteEhjh+0xd8>
    1230:	80 50       	subi	r24, 0x00	; 0
    1232:	90 48       	sbci	r25, 0x80	; 128
    1234:	0b c0       	rjmp	.+22     	; 0x124c <_ZN15OrangutanBuzzer8playNoteEhjh+0xde>
    1236:	36 e0       	ldi	r19, 0x06	; 6
    1238:	88 0f       	add	r24, r24
    123a:	99 1f       	adc	r25, r25
    123c:	3a 95       	dec	r19
    123e:	e1 f7       	brne	.-8      	; 0x1238 <_ZN15OrangutanBuzzer8playNoteEhjh+0xca>
    1240:	02 96       	adiw	r24, 0x02	; 2
    1242:	65 e0       	ldi	r22, 0x05	; 5
    1244:	70 e0       	ldi	r23, 0x00	; 0
    1246:	0e 94 e4 1b 	call	0x37c8	; 0x37c8 <__udivmodhi4>
    124a:	cb 01       	movw	r24, r22
    124c:	40 31       	cpi	r20, 0x10	; 16
    124e:	08 f0       	brcs	.+2      	; 0x1252 <_ZN15OrangutanBuzzer8playNoteEhjh+0xe4>
    1250:	4f e0       	ldi	r20, 0x0F	; 15
    1252:	be 01       	movw	r22, r28
    1254:	0e 94 ff 07 	call	0xffe	; 0xffe <_ZN15OrangutanBuzzer13playFrequencyEjjh>
    1258:	df 91       	pop	r29
    125a:	cf 91       	pop	r28
    125c:	08 95       	ret

0000125e <play_note>:
    125e:	0e 94 b7 08 	call	0x116e	; 0x116e <_ZN15OrangutanBuzzer8playNoteEhjh>
    1262:	08 95       	ret

00001264 <_ZN15OrangutanBuzzer9isPlayingEv>:
    1264:	80 91 15 01 	lds	r24, 0x0115
    1268:	88 23       	and	r24, r24
    126a:	39 f0       	breq	.+14     	; 0x127a <_ZN15OrangutanBuzzer9isPlayingEv+0x16>
    126c:	20 e0       	ldi	r18, 0x00	; 0
    126e:	80 91 48 02 	lds	r24, 0x0248
    1272:	90 91 49 02 	lds	r25, 0x0249
    1276:	89 2b       	or	r24, r25
    1278:	09 f0       	breq	.+2      	; 0x127c <_ZN15OrangutanBuzzer9isPlayingEv+0x18>
    127a:	21 e0       	ldi	r18, 0x01	; 1
    127c:	82 2f       	mov	r24, r18
    127e:	08 95       	ret

00001280 <_ZN15OrangutanBuzzer11stopPlayingEv>:
    1280:	10 92 6f 00 	sts	0x006F, r1
    1284:	e1 e8       	ldi	r30, 0x81	; 129
    1286:	f0 e0       	ldi	r31, 0x00	; 0
    1288:	80 81       	ld	r24, Z
    128a:	88 7f       	andi	r24, 0xF8	; 248
    128c:	81 60       	ori	r24, 0x01	; 1
    128e:	80 83       	st	Z, r24
    1290:	80 e1       	ldi	r24, 0x10	; 16
    1292:	97 e2       	ldi	r25, 0x27	; 39
    1294:	90 93 89 00 	sts	0x0089, r25
    1298:	80 93 88 00 	sts	0x0088, r24
    129c:	10 92 8b 00 	sts	0x008B, r1
    12a0:	10 92 8a 00 	sts	0x008A, r1
    12a4:	81 e0       	ldi	r24, 0x01	; 1
    12a6:	80 93 15 01 	sts	0x0115, r24
    12aa:	10 92 49 02 	sts	0x0249, r1
    12ae:	10 92 48 02 	sts	0x0248, r1
    12b2:	08 95       	ret

000012b4 <stop_playing>:
    12b4:	0e 94 40 09 	call	0x1280	; 0x1280 <_ZN15OrangutanBuzzer11stopPlayingEv>
    12b8:	08 95       	ret

000012ba <_ZL16currentCharacterv>:
    12ba:	30 91 2c 02 	lds	r19, 0x022C
    12be:	e0 91 48 02 	lds	r30, 0x0248
    12c2:	f0 91 49 02 	lds	r31, 0x0249
    12c6:	33 23       	and	r19, r19
    12c8:	11 f0       	breq	.+4      	; 0x12ce <_ZL16currentCharacterv+0x14>
    12ca:	24 91       	lpm	r18, Z+
    12cc:	01 c0       	rjmp	.+2      	; 0x12d0 <_ZL16currentCharacterv+0x16>
    12ce:	20 81       	ld	r18, Z
    12d0:	82 2f       	mov	r24, r18
    12d2:	81 54       	subi	r24, 0x41	; 65
    12d4:	8a 31       	cpi	r24, 0x1A	; 26
    12d6:	08 f4       	brcc	.+2      	; 0x12da <_ZL16currentCharacterv+0x20>
    12d8:	20 5e       	subi	r18, 0xE0	; 224
    12da:	20 32       	cpi	r18, 0x20	; 32
    12dc:	59 f4       	brne	.+22     	; 0x12f4 <_ZL16currentCharacterv+0x3a>
    12de:	80 91 48 02 	lds	r24, 0x0248
    12e2:	90 91 49 02 	lds	r25, 0x0249
    12e6:	01 96       	adiw	r24, 0x01	; 1
    12e8:	90 93 49 02 	sts	0x0249, r25
    12ec:	80 93 48 02 	sts	0x0248, r24
    12f0:	01 97       	sbiw	r24, 0x01	; 1
    12f2:	29 f7       	brne	.-54     	; 0x12be <_ZL16currentCharacterv+0x4>
    12f4:	82 2f       	mov	r24, r18
    12f6:	08 95       	ret

000012f8 <_ZL9getNumberv>:
    12f8:	cf 93       	push	r28
    12fa:	df 93       	push	r29
    12fc:	0e 94 5d 09 	call	0x12ba	; 0x12ba <_ZL16currentCharacterv>
    1300:	28 2f       	mov	r18, r24
    1302:	c0 e0       	ldi	r28, 0x00	; 0
    1304:	d0 e0       	ldi	r29, 0x00	; 0
    1306:	1d c0       	rjmp	.+58     	; 0x1342 <_ZL9getNumberv+0x4a>
    1308:	ce 01       	movw	r24, r28
    130a:	53 e0       	ldi	r21, 0x03	; 3
    130c:	88 0f       	add	r24, r24
    130e:	99 1f       	adc	r25, r25
    1310:	5a 95       	dec	r21
    1312:	e1 f7       	brne	.-8      	; 0x130c <_ZL9getNumberv+0x14>
    1314:	cc 0f       	add	r28, r28
    1316:	dd 1f       	adc	r29, r29
    1318:	c8 0f       	add	r28, r24
    131a:	d9 1f       	adc	r29, r25
    131c:	82 2f       	mov	r24, r18
    131e:	99 27       	eor	r25, r25
    1320:	87 fd       	sbrc	r24, 7
    1322:	90 95       	com	r25
    1324:	c8 0f       	add	r28, r24
    1326:	d9 1f       	adc	r29, r25
    1328:	e0 97       	sbiw	r28, 0x30	; 48
    132a:	80 91 48 02 	lds	r24, 0x0248
    132e:	90 91 49 02 	lds	r25, 0x0249
    1332:	01 96       	adiw	r24, 0x01	; 1
    1334:	90 93 49 02 	sts	0x0249, r25
    1338:	80 93 48 02 	sts	0x0248, r24
    133c:	0e 94 5d 09 	call	0x12ba	; 0x12ba <_ZL16currentCharacterv>
    1340:	28 2f       	mov	r18, r24
    1342:	82 2f       	mov	r24, r18
    1344:	80 53       	subi	r24, 0x30	; 48
    1346:	8a 30       	cpi	r24, 0x0A	; 10
    1348:	f8 f2       	brcs	.-66     	; 0x1308 <_ZL9getNumberv+0x10>
    134a:	ce 01       	movw	r24, r28
    134c:	df 91       	pop	r29
    134e:	cf 91       	pop	r28
    1350:	08 95       	ret

00001352 <_ZL8nextNotev>:
    1352:	a0 e0       	ldi	r26, 0x00	; 0
    1354:	b0 e0       	ldi	r27, 0x00	; 0
    1356:	ef ea       	ldi	r30, 0xAF	; 175
    1358:	f9 e0       	ldi	r31, 0x09	; 9
    135a:	0c 94 4e 1c 	jmp	0x389c	; 0x389c <__prologue_saves__+0xc>
    135e:	80 90 0a 01 	lds	r8, 0x010A
    1362:	b0 90 2a 02 	lds	r11, 0x022A
    1366:	bb 20       	and	r11, r11
    1368:	21 f0       	breq	.+8      	; 0x1372 <_ZL8nextNotev+0x20>
    136a:	60 91 2b 02 	lds	r22, 0x022B
    136e:	66 23       	and	r22, r22
    1370:	99 f4       	brne	.+38     	; 0x1398 <_ZL8nextNotev+0x46>
    1372:	a0 90 2b 02 	lds	r10, 0x022B
    1376:	00 91 0f 01 	lds	r16, 0x010F
    137a:	10 91 10 01 	lds	r17, 0x0110
    137e:	e0 90 0b 01 	lds	r14, 0x010B
    1382:	f0 90 0c 01 	lds	r15, 0x010C
    1386:	c0 91 0d 01 	lds	r28, 0x010D
    138a:	d0 91 0e 01 	lds	r29, 0x010E
    138e:	c0 90 11 01 	lds	r12, 0x0111
    1392:	d0 90 12 01 	lds	r13, 0x0112
    1396:	08 c1       	rjmp	.+528    	; 0x15a8 <_ZL8nextNotev+0x256>
    1398:	8f ef       	ldi	r24, 0xFF	; 255
    139a:	70 e0       	ldi	r23, 0x00	; 0
    139c:	40 e0       	ldi	r20, 0x00	; 0
    139e:	0e 94 b7 08 	call	0x116e	; 0x116e <_ZN15OrangutanBuzzer8playNoteEhjh>
    13a2:	10 92 2b 02 	sts	0x022B, r1
    13a6:	cb c1       	rjmp	.+918    	; 0x173e <_ZL8nextNotev+0x3ec>
    13a8:	94 e0       	ldi	r25, 0x04	; 4
    13aa:	89 2e       	mov	r8, r25
    13ac:	bb 24       	eor	r11, r11
    13ae:	04 ef       	ldi	r16, 0xF4	; 244
    13b0:	11 e0       	ldi	r17, 0x01	; 1
    13b2:	84 e0       	ldi	r24, 0x04	; 4
    13b4:	e8 2e       	mov	r14, r24
    13b6:	f1 2c       	mov	r15, r1
    13b8:	c0 ed       	ldi	r28, 0xD0	; 208
    13ba:	d7 e0       	ldi	r29, 0x07	; 7
    13bc:	b4 e0       	ldi	r27, 0x04	; 4
    13be:	9b 2e       	mov	r9, r27
    13c0:	af e0       	ldi	r26, 0x0F	; 15
    13c2:	ca 2e       	mov	r12, r26
    13c4:	d1 2c       	mov	r13, r1
    13c6:	0e 94 5d 09 	call	0x12ba	; 0x12ba <_ZL16currentCharacterv>
    13ca:	28 2f       	mov	r18, r24
    13cc:	80 91 48 02 	lds	r24, 0x0248
    13d0:	90 91 49 02 	lds	r25, 0x0249
    13d4:	01 96       	adiw	r24, 0x01	; 1
    13d6:	90 93 49 02 	sts	0x0249, r25
    13da:	80 93 48 02 	sts	0x0248, r24
    13de:	26 36       	cpi	r18, 0x66	; 102
    13e0:	09 f4       	brne	.+2      	; 0x13e4 <_ZL8nextNotev+0x92>
    13e2:	98 c0       	rjmp	.+304    	; 0x1514 <_ZL8nextNotev+0x1c2>
    13e4:	27 36       	cpi	r18, 0x67	; 103
    13e6:	cc f4       	brge	.+50     	; 0x141a <_ZL8nextNotev+0xc8>
    13e8:	22 36       	cpi	r18, 0x62	; 98
    13ea:	a1 f1       	breq	.+104    	; 0x1454 <_ZL8nextNotev+0x102>
    13ec:	23 36       	cpi	r18, 0x63	; 99
    13ee:	74 f4       	brge	.+28     	; 0x140c <_ZL8nextNotev+0xba>
    13f0:	2e 33       	cpi	r18, 0x3E	; 62
    13f2:	61 f1       	breq	.+88     	; 0x144c <_ZL8nextNotev+0xfa>
    13f4:	2f 33       	cpi	r18, 0x3F	; 63
    13f6:	34 f4       	brge	.+12     	; 0x1404 <_ZL8nextNotev+0xb2>
    13f8:	21 32       	cpi	r18, 0x21	; 33
    13fa:	b1 f2       	breq	.-84     	; 0x13a8 <_ZL8nextNotev+0x56>
    13fc:	2c 33       	cpi	r18, 0x3C	; 60
    13fe:	09 f0       	breq	.+2      	; 0x1402 <_ZL8nextNotev+0xb0>
    1400:	0b c1       	rjmp	.+534    	; 0x1618 <_ZL8nextNotev+0x2c6>
    1402:	26 c0       	rjmp	.+76     	; 0x1450 <_ZL8nextNotev+0xfe>
    1404:	21 36       	cpi	r18, 0x61	; 97
    1406:	09 f0       	breq	.+2      	; 0x140a <_ZL8nextNotev+0xb8>
    1408:	07 c1       	rjmp	.+526    	; 0x1618 <_ZL8nextNotev+0x2c6>
    140a:	21 c1       	rjmp	.+578    	; 0x164e <_ZL8nextNotev+0x2fc>
    140c:	24 36       	cpi	r18, 0x64	; 100
    140e:	09 f4       	brne	.+2      	; 0x1412 <_ZL8nextNotev+0xc0>
    1410:	51 c0       	rjmp	.+162    	; 0x14b4 <_ZL8nextNotev+0x162>
    1412:	25 36       	cpi	r18, 0x65	; 101
    1414:	0c f0       	brlt	.+2      	; 0x1418 <_ZL8nextNotev+0xc6>
    1416:	66 c0       	rjmp	.+204    	; 0x14e4 <_ZL8nextNotev+0x192>
    1418:	35 c0       	rjmp	.+106    	; 0x1484 <_ZL8nextNotev+0x132>
    141a:	2f 36       	cpi	r18, 0x6F	; 111
    141c:	09 f4       	brne	.+2      	; 0x1420 <_ZL8nextNotev+0xce>
    141e:	c1 c0       	rjmp	.+386    	; 0x15a2 <_ZL8nextNotev+0x250>
    1420:	20 37       	cpi	r18, 0x70	; 112
    1422:	54 f4       	brge	.+20     	; 0x1438 <_ZL8nextNotev+0xe6>
    1424:	2c 36       	cpi	r18, 0x6C	; 108
    1426:	09 f4       	brne	.+2      	; 0x142a <_ZL8nextNotev+0xd8>
    1428:	a5 c0       	rjmp	.+330    	; 0x1574 <_ZL8nextNotev+0x222>
    142a:	2d 36       	cpi	r18, 0x6D	; 109
    142c:	09 f4       	brne	.+2      	; 0x1430 <_ZL8nextNotev+0xde>
    142e:	a6 c0       	rjmp	.+332    	; 0x157c <_ZL8nextNotev+0x22a>
    1430:	27 36       	cpi	r18, 0x67	; 103
    1432:	09 f0       	breq	.+2      	; 0x1436 <_ZL8nextNotev+0xe4>
    1434:	f1 c0       	rjmp	.+482    	; 0x1618 <_ZL8nextNotev+0x2c6>
    1436:	86 c0       	rjmp	.+268    	; 0x1544 <_ZL8nextNotev+0x1f2>
    1438:	24 37       	cpi	r18, 0x74	; 116
    143a:	09 f4       	brne	.+2      	; 0x143e <_ZL8nextNotev+0xec>
    143c:	d1 c0       	rjmp	.+418    	; 0x15e0 <_ZL8nextNotev+0x28e>
    143e:	26 37       	cpi	r18, 0x76	; 118
    1440:	09 f4       	brne	.+2      	; 0x1444 <_ZL8nextNotev+0xf2>
    1442:	e6 c0       	rjmp	.+460    	; 0x1610 <_ZL8nextNotev+0x2be>
    1444:	22 37       	cpi	r18, 0x72	; 114
    1446:	09 f0       	breq	.+2      	; 0x144a <_ZL8nextNotev+0xf8>
    1448:	e7 c0       	rjmp	.+462    	; 0x1618 <_ZL8nextNotev+0x2c6>
    144a:	b0 c0       	rjmp	.+352    	; 0x15ac <_ZL8nextNotev+0x25a>
    144c:	83 94       	inc	r8
    144e:	bb cf       	rjmp	.-138    	; 0x13c6 <_ZL8nextNotev+0x74>
    1450:	8a 94       	dec	r8
    1452:	b9 cf       	rjmp	.-142    	; 0x13c6 <_ZL8nextNotev+0x74>
    1454:	a0 92 2b 02 	sts	0x022B, r10
    1458:	b0 92 2a 02 	sts	0x022A, r11
    145c:	10 93 10 01 	sts	0x0110, r17
    1460:	00 93 0f 01 	sts	0x010F, r16
    1464:	f0 92 0c 01 	sts	0x010C, r15
    1468:	e0 92 0b 01 	sts	0x010B, r14
    146c:	d0 93 0e 01 	sts	0x010E, r29
    1470:	c0 93 0d 01 	sts	0x010D, r28
    1474:	90 92 0a 01 	sts	0x010A, r9
    1478:	d0 92 12 01 	sts	0x0112, r13
    147c:	c0 92 11 01 	sts	0x0111, r12
    1480:	2b e0       	ldi	r18, 0x0B	; 11
    1482:	fc c0       	rjmp	.+504    	; 0x167c <_ZL8nextNotev+0x32a>
    1484:	a0 92 2b 02 	sts	0x022B, r10
    1488:	b0 92 2a 02 	sts	0x022A, r11
    148c:	10 93 10 01 	sts	0x0110, r17
    1490:	00 93 0f 01 	sts	0x010F, r16
    1494:	f0 92 0c 01 	sts	0x010C, r15
    1498:	e0 92 0b 01 	sts	0x010B, r14
    149c:	d0 93 0e 01 	sts	0x010E, r29
    14a0:	c0 93 0d 01 	sts	0x010D, r28
    14a4:	90 92 0a 01 	sts	0x010A, r9
    14a8:	d0 92 12 01 	sts	0x0112, r13
    14ac:	c0 92 11 01 	sts	0x0111, r12
    14b0:	20 e0       	ldi	r18, 0x00	; 0
    14b2:	e4 c0       	rjmp	.+456    	; 0x167c <_ZL8nextNotev+0x32a>
    14b4:	a0 92 2b 02 	sts	0x022B, r10
    14b8:	b0 92 2a 02 	sts	0x022A, r11
    14bc:	10 93 10 01 	sts	0x0110, r17
    14c0:	00 93 0f 01 	sts	0x010F, r16
    14c4:	f0 92 0c 01 	sts	0x010C, r15
    14c8:	e0 92 0b 01 	sts	0x010B, r14
    14cc:	d0 93 0e 01 	sts	0x010E, r29
    14d0:	c0 93 0d 01 	sts	0x010D, r28
    14d4:	90 92 0a 01 	sts	0x010A, r9
    14d8:	d0 92 12 01 	sts	0x0112, r13
    14dc:	c0 92 11 01 	sts	0x0111, r12
    14e0:	22 e0       	ldi	r18, 0x02	; 2
    14e2:	cc c0       	rjmp	.+408    	; 0x167c <_ZL8nextNotev+0x32a>
    14e4:	a0 92 2b 02 	sts	0x022B, r10
    14e8:	b0 92 2a 02 	sts	0x022A, r11
    14ec:	10 93 10 01 	sts	0x0110, r17
    14f0:	00 93 0f 01 	sts	0x010F, r16
    14f4:	f0 92 0c 01 	sts	0x010C, r15
    14f8:	e0 92 0b 01 	sts	0x010B, r14
    14fc:	d0 93 0e 01 	sts	0x010E, r29
    1500:	c0 93 0d 01 	sts	0x010D, r28
    1504:	90 92 0a 01 	sts	0x010A, r9
    1508:	d0 92 12 01 	sts	0x0112, r13
    150c:	c0 92 11 01 	sts	0x0111, r12
    1510:	24 e0       	ldi	r18, 0x04	; 4
    1512:	b4 c0       	rjmp	.+360    	; 0x167c <_ZL8nextNotev+0x32a>
    1514:	a0 92 2b 02 	sts	0x022B, r10
    1518:	b0 92 2a 02 	sts	0x022A, r11
    151c:	10 93 10 01 	sts	0x0110, r17
    1520:	00 93 0f 01 	sts	0x010F, r16
    1524:	f0 92 0c 01 	sts	0x010C, r15
    1528:	e0 92 0b 01 	sts	0x010B, r14
    152c:	d0 93 0e 01 	sts	0x010E, r29
    1530:	c0 93 0d 01 	sts	0x010D, r28
    1534:	90 92 0a 01 	sts	0x010A, r9
    1538:	d0 92 12 01 	sts	0x0112, r13
    153c:	c0 92 11 01 	sts	0x0111, r12
    1540:	25 e0       	ldi	r18, 0x05	; 5
    1542:	9c c0       	rjmp	.+312    	; 0x167c <_ZL8nextNotev+0x32a>
    1544:	a0 92 2b 02 	sts	0x022B, r10
    1548:	b0 92 2a 02 	sts	0x022A, r11
    154c:	10 93 10 01 	sts	0x0110, r17
    1550:	00 93 0f 01 	sts	0x010F, r16
    1554:	f0 92 0c 01 	sts	0x010C, r15
    1558:	e0 92 0b 01 	sts	0x010B, r14
    155c:	d0 93 0e 01 	sts	0x010E, r29
    1560:	c0 93 0d 01 	sts	0x010D, r28
    1564:	90 92 0a 01 	sts	0x010A, r9
    1568:	d0 92 12 01 	sts	0x0112, r13
    156c:	c0 92 11 01 	sts	0x0111, r12
    1570:	27 e0       	ldi	r18, 0x07	; 7
    1572:	84 c0       	rjmp	.+264    	; 0x167c <_ZL8nextNotev+0x32a>
    1574:	0e 94 7c 09 	call	0x12f8	; 0x12f8 <_ZL9getNumberv>
    1578:	7c 01       	movw	r14, r24
    157a:	44 c0       	rjmp	.+136    	; 0x1604 <_ZL8nextNotev+0x2b2>
    157c:	0e 94 5d 09 	call	0x12ba	; 0x12ba <_ZL16currentCharacterv>
    1580:	8c 36       	cpi	r24, 0x6C	; 108
    1582:	11 f4       	brne	.+4      	; 0x1588 <_ZL8nextNotev+0x236>
    1584:	bb 24       	eor	r11, r11
    1586:	03 c0       	rjmp	.+6      	; 0x158e <_ZL8nextNotev+0x23c>
    1588:	aa 24       	eor	r10, r10
    158a:	bb 24       	eor	r11, r11
    158c:	b3 94       	inc	r11
    158e:	80 91 48 02 	lds	r24, 0x0248
    1592:	90 91 49 02 	lds	r25, 0x0249
    1596:	01 96       	adiw	r24, 0x01	; 1
    1598:	90 93 49 02 	sts	0x0249, r25
    159c:	80 93 48 02 	sts	0x0248, r24
    15a0:	12 cf       	rjmp	.-476    	; 0x13c6 <_ZL8nextNotev+0x74>
    15a2:	0e 94 7c 09 	call	0x12f8	; 0x12f8 <_ZL9getNumberv>
    15a6:	88 2e       	mov	r8, r24
    15a8:	98 2c       	mov	r9, r8
    15aa:	0d cf       	rjmp	.-486    	; 0x13c6 <_ZL8nextNotev+0x74>
    15ac:	a0 92 2b 02 	sts	0x022B, r10
    15b0:	b0 92 2a 02 	sts	0x022A, r11
    15b4:	10 93 10 01 	sts	0x0110, r17
    15b8:	00 93 0f 01 	sts	0x010F, r16
    15bc:	f0 92 0c 01 	sts	0x010C, r15
    15c0:	e0 92 0b 01 	sts	0x010B, r14
    15c4:	d0 93 0e 01 	sts	0x010E, r29
    15c8:	c0 93 0d 01 	sts	0x010D, r28
    15cc:	90 92 0a 01 	sts	0x010A, r9
    15d0:	d0 92 12 01 	sts	0x0112, r13
    15d4:	c0 92 11 01 	sts	0x0111, r12
    15d8:	20 e0       	ldi	r18, 0x00	; 0
    15da:	ff 24       	eor	r15, r15
    15dc:	f3 94       	inc	r15
    15de:	4f c0       	rjmp	.+158    	; 0x167e <_ZL8nextNotev+0x32c>
    15e0:	0e 94 7c 09 	call	0x12f8	; 0x12f8 <_ZL9getNumberv>
    15e4:	bc 01       	movw	r22, r24
    15e6:	80 ec       	ldi	r24, 0xC0	; 192
    15e8:	9d e5       	ldi	r25, 0x5D	; 93
    15ea:	0e 94 e4 1b 	call	0x37c8	; 0x37c8 <__udivmodhi4>
    15ee:	cb 01       	movw	r24, r22
    15f0:	eb 01       	movw	r28, r22
    15f2:	f3 e0       	ldi	r31, 0x03	; 3
    15f4:	cc 0f       	add	r28, r28
    15f6:	dd 1f       	adc	r29, r29
    15f8:	fa 95       	dec	r31
    15fa:	e1 f7       	brne	.-8      	; 0x15f4 <_ZL8nextNotev+0x2a2>
    15fc:	88 0f       	add	r24, r24
    15fe:	99 1f       	adc	r25, r25
    1600:	c8 0f       	add	r28, r24
    1602:	d9 1f       	adc	r29, r25
    1604:	ce 01       	movw	r24, r28
    1606:	b7 01       	movw	r22, r14
    1608:	0e 94 e4 1b 	call	0x37c8	; 0x37c8 <__udivmodhi4>
    160c:	8b 01       	movw	r16, r22
    160e:	db ce       	rjmp	.-586    	; 0x13c6 <_ZL8nextNotev+0x74>
    1610:	0e 94 7c 09 	call	0x12f8	; 0x12f8 <_ZL9getNumberv>
    1614:	6c 01       	movw	r12, r24
    1616:	d7 ce       	rjmp	.-594    	; 0x13c6 <_ZL8nextNotev+0x74>
    1618:	a0 92 2b 02 	sts	0x022B, r10
    161c:	b0 92 2a 02 	sts	0x022A, r11
    1620:	10 93 10 01 	sts	0x0110, r17
    1624:	00 93 0f 01 	sts	0x010F, r16
    1628:	f0 92 0c 01 	sts	0x010C, r15
    162c:	e0 92 0b 01 	sts	0x010B, r14
    1630:	d0 93 0e 01 	sts	0x010E, r29
    1634:	c0 93 0d 01 	sts	0x010D, r28
    1638:	90 92 0a 01 	sts	0x010A, r9
    163c:	d0 92 12 01 	sts	0x0112, r13
    1640:	c0 92 11 01 	sts	0x0111, r12
    1644:	10 92 49 02 	sts	0x0249, r1
    1648:	10 92 48 02 	sts	0x0248, r1
    164c:	78 c0       	rjmp	.+240    	; 0x173e <_ZL8nextNotev+0x3ec>
    164e:	a0 92 2b 02 	sts	0x022B, r10
    1652:	b0 92 2a 02 	sts	0x022A, r11
    1656:	10 93 10 01 	sts	0x0110, r17
    165a:	00 93 0f 01 	sts	0x010F, r16
    165e:	f0 92 0c 01 	sts	0x010C, r15
    1662:	e0 92 0b 01 	sts	0x010B, r14
    1666:	d0 93 0e 01 	sts	0x010E, r29
    166a:	c0 93 0d 01 	sts	0x010D, r28
    166e:	90 92 0a 01 	sts	0x010A, r9
    1672:	d0 92 12 01 	sts	0x0112, r13
    1676:	c0 92 11 01 	sts	0x0111, r12
    167a:	29 e0       	ldi	r18, 0x09	; 9
    167c:	ff 24       	eor	r15, r15
    167e:	8c e0       	ldi	r24, 0x0C	; 12
    1680:	88 9e       	mul	r8, r24
    1682:	c0 01       	movw	r24, r0
    1684:	11 24       	eor	r1, r1
    1686:	e2 2e       	mov	r14, r18
    1688:	e8 0e       	add	r14, r24
    168a:	0a c0       	rjmp	.+20     	; 0x16a0 <_ZL8nextNotev+0x34e>
    168c:	80 91 48 02 	lds	r24, 0x0248
    1690:	90 91 49 02 	lds	r25, 0x0249
    1694:	01 96       	adiw	r24, 0x01	; 1
    1696:	90 93 49 02 	sts	0x0249, r25
    169a:	80 93 48 02 	sts	0x0248, r24
    169e:	e3 94       	inc	r14
    16a0:	0e 94 5d 09 	call	0x12ba	; 0x12ba <_ZL16currentCharacterv>
    16a4:	8b 32       	cpi	r24, 0x2B	; 43
    16a6:	91 f3       	breq	.-28     	; 0x168c <_ZL8nextNotev+0x33a>
    16a8:	83 32       	cpi	r24, 0x23	; 35
    16aa:	81 f3       	breq	.-32     	; 0x168c <_ZL8nextNotev+0x33a>
    16ac:	0c c0       	rjmp	.+24     	; 0x16c6 <_ZL8nextNotev+0x374>
    16ae:	80 91 48 02 	lds	r24, 0x0248
    16b2:	90 91 49 02 	lds	r25, 0x0249
    16b6:	01 96       	adiw	r24, 0x01	; 1
    16b8:	90 93 49 02 	sts	0x0249, r25
    16bc:	80 93 48 02 	sts	0x0248, r24
    16c0:	ea 94       	dec	r14
    16c2:	0e 94 5d 09 	call	0x12ba	; 0x12ba <_ZL16currentCharacterv>
    16c6:	8d 32       	cpi	r24, 0x2D	; 45
    16c8:	91 f3       	breq	.-28     	; 0x16ae <_ZL8nextNotev+0x35c>
    16ca:	c0 91 0f 01 	lds	r28, 0x010F
    16ce:	d0 91 10 01 	lds	r29, 0x0110
    16d2:	81 53       	subi	r24, 0x31	; 49
    16d4:	88 30       	cpi	r24, 0x08	; 8
    16d6:	58 f4       	brcc	.+22     	; 0x16ee <_ZL8nextNotev+0x39c>
    16d8:	00 91 0d 01 	lds	r16, 0x010D
    16dc:	10 91 0e 01 	lds	r17, 0x010E
    16e0:	0e 94 7c 09 	call	0x12f8	; 0x12f8 <_ZL9getNumberv>
    16e4:	bc 01       	movw	r22, r24
    16e6:	c8 01       	movw	r24, r16
    16e8:	0e 94 e4 1b 	call	0x37c8	; 0x37c8 <__udivmodhi4>
    16ec:	eb 01       	movw	r28, r22
    16ee:	8e 01       	movw	r16, r28
    16f0:	0b c0       	rjmp	.+22     	; 0x1708 <_ZL8nextNotev+0x3b6>
    16f2:	80 91 48 02 	lds	r24, 0x0248
    16f6:	90 91 49 02 	lds	r25, 0x0249
    16fa:	01 96       	adiw	r24, 0x01	; 1
    16fc:	90 93 49 02 	sts	0x0249, r25
    1700:	80 93 48 02 	sts	0x0248, r24
    1704:	c0 0f       	add	r28, r16
    1706:	d1 1f       	adc	r29, r17
    1708:	16 95       	lsr	r17
    170a:	07 95       	ror	r16
    170c:	0e 94 5d 09 	call	0x12ba	; 0x12ba <_ZL16currentCharacterv>
    1710:	8e 32       	cpi	r24, 0x2E	; 46
    1712:	79 f3       	breq	.-34     	; 0x16f2 <_ZL8nextNotev+0x3a0>
    1714:	80 91 2a 02 	lds	r24, 0x022A
    1718:	88 23       	and	r24, r24
    171a:	39 f0       	breq	.+14     	; 0x172a <_ZL8nextNotev+0x3d8>
    171c:	ce 01       	movw	r24, r28
    171e:	96 95       	lsr	r25
    1720:	87 95       	ror	r24
    1722:	80 93 2b 02 	sts	0x022B, r24
    1726:	c8 1b       	sub	r28, r24
    1728:	d1 09       	sbc	r29, r1
    172a:	ff 20       	and	r15, r15
    172c:	11 f0       	breq	.+4      	; 0x1732 <_ZL8nextNotev+0x3e0>
    172e:	ee 24       	eor	r14, r14
    1730:	ea 94       	dec	r14
    1732:	8e 2d       	mov	r24, r14
    1734:	be 01       	movw	r22, r28
    1736:	40 91 11 01 	lds	r20, 0x0111
    173a:	0e 94 b7 08 	call	0x116e	; 0x116e <_ZN15OrangutanBuzzer8playNoteEhjh>
    173e:	cd b7       	in	r28, 0x3d	; 61
    1740:	de b7       	in	r29, 0x3e	; 62
    1742:	ec e0       	ldi	r30, 0x0C	; 12
    1744:	0c 94 6a 1c 	jmp	0x38d4	; 0x38d4 <__epilogue_restores__+0xc>

00001748 <_ZN15OrangutanBuzzer20playFromProgramSpaceEPKc>:
    1748:	10 92 6f 00 	sts	0x006F, r1
    174c:	90 93 49 02 	sts	0x0249, r25
    1750:	80 93 48 02 	sts	0x0248, r24
    1754:	81 e0       	ldi	r24, 0x01	; 1
    1756:	80 93 2c 02 	sts	0x022C, r24
    175a:	10 92 2b 02 	sts	0x022B, r1
    175e:	0e 94 a9 09 	call	0x1352	; 0x1352 <_ZL8nextNotev>
    1762:	08 95       	ret

00001764 <play_from_program_space>:
    1764:	0e 94 a4 0b 	call	0x1748	; 0x1748 <_ZN15OrangutanBuzzer20playFromProgramSpaceEPKc>
    1768:	08 95       	ret

0000176a <_ZN15OrangutanBuzzer4playEPKc>:
    176a:	10 92 6f 00 	sts	0x006F, r1
    176e:	90 93 49 02 	sts	0x0249, r25
    1772:	80 93 48 02 	sts	0x0248, r24
    1776:	10 92 2c 02 	sts	0x022C, r1
    177a:	10 92 2b 02 	sts	0x022B, r1
    177e:	0e 94 a9 09 	call	0x1352	; 0x1352 <_ZL8nextNotev>
    1782:	08 95       	ret

00001784 <play>:
    1784:	0e 94 b5 0b 	call	0x176a	; 0x176a <_ZN15OrangutanBuzzer4playEPKc>
    1788:	08 95       	ret

0000178a <__vector_13>:
    178a:	1f 92       	push	r1
    178c:	0f 92       	push	r0
    178e:	0f b6       	in	r0, 0x3f	; 63
    1790:	0f 92       	push	r0
    1792:	11 24       	eor	r1, r1
    1794:	2f 93       	push	r18
    1796:	3f 93       	push	r19
    1798:	4f 93       	push	r20
    179a:	5f 93       	push	r21
    179c:	6f 93       	push	r22
    179e:	7f 93       	push	r23
    17a0:	8f 93       	push	r24
    17a2:	9f 93       	push	r25
    17a4:	af 93       	push	r26
    17a6:	bf 93       	push	r27
    17a8:	ef 93       	push	r30
    17aa:	ff 93       	push	r31
    17ac:	80 91 2e 02 	lds	r24, 0x022E
    17b0:	90 91 2f 02 	lds	r25, 0x022F
    17b4:	01 97       	sbiw	r24, 0x01	; 1
    17b6:	90 93 2f 02 	sts	0x022F, r25
    17ba:	80 93 2e 02 	sts	0x022E, r24
    17be:	01 96       	adiw	r24, 0x01	; 1
    17c0:	11 f5       	brne	.+68     	; 0x1806 <__vector_13+0x7c>
    17c2:	10 92 6f 00 	sts	0x006F, r1
    17c6:	78 94       	sei
    17c8:	80 91 81 00 	lds	r24, 0x0081
    17cc:	88 7f       	andi	r24, 0xF8	; 248
    17ce:	81 60       	ori	r24, 0x01	; 1
    17d0:	80 93 81 00 	sts	0x0081, r24
    17d4:	80 e1       	ldi	r24, 0x10	; 16
    17d6:	97 e2       	ldi	r25, 0x27	; 39
    17d8:	90 93 89 00 	sts	0x0089, r25
    17dc:	80 93 88 00 	sts	0x0088, r24
    17e0:	10 92 8b 00 	sts	0x008B, r1
    17e4:	10 92 8a 00 	sts	0x008A, r1
    17e8:	81 e0       	ldi	r24, 0x01	; 1
    17ea:	80 93 15 01 	sts	0x0115, r24
    17ee:	80 91 48 02 	lds	r24, 0x0248
    17f2:	90 91 49 02 	lds	r25, 0x0249
    17f6:	89 2b       	or	r24, r25
    17f8:	31 f0       	breq	.+12     	; 0x1806 <__vector_13+0x7c>
    17fa:	80 91 2d 02 	lds	r24, 0x022D
    17fe:	88 23       	and	r24, r24
    1800:	11 f4       	brne	.+4      	; 0x1806 <__vector_13+0x7c>
    1802:	0e 94 a9 09 	call	0x1352	; 0x1352 <_ZL8nextNotev>
    1806:	ff 91       	pop	r31
    1808:	ef 91       	pop	r30
    180a:	bf 91       	pop	r27
    180c:	af 91       	pop	r26
    180e:	9f 91       	pop	r25
    1810:	8f 91       	pop	r24
    1812:	7f 91       	pop	r23
    1814:	6f 91       	pop	r22
    1816:	5f 91       	pop	r21
    1818:	4f 91       	pop	r20
    181a:	3f 91       	pop	r19
    181c:	2f 91       	pop	r18
    181e:	0f 90       	pop	r0
    1820:	0f be       	out	0x3f, r0	; 63
    1822:	0f 90       	pop	r0
    1824:	1f 90       	pop	r1
    1826:	18 95       	reti

00001828 <_ZN15OrangutanBuzzer9playCheckEv>:
    1828:	10 92 6f 00 	sts	0x006F, r1
    182c:	80 91 15 01 	lds	r24, 0x0115
    1830:	88 23       	and	r24, r24
    1832:	41 f0       	breq	.+16     	; 0x1844 <_ZN15OrangutanBuzzer9playCheckEv+0x1c>
    1834:	80 91 48 02 	lds	r24, 0x0248
    1838:	90 91 49 02 	lds	r25, 0x0249
    183c:	89 2b       	or	r24, r25
    183e:	11 f0       	breq	.+4      	; 0x1844 <_ZN15OrangutanBuzzer9playCheckEv+0x1c>
    1840:	0e 94 a9 09 	call	0x1352	; 0x1352 <_ZL8nextNotev>
    1844:	81 e0       	ldi	r24, 0x01	; 1
    1846:	80 93 6f 00 	sts	0x006F, r24
    184a:	20 e0       	ldi	r18, 0x00	; 0
    184c:	80 91 48 02 	lds	r24, 0x0248
    1850:	90 91 49 02 	lds	r25, 0x0249
    1854:	89 2b       	or	r24, r25
    1856:	09 f0       	breq	.+2      	; 0x185a <_ZN15OrangutanBuzzer9playCheckEv+0x32>
    1858:	21 e0       	ldi	r18, 0x01	; 1
    185a:	82 2f       	mov	r24, r18
    185c:	08 95       	ret

0000185e <_ZN15OrangutanBuzzer8playModeEh>:
    185e:	80 93 2d 02 	sts	0x022D, r24
    1862:	88 23       	and	r24, r24
    1864:	11 f4       	brne	.+4      	; 0x186a <_ZN15OrangutanBuzzer8playModeEh+0xc>
    1866:	0e 94 14 0c 	call	0x1828	; 0x1828 <_ZN15OrangutanBuzzer9playCheckEv>
    186a:	08 95       	ret

0000186c <play_mode>:
    186c:	0e 94 2f 0c 	call	0x185e	; 0x185e <_ZN15OrangutanBuzzer8playModeEh>
    1870:	08 95       	ret

00001872 <play_check>:
    1872:	0e 94 14 0c 	call	0x1828	; 0x1828 <_ZN15OrangutanBuzzer9playCheckEv>
    1876:	08 95       	ret

00001878 <_ZN12OrangutanLCDC2Ev>:
    1878:	08 95       	ret

0000187a <_ZN12OrangutanLCDC1Ev>:
    187a:	08 95       	ret

0000187c <void_getchar>:
    187c:	80 e0       	ldi	r24, 0x00	; 0
    187e:	90 e0       	ldi	r25, 0x00	; 0
    1880:	08 95       	ret

00001882 <_ZN12OrangutanLCD8busyWaitEv>:
    1882:	ef 92       	push	r14
    1884:	ff 92       	push	r15
    1886:	0f 93       	push	r16
    1888:	1f 93       	push	r17
    188a:	6a b1       	in	r22, 0x0a	; 10
    188c:	57 98       	cbi	0x0a, 7	; 10
    188e:	5a 98       	cbi	0x0b, 2	; 11
    1890:	28 9a       	sbi	0x05, 0	; 5
    1892:	e0 90 34 02 	lds	r14, 0x0234
    1896:	f0 90 35 02 	lds	r15, 0x0235
    189a:	00 91 36 02 	lds	r16, 0x0236
    189e:	10 91 37 02 	lds	r17, 0x0237
    18a2:	20 e0       	ldi	r18, 0x00	; 0
    18a4:	30 e0       	ldi	r19, 0x00	; 0
    18a6:	41 e0       	ldi	r20, 0x01	; 1
    18a8:	50 e0       	ldi	r21, 0x00	; 0
    18aa:	ca 01       	movw	r24, r20
    18ac:	6f 93       	push	r22
    18ae:	64 e0       	ldi	r22, 0x04	; 4
    18b0:	6a 95       	dec	r22
    18b2:	f1 f7       	brne	.-4      	; 0x18b0 <_ZN12OrangutanLCD8busyWaitEv+0x2e>
    18b4:	6f 91       	pop	r22
    18b6:	01 97       	sbiw	r24, 0x01	; 1
    18b8:	c9 f7       	brne	.-14     	; 0x18ac <_ZN12OrangutanLCD8busyWaitEv+0x2a>
    18ba:	5c 9a       	sbi	0x0b, 4	; 11
    18bc:	ca 01       	movw	r24, r20
    18be:	6f 93       	push	r22
    18c0:	64 e0       	ldi	r22, 0x04	; 4
    18c2:	6a 95       	dec	r22
    18c4:	f1 f7       	brne	.-4      	; 0x18c2 <_ZN12OrangutanLCD8busyWaitEv+0x40>
    18c6:	6f 91       	pop	r22
    18c8:	01 97       	sbiw	r24, 0x01	; 1
    18ca:	c9 f7       	brne	.-14     	; 0x18be <_ZN12OrangutanLCD8busyWaitEv+0x3c>
    18cc:	89 b1       	in	r24, 0x09	; 9
    18ce:	5c 98       	cbi	0x0b, 4	; 11
    18d0:	fa 01       	movw	r30, r20
    18d2:	6f 93       	push	r22
    18d4:	64 e0       	ldi	r22, 0x04	; 4
    18d6:	6a 95       	dec	r22
    18d8:	f1 f7       	brne	.-4      	; 0x18d6 <_ZN12OrangutanLCD8busyWaitEv+0x54>
    18da:	6f 91       	pop	r22
    18dc:	31 97       	sbiw	r30, 0x01	; 1
    18de:	c9 f7       	brne	.-14     	; 0x18d2 <_ZN12OrangutanLCD8busyWaitEv+0x50>
    18e0:	5c 9a       	sbi	0x0b, 4	; 11
    18e2:	fa 01       	movw	r30, r20
    18e4:	6f 93       	push	r22
    18e6:	64 e0       	ldi	r22, 0x04	; 4
    18e8:	6a 95       	dec	r22
    18ea:	f1 f7       	brne	.-4      	; 0x18e8 <_ZN12OrangutanLCD8busyWaitEv+0x66>
    18ec:	6f 91       	pop	r22
    18ee:	31 97       	sbiw	r30, 0x01	; 1
    18f0:	c9 f7       	brne	.-14     	; 0x18e4 <_ZN12OrangutanLCD8busyWaitEv+0x62>
    18f2:	5c 98       	cbi	0x0b, 4	; 11
    18f4:	87 ff       	sbrs	r24, 7
    18f6:	0b c0       	rjmp	.+22     	; 0x190e <_ZN12OrangutanLCD8busyWaitEv+0x8c>
    18f8:	2c 5f       	subi	r18, 0xFC	; 252
    18fa:	3f 4f       	sbci	r19, 0xFF	; 255
    18fc:	c9 01       	movw	r24, r18
    18fe:	a0 e0       	ldi	r26, 0x00	; 0
    1900:	b0 e0       	ldi	r27, 0x00	; 0
    1902:	8e 15       	cp	r24, r14
    1904:	9f 05       	cpc	r25, r15
    1906:	a0 07       	cpc	r26, r16
    1908:	b1 07       	cpc	r27, r17
    190a:	08 f4       	brcc	.+2      	; 0x190e <_ZN12OrangutanLCD8busyWaitEv+0x8c>
    190c:	ce cf       	rjmp	.-100    	; 0x18aa <_ZN12OrangutanLCD8busyWaitEv+0x28>
    190e:	6a b9       	out	0x0a, r22	; 10
    1910:	1f 91       	pop	r17
    1912:	0f 91       	pop	r16
    1914:	ff 90       	pop	r15
    1916:	ef 90       	pop	r14
    1918:	08 95       	ret

0000191a <_ZN12OrangutanLCD8sendDataEh>:
    191a:	65 b1       	in	r22, 0x05	; 5
    191c:	90 e0       	ldi	r25, 0x00	; 0
    191e:	ac 01       	movw	r20, r24
    1920:	41 70       	andi	r20, 0x01	; 1
    1922:	50 70       	andi	r21, 0x00	; 0
    1924:	44 0f       	add	r20, r20
    1926:	55 1f       	adc	r21, r21
    1928:	9c 01       	movw	r18, r24
    192a:	26 70       	andi	r18, 0x06	; 6
    192c:	30 70       	andi	r19, 0x00	; 0
    192e:	53 e0       	ldi	r21, 0x03	; 3
    1930:	22 0f       	add	r18, r18
    1932:	33 1f       	adc	r19, r19
    1934:	5a 95       	dec	r21
    1936:	e1 f7       	brne	.-8      	; 0x1930 <_ZN12OrangutanLCD8sendDataEh+0x16>
    1938:	42 2b       	or	r20, r18
    193a:	6d 7c       	andi	r22, 0xCD	; 205
    193c:	46 2b       	or	r20, r22
    193e:	45 b9       	out	0x05, r20	; 5
    1940:	2b b1       	in	r18, 0x0b	; 11
    1942:	88 70       	andi	r24, 0x08	; 8
    1944:	90 70       	andi	r25, 0x00	; 0
    1946:	34 e0       	ldi	r19, 0x04	; 4
    1948:	88 0f       	add	r24, r24
    194a:	99 1f       	adc	r25, r25
    194c:	3a 95       	dec	r19
    194e:	e1 f7       	brne	.-8      	; 0x1948 <_ZN12OrangutanLCD8sendDataEh+0x2e>
    1950:	2f 77       	andi	r18, 0x7F	; 127
    1952:	28 2b       	or	r18, r24
    1954:	2b b9       	out	0x0b, r18	; 11
    1956:	5c 9a       	sbi	0x0b, 4	; 11
    1958:	81 e0       	ldi	r24, 0x01	; 1
    195a:	90 e0       	ldi	r25, 0x00	; 0
    195c:	fc 01       	movw	r30, r24
    195e:	6f 93       	push	r22
    1960:	64 e0       	ldi	r22, 0x04	; 4
    1962:	6a 95       	dec	r22
    1964:	f1 f7       	brne	.-4      	; 0x1962 <_ZN12OrangutanLCD8sendDataEh+0x48>
    1966:	6f 91       	pop	r22
    1968:	31 97       	sbiw	r30, 0x01	; 1
    196a:	c9 f7       	brne	.-14     	; 0x195e <_ZN12OrangutanLCD8sendDataEh+0x44>
    196c:	5c 98       	cbi	0x0b, 4	; 11
    196e:	6f 93       	push	r22
    1970:	64 e0       	ldi	r22, 0x04	; 4
    1972:	6a 95       	dec	r22
    1974:	f1 f7       	brne	.-4      	; 0x1972 <_ZN12OrangutanLCD8sendDataEh+0x58>
    1976:	6f 91       	pop	r22
    1978:	01 97       	sbiw	r24, 0x01	; 1
    197a:	c9 f7       	brne	.-14     	; 0x196e <_ZN12OrangutanLCD8sendDataEh+0x54>
    197c:	08 95       	ret

0000197e <_ZN12OrangutanLCD10initPrintfEv>:
    197e:	80 91 30 02 	lds	r24, 0x0230
    1982:	90 91 31 02 	lds	r25, 0x0231
    1986:	00 97       	sbiw	r24, 0x00	; 0
    1988:	11 f0       	breq	.+4      	; 0x198e <_ZN12OrangutanLCD10initPrintfEv+0x10>
    198a:	0e 94 32 1d 	call	0x3a64	; 0x3a64 <free>
    198e:	80 91 13 01 	lds	r24, 0x0113
    1992:	90 e0       	ldi	r25, 0x00	; 0
    1994:	01 97       	sbiw	r24, 0x01	; 1
    1996:	20 91 14 01 	lds	r18, 0x0114
    199a:	30 e0       	ldi	r19, 0x00	; 0
    199c:	ac 01       	movw	r20, r24
    199e:	42 9f       	mul	r20, r18
    19a0:	c0 01       	movw	r24, r0
    19a2:	43 9f       	mul	r20, r19
    19a4:	90 0d       	add	r25, r0
    19a6:	52 9f       	mul	r21, r18
    19a8:	90 0d       	add	r25, r0
    19aa:	11 24       	eor	r1, r1
    19ac:	0e 94 85 1c 	call	0x390a	; 0x390a <malloc>
    19b0:	90 93 31 02 	sts	0x0231, r25
    19b4:	80 93 30 02 	sts	0x0230, r24
    19b8:	00 97       	sbiw	r24, 0x00	; 0
    19ba:	29 f1       	breq	.+74     	; 0x1a06 <_ZN12OrangutanLCD10initPrintfEv+0x88>
    19bc:	60 e0       	ldi	r22, 0x00	; 0
    19be:	70 e2       	ldi	r23, 0x20	; 32
    19c0:	08 c0       	rjmp	.+16     	; 0x19d2 <_ZN12OrangutanLCD10initPrintfEv+0x54>
    19c2:	e0 91 30 02 	lds	r30, 0x0230
    19c6:	f0 91 31 02 	lds	r31, 0x0231
    19ca:	e4 0f       	add	r30, r20
    19cc:	f5 1f       	adc	r31, r21
    19ce:	70 83       	st	Z, r23
    19d0:	6f 5f       	subi	r22, 0xFF	; 255
    19d2:	46 2f       	mov	r20, r22
    19d4:	50 e0       	ldi	r21, 0x00	; 0
    19d6:	80 91 13 01 	lds	r24, 0x0113
    19da:	90 e0       	ldi	r25, 0x00	; 0
    19dc:	01 97       	sbiw	r24, 0x01	; 1
    19de:	20 91 14 01 	lds	r18, 0x0114
    19e2:	30 e0       	ldi	r19, 0x00	; 0
    19e4:	fc 01       	movw	r30, r24
    19e6:	e2 9f       	mul	r30, r18
    19e8:	c0 01       	movw	r24, r0
    19ea:	e3 9f       	mul	r30, r19
    19ec:	90 0d       	add	r25, r0
    19ee:	f2 9f       	mul	r31, r18
    19f0:	90 0d       	add	r25, r0
    19f2:	11 24       	eor	r1, r1
    19f4:	48 17       	cp	r20, r24
    19f6:	59 07       	cpc	r21, r25
    19f8:	24 f3       	brlt	.-56     	; 0x19c2 <_ZN12OrangutanLCD10initPrintfEv+0x44>
    19fa:	82 e0       	ldi	r24, 0x02	; 2
    19fc:	9f e0       	ldi	r25, 0x0F	; 15
    19fe:	6e e3       	ldi	r22, 0x3E	; 62
    1a00:	7c e0       	ldi	r23, 0x0C	; 12
    1a02:	0e 94 8a 1d 	call	0x3b14	; 0x3b14 <fdevopen>
    1a06:	08 95       	ret

00001a08 <_ZN12OrangutanLCD10initPrintfEhh>:
    1a08:	80 93 14 01 	sts	0x0114, r24
    1a0c:	60 93 13 01 	sts	0x0113, r22
    1a10:	0e 94 bf 0c 	call	0x197e	; 0x197e <_ZN12OrangutanLCD10initPrintfEv>
    1a14:	08 95       	ret

00001a16 <lcd_init_printf_with_dimensions>:
    1a16:	80 93 14 01 	sts	0x0114, r24
    1a1a:	60 93 13 01 	sts	0x0113, r22
    1a1e:	0e 94 bf 0c 	call	0x197e	; 0x197e <_ZN12OrangutanLCD10initPrintfEv>
    1a22:	08 95       	ret

00001a24 <lcd_init_printf>:
    1a24:	0e 94 bf 0c 	call	0x197e	; 0x197e <_ZN12OrangutanLCD10initPrintfEv>
    1a28:	08 95       	ret

00001a2a <_ZN12OrangutanLCD5init2Ev>:
    1a2a:	80 e1       	ldi	r24, 0x10	; 16
    1a2c:	97 e2       	ldi	r25, 0x27	; 39
    1a2e:	a0 e0       	ldi	r26, 0x00	; 0
    1a30:	b0 e0       	ldi	r27, 0x00	; 0
    1a32:	80 93 34 02 	sts	0x0234, r24
    1a36:	90 93 35 02 	sts	0x0235, r25
    1a3a:	a0 93 36 02 	sts	0x0236, r26
    1a3e:	b0 93 37 02 	sts	0x0237, r27
    1a42:	52 9a       	sbi	0x0a, 2	; 10
    1a44:	20 9a       	sbi	0x04, 0	; 4
    1a46:	54 9a       	sbi	0x0a, 4	; 10
    1a48:	8e e1       	ldi	r24, 0x1E	; 30
    1a4a:	90 e0       	ldi	r25, 0x00	; 0
    1a4c:	0e 94 a5 13 	call	0x274a	; 0x274a <_ZN13OrangutanTime17delayMillisecondsEj>
    1a50:	83 e0       	ldi	r24, 0x03	; 3
    1a52:	0e 94 48 10 	call	0x2090	; 0x2090 <_ZN12OrangutanLCD13send_4bit_cmdEh>
    1a56:	86 e0       	ldi	r24, 0x06	; 6
    1a58:	90 e0       	ldi	r25, 0x00	; 0
    1a5a:	0e 94 a5 13 	call	0x274a	; 0x274a <_ZN13OrangutanTime17delayMillisecondsEj>
    1a5e:	83 e0       	ldi	r24, 0x03	; 3
    1a60:	0e 94 48 10 	call	0x2090	; 0x2090 <_ZN12OrangutanLCD13send_4bit_cmdEh>
    1a64:	82 e0       	ldi	r24, 0x02	; 2
    1a66:	90 e0       	ldi	r25, 0x00	; 0
    1a68:	0e 94 a5 13 	call	0x274a	; 0x274a <_ZN13OrangutanTime17delayMillisecondsEj>
    1a6c:	83 e0       	ldi	r24, 0x03	; 3
    1a6e:	0e 94 48 10 	call	0x2090	; 0x2090 <_ZN12OrangutanLCD13send_4bit_cmdEh>
    1a72:	82 e0       	ldi	r24, 0x02	; 2
    1a74:	90 e0       	ldi	r25, 0x00	; 0
    1a76:	0e 94 a5 13 	call	0x274a	; 0x274a <_ZN13OrangutanTime17delayMillisecondsEj>
    1a7a:	82 e0       	ldi	r24, 0x02	; 2
    1a7c:	0e 94 48 10 	call	0x2090	; 0x2090 <_ZN12OrangutanLCD13send_4bit_cmdEh>
    1a80:	82 e0       	ldi	r24, 0x02	; 2
    1a82:	90 e0       	ldi	r25, 0x00	; 0
    1a84:	0e 94 a5 13 	call	0x274a	; 0x274a <_ZN13OrangutanTime17delayMillisecondsEj>
    1a88:	88 e2       	ldi	r24, 0x28	; 40
    1a8a:	0e 94 92 0d 	call	0x1b24	; 0x1b24 <_ZN12OrangutanLCD8send_cmdEh>
    1a8e:	88 e0       	ldi	r24, 0x08	; 8
    1a90:	0e 94 92 0d 	call	0x1b24	; 0x1b24 <_ZN12OrangutanLCD8send_cmdEh>
    1a94:	81 e0       	ldi	r24, 0x01	; 1
    1a96:	0e 94 92 0d 	call	0x1b24	; 0x1b24 <_ZN12OrangutanLCD8send_cmdEh>
    1a9a:	86 e0       	ldi	r24, 0x06	; 6
    1a9c:	0e 94 92 0d 	call	0x1b24	; 0x1b24 <_ZN12OrangutanLCD8send_cmdEh>
    1aa0:	8c e0       	ldi	r24, 0x0C	; 12
    1aa2:	0e 94 92 0d 	call	0x1b24	; 0x1b24 <_ZN12OrangutanLCD8send_cmdEh>
    1aa6:	08 95       	ret

00001aa8 <_ZN12OrangutanLCD4initEv>:
    1aa8:	80 91 38 02 	lds	r24, 0x0238
    1aac:	88 23       	and	r24, r24
    1aae:	29 f4       	brne	.+10     	; 0x1aba <_ZN12OrangutanLCD4initEv+0x12>
    1ab0:	81 e0       	ldi	r24, 0x01	; 1
    1ab2:	80 93 38 02 	sts	0x0238, r24
    1ab6:	0e 94 15 0d 	call	0x1a2a	; 0x1a2a <_ZN12OrangutanLCD5init2Ev>
    1aba:	08 95       	ret

00001abc <_ZN12OrangutanLCD4sendEhhh>:
    1abc:	bf 92       	push	r11
    1abe:	cf 92       	push	r12
    1ac0:	df 92       	push	r13
    1ac2:	ef 92       	push	r14
    1ac4:	ff 92       	push	r15
    1ac6:	0f 93       	push	r16
    1ac8:	1f 93       	push	r17
    1aca:	08 2f       	mov	r16, r24
    1acc:	16 2f       	mov	r17, r22
    1ace:	f4 2e       	mov	r15, r20
    1ad0:	0e 94 54 0d 	call	0x1aa8	; 0x1aa8 <_ZN12OrangutanLCD4initEv>
    1ad4:	0e 94 41 0c 	call	0x1882	; 0x1882 <_ZN12OrangutanLCD8busyWaitEv>
    1ad8:	b4 b0       	in	r11, 0x04	; 4
    1ada:	c5 b0       	in	r12, 0x05	; 5
    1adc:	da b0       	in	r13, 0x0a	; 10
    1ade:	eb b0       	in	r14, 0x0b	; 11
    1ae0:	28 98       	cbi	0x05, 0	; 5
    1ae2:	11 23       	and	r17, r17
    1ae4:	11 f0       	breq	.+4      	; 0x1aea <_ZN12OrangutanLCD4sendEhhh+0x2e>
    1ae6:	5a 9a       	sbi	0x0b, 2	; 11
    1ae8:	01 c0       	rjmp	.+2      	; 0x1aec <_ZN12OrangutanLCD4sendEhhh+0x30>
    1aea:	5a 98       	cbi	0x0b, 2	; 11
    1aec:	84 b1       	in	r24, 0x04	; 4
    1aee:	82 63       	ori	r24, 0x32	; 50
    1af0:	84 b9       	out	0x04, r24	; 4
    1af2:	57 9a       	sbi	0x0a, 7	; 10
    1af4:	81 e0       	ldi	r24, 0x01	; 1
    1af6:	f8 16       	cp	r15, r24
    1af8:	29 f0       	breq	.+10     	; 0x1b04 <_ZN12OrangutanLCD4sendEhhh+0x48>
    1afa:	80 2f       	mov	r24, r16
    1afc:	82 95       	swap	r24
    1afe:	8f 70       	andi	r24, 0x0F	; 15
    1b00:	0e 94 8d 0c 	call	0x191a	; 0x191a <_ZN12OrangutanLCD8sendDataEh>
    1b04:	80 2f       	mov	r24, r16
    1b06:	8f 70       	andi	r24, 0x0F	; 15
    1b08:	0e 94 8d 0c 	call	0x191a	; 0x191a <_ZN12OrangutanLCD8sendDataEh>
    1b0c:	da b8       	out	0x0a, r13	; 10
    1b0e:	eb b8       	out	0x0b, r14	; 11
    1b10:	b4 b8       	out	0x04, r11	; 4
    1b12:	c5 b8       	out	0x05, r12	; 5
    1b14:	1f 91       	pop	r17
    1b16:	0f 91       	pop	r16
    1b18:	ff 90       	pop	r15
    1b1a:	ef 90       	pop	r14
    1b1c:	df 90       	pop	r13
    1b1e:	cf 90       	pop	r12
    1b20:	bf 90       	pop	r11
    1b22:	08 95       	ret

00001b24 <_ZN12OrangutanLCD8send_cmdEh>:
    1b24:	60 e0       	ldi	r22, 0x00	; 0
    1b26:	42 e0       	ldi	r20, 0x02	; 2
    1b28:	0e 94 5e 0d 	call	0x1abc	; 0x1abc <_ZN12OrangutanLCD4sendEhhh>
    1b2c:	08 95       	ret

00001b2e <_ZN12OrangutanLCD10moveCursorEhh>:
    1b2e:	0f 93       	push	r16
    1b30:	1f 93       	push	r17
    1b32:	08 2f       	mov	r16, r24
    1b34:	16 2f       	mov	r17, r22
    1b36:	08 c0       	rjmp	.+16     	; 0x1b48 <_ZN12OrangutanLCD10moveCursorEhh+0x1a>
    1b38:	00 23       	and	r16, r16
    1b3a:	11 f4       	brne	.+4      	; 0x1b40 <_ZN12OrangutanLCD10moveCursorEhh+0x12>
    1b3c:	80 e1       	ldi	r24, 0x10	; 16
    1b3e:	01 c0       	rjmp	.+2      	; 0x1b42 <_ZN12OrangutanLCD10moveCursorEhh+0x14>
    1b40:	84 e1       	ldi	r24, 0x14	; 20
    1b42:	0e 94 92 0d 	call	0x1b24	; 0x1b24 <_ZN12OrangutanLCD8send_cmdEh>
    1b46:	11 50       	subi	r17, 0x01	; 1
    1b48:	11 23       	and	r17, r17
    1b4a:	b1 f7       	brne	.-20     	; 0x1b38 <_ZN12OrangutanLCD10moveCursorEhh+0xa>
    1b4c:	1f 91       	pop	r17
    1b4e:	0f 91       	pop	r16
    1b50:	08 95       	ret

00001b52 <lcd_move_cursor>:
    1b52:	0e 94 97 0d 	call	0x1b2e	; 0x1b2e <_ZN12OrangutanLCD10moveCursorEhh>
    1b56:	08 95       	ret

00001b58 <_ZN12OrangutanLCD10hideCursorEv>:
    1b58:	8c e0       	ldi	r24, 0x0C	; 12
    1b5a:	0e 94 92 0d 	call	0x1b24	; 0x1b24 <_ZN12OrangutanLCD8send_cmdEh>
    1b5e:	08 95       	ret

00001b60 <lcd_hide_cursor>:
    1b60:	0e 94 ac 0d 	call	0x1b58	; 0x1b58 <_ZN12OrangutanLCD10hideCursorEv>
    1b64:	08 95       	ret

00001b66 <_ZN12OrangutanLCD10showCursorEh>:
    1b66:	81 30       	cpi	r24, 0x01	; 1
    1b68:	11 f4       	brne	.+4      	; 0x1b6e <_ZN12OrangutanLCD10showCursorEh+0x8>
    1b6a:	8f e0       	ldi	r24, 0x0F	; 15
    1b6c:	01 c0       	rjmp	.+2      	; 0x1b70 <_ZN12OrangutanLCD10showCursorEh+0xa>
    1b6e:	8e e0       	ldi	r24, 0x0E	; 14
    1b70:	0e 94 92 0d 	call	0x1b24	; 0x1b24 <_ZN12OrangutanLCD8send_cmdEh>
    1b74:	08 95       	ret

00001b76 <lcd_show_cursor>:
    1b76:	0e 94 b3 0d 	call	0x1b66	; 0x1b66 <_ZN12OrangutanLCD10showCursorEh>
    1b7a:	08 95       	ret

00001b7c <_ZN12OrangutanLCD6gotoXYEhh>:
    1b7c:	a4 e0       	ldi	r26, 0x04	; 4
    1b7e:	b0 e0       	ldi	r27, 0x00	; 0
    1b80:	e4 ec       	ldi	r30, 0xC4	; 196
    1b82:	fd e0       	ldi	r31, 0x0D	; 13
    1b84:	0c 94 56 1c 	jmp	0x38ac	; 0x38ac <__prologue_saves__+0x1c>
    1b88:	18 2f       	mov	r17, r24
    1b8a:	06 2f       	mov	r16, r22
    1b8c:	80 e8       	ldi	r24, 0x80	; 128
    1b8e:	89 83       	std	Y+1, r24	; 0x01
    1b90:	80 ec       	ldi	r24, 0xC0	; 192
    1b92:	8a 83       	std	Y+2, r24	; 0x02
    1b94:	84 e9       	ldi	r24, 0x94	; 148
    1b96:	8b 83       	std	Y+3, r24	; 0x03
    1b98:	84 ed       	ldi	r24, 0xD4	; 212
    1b9a:	8c 83       	std	Y+4, r24	; 0x04
    1b9c:	fe 01       	movw	r30, r28
    1b9e:	e6 0f       	add	r30, r22
    1ba0:	f1 1d       	adc	r31, r1
    1ba2:	81 81       	ldd	r24, Z+1	; 0x01
    1ba4:	81 0f       	add	r24, r17
    1ba6:	0e 94 92 0d 	call	0x1b24	; 0x1b24 <_ZN12OrangutanLCD8send_cmdEh>
    1baa:	10 93 33 02 	sts	0x0233, r17
    1bae:	00 93 32 02 	sts	0x0232, r16
    1bb2:	24 96       	adiw	r28, 0x04	; 4
    1bb4:	e4 e0       	ldi	r30, 0x04	; 4
    1bb6:	0c 94 72 1c 	jmp	0x38e4	; 0x38e4 <__epilogue_restores__+0x1c>

00001bba <lcd_goto_xy>:
    1bba:	0e 94 be 0d 	call	0x1b7c	; 0x1b7c <_ZN12OrangutanLCD6gotoXYEhh>
    1bbe:	08 95       	ret

00001bc0 <_ZN12OrangutanLCD5clearEv>:
    1bc0:	81 e0       	ldi	r24, 0x01	; 1
    1bc2:	0e 94 92 0d 	call	0x1b24	; 0x1b24 <_ZN12OrangutanLCD8send_cmdEh>
    1bc6:	80 91 30 02 	lds	r24, 0x0230
    1bca:	90 91 31 02 	lds	r25, 0x0231
    1bce:	89 2b       	or	r24, r25
    1bd0:	19 f1       	breq	.+70     	; 0x1c18 <_ZN12OrangutanLCD5clearEv+0x58>
    1bd2:	60 e0       	ldi	r22, 0x00	; 0
    1bd4:	70 e2       	ldi	r23, 0x20	; 32
    1bd6:	08 c0       	rjmp	.+16     	; 0x1be8 <_ZN12OrangutanLCD5clearEv+0x28>
    1bd8:	e0 91 30 02 	lds	r30, 0x0230
    1bdc:	f0 91 31 02 	lds	r31, 0x0231
    1be0:	e4 0f       	add	r30, r20
    1be2:	f5 1f       	adc	r31, r21
    1be4:	70 83       	st	Z, r23
    1be6:	6f 5f       	subi	r22, 0xFF	; 255
    1be8:	46 2f       	mov	r20, r22
    1bea:	50 e0       	ldi	r21, 0x00	; 0
    1bec:	80 91 13 01 	lds	r24, 0x0113
    1bf0:	90 e0       	ldi	r25, 0x00	; 0
    1bf2:	01 97       	sbiw	r24, 0x01	; 1
    1bf4:	20 91 14 01 	lds	r18, 0x0114
    1bf8:	30 e0       	ldi	r19, 0x00	; 0
    1bfa:	fc 01       	movw	r30, r24
    1bfc:	e2 9f       	mul	r30, r18
    1bfe:	c0 01       	movw	r24, r0
    1c00:	e3 9f       	mul	r30, r19
    1c02:	90 0d       	add	r25, r0
    1c04:	f2 9f       	mul	r31, r18
    1c06:	90 0d       	add	r25, r0
    1c08:	11 24       	eor	r1, r1
    1c0a:	48 17       	cp	r20, r24
    1c0c:	59 07       	cpc	r21, r25
    1c0e:	24 f3       	brlt	.-56     	; 0x1bd8 <_ZN12OrangutanLCD5clearEv+0x18>
    1c10:	10 92 33 02 	sts	0x0233, r1
    1c14:	10 92 32 02 	sts	0x0232, r1
    1c18:	08 95       	ret

00001c1a <clear>:
    1c1a:	0e 94 e0 0d 	call	0x1bc0	; 0x1bc0 <_ZN12OrangutanLCD5clearEv>
    1c1e:	08 95       	ret

00001c20 <_ZN12OrangutanLCD9send_dataEh>:
    1c20:	61 e0       	ldi	r22, 0x01	; 1
    1c22:	42 e0       	ldi	r20, 0x02	; 2
    1c24:	0e 94 5e 0d 	call	0x1abc	; 0x1abc <_ZN12OrangutanLCD4sendEhhh>
    1c28:	08 95       	ret

00001c2a <_ZN12OrangutanLCD11printBinaryEh>:
    1c2a:	0f 93       	push	r16
    1c2c:	1f 93       	push	r17
    1c2e:	cf 93       	push	r28
    1c30:	df 93       	push	r29
    1c32:	00 e0       	ldi	r16, 0x00	; 0
    1c34:	10 e8       	ldi	r17, 0x80	; 128
    1c36:	c8 2f       	mov	r28, r24
    1c38:	d0 e0       	ldi	r29, 0x00	; 0
    1c3a:	81 2f       	mov	r24, r17
    1c3c:	90 e0       	ldi	r25, 0x00	; 0
    1c3e:	8c 23       	and	r24, r28
    1c40:	9d 23       	and	r25, r29
    1c42:	89 2b       	or	r24, r25
    1c44:	11 f0       	breq	.+4      	; 0x1c4a <_ZN12OrangutanLCD11printBinaryEh+0x20>
    1c46:	81 e3       	ldi	r24, 0x31	; 49
    1c48:	01 c0       	rjmp	.+2      	; 0x1c4c <_ZN12OrangutanLCD11printBinaryEh+0x22>
    1c4a:	80 e3       	ldi	r24, 0x30	; 48
    1c4c:	0e 94 10 0e 	call	0x1c20	; 0x1c20 <_ZN12OrangutanLCD9send_dataEh>
    1c50:	0f 5f       	subi	r16, 0xFF	; 255
    1c52:	08 30       	cpi	r16, 0x08	; 8
    1c54:	11 f0       	breq	.+4      	; 0x1c5a <_ZN12OrangutanLCD11printBinaryEh+0x30>
    1c56:	16 95       	lsr	r17
    1c58:	f0 cf       	rjmp	.-32     	; 0x1c3a <_ZN12OrangutanLCD11printBinaryEh+0x10>
    1c5a:	df 91       	pop	r29
    1c5c:	cf 91       	pop	r28
    1c5e:	1f 91       	pop	r17
    1c60:	0f 91       	pop	r16
    1c62:	08 95       	ret

00001c64 <print_binary>:
    1c64:	0e 94 15 0e 	call	0x1c2a	; 0x1c2a <_ZN12OrangutanLCD11printBinaryEh>
    1c68:	08 95       	ret

00001c6a <_ZN12OrangutanLCD14printHexNibbleEh>:
    1c6a:	8a 30       	cpi	r24, 0x0A	; 10
    1c6c:	10 f4       	brcc	.+4      	; 0x1c72 <_ZN12OrangutanLCD14printHexNibbleEh+0x8>
    1c6e:	80 5d       	subi	r24, 0xD0	; 208
    1c70:	01 c0       	rjmp	.+2      	; 0x1c74 <_ZN12OrangutanLCD14printHexNibbleEh+0xa>
    1c72:	89 5c       	subi	r24, 0xC9	; 201
    1c74:	0e 94 10 0e 	call	0x1c20	; 0x1c20 <_ZN12OrangutanLCD9send_dataEh>
    1c78:	08 95       	ret

00001c7a <_ZN12OrangutanLCD8printHexEh>:
    1c7a:	1f 93       	push	r17
    1c7c:	18 2f       	mov	r17, r24
    1c7e:	82 95       	swap	r24
    1c80:	8f 70       	andi	r24, 0x0F	; 15
    1c82:	0e 94 35 0e 	call	0x1c6a	; 0x1c6a <_ZN12OrangutanLCD14printHexNibbleEh>
    1c86:	81 2f       	mov	r24, r17
    1c88:	8f 70       	andi	r24, 0x0F	; 15
    1c8a:	0e 94 35 0e 	call	0x1c6a	; 0x1c6a <_ZN12OrangutanLCD14printHexNibbleEh>
    1c8e:	1f 91       	pop	r17
    1c90:	08 95       	ret

00001c92 <_ZN12OrangutanLCD8printHexEj>:
    1c92:	1f 93       	push	r17
    1c94:	18 2f       	mov	r17, r24
    1c96:	89 2f       	mov	r24, r25
    1c98:	0e 94 3d 0e 	call	0x1c7a	; 0x1c7a <_ZN12OrangutanLCD8printHexEh>
    1c9c:	81 2f       	mov	r24, r17
    1c9e:	0e 94 3d 0e 	call	0x1c7a	; 0x1c7a <_ZN12OrangutanLCD8printHexEh>
    1ca2:	1f 91       	pop	r17
    1ca4:	08 95       	ret

00001ca6 <print_hex>:
    1ca6:	0e 94 49 0e 	call	0x1c92	; 0x1c92 <_ZN12OrangutanLCD8printHexEj>
    1caa:	08 95       	ret

00001cac <print_hex_byte>:
    1cac:	0e 94 3d 0e 	call	0x1c7a	; 0x1c7a <_ZN12OrangutanLCD8printHexEh>
    1cb0:	08 95       	ret

00001cb2 <_ZN12OrangutanLCD5printEm>:
    1cb2:	6f 92       	push	r6
    1cb4:	7f 92       	push	r7
    1cb6:	8f 92       	push	r8
    1cb8:	9f 92       	push	r9
    1cba:	af 92       	push	r10
    1cbc:	bf 92       	push	r11
    1cbe:	cf 92       	push	r12
    1cc0:	df 92       	push	r13
    1cc2:	ff 92       	push	r15
    1cc4:	0f 93       	push	r16
    1cc6:	df 93       	push	r29
    1cc8:	cf 93       	push	r28
    1cca:	cd b7       	in	r28, 0x3d	; 61
    1ccc:	de b7       	in	r29, 0x3e	; 62
    1cce:	2a 97       	sbiw	r28, 0x0a	; 10
    1cd0:	0f b6       	in	r0, 0x3f	; 63
    1cd2:	f8 94       	cli
    1cd4:	de bf       	out	0x3e, r29	; 62
    1cd6:	0f be       	out	0x3f, r0	; 63
    1cd8:	cd bf       	out	0x3d, r28	; 61
    1cda:	5b 01       	movw	r10, r22
    1cdc:	6c 01       	movw	r12, r24
    1cde:	0a e0       	ldi	r16, 0x0A	; 10
    1ce0:	3e 01       	movw	r6, r28
    1ce2:	08 94       	sec
    1ce4:	61 1c       	adc	r6, r1
    1ce6:	71 1c       	adc	r7, r1
    1ce8:	fa 2c       	mov	r15, r10
    1cea:	c6 01       	movw	r24, r12
    1cec:	b5 01       	movw	r22, r10
    1cee:	2a e0       	ldi	r18, 0x0A	; 10
    1cf0:	30 e0       	ldi	r19, 0x00	; 0
    1cf2:	40 e0       	ldi	r20, 0x00	; 0
    1cf4:	50 e0       	ldi	r21, 0x00	; 0
    1cf6:	0e 94 0b 1c 	call	0x3816	; 0x3816 <__udivmodsi4>
    1cfa:	c9 01       	movw	r24, r18
    1cfc:	da 01       	movw	r26, r20
    1cfe:	5c 01       	movw	r10, r24
    1d00:	6d 01       	movw	r12, r26
    1d02:	01 50       	subi	r16, 0x01	; 1
    1d04:	43 01       	movw	r8, r6
    1d06:	80 0e       	add	r8, r16
    1d08:	91 1c       	adc	r9, r1
    1d0a:	80 e3       	ldi	r24, 0x30	; 48
    1d0c:	f8 0e       	add	r15, r24
    1d0e:	c6 01       	movw	r24, r12
    1d10:	b5 01       	movw	r22, r10
    1d12:	2a e0       	ldi	r18, 0x0A	; 10
    1d14:	30 e0       	ldi	r19, 0x00	; 0
    1d16:	40 e0       	ldi	r20, 0x00	; 0
    1d18:	50 e0       	ldi	r21, 0x00	; 0
    1d1a:	0e 94 b9 1b 	call	0x3772	; 0x3772 <__mulsi3>
    1d1e:	f6 1a       	sub	r15, r22
    1d20:	f4 01       	movw	r30, r8
    1d22:	f0 82       	st	Z, r15
    1d24:	a1 14       	cp	r10, r1
    1d26:	b1 04       	cpc	r11, r1
    1d28:	c1 04       	cpc	r12, r1
    1d2a:	d1 04       	cpc	r13, r1
    1d2c:	e9 f6       	brne	.-70     	; 0x1ce8 <_ZN12OrangutanLCD5printEm+0x36>
    1d2e:	08 c0       	rjmp	.+16     	; 0x1d40 <_ZN12OrangutanLCD5printEm+0x8e>
    1d30:	f6 01       	movw	r30, r12
    1d32:	e0 0f       	add	r30, r16
    1d34:	f1 1d       	adc	r31, r1
    1d36:	80 81       	ld	r24, Z
    1d38:	0e 94 10 0e 	call	0x1c20	; 0x1c20 <_ZN12OrangutanLCD9send_dataEh>
    1d3c:	0f 5f       	subi	r16, 0xFF	; 255
    1d3e:	04 c0       	rjmp	.+8      	; 0x1d48 <_ZN12OrangutanLCD5printEm+0x96>
    1d40:	6e 01       	movw	r12, r28
    1d42:	08 94       	sec
    1d44:	c1 1c       	adc	r12, r1
    1d46:	d1 1c       	adc	r13, r1
    1d48:	0a 30       	cpi	r16, 0x0A	; 10
    1d4a:	90 f3       	brcs	.-28     	; 0x1d30 <_ZN12OrangutanLCD5printEm+0x7e>
    1d4c:	2a 96       	adiw	r28, 0x0a	; 10
    1d4e:	0f b6       	in	r0, 0x3f	; 63
    1d50:	f8 94       	cli
    1d52:	de bf       	out	0x3e, r29	; 62
    1d54:	0f be       	out	0x3f, r0	; 63
    1d56:	cd bf       	out	0x3d, r28	; 61
    1d58:	cf 91       	pop	r28
    1d5a:	df 91       	pop	r29
    1d5c:	0f 91       	pop	r16
    1d5e:	ff 90       	pop	r15
    1d60:	df 90       	pop	r13
    1d62:	cf 90       	pop	r12
    1d64:	bf 90       	pop	r11
    1d66:	af 90       	pop	r10
    1d68:	9f 90       	pop	r9
    1d6a:	8f 90       	pop	r8
    1d6c:	7f 90       	pop	r7
    1d6e:	6f 90       	pop	r6
    1d70:	08 95       	ret

00001d72 <print_unsigned_long>:
    1d72:	0e 94 59 0e 	call	0x1cb2	; 0x1cb2 <_ZN12OrangutanLCD5printEm>
    1d76:	08 95       	ret

00001d78 <_ZN12OrangutanLCD5printEl>:
    1d78:	ef 92       	push	r14
    1d7a:	ff 92       	push	r15
    1d7c:	0f 93       	push	r16
    1d7e:	1f 93       	push	r17
    1d80:	7b 01       	movw	r14, r22
    1d82:	8c 01       	movw	r16, r24
    1d84:	97 ff       	sbrs	r25, 7
    1d86:	0b c0       	rjmp	.+22     	; 0x1d9e <_ZN12OrangutanLCD5printEl+0x26>
    1d88:	10 95       	com	r17
    1d8a:	00 95       	com	r16
    1d8c:	f0 94       	com	r15
    1d8e:	e0 94       	com	r14
    1d90:	e1 1c       	adc	r14, r1
    1d92:	f1 1c       	adc	r15, r1
    1d94:	01 1d       	adc	r16, r1
    1d96:	11 1d       	adc	r17, r1
    1d98:	8d e2       	ldi	r24, 0x2D	; 45
    1d9a:	0e 94 10 0e 	call	0x1c20	; 0x1c20 <_ZN12OrangutanLCD9send_dataEh>
    1d9e:	c8 01       	movw	r24, r16
    1da0:	b7 01       	movw	r22, r14
    1da2:	0e 94 59 0e 	call	0x1cb2	; 0x1cb2 <_ZN12OrangutanLCD5printEm>
    1da6:	1f 91       	pop	r17
    1da8:	0f 91       	pop	r16
    1daa:	ff 90       	pop	r15
    1dac:	ef 90       	pop	r14
    1dae:	08 95       	ret

00001db0 <print_long>:
    1db0:	0e 94 bc 0e 	call	0x1d78	; 0x1d78 <_ZN12OrangutanLCD5printEl>
    1db4:	08 95       	ret

00001db6 <_ZN12OrangutanLCD21printFromProgramSpaceEPKc>:
    1db6:	cf 93       	push	r28
    1db8:	df 93       	push	r29
    1dba:	ec 01       	movw	r28, r24
    1dbc:	03 c0       	rjmp	.+6      	; 0x1dc4 <_ZN12OrangutanLCD21printFromProgramSpaceEPKc+0xe>
    1dbe:	0e 94 10 0e 	call	0x1c20	; 0x1c20 <_ZN12OrangutanLCD9send_dataEh>
    1dc2:	21 96       	adiw	r28, 0x01	; 1
    1dc4:	fe 01       	movw	r30, r28
    1dc6:	84 91       	lpm	r24, Z+
    1dc8:	88 23       	and	r24, r24
    1dca:	c9 f7       	brne	.-14     	; 0x1dbe <_ZN12OrangutanLCD21printFromProgramSpaceEPKc+0x8>
    1dcc:	df 91       	pop	r29
    1dce:	cf 91       	pop	r28
    1dd0:	08 95       	ret

00001dd2 <print_from_program_space>:
    1dd2:	0e 94 db 0e 	call	0x1db6	; 0x1db6 <_ZN12OrangutanLCD21printFromProgramSpaceEPKc>
    1dd6:	08 95       	ret

00001dd8 <_ZN12OrangutanLCD5printEPKc>:
    1dd8:	cf 93       	push	r28
    1dda:	df 93       	push	r29
    1ddc:	ec 01       	movw	r28, r24
    1dde:	03 c0       	rjmp	.+6      	; 0x1de6 <_ZN12OrangutanLCD5printEPKc+0xe>
    1de0:	21 96       	adiw	r28, 0x01	; 1
    1de2:	0e 94 10 0e 	call	0x1c20	; 0x1c20 <_ZN12OrangutanLCD9send_dataEh>
    1de6:	88 81       	ld	r24, Y
    1de8:	88 23       	and	r24, r24
    1dea:	d1 f7       	brne	.-12     	; 0x1de0 <_ZN12OrangutanLCD5printEPKc+0x8>
    1dec:	df 91       	pop	r29
    1dee:	cf 91       	pop	r28
    1df0:	08 95       	ret

00001df2 <print>:
    1df2:	0e 94 ec 0e 	call	0x1dd8	; 0x1dd8 <_ZN12OrangutanLCD5printEPKc>
    1df6:	08 95       	ret

00001df8 <_ZN12OrangutanLCD5printEc>:
    1df8:	0e 94 10 0e 	call	0x1c20	; 0x1c20 <_ZN12OrangutanLCD9send_dataEh>
    1dfc:	08 95       	ret

00001dfe <print_character>:
    1dfe:	0e 94 10 0e 	call	0x1c20	; 0x1c20 <_ZN12OrangutanLCD9send_dataEh>
    1e02:	08 95       	ret

00001e04 <lcd_putchar>:
    1e04:	a0 e0       	ldi	r26, 0x00	; 0
    1e06:	b0 e0       	ldi	r27, 0x00	; 0
    1e08:	e8 e0       	ldi	r30, 0x08	; 8
    1e0a:	ff e0       	ldi	r31, 0x0F	; 15
    1e0c:	0c 94 52 1c 	jmp	0x38a4	; 0x38a4 <__prologue_saves__+0x14>
    1e10:	e8 2e       	mov	r14, r24
    1e12:	80 91 30 02 	lds	r24, 0x0230
    1e16:	90 91 31 02 	lds	r25, 0x0231
    1e1a:	89 2b       	or	r24, r25
    1e1c:	09 f4       	brne	.+2      	; 0x1e20 <lcd_putchar+0x1c>
    1e1e:	05 c1       	rjmp	.+522    	; 0x202a <lcd_putchar+0x226>
    1e20:	2a e0       	ldi	r18, 0x0A	; 10
    1e22:	e2 16       	cp	r14, r18
    1e24:	09 f4       	brne	.+2      	; 0x1e28 <lcd_putchar+0x24>
    1e26:	46 c0       	rjmp	.+140    	; 0x1eb4 <lcd_putchar+0xb0>
    1e28:	38 e0       	ldi	r19, 0x08	; 8
    1e2a:	e3 16       	cp	r14, r19
    1e2c:	c9 f4       	brne	.+50     	; 0x1e60 <lcd_putchar+0x5c>
    1e2e:	80 91 33 02 	lds	r24, 0x0233
    1e32:	81 50       	subi	r24, 0x01	; 1
    1e34:	80 93 33 02 	sts	0x0233, r24
    1e38:	8f 3f       	cpi	r24, 0xFF	; 255
    1e3a:	51 f4       	brne	.+20     	; 0x1e50 <lcd_putchar+0x4c>
    1e3c:	80 91 32 02 	lds	r24, 0x0232
    1e40:	81 50       	subi	r24, 0x01	; 1
    1e42:	80 93 32 02 	sts	0x0232, r24
    1e46:	80 91 14 01 	lds	r24, 0x0114
    1e4a:	81 50       	subi	r24, 0x01	; 1
    1e4c:	80 93 33 02 	sts	0x0233, r24
    1e50:	80 91 32 02 	lds	r24, 0x0232
    1e54:	8f 3f       	cpi	r24, 0xFF	; 255
    1e56:	09 f0       	breq	.+2      	; 0x1e5a <lcd_putchar+0x56>
    1e58:	e2 c0       	rjmp	.+452    	; 0x201e <lcd_putchar+0x21a>
    1e5a:	10 92 32 02 	sts	0x0232, r1
    1e5e:	dd c0       	rjmp	.+442    	; 0x201a <lcd_putchar+0x216>
    1e60:	8e 2d       	mov	r24, r14
    1e62:	0e 94 10 0e 	call	0x1c20	; 0x1c20 <_ZN12OrangutanLCD9send_dataEh>
    1e66:	20 91 32 02 	lds	r18, 0x0232
    1e6a:	22 23       	and	r18, r18
    1e6c:	c9 f0       	breq	.+50     	; 0x1ea0 <lcd_putchar+0x9c>
    1e6e:	30 e0       	ldi	r19, 0x00	; 0
    1e70:	21 50       	subi	r18, 0x01	; 1
    1e72:	30 40       	sbci	r19, 0x00	; 0
    1e74:	80 91 14 01 	lds	r24, 0x0114
    1e78:	90 e0       	ldi	r25, 0x00	; 0
    1e7a:	ac 01       	movw	r20, r24
    1e7c:	24 9f       	mul	r18, r20
    1e7e:	c0 01       	movw	r24, r0
    1e80:	25 9f       	mul	r18, r21
    1e82:	90 0d       	add	r25, r0
    1e84:	34 9f       	mul	r19, r20
    1e86:	90 0d       	add	r25, r0
    1e88:	11 24       	eor	r1, r1
    1e8a:	20 91 33 02 	lds	r18, 0x0233
    1e8e:	e0 91 30 02 	lds	r30, 0x0230
    1e92:	f0 91 31 02 	lds	r31, 0x0231
    1e96:	e8 0f       	add	r30, r24
    1e98:	f9 1f       	adc	r31, r25
    1e9a:	e2 0f       	add	r30, r18
    1e9c:	f1 1d       	adc	r31, r1
    1e9e:	e0 82       	st	Z, r14
    1ea0:	80 91 33 02 	lds	r24, 0x0233
    1ea4:	8f 5f       	subi	r24, 0xFF	; 255
    1ea6:	80 93 33 02 	sts	0x0233, r24
    1eaa:	90 91 14 01 	lds	r25, 0x0114
    1eae:	89 17       	cp	r24, r25
    1eb0:	09 f0       	breq	.+2      	; 0x1eb4 <lcd_putchar+0xb0>
    1eb2:	bb c0       	rjmp	.+374    	; 0x202a <lcd_putchar+0x226>
    1eb4:	40 91 32 02 	lds	r20, 0x0232
    1eb8:	24 2f       	mov	r18, r20
    1eba:	30 e0       	ldi	r19, 0x00	; 0
    1ebc:	80 91 13 01 	lds	r24, 0x0113
    1ec0:	90 e0       	ldi	r25, 0x00	; 0
    1ec2:	01 97       	sbiw	r24, 0x01	; 1
    1ec4:	28 17       	cp	r18, r24
    1ec6:	39 07       	cpc	r19, r25
    1ec8:	09 f0       	breq	.+2      	; 0x1ecc <lcd_putchar+0xc8>
    1eca:	a4 c0       	rjmp	.+328    	; 0x2014 <lcd_putchar+0x210>
    1ecc:	c0 e0       	ldi	r28, 0x00	; 0
    1ece:	d0 e0       	ldi	r29, 0x00	; 0
    1ed0:	44 c0       	rjmp	.+136    	; 0x1f5a <lcd_putchar+0x156>
    1ed2:	80 e0       	ldi	r24, 0x00	; 0
    1ed4:	6c 2f       	mov	r22, r28
    1ed6:	0e 94 be 0d 	call	0x1b7c	; 0x1b7c <_ZN12OrangutanLCD6gotoXYEhh>
    1eda:	ff 24       	eor	r15, r15
    1edc:	6e 01       	movw	r12, r28
    1ede:	08 94       	sec
    1ee0:	c1 1c       	adc	r12, r1
    1ee2:	d1 1c       	adc	r13, r1
    1ee4:	35 c0       	rjmp	.+106    	; 0x1f50 <lcd_putchar+0x14c>
    1ee6:	0f 2d       	mov	r16, r15
    1ee8:	10 e0       	ldi	r17, 0x00	; 0
    1eea:	90 e0       	ldi	r25, 0x00	; 0
    1eec:	9c 01       	movw	r18, r24
    1eee:	c2 9f       	mul	r28, r18
    1ef0:	c0 01       	movw	r24, r0
    1ef2:	c3 9f       	mul	r28, r19
    1ef4:	90 0d       	add	r25, r0
    1ef6:	d2 9f       	mul	r29, r18
    1ef8:	90 0d       	add	r25, r0
    1efa:	11 24       	eor	r1, r1
    1efc:	e0 91 30 02 	lds	r30, 0x0230
    1f00:	f0 91 31 02 	lds	r31, 0x0231
    1f04:	e0 0f       	add	r30, r16
    1f06:	f1 1f       	adc	r31, r17
    1f08:	e8 0f       	add	r30, r24
    1f0a:	f9 1f       	adc	r31, r25
    1f0c:	80 81       	ld	r24, Z
    1f0e:	0e 94 10 0e 	call	0x1c20	; 0x1c20 <_ZN12OrangutanLCD9send_dataEh>
    1f12:	e0 91 30 02 	lds	r30, 0x0230
    1f16:	f0 91 31 02 	lds	r31, 0x0231
    1f1a:	80 91 14 01 	lds	r24, 0x0114
    1f1e:	90 e0       	ldi	r25, 0x00	; 0
    1f20:	c8 9f       	mul	r28, r24
    1f22:	d0 01       	movw	r26, r0
    1f24:	c9 9f       	mul	r28, r25
    1f26:	b0 0d       	add	r27, r0
    1f28:	d8 9f       	mul	r29, r24
    1f2a:	b0 0d       	add	r27, r0
    1f2c:	11 24       	eor	r1, r1
    1f2e:	e0 0f       	add	r30, r16
    1f30:	f1 1f       	adc	r31, r17
    1f32:	ae 0f       	add	r26, r30
    1f34:	bf 1f       	adc	r27, r31
    1f36:	ac 01       	movw	r20, r24
    1f38:	c4 9e       	mul	r12, r20
    1f3a:	c0 01       	movw	r24, r0
    1f3c:	c5 9e       	mul	r12, r21
    1f3e:	90 0d       	add	r25, r0
    1f40:	d4 9e       	mul	r13, r20
    1f42:	90 0d       	add	r25, r0
    1f44:	11 24       	eor	r1, r1
    1f46:	e8 0f       	add	r30, r24
    1f48:	f9 1f       	adc	r31, r25
    1f4a:	80 81       	ld	r24, Z
    1f4c:	8c 93       	st	X, r24
    1f4e:	f3 94       	inc	r15
    1f50:	80 91 14 01 	lds	r24, 0x0114
    1f54:	f8 16       	cp	r15, r24
    1f56:	38 f2       	brcs	.-114    	; 0x1ee6 <lcd_putchar+0xe2>
    1f58:	e6 01       	movw	r28, r12
    1f5a:	60 91 13 01 	lds	r22, 0x0113
    1f5e:	86 2f       	mov	r24, r22
    1f60:	90 e0       	ldi	r25, 0x00	; 0
    1f62:	02 97       	sbiw	r24, 0x02	; 2
    1f64:	c8 17       	cp	r28, r24
    1f66:	d9 07       	cpc	r29, r25
    1f68:	0c f4       	brge	.+2      	; 0x1f6c <lcd_putchar+0x168>
    1f6a:	b3 cf       	rjmp	.-154    	; 0x1ed2 <lcd_putchar+0xce>
    1f6c:	62 30       	cpi	r22, 0x02	; 2
    1f6e:	08 f4       	brcc	.+2      	; 0x1f72 <lcd_putchar+0x16e>
    1f70:	40 c0       	rjmp	.+128    	; 0x1ff2 <lcd_putchar+0x1ee>
    1f72:	62 50       	subi	r22, 0x02	; 2
    1f74:	80 e0       	ldi	r24, 0x00	; 0
    1f76:	0e 94 be 0d 	call	0x1b7c	; 0x1b7c <_ZN12OrangutanLCD6gotoXYEhh>
    1f7a:	ff 24       	eor	r15, r15
    1f7c:	e0 e2       	ldi	r30, 0x20	; 32
    1f7e:	de 2e       	mov	r13, r30
    1f80:	34 c0       	rjmp	.+104    	; 0x1fea <lcd_putchar+0x1e6>
    1f82:	0f 2d       	mov	r16, r15
    1f84:	10 e0       	ldi	r17, 0x00	; 0
    1f86:	80 91 13 01 	lds	r24, 0x0113
    1f8a:	90 e0       	ldi	r25, 0x00	; 0
    1f8c:	02 97       	sbiw	r24, 0x02	; 2
    1f8e:	30 e0       	ldi	r19, 0x00	; 0
    1f90:	ac 01       	movw	r20, r24
    1f92:	42 9f       	mul	r20, r18
    1f94:	c0 01       	movw	r24, r0
    1f96:	43 9f       	mul	r20, r19
    1f98:	90 0d       	add	r25, r0
    1f9a:	52 9f       	mul	r21, r18
    1f9c:	90 0d       	add	r25, r0
    1f9e:	11 24       	eor	r1, r1
    1fa0:	e0 91 30 02 	lds	r30, 0x0230
    1fa4:	f0 91 31 02 	lds	r31, 0x0231
    1fa8:	e0 0f       	add	r30, r16
    1faa:	f1 1f       	adc	r31, r17
    1fac:	e8 0f       	add	r30, r24
    1fae:	f9 1f       	adc	r31, r25
    1fb0:	80 81       	ld	r24, Z
    1fb2:	0e 94 10 0e 	call	0x1c20	; 0x1c20 <_ZN12OrangutanLCD9send_dataEh>
    1fb6:	20 91 13 01 	lds	r18, 0x0113
    1fba:	30 e0       	ldi	r19, 0x00	; 0
    1fbc:	22 50       	subi	r18, 0x02	; 2
    1fbe:	30 40       	sbci	r19, 0x00	; 0
    1fc0:	80 91 14 01 	lds	r24, 0x0114
    1fc4:	90 e0       	ldi	r25, 0x00	; 0
    1fc6:	ac 01       	movw	r20, r24
    1fc8:	24 9f       	mul	r18, r20
    1fca:	c0 01       	movw	r24, r0
    1fcc:	25 9f       	mul	r18, r21
    1fce:	90 0d       	add	r25, r0
    1fd0:	34 9f       	mul	r19, r20
    1fd2:	90 0d       	add	r25, r0
    1fd4:	11 24       	eor	r1, r1
    1fd6:	e0 91 30 02 	lds	r30, 0x0230
    1fda:	f0 91 31 02 	lds	r31, 0x0231
    1fde:	e0 0f       	add	r30, r16
    1fe0:	f1 1f       	adc	r31, r17
    1fe2:	e8 0f       	add	r30, r24
    1fe4:	f9 1f       	adc	r31, r25
    1fe6:	d0 82       	st	Z, r13
    1fe8:	f3 94       	inc	r15
    1fea:	20 91 14 01 	lds	r18, 0x0114
    1fee:	f2 16       	cp	r15, r18
    1ff0:	40 f2       	brcs	.-112    	; 0x1f82 <lcd_putchar+0x17e>
    1ff2:	60 91 13 01 	lds	r22, 0x0113
    1ff6:	61 50       	subi	r22, 0x01	; 1
    1ff8:	80 e0       	ldi	r24, 0x00	; 0
    1ffa:	0e 94 be 0d 	call	0x1b7c	; 0x1b7c <_ZN12OrangutanLCD6gotoXYEhh>
    1ffe:	00 e0       	ldi	r16, 0x00	; 0
    2000:	04 c0       	rjmp	.+8      	; 0x200a <lcd_putchar+0x206>
    2002:	80 e2       	ldi	r24, 0x20	; 32
    2004:	0e 94 10 0e 	call	0x1c20	; 0x1c20 <_ZN12OrangutanLCD9send_dataEh>
    2008:	0f 5f       	subi	r16, 0xFF	; 255
    200a:	80 91 14 01 	lds	r24, 0x0114
    200e:	08 17       	cp	r16, r24
    2010:	c0 f3       	brcs	.-16     	; 0x2002 <lcd_putchar+0x1fe>
    2012:	03 c0       	rjmp	.+6      	; 0x201a <lcd_putchar+0x216>
    2014:	4f 5f       	subi	r20, 0xFF	; 255
    2016:	40 93 32 02 	sts	0x0232, r20
    201a:	10 92 33 02 	sts	0x0233, r1
    201e:	80 91 33 02 	lds	r24, 0x0233
    2022:	60 91 32 02 	lds	r22, 0x0232
    2026:	0e 94 be 0d 	call	0x1b7c	; 0x1b7c <_ZN12OrangutanLCD6gotoXYEhh>
    202a:	2e 2d       	mov	r18, r14
    202c:	33 27       	eor	r19, r19
    202e:	27 fd       	sbrc	r18, 7
    2030:	30 95       	com	r19
    2032:	c9 01       	movw	r24, r18
    2034:	cd b7       	in	r28, 0x3d	; 61
    2036:	de b7       	in	r29, 0x3e	; 62
    2038:	e8 e0       	ldi	r30, 0x08	; 8
    203a:	0c 94 6e 1c 	jmp	0x38dc	; 0x38dc <__epilogue_restores__+0x14>

0000203e <_ZN12OrangutanLCD19loadCustomCharacterEPKch>:
    203e:	ef 92       	push	r14
    2040:	ff 92       	push	r15
    2042:	0f 93       	push	r16
    2044:	1f 93       	push	r17
    2046:	cf 93       	push	r28
    2048:	df 93       	push	r29
    204a:	7c 01       	movw	r14, r24
    204c:	06 2f       	mov	r16, r22
    204e:	10 e0       	ldi	r17, 0x00	; 0
    2050:	f3 e0       	ldi	r31, 0x03	; 3
    2052:	00 0f       	add	r16, r16
    2054:	11 1f       	adc	r17, r17
    2056:	fa 95       	dec	r31
    2058:	e1 f7       	brne	.-8      	; 0x2052 <_ZN12OrangutanLCD19loadCustomCharacterEPKch+0x14>
    205a:	c0 e0       	ldi	r28, 0x00	; 0
    205c:	d0 e0       	ldi	r29, 0x00	; 0
    205e:	9e 01       	movw	r18, r28
    2060:	20 0f       	add	r18, r16
    2062:	82 2f       	mov	r24, r18
    2064:	80 64       	ori	r24, 0x40	; 64
    2066:	0e 94 92 0d 	call	0x1b24	; 0x1b24 <_ZN12OrangutanLCD8send_cmdEh>
    206a:	f7 01       	movw	r30, r14
    206c:	ec 0f       	add	r30, r28
    206e:	fd 1f       	adc	r31, r29
    2070:	e4 91       	lpm	r30, Z+
    2072:	8e 2f       	mov	r24, r30
    2074:	0e 94 10 0e 	call	0x1c20	; 0x1c20 <_ZN12OrangutanLCD9send_dataEh>
    2078:	21 96       	adiw	r28, 0x01	; 1
    207a:	c8 30       	cpi	r28, 0x08	; 8
    207c:	d1 05       	cpc	r29, r1
    207e:	79 f7       	brne	.-34     	; 0x205e <_ZN12OrangutanLCD19loadCustomCharacterEPKch+0x20>
    2080:	cd b7       	in	r28, 0x3d	; 61
    2082:	de b7       	in	r29, 0x3e	; 62
    2084:	e6 e0       	ldi	r30, 0x06	; 6
    2086:	0c 94 70 1c 	jmp	0x38e0	; 0x38e0 <__epilogue_restores__+0x18>

0000208a <lcd_load_custom_character>:
    208a:	0e 94 1f 10 	call	0x203e	; 0x203e <_ZN12OrangutanLCD19loadCustomCharacterEPKch>
    208e:	08 95       	ret

00002090 <_ZN12OrangutanLCD13send_4bit_cmdEh>:
    2090:	60 e0       	ldi	r22, 0x00	; 0
    2092:	41 e0       	ldi	r20, 0x01	; 1
    2094:	0e 94 5e 0d 	call	0x1abc	; 0x1abc <_ZN12OrangutanLCD4sendEhhh>
    2098:	08 95       	ret

0000209a <_ZN12OrangutanLCD6scrollEhhj>:
    209a:	0f 93       	push	r16
    209c:	1f 93       	push	r17
    209e:	cf 93       	push	r28
    20a0:	df 93       	push	r29
    20a2:	08 2f       	mov	r16, r24
    20a4:	16 2f       	mov	r17, r22
    20a6:	ea 01       	movw	r28, r20
    20a8:	0b c0       	rjmp	.+22     	; 0x20c0 <_ZN12OrangutanLCD6scrollEhhj+0x26>
    20aa:	00 23       	and	r16, r16
    20ac:	11 f4       	brne	.+4      	; 0x20b2 <_ZN12OrangutanLCD6scrollEhhj+0x18>
    20ae:	88 e1       	ldi	r24, 0x18	; 24
    20b0:	01 c0       	rjmp	.+2      	; 0x20b4 <_ZN12OrangutanLCD6scrollEhhj+0x1a>
    20b2:	8c e1       	ldi	r24, 0x1C	; 28
    20b4:	0e 94 92 0d 	call	0x1b24	; 0x1b24 <_ZN12OrangutanLCD8send_cmdEh>
    20b8:	ce 01       	movw	r24, r28
    20ba:	0e 94 a5 13 	call	0x274a	; 0x274a <_ZN13OrangutanTime17delayMillisecondsEj>
    20be:	11 50       	subi	r17, 0x01	; 1
    20c0:	11 23       	and	r17, r17
    20c2:	99 f7       	brne	.-26     	; 0x20aa <_ZN12OrangutanLCD6scrollEhhj+0x10>
    20c4:	df 91       	pop	r29
    20c6:	cf 91       	pop	r28
    20c8:	1f 91       	pop	r17
    20ca:	0f 91       	pop	r16
    20cc:	08 95       	ret

000020ce <lcd_scroll>:
    20ce:	0e 94 4d 10 	call	0x209a	; 0x209a <_ZN12OrangutanLCD6scrollEhhj>
    20d2:	08 95       	ret

000020d4 <_ZN16OrangutanDigital9setOutputEhh>:
    20d4:	28 2f       	mov	r18, r24
    20d6:	88 30       	cpi	r24, 0x08	; 8
    20d8:	68 f4       	brcc	.+26     	; 0x20f4 <_ZN16OrangutanDigital9setOutputEhh+0x20>
    20da:	81 e0       	ldi	r24, 0x01	; 1
    20dc:	90 e0       	ldi	r25, 0x00	; 0
    20de:	02 c0       	rjmp	.+4      	; 0x20e4 <_ZN16OrangutanDigital9setOutputEhh+0x10>
    20e0:	88 0f       	add	r24, r24
    20e2:	99 1f       	adc	r25, r25
    20e4:	2a 95       	dec	r18
    20e6:	e2 f7       	brpl	.-8      	; 0x20e0 <_ZN16OrangutanDigital9setOutputEhh+0xc>
    20e8:	28 2f       	mov	r18, r24
    20ea:	aa e2       	ldi	r26, 0x2A	; 42
    20ec:	b0 e0       	ldi	r27, 0x00	; 0
    20ee:	eb e2       	ldi	r30, 0x2B	; 43
    20f0:	f0 e0       	ldi	r31, 0x00	; 0
    20f2:	29 c0       	rjmp	.+82     	; 0x2146 <_ZN16OrangutanDigital9setOutputEhh+0x72>
    20f4:	8e 30       	cpi	r24, 0x0E	; 14
    20f6:	80 f4       	brcc	.+32     	; 0x2118 <_ZN16OrangutanDigital9setOutputEhh+0x44>
    20f8:	30 e0       	ldi	r19, 0x00	; 0
    20fa:	28 50       	subi	r18, 0x08	; 8
    20fc:	30 40       	sbci	r19, 0x00	; 0
    20fe:	81 e0       	ldi	r24, 0x01	; 1
    2100:	90 e0       	ldi	r25, 0x00	; 0
    2102:	02 c0       	rjmp	.+4      	; 0x2108 <_ZN16OrangutanDigital9setOutputEhh+0x34>
    2104:	88 0f       	add	r24, r24
    2106:	99 1f       	adc	r25, r25
    2108:	2a 95       	dec	r18
    210a:	e2 f7       	brpl	.-8      	; 0x2104 <_ZN16OrangutanDigital9setOutputEhh+0x30>
    210c:	28 2f       	mov	r18, r24
    210e:	a4 e2       	ldi	r26, 0x24	; 36
    2110:	b0 e0       	ldi	r27, 0x00	; 0
    2112:	e5 e2       	ldi	r30, 0x25	; 37
    2114:	f0 e0       	ldi	r31, 0x00	; 0
    2116:	17 c0       	rjmp	.+46     	; 0x2146 <_ZN16OrangutanDigital9setOutputEhh+0x72>
    2118:	85 31       	cpi	r24, 0x15	; 21
    211a:	30 f0       	brcs	.+12     	; 0x2128 <_ZN16OrangutanDigital9setOutputEhh+0x54>
    211c:	20 e0       	ldi	r18, 0x00	; 0
    211e:	a0 e0       	ldi	r26, 0x00	; 0
    2120:	b0 e0       	ldi	r27, 0x00	; 0
    2122:	e0 e0       	ldi	r30, 0x00	; 0
    2124:	f0 e0       	ldi	r31, 0x00	; 0
    2126:	0f c0       	rjmp	.+30     	; 0x2146 <_ZN16OrangutanDigital9setOutputEhh+0x72>
    2128:	30 e0       	ldi	r19, 0x00	; 0
    212a:	2e 50       	subi	r18, 0x0E	; 14
    212c:	30 40       	sbci	r19, 0x00	; 0
    212e:	81 e0       	ldi	r24, 0x01	; 1
    2130:	90 e0       	ldi	r25, 0x00	; 0
    2132:	02 c0       	rjmp	.+4      	; 0x2138 <_ZN16OrangutanDigital9setOutputEhh+0x64>
    2134:	88 0f       	add	r24, r24
    2136:	99 1f       	adc	r25, r25
    2138:	2a 95       	dec	r18
    213a:	e2 f7       	brpl	.-8      	; 0x2134 <_ZN16OrangutanDigital9setOutputEhh+0x60>
    213c:	28 2f       	mov	r18, r24
    213e:	a7 e2       	ldi	r26, 0x27	; 39
    2140:	b0 e0       	ldi	r27, 0x00	; 0
    2142:	e8 e2       	ldi	r30, 0x28	; 40
    2144:	f0 e0       	ldi	r31, 0x00	; 0
    2146:	6f 3f       	cpi	r22, 0xFF	; 255
    2148:	19 f4       	brne	.+6      	; 0x2150 <_ZN16OrangutanDigital9setOutputEhh+0x7c>
    214a:	80 81       	ld	r24, Z
    214c:	82 27       	eor	r24, r18
    214e:	09 c0       	rjmp	.+18     	; 0x2162 <_ZN16OrangutanDigital9setOutputEhh+0x8e>
    2150:	66 23       	and	r22, r22
    2152:	19 f0       	breq	.+6      	; 0x215a <_ZN16OrangutanDigital9setOutputEhh+0x86>
    2154:	80 81       	ld	r24, Z
    2156:	82 2b       	or	r24, r18
    2158:	04 c0       	rjmp	.+8      	; 0x2162 <_ZN16OrangutanDigital9setOutputEhh+0x8e>
    215a:	90 81       	ld	r25, Z
    215c:	82 2f       	mov	r24, r18
    215e:	80 95       	com	r24
    2160:	89 23       	and	r24, r25
    2162:	80 83       	st	Z, r24
    2164:	8c 91       	ld	r24, X
    2166:	82 2b       	or	r24, r18
    2168:	8c 93       	st	X, r24
    216a:	08 95       	ret

0000216c <_ZN15OrangutanMotorsC2Ev>:
    216c:	08 95       	ret

0000216e <_ZN15OrangutanMotorsC1Ev>:
    216e:	08 95       	ret

00002170 <_ZN15OrangutanMotors5init2Ev>:
    2170:	e0 eb       	ldi	r30, 0xB0	; 176
    2172:	f0 e0       	ldi	r31, 0x00	; 0
    2174:	83 ef       	ldi	r24, 0xF3	; 243
    2176:	80 83       	st	Z, r24
    2178:	80 81       	ld	r24, Z
    217a:	84 bd       	out	0x24, r24	; 36
    217c:	e1 eb       	ldi	r30, 0xB1	; 177
    217e:	f0 e0       	ldi	r31, 0x00	; 0
    2180:	82 e0       	ldi	r24, 0x02	; 2
    2182:	80 83       	st	Z, r24
    2184:	80 81       	ld	r24, Z
    2186:	85 bd       	out	0x25, r24	; 37
    2188:	e4 eb       	ldi	r30, 0xB4	; 180
    218a:	f0 e0       	ldi	r31, 0x00	; 0
    218c:	10 82       	st	Z, r1
    218e:	80 81       	ld	r24, Z
    2190:	e3 eb       	ldi	r30, 0xB3	; 179
    2192:	f0 e0       	ldi	r31, 0x00	; 0
    2194:	80 83       	st	Z, r24
    2196:	80 81       	ld	r24, Z
    2198:	88 bd       	out	0x28, r24	; 40
    219a:	88 b5       	in	r24, 0x28	; 40
    219c:	87 bd       	out	0x27, r24	; 39
    219e:	86 e0       	ldi	r24, 0x06	; 6
    21a0:	60 e0       	ldi	r22, 0x00	; 0
    21a2:	0e 94 6a 10 	call	0x20d4	; 0x20d4 <_ZN16OrangutanDigital9setOutputEhh>
    21a6:	85 e0       	ldi	r24, 0x05	; 5
    21a8:	60 e0       	ldi	r22, 0x00	; 0
    21aa:	0e 94 6a 10 	call	0x20d4	; 0x20d4 <_ZN16OrangutanDigital9setOutputEhh>
    21ae:	8b e0       	ldi	r24, 0x0B	; 11
    21b0:	60 e0       	ldi	r22, 0x00	; 0
    21b2:	0e 94 6a 10 	call	0x20d4	; 0x20d4 <_ZN16OrangutanDigital9setOutputEhh>
    21b6:	83 e0       	ldi	r24, 0x03	; 3
    21b8:	60 e0       	ldi	r22, 0x00	; 0
    21ba:	0e 94 6a 10 	call	0x20d4	; 0x20d4 <_ZN16OrangutanDigital9setOutputEhh>
    21be:	08 95       	ret

000021c0 <_ZN15OrangutanMotors4initEv>:
    21c0:	80 91 39 02 	lds	r24, 0x0239
    21c4:	88 23       	and	r24, r24
    21c6:	29 f4       	brne	.+10     	; 0x21d2 <_ZN15OrangutanMotors4initEv+0x12>
    21c8:	81 e0       	ldi	r24, 0x01	; 1
    21ca:	80 93 39 02 	sts	0x0239, r24
    21ce:	0e 94 b8 10 	call	0x2170	; 0x2170 <_ZN15OrangutanMotors5init2Ev>
    21d2:	08 95       	ret

000021d4 <_ZN15OrangutanMotors10setM1SpeedEi>:
    21d4:	cf 93       	push	r28
    21d6:	df 93       	push	r29
    21d8:	ec 01       	movw	r28, r24
    21da:	0e 94 e0 10 	call	0x21c0	; 0x21c0 <_ZN15OrangutanMotors4initEv>
    21de:	d7 fd       	sbrc	r29, 7
    21e0:	02 c0       	rjmp	.+4      	; 0x21e6 <_ZN15OrangutanMotors10setM1SpeedEi+0x12>
    21e2:	20 e0       	ldi	r18, 0x00	; 0
    21e4:	04 c0       	rjmp	.+8      	; 0x21ee <_ZN15OrangutanMotors10setM1SpeedEi+0x1a>
    21e6:	d0 95       	com	r29
    21e8:	c1 95       	neg	r28
    21ea:	df 4f       	sbci	r29, 0xFF	; 255
    21ec:	21 e0       	ldi	r18, 0x01	; 1
    21ee:	ce 01       	movw	r24, r28
    21f0:	cf 3f       	cpi	r28, 0xFF	; 255
    21f2:	d1 05       	cpc	r29, r1
    21f4:	19 f0       	breq	.+6      	; 0x21fc <_ZN15OrangutanMotors10setM1SpeedEi+0x28>
    21f6:	14 f0       	brlt	.+4      	; 0x21fc <_ZN15OrangutanMotors10setM1SpeedEi+0x28>
    21f8:	8f ef       	ldi	r24, 0xFF	; 255
    21fa:	90 e0       	ldi	r25, 0x00	; 0
    21fc:	22 23       	and	r18, r18
    21fe:	19 f0       	breq	.+6      	; 0x2206 <_ZN15OrangutanMotors10setM1SpeedEi+0x32>
    2200:	18 bc       	out	0x28, r1	; 40
    2202:	87 bd       	out	0x27, r24	; 39
    2204:	02 c0       	rjmp	.+4      	; 0x220a <_ZN15OrangutanMotors10setM1SpeedEi+0x36>
    2206:	88 bd       	out	0x28, r24	; 40
    2208:	17 bc       	out	0x27, r1	; 39
    220a:	df 91       	pop	r29
    220c:	cf 91       	pop	r28
    220e:	08 95       	ret

00002210 <set_m1_speed>:
    2210:	0e 94 ea 10 	call	0x21d4	; 0x21d4 <_ZN15OrangutanMotors10setM1SpeedEi>
    2214:	08 95       	ret

00002216 <_ZN15OrangutanMotors10setM2SpeedEi>:
    2216:	cf 93       	push	r28
    2218:	df 93       	push	r29
    221a:	ec 01       	movw	r28, r24
    221c:	0e 94 e0 10 	call	0x21c0	; 0x21c0 <_ZN15OrangutanMotors4initEv>
    2220:	d7 fd       	sbrc	r29, 7
    2222:	02 c0       	rjmp	.+4      	; 0x2228 <_ZN15OrangutanMotors10setM2SpeedEi+0x12>
    2224:	20 e0       	ldi	r18, 0x00	; 0
    2226:	04 c0       	rjmp	.+8      	; 0x2230 <_ZN15OrangutanMotors10setM2SpeedEi+0x1a>
    2228:	d0 95       	com	r29
    222a:	c1 95       	neg	r28
    222c:	df 4f       	sbci	r29, 0xFF	; 255
    222e:	21 e0       	ldi	r18, 0x01	; 1
    2230:	ce 01       	movw	r24, r28
    2232:	cf 3f       	cpi	r28, 0xFF	; 255
    2234:	d1 05       	cpc	r29, r1
    2236:	19 f0       	breq	.+6      	; 0x223e <_ZN15OrangutanMotors10setM2SpeedEi+0x28>
    2238:	14 f0       	brlt	.+4      	; 0x223e <_ZN15OrangutanMotors10setM2SpeedEi+0x28>
    223a:	8f ef       	ldi	r24, 0xFF	; 255
    223c:	90 e0       	ldi	r25, 0x00	; 0
    223e:	22 23       	and	r18, r18
    2240:	29 f0       	breq	.+10     	; 0x224c <_ZN15OrangutanMotors10setM2SpeedEi+0x36>
    2242:	10 92 b4 00 	sts	0x00B4, r1
    2246:	80 93 b3 00 	sts	0x00B3, r24
    224a:	04 c0       	rjmp	.+8      	; 0x2254 <_ZN15OrangutanMotors10setM2SpeedEi+0x3e>
    224c:	80 93 b4 00 	sts	0x00B4, r24
    2250:	10 92 b3 00 	sts	0x00B3, r1
    2254:	df 91       	pop	r29
    2256:	cf 91       	pop	r28
    2258:	08 95       	ret

0000225a <set_m2_speed>:
    225a:	0e 94 0b 11 	call	0x2216	; 0x2216 <_ZN15OrangutanMotors10setM2SpeedEi>
    225e:	08 95       	ret

00002260 <_ZN15OrangutanMotors9setSpeedsEii>:
    2260:	0f 93       	push	r16
    2262:	1f 93       	push	r17
    2264:	8b 01       	movw	r16, r22
    2266:	0e 94 ea 10 	call	0x21d4	; 0x21d4 <_ZN15OrangutanMotors10setM1SpeedEi>
    226a:	c8 01       	movw	r24, r16
    226c:	0e 94 0b 11 	call	0x2216	; 0x2216 <_ZN15OrangutanMotors10setM2SpeedEi>
    2270:	1f 91       	pop	r17
    2272:	0f 91       	pop	r16
    2274:	08 95       	ret

00002276 <set_motors>:
    2276:	0e 94 30 11 	call	0x2260	; 0x2260 <_ZN15OrangutanMotors9setSpeedsEii>
    227a:	08 95       	ret

0000227c <_ZN20OrangutanPushbuttonsC2Ev>:
    227c:	08 95       	ret

0000227e <_ZN20OrangutanPushbuttonsC1Ev>:
    227e:	08 95       	ret

00002280 <_ZN20OrangutanPushbuttons4initEv>:
    2280:	80 91 3a 02 	lds	r24, 0x023A
    2284:	88 23       	and	r24, r24
    2286:	91 f4       	brne	.+36     	; 0x22ac <_ZN20OrangutanPushbuttons4initEv+0x2c>
    2288:	81 e0       	ldi	r24, 0x01	; 1
    228a:	80 93 3a 02 	sts	0x023A, r24
    228e:	84 b1       	in	r24, 0x04	; 4
    2290:	8d 7c       	andi	r24, 0xCD	; 205
    2292:	84 b9       	out	0x04, r24	; 4
    2294:	85 b1       	in	r24, 0x05	; 5
    2296:	82 63       	ori	r24, 0x32	; 50
    2298:	85 b9       	out	0x05, r24	; 5
    229a:	85 e0       	ldi	r24, 0x05	; 5
    229c:	90 e0       	ldi	r25, 0x00	; 0
    229e:	6f 93       	push	r22
    22a0:	64 e0       	ldi	r22, 0x04	; 4
    22a2:	6a 95       	dec	r22
    22a4:	f1 f7       	brne	.-4      	; 0x22a2 <_ZN20OrangutanPushbuttons4initEv+0x22>
    22a6:	6f 91       	pop	r22
    22a8:	01 97       	sbiw	r24, 0x01	; 1
    22aa:	c9 f7       	brne	.-14     	; 0x229e <_ZN20OrangutanPushbuttons4initEv+0x1e>
    22ac:	08 95       	ret

000022ae <_ZN20OrangutanPushbuttons5init2Ev>:
    22ae:	84 b1       	in	r24, 0x04	; 4
    22b0:	8d 7c       	andi	r24, 0xCD	; 205
    22b2:	84 b9       	out	0x04, r24	; 4
    22b4:	85 b1       	in	r24, 0x05	; 5
    22b6:	82 63       	ori	r24, 0x32	; 50
    22b8:	85 b9       	out	0x05, r24	; 5
    22ba:	85 e0       	ldi	r24, 0x05	; 5
    22bc:	90 e0       	ldi	r25, 0x00	; 0
    22be:	6f 93       	push	r22
    22c0:	64 e0       	ldi	r22, 0x04	; 4
    22c2:	6a 95       	dec	r22
    22c4:	f1 f7       	brne	.-4      	; 0x22c2 <_ZN20OrangutanPushbuttons5init2Ev+0x14>
    22c6:	6f 91       	pop	r22
    22c8:	01 97       	sbiw	r24, 0x01	; 1
    22ca:	c9 f7       	brne	.-14     	; 0x22be <_ZN20OrangutanPushbuttons5init2Ev+0x10>
    22cc:	08 95       	ret

000022ce <_ZN20OrangutanPushbuttons9isPressedEh>:
    22ce:	1f 93       	push	r17
    22d0:	18 2f       	mov	r17, r24
    22d2:	0e 94 40 11 	call	0x2280	; 0x2280 <_ZN20OrangutanPushbuttons4initEv>
    22d6:	83 b1       	in	r24, 0x03	; 3
    22d8:	80 95       	com	r24
    22da:	81 23       	and	r24, r17
    22dc:	1f 91       	pop	r17
    22de:	08 95       	ret

000022e0 <button_is_pressed>:
    22e0:	0e 94 67 11 	call	0x22ce	; 0x22ce <_ZN20OrangutanPushbuttons9isPressedEh>
    22e4:	08 95       	ret

000022e6 <_ZN20OrangutanPushbuttons25getSingleDebouncedReleaseEh>:
    22e6:	cf 92       	push	r12
    22e8:	df 92       	push	r13
    22ea:	ef 92       	push	r14
    22ec:	ff 92       	push	r15
    22ee:	0f 93       	push	r16
    22f0:	1f 93       	push	r17
    22f2:	c8 2e       	mov	r12, r24
    22f4:	d3 b0       	in	r13, 0x03	; 3
    22f6:	0e 94 d6 13 	call	0x27ac	; 0x27ac <_ZN13OrangutanTime2msEv>
    22fa:	7b 01       	movw	r14, r22
    22fc:	8c 01       	movw	r16, r24
    22fe:	0e 94 40 11 	call	0x2280	; 0x2280 <_ZN20OrangutanPushbuttons4initEv>
    2302:	80 91 40 02 	lds	r24, 0x0240
    2306:	81 30       	cpi	r24, 0x01	; 1
    2308:	11 f1       	breq	.+68     	; 0x234e <_ZN20OrangutanPushbuttons25getSingleDebouncedReleaseEh+0x68>
    230a:	81 30       	cpi	r24, 0x01	; 1
    230c:	38 f0       	brcs	.+14     	; 0x231c <_ZN20OrangutanPushbuttons25getSingleDebouncedReleaseEh+0x36>
    230e:	82 30       	cpi	r24, 0x02	; 2
    2310:	09 f4       	brne	.+2      	; 0x2314 <_ZN20OrangutanPushbuttons25getSingleDebouncedReleaseEh+0x2e>
    2312:	44 c0       	rjmp	.+136    	; 0x239c <_ZN20OrangutanPushbuttons25getSingleDebouncedReleaseEh+0xb6>
    2314:	83 30       	cpi	r24, 0x03	; 3
    2316:	09 f0       	breq	.+2      	; 0x231a <_ZN20OrangutanPushbuttons25getSingleDebouncedReleaseEh+0x34>
    2318:	8b c0       	rjmp	.+278    	; 0x2430 <_ZN20OrangutanPushbuttons25getSingleDebouncedReleaseEh+0x14a>
    231a:	66 c0       	rjmp	.+204    	; 0x23e8 <_ZN20OrangutanPushbuttons25getSingleDebouncedReleaseEh+0x102>
    231c:	2c 2d       	mov	r18, r12
    231e:	30 e0       	ldi	r19, 0x00	; 0
    2320:	8d 2d       	mov	r24, r13
    2322:	90 e0       	ldi	r25, 0x00	; 0
    2324:	80 95       	com	r24
    2326:	90 95       	com	r25
    2328:	28 23       	and	r18, r24
    232a:	39 23       	and	r19, r25
    232c:	23 2b       	or	r18, r19
    232e:	09 f4       	brne	.+2      	; 0x2332 <_ZN20OrangutanPushbuttons25getSingleDebouncedReleaseEh+0x4c>
    2330:	7f c0       	rjmp	.+254    	; 0x2430 <_ZN20OrangutanPushbuttons25getSingleDebouncedReleaseEh+0x14a>
    2332:	d0 94       	com	r13
    2334:	dc 20       	and	r13, r12
    2336:	d0 92 3b 02 	sts	0x023B, r13
    233a:	e0 92 3c 02 	sts	0x023C, r14
    233e:	f0 92 3d 02 	sts	0x023D, r15
    2342:	00 93 3e 02 	sts	0x023E, r16
    2346:	10 93 3f 02 	sts	0x023F, r17
    234a:	81 e0       	ldi	r24, 0x01	; 1
    234c:	6f c0       	rjmp	.+222    	; 0x242c <_ZN20OrangutanPushbuttons25getSingleDebouncedReleaseEh+0x146>
    234e:	80 91 3c 02 	lds	r24, 0x023C
    2352:	90 91 3d 02 	lds	r25, 0x023D
    2356:	a0 91 3e 02 	lds	r26, 0x023E
    235a:	b0 91 3f 02 	lds	r27, 0x023F
    235e:	e8 1a       	sub	r14, r24
    2360:	f9 0a       	sbc	r15, r25
    2362:	0a 0b       	sbc	r16, r26
    2364:	1b 0b       	sbc	r17, r27
    2366:	8f e0       	ldi	r24, 0x0F	; 15
    2368:	e8 16       	cp	r14, r24
    236a:	f1 04       	cpc	r15, r1
    236c:	01 05       	cpc	r16, r1
    236e:	11 05       	cpc	r17, r1
    2370:	08 f4       	brcc	.+2      	; 0x2374 <_ZN20OrangutanPushbuttons25getSingleDebouncedReleaseEh+0x8e>
    2372:	5e c0       	rjmp	.+188    	; 0x2430 <_ZN20OrangutanPushbuttons25getSingleDebouncedReleaseEh+0x14a>
    2374:	40 91 3b 02 	lds	r20, 0x023B
    2378:	8d 2d       	mov	r24, r13
    237a:	90 e0       	ldi	r25, 0x00	; 0
    237c:	80 95       	com	r24
    237e:	90 95       	com	r25
    2380:	24 2f       	mov	r18, r20
    2382:	30 e0       	ldi	r19, 0x00	; 0
    2384:	82 23       	and	r24, r18
    2386:	93 23       	and	r25, r19
    2388:	89 2b       	or	r24, r25
    238a:	59 f1       	breq	.+86     	; 0x23e2 <_ZN20OrangutanPushbuttons25getSingleDebouncedReleaseEh+0xfc>
    238c:	82 e0       	ldi	r24, 0x02	; 2
    238e:	80 93 40 02 	sts	0x0240, r24
    2392:	d0 94       	com	r13
    2394:	d4 22       	and	r13, r20
    2396:	d0 92 3b 02 	sts	0x023B, r13
    239a:	4a c0       	rjmp	.+148    	; 0x2430 <_ZN20OrangutanPushbuttons25getSingleDebouncedReleaseEh+0x14a>
    239c:	40 91 3b 02 	lds	r20, 0x023B
    23a0:	64 2f       	mov	r22, r20
    23a2:	70 e0       	ldi	r23, 0x00	; 0
    23a4:	2d 2d       	mov	r18, r13
    23a6:	30 e0       	ldi	r19, 0x00	; 0
    23a8:	cb 01       	movw	r24, r22
    23aa:	82 23       	and	r24, r18
    23ac:	93 23       	and	r25, r19
    23ae:	89 2b       	or	r24, r25
    23b0:	79 f0       	breq	.+30     	; 0x23d0 <_ZN20OrangutanPushbuttons25getSingleDebouncedReleaseEh+0xea>
    23b2:	83 e0       	ldi	r24, 0x03	; 3
    23b4:	80 93 40 02 	sts	0x0240, r24
    23b8:	4d 21       	and	r20, r13
    23ba:	40 93 3b 02 	sts	0x023B, r20
    23be:	e0 92 3c 02 	sts	0x023C, r14
    23c2:	f0 92 3d 02 	sts	0x023D, r15
    23c6:	00 93 3e 02 	sts	0x023E, r16
    23ca:	10 93 3f 02 	sts	0x023F, r17
    23ce:	30 c0       	rjmp	.+96     	; 0x2430 <_ZN20OrangutanPushbuttons25getSingleDebouncedReleaseEh+0x14a>
    23d0:	8c 2d       	mov	r24, r12
    23d2:	90 e0       	ldi	r25, 0x00	; 0
    23d4:	20 95       	com	r18
    23d6:	30 95       	com	r19
    23d8:	82 23       	and	r24, r18
    23da:	93 23       	and	r25, r19
    23dc:	68 17       	cp	r22, r24
    23de:	79 07       	cpc	r23, r25
    23e0:	39 f1       	breq	.+78     	; 0x2430 <_ZN20OrangutanPushbuttons25getSingleDebouncedReleaseEh+0x14a>
    23e2:	10 92 40 02 	sts	0x0240, r1
    23e6:	24 c0       	rjmp	.+72     	; 0x2430 <_ZN20OrangutanPushbuttons25getSingleDebouncedReleaseEh+0x14a>
    23e8:	80 91 3c 02 	lds	r24, 0x023C
    23ec:	90 91 3d 02 	lds	r25, 0x023D
    23f0:	a0 91 3e 02 	lds	r26, 0x023E
    23f4:	b0 91 3f 02 	lds	r27, 0x023F
    23f8:	e8 1a       	sub	r14, r24
    23fa:	f9 0a       	sbc	r15, r25
    23fc:	0a 0b       	sbc	r16, r26
    23fe:	1b 0b       	sbc	r17, r27
    2400:	8f e0       	ldi	r24, 0x0F	; 15
    2402:	e8 16       	cp	r14, r24
    2404:	f1 04       	cpc	r15, r1
    2406:	01 05       	cpc	r16, r1
    2408:	11 05       	cpc	r17, r1
    240a:	90 f0       	brcs	.+36     	; 0x2430 <_ZN20OrangutanPushbuttons25getSingleDebouncedReleaseEh+0x14a>
    240c:	40 91 3b 02 	lds	r20, 0x023B
    2410:	84 2f       	mov	r24, r20
    2412:	90 e0       	ldi	r25, 0x00	; 0
    2414:	2d 2d       	mov	r18, r13
    2416:	30 e0       	ldi	r19, 0x00	; 0
    2418:	82 23       	and	r24, r18
    241a:	93 23       	and	r25, r19
    241c:	89 2b       	or	r24, r25
    241e:	29 f0       	breq	.+10     	; 0x242a <_ZN20OrangutanPushbuttons25getSingleDebouncedReleaseEh+0x144>
    2420:	10 92 40 02 	sts	0x0240, r1
    2424:	84 2f       	mov	r24, r20
    2426:	8d 21       	and	r24, r13
    2428:	04 c0       	rjmp	.+8      	; 0x2432 <_ZN20OrangutanPushbuttons25getSingleDebouncedReleaseEh+0x14c>
    242a:	82 e0       	ldi	r24, 0x02	; 2
    242c:	80 93 40 02 	sts	0x0240, r24
    2430:	80 e0       	ldi	r24, 0x00	; 0
    2432:	1f 91       	pop	r17
    2434:	0f 91       	pop	r16
    2436:	ff 90       	pop	r15
    2438:	ef 90       	pop	r14
    243a:	df 90       	pop	r13
    243c:	cf 90       	pop	r12
    243e:	08 95       	ret

00002440 <get_single_debounced_button_release>:
    2440:	0e 94 73 11 	call	0x22e6	; 0x22e6 <_ZN20OrangutanPushbuttons25getSingleDebouncedReleaseEh>
    2444:	08 95       	ret

00002446 <_ZN20OrangutanPushbuttons23getSingleDebouncedPressEh>:
    2446:	cf 92       	push	r12
    2448:	df 92       	push	r13
    244a:	ef 92       	push	r14
    244c:	ff 92       	push	r15
    244e:	0f 93       	push	r16
    2450:	1f 93       	push	r17
    2452:	c8 2e       	mov	r12, r24
    2454:	d3 b0       	in	r13, 0x03	; 3
    2456:	d0 94       	com	r13
    2458:	0e 94 d6 13 	call	0x27ac	; 0x27ac <_ZN13OrangutanTime2msEv>
    245c:	7b 01       	movw	r14, r22
    245e:	8c 01       	movw	r16, r24
    2460:	0e 94 40 11 	call	0x2280	; 0x2280 <_ZN20OrangutanPushbuttons4initEv>
    2464:	80 91 46 02 	lds	r24, 0x0246
    2468:	81 30       	cpi	r24, 0x01	; 1
    246a:	11 f1       	breq	.+68     	; 0x24b0 <_ZN20OrangutanPushbuttons23getSingleDebouncedPressEh+0x6a>
    246c:	81 30       	cpi	r24, 0x01	; 1
    246e:	38 f0       	brcs	.+14     	; 0x247e <_ZN20OrangutanPushbuttons23getSingleDebouncedPressEh+0x38>
    2470:	82 30       	cpi	r24, 0x02	; 2
    2472:	09 f4       	brne	.+2      	; 0x2476 <_ZN20OrangutanPushbuttons23getSingleDebouncedPressEh+0x30>
    2474:	44 c0       	rjmp	.+136    	; 0x24fe <_ZN20OrangutanPushbuttons23getSingleDebouncedPressEh+0xb8>
    2476:	83 30       	cpi	r24, 0x03	; 3
    2478:	09 f0       	breq	.+2      	; 0x247c <_ZN20OrangutanPushbuttons23getSingleDebouncedPressEh+0x36>
    247a:	8b c0       	rjmp	.+278    	; 0x2592 <_ZN20OrangutanPushbuttons23getSingleDebouncedPressEh+0x14c>
    247c:	66 c0       	rjmp	.+204    	; 0x254a <_ZN20OrangutanPushbuttons23getSingleDebouncedPressEh+0x104>
    247e:	2c 2d       	mov	r18, r12
    2480:	30 e0       	ldi	r19, 0x00	; 0
    2482:	8d 2d       	mov	r24, r13
    2484:	90 e0       	ldi	r25, 0x00	; 0
    2486:	80 95       	com	r24
    2488:	90 95       	com	r25
    248a:	28 23       	and	r18, r24
    248c:	39 23       	and	r19, r25
    248e:	23 2b       	or	r18, r19
    2490:	09 f4       	brne	.+2      	; 0x2494 <_ZN20OrangutanPushbuttons23getSingleDebouncedPressEh+0x4e>
    2492:	7f c0       	rjmp	.+254    	; 0x2592 <_ZN20OrangutanPushbuttons23getSingleDebouncedPressEh+0x14c>
    2494:	d0 94       	com	r13
    2496:	dc 20       	and	r13, r12
    2498:	d0 92 41 02 	sts	0x0241, r13
    249c:	e0 92 42 02 	sts	0x0242, r14
    24a0:	f0 92 43 02 	sts	0x0243, r15
    24a4:	00 93 44 02 	sts	0x0244, r16
    24a8:	10 93 45 02 	sts	0x0245, r17
    24ac:	81 e0       	ldi	r24, 0x01	; 1
    24ae:	6f c0       	rjmp	.+222    	; 0x258e <_ZN20OrangutanPushbuttons23getSingleDebouncedPressEh+0x148>
    24b0:	80 91 42 02 	lds	r24, 0x0242
    24b4:	90 91 43 02 	lds	r25, 0x0243
    24b8:	a0 91 44 02 	lds	r26, 0x0244
    24bc:	b0 91 45 02 	lds	r27, 0x0245
    24c0:	e8 1a       	sub	r14, r24
    24c2:	f9 0a       	sbc	r15, r25
    24c4:	0a 0b       	sbc	r16, r26
    24c6:	1b 0b       	sbc	r17, r27
    24c8:	8f e0       	ldi	r24, 0x0F	; 15
    24ca:	e8 16       	cp	r14, r24
    24cc:	f1 04       	cpc	r15, r1
    24ce:	01 05       	cpc	r16, r1
    24d0:	11 05       	cpc	r17, r1
    24d2:	08 f4       	brcc	.+2      	; 0x24d6 <_ZN20OrangutanPushbuttons23getSingleDebouncedPressEh+0x90>
    24d4:	5e c0       	rjmp	.+188    	; 0x2592 <_ZN20OrangutanPushbuttons23getSingleDebouncedPressEh+0x14c>
    24d6:	40 91 41 02 	lds	r20, 0x0241
    24da:	8d 2d       	mov	r24, r13
    24dc:	90 e0       	ldi	r25, 0x00	; 0
    24de:	80 95       	com	r24
    24e0:	90 95       	com	r25
    24e2:	24 2f       	mov	r18, r20
    24e4:	30 e0       	ldi	r19, 0x00	; 0
    24e6:	82 23       	and	r24, r18
    24e8:	93 23       	and	r25, r19
    24ea:	89 2b       	or	r24, r25
    24ec:	59 f1       	breq	.+86     	; 0x2544 <_ZN20OrangutanPushbuttons23getSingleDebouncedPressEh+0xfe>
    24ee:	82 e0       	ldi	r24, 0x02	; 2
    24f0:	80 93 46 02 	sts	0x0246, r24
    24f4:	d0 94       	com	r13
    24f6:	d4 22       	and	r13, r20
    24f8:	d0 92 41 02 	sts	0x0241, r13
    24fc:	4a c0       	rjmp	.+148    	; 0x2592 <_ZN20OrangutanPushbuttons23getSingleDebouncedPressEh+0x14c>
    24fe:	60 91 41 02 	lds	r22, 0x0241
    2502:	2d 2d       	mov	r18, r13
    2504:	30 e0       	ldi	r19, 0x00	; 0
    2506:	46 2f       	mov	r20, r22
    2508:	50 e0       	ldi	r21, 0x00	; 0
    250a:	c9 01       	movw	r24, r18
    250c:	84 23       	and	r24, r20
    250e:	95 23       	and	r25, r21
    2510:	89 2b       	or	r24, r25
    2512:	79 f0       	breq	.+30     	; 0x2532 <_ZN20OrangutanPushbuttons23getSingleDebouncedPressEh+0xec>
    2514:	83 e0       	ldi	r24, 0x03	; 3
    2516:	80 93 46 02 	sts	0x0246, r24
    251a:	d6 22       	and	r13, r22
    251c:	d0 92 41 02 	sts	0x0241, r13
    2520:	e0 92 42 02 	sts	0x0242, r14
    2524:	f0 92 43 02 	sts	0x0243, r15
    2528:	00 93 44 02 	sts	0x0244, r16
    252c:	10 93 45 02 	sts	0x0245, r17
    2530:	30 c0       	rjmp	.+96     	; 0x2592 <_ZN20OrangutanPushbuttons23getSingleDebouncedPressEh+0x14c>
    2532:	8c 2d       	mov	r24, r12
    2534:	90 e0       	ldi	r25, 0x00	; 0
    2536:	20 95       	com	r18
    2538:	30 95       	com	r19
    253a:	82 23       	and	r24, r18
    253c:	93 23       	and	r25, r19
    253e:	48 17       	cp	r20, r24
    2540:	59 07       	cpc	r21, r25
    2542:	39 f1       	breq	.+78     	; 0x2592 <_ZN20OrangutanPushbuttons23getSingleDebouncedPressEh+0x14c>
    2544:	10 92 46 02 	sts	0x0246, r1
    2548:	24 c0       	rjmp	.+72     	; 0x2592 <_ZN20OrangutanPushbuttons23getSingleDebouncedPressEh+0x14c>
    254a:	80 91 42 02 	lds	r24, 0x0242
    254e:	90 91 43 02 	lds	r25, 0x0243
    2552:	a0 91 44 02 	lds	r26, 0x0244
    2556:	b0 91 45 02 	lds	r27, 0x0245
    255a:	e8 1a       	sub	r14, r24
    255c:	f9 0a       	sbc	r15, r25
    255e:	0a 0b       	sbc	r16, r26
    2560:	1b 0b       	sbc	r17, r27
    2562:	8f e0       	ldi	r24, 0x0F	; 15
    2564:	e8 16       	cp	r14, r24
    2566:	f1 04       	cpc	r15, r1
    2568:	01 05       	cpc	r16, r1
    256a:	11 05       	cpc	r17, r1
    256c:	90 f0       	brcs	.+36     	; 0x2592 <_ZN20OrangutanPushbuttons23getSingleDebouncedPressEh+0x14c>
    256e:	40 91 41 02 	lds	r20, 0x0241
    2572:	8d 2d       	mov	r24, r13
    2574:	90 e0       	ldi	r25, 0x00	; 0
    2576:	24 2f       	mov	r18, r20
    2578:	30 e0       	ldi	r19, 0x00	; 0
    257a:	82 23       	and	r24, r18
    257c:	93 23       	and	r25, r19
    257e:	89 2b       	or	r24, r25
    2580:	29 f0       	breq	.+10     	; 0x258c <_ZN20OrangutanPushbuttons23getSingleDebouncedPressEh+0x146>
    2582:	10 92 46 02 	sts	0x0246, r1
    2586:	8d 2d       	mov	r24, r13
    2588:	84 23       	and	r24, r20
    258a:	04 c0       	rjmp	.+8      	; 0x2594 <_ZN20OrangutanPushbuttons23getSingleDebouncedPressEh+0x14e>
    258c:	82 e0       	ldi	r24, 0x02	; 2
    258e:	80 93 46 02 	sts	0x0246, r24
    2592:	80 e0       	ldi	r24, 0x00	; 0
    2594:	1f 91       	pop	r17
    2596:	0f 91       	pop	r16
    2598:	ff 90       	pop	r15
    259a:	ef 90       	pop	r14
    259c:	df 90       	pop	r13
    259e:	cf 90       	pop	r12
    25a0:	08 95       	ret

000025a2 <get_single_debounced_button_press>:
    25a2:	0e 94 23 12 	call	0x2446	; 0x2446 <_ZN20OrangutanPushbuttons23getSingleDebouncedPressEh>
    25a6:	08 95       	ret

000025a8 <_ZN20OrangutanPushbuttons14waitForReleaseEh>:
    25a8:	1f 93       	push	r17
    25aa:	cf 93       	push	r28
    25ac:	df 93       	push	r29
    25ae:	18 2f       	mov	r17, r24
    25b0:	0e 94 40 11 	call	0x2280	; 0x2280 <_ZN20OrangutanPushbuttons4initEv>
    25b4:	c1 2f       	mov	r28, r17
    25b6:	d0 e0       	ldi	r29, 0x00	; 0
    25b8:	83 b1       	in	r24, 0x03	; 3
    25ba:	90 e0       	ldi	r25, 0x00	; 0
    25bc:	8c 23       	and	r24, r28
    25be:	9d 23       	and	r25, r29
    25c0:	89 2b       	or	r24, r25
    25c2:	d1 f3       	breq	.-12     	; 0x25b8 <_ZN20OrangutanPushbuttons14waitForReleaseEh+0x10>
    25c4:	8a e0       	ldi	r24, 0x0A	; 10
    25c6:	90 e0       	ldi	r25, 0x00	; 0
    25c8:	0e 94 a5 13 	call	0x274a	; 0x274a <_ZN13OrangutanTime17delayMillisecondsEj>
    25cc:	83 b1       	in	r24, 0x03	; 3
    25ce:	90 e0       	ldi	r25, 0x00	; 0
    25d0:	8c 23       	and	r24, r28
    25d2:	9d 23       	and	r25, r29
    25d4:	89 2b       	or	r24, r25
    25d6:	81 f3       	breq	.-32     	; 0x25b8 <_ZN20OrangutanPushbuttons14waitForReleaseEh+0x10>
    25d8:	83 b1       	in	r24, 0x03	; 3
    25da:	81 23       	and	r24, r17
    25dc:	df 91       	pop	r29
    25de:	cf 91       	pop	r28
    25e0:	1f 91       	pop	r17
    25e2:	08 95       	ret

000025e4 <wait_for_button_release>:
    25e4:	0e 94 d4 12 	call	0x25a8	; 0x25a8 <_ZN20OrangutanPushbuttons14waitForReleaseEh>
    25e8:	08 95       	ret

000025ea <_ZN20OrangutanPushbuttons12waitForPressEh>:
    25ea:	1f 93       	push	r17
    25ec:	cf 93       	push	r28
    25ee:	df 93       	push	r29
    25f0:	18 2f       	mov	r17, r24
    25f2:	0e 94 40 11 	call	0x2280	; 0x2280 <_ZN20OrangutanPushbuttons4initEv>
    25f6:	c1 2f       	mov	r28, r17
    25f8:	d0 e0       	ldi	r29, 0x00	; 0
    25fa:	83 b1       	in	r24, 0x03	; 3
    25fc:	90 e0       	ldi	r25, 0x00	; 0
    25fe:	80 95       	com	r24
    2600:	90 95       	com	r25
    2602:	8c 23       	and	r24, r28
    2604:	9d 23       	and	r25, r29
    2606:	89 2b       	or	r24, r25
    2608:	c1 f3       	breq	.-16     	; 0x25fa <_ZN20OrangutanPushbuttons12waitForPressEh+0x10>
    260a:	8a e0       	ldi	r24, 0x0A	; 10
    260c:	90 e0       	ldi	r25, 0x00	; 0
    260e:	0e 94 a5 13 	call	0x274a	; 0x274a <_ZN13OrangutanTime17delayMillisecondsEj>
    2612:	83 b1       	in	r24, 0x03	; 3
    2614:	90 e0       	ldi	r25, 0x00	; 0
    2616:	80 95       	com	r24
    2618:	90 95       	com	r25
    261a:	8c 23       	and	r24, r28
    261c:	9d 23       	and	r25, r29
    261e:	89 2b       	or	r24, r25
    2620:	61 f3       	breq	.-40     	; 0x25fa <_ZN20OrangutanPushbuttons12waitForPressEh+0x10>
    2622:	83 b1       	in	r24, 0x03	; 3
    2624:	80 95       	com	r24
    2626:	81 23       	and	r24, r17
    2628:	df 91       	pop	r29
    262a:	cf 91       	pop	r28
    262c:	1f 91       	pop	r17
    262e:	08 95       	ret

00002630 <_ZN20OrangutanPushbuttons13waitForButtonEh>:
    2630:	1f 93       	push	r17
    2632:	0e 94 f5 12 	call	0x25ea	; 0x25ea <_ZN20OrangutanPushbuttons12waitForPressEh>
    2636:	18 2f       	mov	r17, r24
    2638:	0e 94 d4 12 	call	0x25a8	; 0x25a8 <_ZN20OrangutanPushbuttons14waitForReleaseEh>
    263c:	81 2f       	mov	r24, r17
    263e:	1f 91       	pop	r17
    2640:	08 95       	ret

00002642 <wait_for_button>:
    2642:	0e 94 18 13 	call	0x2630	; 0x2630 <_ZN20OrangutanPushbuttons13waitForButtonEh>
    2646:	08 95       	ret

00002648 <wait_for_button_press>:
    2648:	0e 94 f5 12 	call	0x25ea	; 0x25ea <_ZN20OrangutanPushbuttons12waitForPressEh>
    264c:	08 95       	ret

0000264e <_ZN18OrangutanResourcesC2Ev>:
    264e:	08 95       	ret

00002650 <_ZN18OrangutanResourcesC1Ev>:
    2650:	08 95       	ret

00002652 <_ZN18OrangutanResources10getFreeRAMEv>:
    2652:	a2 e0       	ldi	r26, 0x02	; 2
    2654:	b0 e0       	ldi	r27, 0x00	; 0
    2656:	ef e2       	ldi	r30, 0x2F	; 47
    2658:	f3 e1       	ldi	r31, 0x13	; 19
    265a:	0c 94 58 1c 	jmp	0x38b0	; 0x38b0 <__prologue_saves__+0x20>
    265e:	20 91 9d 02 	lds	r18, 0x029D
    2662:	30 91 9e 02 	lds	r19, 0x029E
    2666:	ce 01       	movw	r24, r28
    2668:	01 96       	adiw	r24, 0x01	; 1
    266a:	21 15       	cp	r18, r1
    266c:	31 05       	cpc	r19, r1
    266e:	19 f4       	brne	.+6      	; 0x2676 <_ZN18OrangutanResources10getFreeRAMEv+0x24>
    2670:	87 5a       	subi	r24, 0xA7	; 167
    2672:	92 40       	sbci	r25, 0x02	; 2
    2674:	02 c0       	rjmp	.+4      	; 0x267a <_ZN18OrangutanResources10getFreeRAMEv+0x28>
    2676:	82 1b       	sub	r24, r18
    2678:	93 0b       	sbc	r25, r19
    267a:	9a 83       	std	Y+2, r25	; 0x02
    267c:	89 83       	std	Y+1, r24	; 0x01
    267e:	89 81       	ldd	r24, Y+1	; 0x01
    2680:	9a 81       	ldd	r25, Y+2	; 0x02
    2682:	22 96       	adiw	r28, 0x02	; 2
    2684:	e2 e0       	ldi	r30, 0x02	; 2
    2686:	0c 94 74 1c 	jmp	0x38e8	; 0x38e8 <__epilogue_restores__+0x20>

0000268a <get_free_ram>:
    268a:	0e 94 29 13 	call	0x2652	; 0x2652 <_ZN18OrangutanResources10getFreeRAMEv>
    268e:	08 95       	ret

00002690 <__vector_9>:
    2690:	2f 92       	push	r2
    2692:	8f 93       	push	r24
    2694:	9f 93       	push	r25
    2696:	2f b6       	in	r2, 0x3f	; 63
    2698:	80 91 4b 02 	lds	r24, 0x024B
    269c:	90 91 4c 02 	lds	r25, 0x024C
    26a0:	01 96       	adiw	r24, 0x01	; 1
    26a2:	80 93 4b 02 	sts	0x024B, r24
    26a6:	90 93 4c 02 	sts	0x024C, r25
    26aa:	90 e0       	ldi	r25, 0x00	; 0
    26ac:	80 91 4d 02 	lds	r24, 0x024D
    26b0:	89 1f       	adc	r24, r25
    26b2:	80 93 4d 02 	sts	0x024D, r24
    26b6:	90 91 53 02 	lds	r25, 0x0253
    26ba:	9c 5f       	subi	r25, 0xFC	; 252
    26bc:	90 93 53 02 	sts	0x0253, r25
    26c0:	80 91 52 02 	lds	r24, 0x0252
    26c4:	80 51       	subi	r24, 0x10	; 16
    26c6:	97 42       	sbci	r25, 0x27	; 39
    26c8:	c0 f0       	brcs	.+48     	; 0x26fa <end>
    26ca:	90 93 53 02 	sts	0x0253, r25
    26ce:	80 93 52 02 	sts	0x0252, r24
    26d2:	80 91 4e 02 	lds	r24, 0x024E
    26d6:	90 91 4f 02 	lds	r25, 0x024F
    26da:	01 96       	adiw	r24, 0x01	; 1
    26dc:	80 93 4e 02 	sts	0x024E, r24
    26e0:	90 93 4f 02 	sts	0x024F, r25
    26e4:	90 e0       	ldi	r25, 0x00	; 0
    26e6:	80 91 50 02 	lds	r24, 0x0250
    26ea:	89 1f       	adc	r24, r25
    26ec:	80 93 50 02 	sts	0x0250, r24
    26f0:	80 91 51 02 	lds	r24, 0x0251
    26f4:	89 1f       	adc	r24, r25
    26f6:	80 93 51 02 	sts	0x0251, r24

000026fa <end>:
    26fa:	2f be       	out	0x3f, r2	; 63
    26fc:	9f 91       	pop	r25
    26fe:	8f 91       	pop	r24
    2700:	2f 90       	pop	r2
    2702:	18 95       	reti

00002704 <delay_ms>:
    2704:	28 ee       	ldi	r18, 0xE8	; 232
    2706:	33 e0       	ldi	r19, 0x03	; 3
    2708:	09 c0       	rjmp	.+18     	; 0x271c <delay_ms+0x18>
    270a:	f9 01       	movw	r30, r18
    270c:	6f 93       	push	r22
    270e:	64 e0       	ldi	r22, 0x04	; 4
    2710:	6a 95       	dec	r22
    2712:	f1 f7       	brne	.-4      	; 0x2710 <delay_ms+0xc>
    2714:	6f 91       	pop	r22
    2716:	31 97       	sbiw	r30, 0x01	; 1
    2718:	c9 f7       	brne	.-14     	; 0x270c <delay_ms+0x8>
    271a:	01 97       	sbiw	r24, 0x01	; 1
    271c:	00 97       	sbiw	r24, 0x00	; 0
    271e:	a9 f7       	brne	.-22     	; 0x270a <delay_ms+0x6>
    2720:	08 95       	ret

00002722 <_ZN13OrangutanTime19ticksToMicrosecondsEm>:
    2722:	6f 5f       	subi	r22, 0xFF	; 255
    2724:	7f 4f       	sbci	r23, 0xFF	; 255
    2726:	8f 4f       	sbci	r24, 0xFF	; 255
    2728:	9f 4f       	sbci	r25, 0xFF	; 255
    272a:	66 0f       	add	r22, r22
    272c:	77 1f       	adc	r23, r23
    272e:	88 1f       	adc	r24, r24
    2730:	99 1f       	adc	r25, r25
    2732:	25 e0       	ldi	r18, 0x05	; 5
    2734:	30 e0       	ldi	r19, 0x00	; 0
    2736:	40 e0       	ldi	r20, 0x00	; 0
    2738:	50 e0       	ldi	r21, 0x00	; 0
    273a:	0e 94 0b 1c 	call	0x3816	; 0x3816 <__udivmodsi4>
    273e:	ca 01       	movw	r24, r20
    2740:	b9 01       	movw	r22, r18
    2742:	08 95       	ret

00002744 <ticks_to_microseconds>:
    2744:	0e 94 91 13 	call	0x2722	; 0x2722 <_ZN13OrangutanTime19ticksToMicrosecondsEm>
    2748:	08 95       	ret

0000274a <_ZN13OrangutanTime17delayMillisecondsEj>:
    274a:	28 ee       	ldi	r18, 0xE8	; 232
    274c:	33 e0       	ldi	r19, 0x03	; 3
    274e:	09 c0       	rjmp	.+18     	; 0x2762 <_ZN13OrangutanTime17delayMillisecondsEj+0x18>
    2750:	f9 01       	movw	r30, r18
    2752:	6f 93       	push	r22
    2754:	64 e0       	ldi	r22, 0x04	; 4
    2756:	6a 95       	dec	r22
    2758:	f1 f7       	brne	.-4      	; 0x2756 <_ZN13OrangutanTime17delayMillisecondsEj+0xc>
    275a:	6f 91       	pop	r22
    275c:	31 97       	sbiw	r30, 0x01	; 1
    275e:	c9 f7       	brne	.-14     	; 0x2752 <_ZN13OrangutanTime17delayMillisecondsEj+0x8>
    2760:	01 97       	sbiw	r24, 0x01	; 1
    2762:	00 97       	sbiw	r24, 0x00	; 0
    2764:	a9 f7       	brne	.-22     	; 0x2750 <_ZN13OrangutanTime17delayMillisecondsEj+0x6>
    2766:	08 95       	ret

00002768 <_ZN13OrangutanTime5init2Ev>:
    2768:	a0 e7       	ldi	r26, 0x70	; 112
    276a:	b0 e0       	ldi	r27, 0x00	; 0
    276c:	8c 91       	ld	r24, X
    276e:	8e 7f       	andi	r24, 0xFE	; 254
    2770:	8c 93       	st	X, r24
    2772:	e0 eb       	ldi	r30, 0xB0	; 176
    2774:	f0 e0       	ldi	r31, 0x00	; 0
    2776:	80 81       	ld	r24, Z
    2778:	83 60       	ori	r24, 0x03	; 3
    277a:	80 83       	st	Z, r24
    277c:	e1 eb       	ldi	r30, 0xB1	; 177
    277e:	f0 e0       	ldi	r31, 0x00	; 0
    2780:	80 81       	ld	r24, Z
    2782:	80 7f       	andi	r24, 0xF0	; 240
    2784:	80 83       	st	Z, r24
    2786:	80 81       	ld	r24, Z
    2788:	82 60       	ori	r24, 0x02	; 2
    278a:	80 83       	st	Z, r24
    278c:	b8 9a       	sbi	0x17, 0	; 23
    278e:	8c 91       	ld	r24, X
    2790:	81 60       	ori	r24, 0x01	; 1
    2792:	8c 93       	st	X, r24
    2794:	78 94       	sei
    2796:	08 95       	ret

00002798 <_ZN13OrangutanTime4initEv>:
    2798:	80 91 54 02 	lds	r24, 0x0254
    279c:	88 23       	and	r24, r24
    279e:	29 f4       	brne	.+10     	; 0x27aa <_ZN13OrangutanTime4initEv+0x12>
    27a0:	81 e0       	ldi	r24, 0x01	; 1
    27a2:	80 93 54 02 	sts	0x0254, r24
    27a6:	0e 94 b4 13 	call	0x2768	; 0x2768 <_ZN13OrangutanTime5init2Ev>
    27aa:	08 95       	ret

000027ac <_ZN13OrangutanTime2msEv>:
    27ac:	0e 94 cc 13 	call	0x2798	; 0x2798 <_ZN13OrangutanTime4initEv>
    27b0:	e0 e7       	ldi	r30, 0x70	; 112
    27b2:	f0 e0       	ldi	r31, 0x00	; 0
    27b4:	80 81       	ld	r24, Z
    27b6:	8e 7f       	andi	r24, 0xFE	; 254
    27b8:	80 83       	st	Z, r24
    27ba:	20 91 4e 02 	lds	r18, 0x024E
    27be:	30 91 4f 02 	lds	r19, 0x024F
    27c2:	40 91 50 02 	lds	r20, 0x0250
    27c6:	50 91 51 02 	lds	r21, 0x0251
    27ca:	80 81       	ld	r24, Z
    27cc:	81 60       	ori	r24, 0x01	; 1
    27ce:	80 83       	st	Z, r24
    27d0:	b9 01       	movw	r22, r18
    27d2:	ca 01       	movw	r24, r20
    27d4:	08 95       	ret

000027d6 <get_ms>:
    27d6:	0e 94 d6 13 	call	0x27ac	; 0x27ac <_ZN13OrangutanTime2msEv>
    27da:	08 95       	ret

000027dc <_ZN13OrangutanTime5ticksEv>:
    27dc:	0e 94 cc 13 	call	0x2798	; 0x2798 <_ZN13OrangutanTime4initEv>
    27e0:	80 91 70 00 	lds	r24, 0x0070
    27e4:	8e 7f       	andi	r24, 0xFE	; 254
    27e6:	80 93 70 00 	sts	0x0070, r24
    27ea:	60 91 b2 00 	lds	r22, 0x00B2
    27ee:	80 91 4a 02 	lds	r24, 0x024A
    27f2:	90 91 4b 02 	lds	r25, 0x024B
    27f6:	a0 91 4c 02 	lds	r26, 0x024C
    27fa:	b0 91 4d 02 	lds	r27, 0x024D
    27fe:	b8 99       	sbic	0x17, 0	; 23
    2800:	05 c0       	rjmp	.+10     	; 0x280c <_ZN13OrangutanTime5ticksEv+0x30>
    2802:	26 2f       	mov	r18, r22
    2804:	30 e0       	ldi	r19, 0x00	; 0
    2806:	40 e0       	ldi	r20, 0x00	; 0
    2808:	50 e0       	ldi	r21, 0x00	; 0
    280a:	11 c0       	rjmp	.+34     	; 0x282e <_ZN13OrangutanTime5ticksEv+0x52>
    280c:	80 91 b2 00 	lds	r24, 0x00B2
    2810:	20 91 4a 02 	lds	r18, 0x024A
    2814:	30 91 4b 02 	lds	r19, 0x024B
    2818:	40 91 4c 02 	lds	r20, 0x024C
    281c:	50 91 4d 02 	lds	r21, 0x024D
    2820:	20 50       	subi	r18, 0x00	; 0
    2822:	3f 4f       	sbci	r19, 0xFF	; 255
    2824:	4f 4f       	sbci	r20, 0xFF	; 255
    2826:	5f 4f       	sbci	r21, 0xFF	; 255
    2828:	90 e0       	ldi	r25, 0x00	; 0
    282a:	a0 e0       	ldi	r26, 0x00	; 0
    282c:	b0 e0       	ldi	r27, 0x00	; 0
    282e:	28 2b       	or	r18, r24
    2830:	39 2b       	or	r19, r25
    2832:	4a 2b       	or	r20, r26
    2834:	5b 2b       	or	r21, r27
    2836:	80 91 70 00 	lds	r24, 0x0070
    283a:	81 60       	ori	r24, 0x01	; 1
    283c:	80 93 70 00 	sts	0x0070, r24
    2840:	b9 01       	movw	r22, r18
    2842:	ca 01       	movw	r24, r20
    2844:	08 95       	ret

00002846 <get_ticks>:
    2846:	0e 94 ee 13 	call	0x27dc	; 0x27dc <_ZN13OrangutanTime5ticksEv>
    284a:	08 95       	ret

0000284c <_ZN13OrangutanTime5resetEv>:
    284c:	0e 94 cc 13 	call	0x2798	; 0x2798 <_ZN13OrangutanTime4initEv>
    2850:	e0 e7       	ldi	r30, 0x70	; 112
    2852:	f0 e0       	ldi	r31, 0x00	; 0
    2854:	80 81       	ld	r24, Z
    2856:	8e 7f       	andi	r24, 0xFE	; 254
    2858:	80 83       	st	Z, r24
    285a:	10 92 4e 02 	sts	0x024E, r1
    285e:	10 92 4f 02 	sts	0x024F, r1
    2862:	10 92 50 02 	sts	0x0250, r1
    2866:	10 92 51 02 	sts	0x0251, r1
    286a:	10 92 53 02 	sts	0x0253, r1
    286e:	10 92 52 02 	sts	0x0252, r1
    2872:	80 81       	ld	r24, Z
    2874:	81 60       	ori	r24, 0x01	; 1
    2876:	80 83       	st	Z, r24
    2878:	08 95       	ret

0000287a <time_reset>:
    287a:	0e 94 26 14 	call	0x284c	; 0x284c <_ZN13OrangutanTime5resetEv>
    287e:	08 95       	ret

00002880 <get_line_sensors_calibrated_minimum_on>:
    2880:	80 91 55 02 	lds	r24, 0x0255
    2884:	90 91 56 02 	lds	r25, 0x0256
    2888:	08 95       	ret

0000288a <get_line_sensors_calibrated_maximum_on>:
    288a:	80 91 57 02 	lds	r24, 0x0257
    288e:	90 91 58 02 	lds	r25, 0x0258
    2892:	08 95       	ret

00002894 <get_line_sensors_calibrated_minimum_off>:
    2894:	80 91 59 02 	lds	r24, 0x0259
    2898:	90 91 5a 02 	lds	r25, 0x025A
    289c:	08 95       	ret

0000289e <get_line_sensors_calibrated_maximum_off>:
    289e:	80 91 5b 02 	lds	r24, 0x025B
    28a2:	90 91 5c 02 	lds	r25, 0x025C
    28a6:	08 95       	ret

000028a8 <_ZN9Pololu3pi33getLineSensorsCalibratedMinimumOnEv>:
    28a8:	80 91 55 02 	lds	r24, 0x0255
    28ac:	90 91 56 02 	lds	r25, 0x0256
    28b0:	08 95       	ret

000028b2 <_ZN9Pololu3pi33getLineSensorsCalibratedMaximumOnEv>:
    28b2:	80 91 57 02 	lds	r24, 0x0257
    28b6:	90 91 58 02 	lds	r25, 0x0258
    28ba:	08 95       	ret

000028bc <_ZN9Pololu3pi34getLineSensorsCalibratedMinimumOffEv>:
    28bc:	80 91 59 02 	lds	r24, 0x0259
    28c0:	90 91 5a 02 	lds	r25, 0x025A
    28c4:	08 95       	ret

000028c6 <_ZN9Pololu3pi34getLineSensorsCalibratedMaximumOffEv>:
    28c6:	80 91 5b 02 	lds	r24, 0x025B
    28ca:	90 91 5c 02 	lds	r25, 0x025C
    28ce:	08 95       	ret

000028d0 <_GLOBAL__I_pololu_3pi_init>:
    28d0:	08 95       	ret

000028d2 <_GLOBAL__D_pololu_3pi_init>:
    28d2:	85 e5       	ldi	r24, 0x55	; 85
    28d4:	92 e0       	ldi	r25, 0x02	; 2
    28d6:	0e 94 29 1a 	call	0x3452	; 0x3452 <_ZN16PololuQTRSensorsD2Ev>
    28da:	08 95       	ret

000028dc <_ZN9Pololu3pi8readLineEPjhh>:
    28dc:	85 e5       	ldi	r24, 0x55	; 85
    28de:	92 e0       	ldi	r25, 0x02	; 2
    28e0:	0e 94 50 19 	call	0x32a0	; 0x32a0 <_ZN16PololuQTRSensors8readLineEPjhh>
    28e4:	08 95       	ret

000028e6 <read_line_white>:
    28e6:	9c 01       	movw	r18, r24
    28e8:	46 2f       	mov	r20, r22
    28ea:	85 e5       	ldi	r24, 0x55	; 85
    28ec:	92 e0       	ldi	r25, 0x02	; 2
    28ee:	b9 01       	movw	r22, r18
    28f0:	21 e0       	ldi	r18, 0x01	; 1
    28f2:	0e 94 50 19 	call	0x32a0	; 0x32a0 <_ZN16PololuQTRSensors8readLineEPjhh>
    28f6:	08 95       	ret

000028f8 <read_line>:
    28f8:	9c 01       	movw	r18, r24
    28fa:	46 2f       	mov	r20, r22
    28fc:	85 e5       	ldi	r24, 0x55	; 85
    28fe:	92 e0       	ldi	r25, 0x02	; 2
    2900:	b9 01       	movw	r22, r18
    2902:	20 e0       	ldi	r18, 0x00	; 0
    2904:	0e 94 50 19 	call	0x32a0	; 0x32a0 <_ZN16PololuQTRSensors8readLineEPjhh>
    2908:	08 95       	ret

0000290a <_ZN9Pololu3pi25readLineSensorsCalibratedEPjh>:
    290a:	85 e5       	ldi	r24, 0x55	; 85
    290c:	92 e0       	ldi	r25, 0x02	; 2
    290e:	0e 94 93 18 	call	0x3126	; 0x3126 <_ZN16PololuQTRSensors14readCalibratedEPjh>
    2912:	08 95       	ret

00002914 <read_line_sensors_calibrated>:
    2914:	9c 01       	movw	r18, r24
    2916:	46 2f       	mov	r20, r22
    2918:	85 e5       	ldi	r24, 0x55	; 85
    291a:	92 e0       	ldi	r25, 0x02	; 2
    291c:	b9 01       	movw	r22, r18
    291e:	0e 94 93 18 	call	0x3126	; 0x3126 <_ZN16PololuQTRSensors14readCalibratedEPjh>
    2922:	08 95       	ret

00002924 <_ZN9Pololu3pi20calibrateLineSensorsEh>:
    2924:	85 e5       	ldi	r24, 0x55	; 85
    2926:	92 e0       	ldi	r25, 0x02	; 2
    2928:	0e 94 49 1b 	call	0x3692	; 0x3692 <_ZN16PololuQTRSensors9calibrateEh>
    292c:	08 95       	ret

0000292e <calibrate_line_sensors>:
    292e:	68 2f       	mov	r22, r24
    2930:	85 e5       	ldi	r24, 0x55	; 85
    2932:	92 e0       	ldi	r25, 0x02	; 2
    2934:	0e 94 49 1b 	call	0x3692	; 0x3692 <_ZN16PololuQTRSensors9calibrateEh>
    2938:	08 95       	ret

0000293a <_ZN9Pololu3pi11emittersOffEv>:
    293a:	85 e5       	ldi	r24, 0x55	; 85
    293c:	92 e0       	ldi	r25, 0x02	; 2
    293e:	0e 94 b7 15 	call	0x2b6e	; 0x2b6e <_ZN16PololuQTRSensors11emittersOffEv>
    2942:	08 95       	ret

00002944 <emitters_off>:
    2944:	85 e5       	ldi	r24, 0x55	; 85
    2946:	92 e0       	ldi	r25, 0x02	; 2
    2948:	0e 94 b7 15 	call	0x2b6e	; 0x2b6e <_ZN16PololuQTRSensors11emittersOffEv>
    294c:	08 95       	ret

0000294e <_ZN9Pololu3pi10emittersOnEv>:
    294e:	85 e5       	ldi	r24, 0x55	; 85
    2950:	92 e0       	ldi	r25, 0x02	; 2
    2952:	0e 94 d6 15 	call	0x2bac	; 0x2bac <_ZN16PololuQTRSensors10emittersOnEv>
    2956:	08 95       	ret

00002958 <emitters_on>:
    2958:	85 e5       	ldi	r24, 0x55	; 85
    295a:	92 e0       	ldi	r25, 0x02	; 2
    295c:	0e 94 d6 15 	call	0x2bac	; 0x2bac <_ZN16PololuQTRSensors10emittersOnEv>
    2960:	08 95       	ret

00002962 <_ZN9Pololu3pi15readLineSensorsEPjh>:
    2962:	9c 01       	movw	r18, r24
    2964:	46 2f       	mov	r20, r22
    2966:	85 e5       	ldi	r24, 0x55	; 85
    2968:	92 e0       	ldi	r25, 0x02	; 2
    296a:	b9 01       	movw	r22, r18
    296c:	0e 94 23 18 	call	0x3046	; 0x3046 <_ZN16PololuQTRSensors4readEPjh>
    2970:	08 95       	ret

00002972 <read_line_sensors>:
    2972:	9c 01       	movw	r18, r24
    2974:	46 2f       	mov	r20, r22
    2976:	85 e5       	ldi	r24, 0x55	; 85
    2978:	92 e0       	ldi	r25, 0x02	; 2
    297a:	b9 01       	movw	r22, r18
    297c:	0e 94 23 18 	call	0x3046	; 0x3046 <_ZN16PololuQTRSensors4readEPjh>
    2980:	08 95       	ret

00002982 <_ZN9Pololu3pi4initEjh>:
    2982:	0f 93       	push	r16
    2984:	df 93       	push	r29
    2986:	cf 93       	push	r28
    2988:	00 d0       	rcall	.+0      	; 0x298a <_ZN9Pololu3pi4initEjh+0x8>
    298a:	00 d0       	rcall	.+0      	; 0x298c <_ZN9Pololu3pi4initEjh+0xa>
    298c:	0f 92       	push	r0
    298e:	cd b7       	in	r28, 0x3d	; 61
    2990:	de b7       	in	r29, 0x3e	; 62
    2992:	9c 01       	movw	r18, r24
    2994:	96 2f       	mov	r25, r22
    2996:	de 01       	movw	r26, r28
    2998:	11 96       	adiw	r26, 0x01	; 1
    299a:	e6 e1       	ldi	r30, 0x16	; 22
    299c:	f1 e0       	ldi	r31, 0x01	; 1
    299e:	85 e0       	ldi	r24, 0x05	; 5
    29a0:	01 90       	ld	r0, Z+
    29a2:	0d 92       	st	X+, r0
    29a4:	81 50       	subi	r24, 0x01	; 1
    29a6:	e1 f7       	brne	.-8      	; 0x29a0 <_ZN9Pololu3pi4initEjh+0x1e>
    29a8:	be 01       	movw	r22, r28
    29aa:	6f 5f       	subi	r22, 0xFF	; 255
    29ac:	7f 4f       	sbci	r23, 0xFF	; 255
    29ae:	99 23       	and	r25, r25
    29b0:	29 f0       	breq	.+10     	; 0x29bc <_ZN9Pololu3pi4initEjh+0x3a>
    29b2:	85 e5       	ldi	r24, 0x55	; 85
    29b4:	92 e0       	ldi	r25, 0x02	; 2
    29b6:	45 e0       	ldi	r20, 0x05	; 5
    29b8:	0f ef       	ldi	r16, 0xFF	; 255
    29ba:	04 c0       	rjmp	.+8      	; 0x29c4 <_ZN9Pololu3pi4initEjh+0x42>
    29bc:	85 e5       	ldi	r24, 0x55	; 85
    29be:	92 e0       	ldi	r25, 0x02	; 2
    29c0:	45 e0       	ldi	r20, 0x05	; 5
    29c2:	03 e1       	ldi	r16, 0x13	; 19
    29c4:	0e 94 3e 16 	call	0x2c7c	; 0x2c7c <_ZN18PololuQTRSensorsRC4initEPhhjh>
    29c8:	85 e5       	ldi	r24, 0x55	; 85
    29ca:	92 e0       	ldi	r25, 0x02	; 2
    29cc:	0e 94 b7 15 	call	0x2b6e	; 0x2b6e <_ZN16PololuQTRSensors11emittersOffEv>
    29d0:	0e 94 26 14 	call	0x284c	; 0x284c <_ZN13OrangutanTime5resetEv>
    29d4:	0f 90       	pop	r0
    29d6:	0f 90       	pop	r0
    29d8:	0f 90       	pop	r0
    29da:	0f 90       	pop	r0
    29dc:	0f 90       	pop	r0
    29de:	cf 91       	pop	r28
    29e0:	df 91       	pop	r29
    29e2:	0f 91       	pop	r16
    29e4:	08 95       	ret

000029e6 <pololu_3pi_init_disable_emitter_pin>:
    29e6:	61 e0       	ldi	r22, 0x01	; 1
    29e8:	0e 94 c1 14 	call	0x2982	; 0x2982 <_ZN9Pololu3pi4initEjh>
    29ec:	08 95       	ret

000029ee <pololu_3pi_init>:
    29ee:	60 e0       	ldi	r22, 0x00	; 0
    29f0:	0e 94 c1 14 	call	0x2982	; 0x2982 <_ZN9Pololu3pi4initEjh>
    29f4:	08 95       	ret

000029f6 <line_sensors_reset_calibration>:
    29f6:	85 e5       	ldi	r24, 0x55	; 85
    29f8:	92 e0       	ldi	r25, 0x02	; 2
    29fa:	0e 94 ed 15 	call	0x2bda	; 0x2bda <_ZN16PololuQTRSensors16resetCalibrationEv>
    29fe:	08 95       	ret

00002a00 <_ZN16OrangutanDigital14getIORegistersEP8IOStructh>:
    2a00:	fc 01       	movw	r30, r24
    2a02:	11 82       	std	Z+1, r1	; 0x01
    2a04:	10 82       	st	Z, r1
    2a06:	13 82       	std	Z+3, r1	; 0x03
    2a08:	12 82       	std	Z+2, r1	; 0x02
    2a0a:	15 82       	std	Z+5, r1	; 0x05
    2a0c:	14 82       	std	Z+4, r1	; 0x04
    2a0e:	16 82       	std	Z+6, r1	; 0x06
    2a10:	68 30       	cpi	r22, 0x08	; 8
    2a12:	a0 f4       	brcc	.+40     	; 0x2a3c <_ZN16OrangutanDigital14getIORegistersEP8IOStructh+0x3c>
    2a14:	89 e2       	ldi	r24, 0x29	; 41
    2a16:	90 e0       	ldi	r25, 0x00	; 0
    2a18:	91 83       	std	Z+1, r25	; 0x01
    2a1a:	80 83       	st	Z, r24
    2a1c:	8b e2       	ldi	r24, 0x2B	; 43
    2a1e:	90 e0       	ldi	r25, 0x00	; 0
    2a20:	93 83       	std	Z+3, r25	; 0x03
    2a22:	82 83       	std	Z+2, r24	; 0x02
    2a24:	8a e2       	ldi	r24, 0x2A	; 42
    2a26:	90 e0       	ldi	r25, 0x00	; 0
    2a28:	95 83       	std	Z+5, r25	; 0x05
    2a2a:	84 83       	std	Z+4, r24	; 0x04
    2a2c:	81 e0       	ldi	r24, 0x01	; 1
    2a2e:	90 e0       	ldi	r25, 0x00	; 0
    2a30:	02 c0       	rjmp	.+4      	; 0x2a36 <_ZN16OrangutanDigital14getIORegistersEP8IOStructh+0x36>
    2a32:	88 0f       	add	r24, r24
    2a34:	99 1f       	adc	r25, r25
    2a36:	6a 95       	dec	r22
    2a38:	e2 f7       	brpl	.-8      	; 0x2a32 <_ZN16OrangutanDigital14getIORegistersEP8IOStructh+0x32>
    2a3a:	19 c0       	rjmp	.+50     	; 0x2a6e <_ZN16OrangutanDigital14getIORegistersEP8IOStructh+0x6e>
    2a3c:	6e 30       	cpi	r22, 0x0E	; 14
    2a3e:	c8 f4       	brcc	.+50     	; 0x2a72 <_ZN16OrangutanDigital14getIORegistersEP8IOStructh+0x72>
    2a40:	83 e2       	ldi	r24, 0x23	; 35
    2a42:	90 e0       	ldi	r25, 0x00	; 0
    2a44:	91 83       	std	Z+1, r25	; 0x01
    2a46:	80 83       	st	Z, r24
    2a48:	85 e2       	ldi	r24, 0x25	; 37
    2a4a:	90 e0       	ldi	r25, 0x00	; 0
    2a4c:	93 83       	std	Z+3, r25	; 0x03
    2a4e:	82 83       	std	Z+2, r24	; 0x02
    2a50:	84 e2       	ldi	r24, 0x24	; 36
    2a52:	90 e0       	ldi	r25, 0x00	; 0
    2a54:	95 83       	std	Z+5, r25	; 0x05
    2a56:	84 83       	std	Z+4, r24	; 0x04
    2a58:	26 2f       	mov	r18, r22
    2a5a:	30 e0       	ldi	r19, 0x00	; 0
    2a5c:	28 50       	subi	r18, 0x08	; 8
    2a5e:	30 40       	sbci	r19, 0x00	; 0
    2a60:	81 e0       	ldi	r24, 0x01	; 1
    2a62:	90 e0       	ldi	r25, 0x00	; 0
    2a64:	02 c0       	rjmp	.+4      	; 0x2a6a <_ZN16OrangutanDigital14getIORegistersEP8IOStructh+0x6a>
    2a66:	88 0f       	add	r24, r24
    2a68:	99 1f       	adc	r25, r25
    2a6a:	2a 95       	dec	r18
    2a6c:	e2 f7       	brpl	.-8      	; 0x2a66 <_ZN16OrangutanDigital14getIORegistersEP8IOStructh+0x66>
    2a6e:	86 83       	std	Z+6, r24	; 0x06
    2a70:	08 95       	ret
    2a72:	65 31       	cpi	r22, 0x15	; 21
    2a74:	c0 f4       	brcc	.+48     	; 0x2aa6 <_ZN16OrangutanDigital14getIORegistersEP8IOStructh+0xa6>
    2a76:	86 e2       	ldi	r24, 0x26	; 38
    2a78:	90 e0       	ldi	r25, 0x00	; 0
    2a7a:	91 83       	std	Z+1, r25	; 0x01
    2a7c:	80 83       	st	Z, r24
    2a7e:	88 e2       	ldi	r24, 0x28	; 40
    2a80:	90 e0       	ldi	r25, 0x00	; 0
    2a82:	93 83       	std	Z+3, r25	; 0x03
    2a84:	82 83       	std	Z+2, r24	; 0x02
    2a86:	87 e2       	ldi	r24, 0x27	; 39
    2a88:	90 e0       	ldi	r25, 0x00	; 0
    2a8a:	95 83       	std	Z+5, r25	; 0x05
    2a8c:	84 83       	std	Z+4, r24	; 0x04
    2a8e:	26 2f       	mov	r18, r22
    2a90:	30 e0       	ldi	r19, 0x00	; 0
    2a92:	2e 50       	subi	r18, 0x0E	; 14
    2a94:	30 40       	sbci	r19, 0x00	; 0
    2a96:	81 e0       	ldi	r24, 0x01	; 1
    2a98:	90 e0       	ldi	r25, 0x00	; 0
    2a9a:	02 c0       	rjmp	.+4      	; 0x2aa0 <_ZN16OrangutanDigital14getIORegistersEP8IOStructh+0xa0>
    2a9c:	88 0f       	add	r24, r24
    2a9e:	99 1f       	adc	r25, r25
    2aa0:	2a 95       	dec	r18
    2aa2:	e2 f7       	brpl	.-8      	; 0x2a9c <_ZN16OrangutanDigital14getIORegistersEP8IOStructh+0x9c>
    2aa4:	86 83       	std	Z+6, r24	; 0x06
    2aa6:	08 95       	ret

00002aa8 <qtr_emitters_on>:
    2aa8:	a0 91 9b 02 	lds	r26, 0x029B
    2aac:	b0 91 9c 02 	lds	r27, 0x029C
    2ab0:	1c 96       	adiw	r26, 0x0c	; 12
    2ab2:	ed 91       	ld	r30, X+
    2ab4:	fc 91       	ld	r31, X
    2ab6:	1d 97       	sbiw	r26, 0x0d	; 13
    2ab8:	30 97       	sbiw	r30, 0x00	; 0
    2aba:	79 f0       	breq	.+30     	; 0x2ada <qtr_emitters_on+0x32>
    2abc:	80 81       	ld	r24, Z
    2abe:	19 96       	adiw	r26, 0x09	; 9
    2ac0:	9c 91       	ld	r25, X
    2ac2:	19 97       	sbiw	r26, 0x09	; 9
    2ac4:	89 2b       	or	r24, r25
    2ac6:	80 83       	st	Z, r24
    2ac8:	1a 96       	adiw	r26, 0x0a	; 10
    2aca:	ed 91       	ld	r30, X+
    2acc:	fc 91       	ld	r31, X
    2ace:	1b 97       	sbiw	r26, 0x0b	; 11
    2ad0:	80 81       	ld	r24, Z
    2ad2:	19 96       	adiw	r26, 0x09	; 9
    2ad4:	9c 91       	ld	r25, X
    2ad6:	89 2b       	or	r24, r25
    2ad8:	80 83       	st	Z, r24
    2ada:	08 95       	ret

00002adc <qtr_calibrated_minimum_on>:
    2adc:	e0 91 9b 02 	lds	r30, 0x029B
    2ae0:	f0 91 9c 02 	lds	r31, 0x029C
    2ae4:	80 81       	ld	r24, Z
    2ae6:	91 81       	ldd	r25, Z+1	; 0x01
    2ae8:	08 95       	ret

00002aea <qtr_calibrated_maximum_on>:
    2aea:	e0 91 9b 02 	lds	r30, 0x029B
    2aee:	f0 91 9c 02 	lds	r31, 0x029C
    2af2:	82 81       	ldd	r24, Z+2	; 0x02
    2af4:	93 81       	ldd	r25, Z+3	; 0x03
    2af6:	08 95       	ret

00002af8 <qtr_calibrated_minimum_off>:
    2af8:	e0 91 9b 02 	lds	r30, 0x029B
    2afc:	f0 91 9c 02 	lds	r31, 0x029C
    2b00:	84 81       	ldd	r24, Z+4	; 0x04
    2b02:	95 81       	ldd	r25, Z+5	; 0x05
    2b04:	08 95       	ret

00002b06 <qtr_calibrated_maximum_off>:
    2b06:	e0 91 9b 02 	lds	r30, 0x029B
    2b0a:	f0 91 9c 02 	lds	r31, 0x029C
    2b0e:	86 81       	ldd	r24, Z+6	; 0x06
    2b10:	97 81       	ldd	r25, Z+7	; 0x07
    2b12:	08 95       	ret

00002b14 <_ZN16PololuQTRSensors4initEhhh>:
    2b14:	a7 e0       	ldi	r26, 0x07	; 7
    2b16:	b0 e0       	ldi	r27, 0x00	; 0
    2b18:	e0 e9       	ldi	r30, 0x90	; 144
    2b1a:	f5 e1       	ldi	r31, 0x15	; 21
    2b1c:	0c 94 56 1c 	jmp	0x38ac	; 0x38ac <__prologue_saves__+0x1c>
    2b20:	8c 01       	movw	r16, r24
    2b22:	fc 01       	movw	r30, r24
    2b24:	11 82       	std	Z+1, r1	; 0x01
    2b26:	10 82       	st	Z, r1
    2b28:	13 82       	std	Z+3, r1	; 0x03
    2b2a:	12 82       	std	Z+2, r1	; 0x02
    2b2c:	15 82       	std	Z+5, r1	; 0x05
    2b2e:	14 82       	std	Z+4, r1	; 0x04
    2b30:	17 82       	std	Z+7, r1	; 0x07
    2b32:	16 82       	std	Z+6, r1	; 0x06
    2b34:	61 31       	cpi	r22, 0x11	; 17
    2b36:	18 f0       	brcs	.+6      	; 0x2b3e <_ZN16PololuQTRSensors4initEhhh+0x2a>
    2b38:	80 e1       	ldi	r24, 0x10	; 16
    2b3a:	80 87       	std	Z+8, r24	; 0x08
    2b3c:	02 c0       	rjmp	.+4      	; 0x2b42 <_ZN16PololuQTRSensors4initEhhh+0x2e>
    2b3e:	fc 01       	movw	r30, r24
    2b40:	60 87       	std	Z+8, r22	; 0x08
    2b42:	f8 01       	movw	r30, r16
    2b44:	20 8b       	std	Z+16, r18	; 0x10
    2b46:	ce 01       	movw	r24, r28
    2b48:	01 96       	adiw	r24, 0x01	; 1
    2b4a:	64 2f       	mov	r22, r20
    2b4c:	0e 94 00 15 	call	0x2a00	; 0x2a00 <_ZN16OrangutanDigital14getIORegistersEP8IOStructh>
    2b50:	8f 81       	ldd	r24, Y+7	; 0x07
    2b52:	f8 01       	movw	r30, r16
    2b54:	81 87       	std	Z+9, r24	; 0x09
    2b56:	8b 81       	ldd	r24, Y+3	; 0x03
    2b58:	9c 81       	ldd	r25, Y+4	; 0x04
    2b5a:	93 87       	std	Z+11, r25	; 0x0b
    2b5c:	82 87       	std	Z+10, r24	; 0x0a
    2b5e:	8d 81       	ldd	r24, Y+5	; 0x05
    2b60:	9e 81       	ldd	r25, Y+6	; 0x06
    2b62:	95 87       	std	Z+13, r25	; 0x0d
    2b64:	84 87       	std	Z+12, r24	; 0x0c
    2b66:	27 96       	adiw	r28, 0x07	; 7
    2b68:	e4 e0       	ldi	r30, 0x04	; 4
    2b6a:	0c 94 72 1c 	jmp	0x38e4	; 0x38e4 <__epilogue_restores__+0x1c>

00002b6e <_ZN16PololuQTRSensors11emittersOffEv>:
    2b6e:	dc 01       	movw	r26, r24
    2b70:	1c 96       	adiw	r26, 0x0c	; 12
    2b72:	ed 91       	ld	r30, X+
    2b74:	fc 91       	ld	r31, X
    2b76:	1d 97       	sbiw	r26, 0x0d	; 13
    2b78:	30 97       	sbiw	r30, 0x00	; 0
    2b7a:	81 f0       	breq	.+32     	; 0x2b9c <_ZN16PololuQTRSensors11emittersOffEv+0x2e>
    2b7c:	80 81       	ld	r24, Z
    2b7e:	19 96       	adiw	r26, 0x09	; 9
    2b80:	9c 91       	ld	r25, X
    2b82:	19 97       	sbiw	r26, 0x09	; 9
    2b84:	89 2b       	or	r24, r25
    2b86:	80 83       	st	Z, r24
    2b88:	1a 96       	adiw	r26, 0x0a	; 10
    2b8a:	ed 91       	ld	r30, X+
    2b8c:	fc 91       	ld	r31, X
    2b8e:	1b 97       	sbiw	r26, 0x0b	; 11
    2b90:	90 81       	ld	r25, Z
    2b92:	19 96       	adiw	r26, 0x09	; 9
    2b94:	8c 91       	ld	r24, X
    2b96:	80 95       	com	r24
    2b98:	89 23       	and	r24, r25
    2b9a:	80 83       	st	Z, r24
    2b9c:	08 95       	ret

00002b9e <qtr_emitters_off>:
    2b9e:	80 91 9b 02 	lds	r24, 0x029B
    2ba2:	90 91 9c 02 	lds	r25, 0x029C
    2ba6:	0e 94 b7 15 	call	0x2b6e	; 0x2b6e <_ZN16PololuQTRSensors11emittersOffEv>
    2baa:	08 95       	ret

00002bac <_ZN16PololuQTRSensors10emittersOnEv>:
    2bac:	dc 01       	movw	r26, r24
    2bae:	1c 96       	adiw	r26, 0x0c	; 12
    2bb0:	ed 91       	ld	r30, X+
    2bb2:	fc 91       	ld	r31, X
    2bb4:	1d 97       	sbiw	r26, 0x0d	; 13
    2bb6:	30 97       	sbiw	r30, 0x00	; 0
    2bb8:	79 f0       	breq	.+30     	; 0x2bd8 <_ZN16PololuQTRSensors10emittersOnEv+0x2c>
    2bba:	80 81       	ld	r24, Z
    2bbc:	19 96       	adiw	r26, 0x09	; 9
    2bbe:	9c 91       	ld	r25, X
    2bc0:	19 97       	sbiw	r26, 0x09	; 9
    2bc2:	89 2b       	or	r24, r25
    2bc4:	80 83       	st	Z, r24
    2bc6:	1a 96       	adiw	r26, 0x0a	; 10
    2bc8:	ed 91       	ld	r30, X+
    2bca:	fc 91       	ld	r31, X
    2bcc:	1b 97       	sbiw	r26, 0x0b	; 11
    2bce:	80 81       	ld	r24, Z
    2bd0:	19 96       	adiw	r26, 0x09	; 9
    2bd2:	9c 91       	ld	r25, X
    2bd4:	89 2b       	or	r24, r25
    2bd6:	80 83       	st	Z, r24
    2bd8:	08 95       	ret

00002bda <_ZN16PololuQTRSensors16resetCalibrationEv>:
    2bda:	dc 01       	movw	r26, r24
    2bdc:	20 e0       	ldi	r18, 0x00	; 0
    2bde:	40 c0       	rjmp	.+128    	; 0x2c60 <_ZN16PololuQTRSensors16resetCalibrationEv+0x86>
    2be0:	ed 91       	ld	r30, X+
    2be2:	fc 91       	ld	r31, X
    2be4:	11 97       	sbiw	r26, 0x01	; 1
    2be6:	30 97       	sbiw	r30, 0x00	; 0
    2be8:	61 f0       	breq	.+24     	; 0x2c02 <_ZN16PololuQTRSensors16resetCalibrationEv+0x28>
    2bea:	82 2f       	mov	r24, r18
    2bec:	90 e0       	ldi	r25, 0x00	; 0
    2bee:	88 0f       	add	r24, r24
    2bf0:	99 1f       	adc	r25, r25
    2bf2:	e8 0f       	add	r30, r24
    2bf4:	f9 1f       	adc	r31, r25
    2bf6:	1e 96       	adiw	r26, 0x0e	; 14
    2bf8:	8d 91       	ld	r24, X+
    2bfa:	9c 91       	ld	r25, X
    2bfc:	1f 97       	sbiw	r26, 0x0f	; 15
    2bfe:	91 83       	std	Z+1, r25	; 0x01
    2c00:	80 83       	st	Z, r24
    2c02:	14 96       	adiw	r26, 0x04	; 4
    2c04:	ed 91       	ld	r30, X+
    2c06:	fc 91       	ld	r31, X
    2c08:	15 97       	sbiw	r26, 0x05	; 5
    2c0a:	30 97       	sbiw	r30, 0x00	; 0
    2c0c:	61 f0       	breq	.+24     	; 0x2c26 <_ZN16PololuQTRSensors16resetCalibrationEv+0x4c>
    2c0e:	82 2f       	mov	r24, r18
    2c10:	90 e0       	ldi	r25, 0x00	; 0
    2c12:	88 0f       	add	r24, r24
    2c14:	99 1f       	adc	r25, r25
    2c16:	e8 0f       	add	r30, r24
    2c18:	f9 1f       	adc	r31, r25
    2c1a:	1e 96       	adiw	r26, 0x0e	; 14
    2c1c:	8d 91       	ld	r24, X+
    2c1e:	9c 91       	ld	r25, X
    2c20:	1f 97       	sbiw	r26, 0x0f	; 15
    2c22:	91 83       	std	Z+1, r25	; 0x01
    2c24:	80 83       	st	Z, r24
    2c26:	12 96       	adiw	r26, 0x02	; 2
    2c28:	ed 91       	ld	r30, X+
    2c2a:	fc 91       	ld	r31, X
    2c2c:	13 97       	sbiw	r26, 0x03	; 3
    2c2e:	30 97       	sbiw	r30, 0x00	; 0
    2c30:	41 f0       	breq	.+16     	; 0x2c42 <_ZN16PololuQTRSensors16resetCalibrationEv+0x68>
    2c32:	82 2f       	mov	r24, r18
    2c34:	90 e0       	ldi	r25, 0x00	; 0
    2c36:	88 0f       	add	r24, r24
    2c38:	99 1f       	adc	r25, r25
    2c3a:	e8 0f       	add	r30, r24
    2c3c:	f9 1f       	adc	r31, r25
    2c3e:	11 82       	std	Z+1, r1	; 0x01
    2c40:	10 82       	st	Z, r1
    2c42:	16 96       	adiw	r26, 0x06	; 6
    2c44:	ed 91       	ld	r30, X+
    2c46:	fc 91       	ld	r31, X
    2c48:	17 97       	sbiw	r26, 0x07	; 7
    2c4a:	30 97       	sbiw	r30, 0x00	; 0
    2c4c:	41 f0       	breq	.+16     	; 0x2c5e <_ZN16PololuQTRSensors16resetCalibrationEv+0x84>
    2c4e:	82 2f       	mov	r24, r18
    2c50:	90 e0       	ldi	r25, 0x00	; 0
    2c52:	88 0f       	add	r24, r24
    2c54:	99 1f       	adc	r25, r25
    2c56:	e8 0f       	add	r30, r24
    2c58:	f9 1f       	adc	r31, r25
    2c5a:	11 82       	std	Z+1, r1	; 0x01
    2c5c:	10 82       	st	Z, r1
    2c5e:	2f 5f       	subi	r18, 0xFF	; 255
    2c60:	18 96       	adiw	r26, 0x08	; 8
    2c62:	8c 91       	ld	r24, X
    2c64:	18 97       	sbiw	r26, 0x08	; 8
    2c66:	28 17       	cp	r18, r24
    2c68:	08 f4       	brcc	.+2      	; 0x2c6c <_ZN16PololuQTRSensors16resetCalibrationEv+0x92>
    2c6a:	ba cf       	rjmp	.-140    	; 0x2be0 <_ZN16PololuQTRSensors16resetCalibrationEv+0x6>
    2c6c:	08 95       	ret

00002c6e <qtr_reset_calibration>:
    2c6e:	80 91 9b 02 	lds	r24, 0x029B
    2c72:	90 91 9c 02 	lds	r25, 0x029C
    2c76:	0e 94 ed 15 	call	0x2bda	; 0x2bda <_ZN16PololuQTRSensors16resetCalibrationEv>
    2c7a:	08 95       	ret

00002c7c <_ZN18PololuQTRSensorsRC4initEPhhjh>:
    2c7c:	a7 e0       	ldi	r26, 0x07	; 7
    2c7e:	b0 e0       	ldi	r27, 0x00	; 0
    2c80:	e4 e4       	ldi	r30, 0x44	; 68
    2c82:	f6 e1       	ldi	r31, 0x16	; 22
    2c84:	0c 94 48 1c 	jmp	0x3890	; 0x3890 <__prologue_saves__>
    2c88:	6c 01       	movw	r12, r24
    2c8a:	2b 01       	movw	r4, r22
    2c8c:	64 2f       	mov	r22, r20
    2c8e:	79 01       	movw	r14, r18
    2c90:	40 2f       	mov	r20, r16
    2c92:	20 e0       	ldi	r18, 0x00	; 0
    2c94:	0e 94 8a 15 	call	0x2b14	; 0x2b14 <_ZN16PololuQTRSensors4initEhhh>
    2c98:	c6 01       	movw	r24, r12
    2c9a:	8f 5b       	subi	r24, 0xBF	; 191
    2c9c:	9f 4f       	sbci	r25, 0xFF	; 255
    2c9e:	fc 01       	movw	r30, r24
    2ca0:	10 82       	st	Z, r1
    2ca2:	d6 01       	movw	r26, r12
    2ca4:	ae 5b       	subi	r26, 0xBE	; 190
    2ca6:	bf 4f       	sbci	r27, 0xFF	; 255
    2ca8:	1c 92       	st	X, r1
    2caa:	96 01       	movw	r18, r12
    2cac:	2d 5b       	subi	r18, 0xBD	; 189
    2cae:	3f 4f       	sbci	r19, 0xFF	; 255
    2cb0:	f9 01       	movw	r30, r18
    2cb2:	10 82       	st	Z, r1
    2cb4:	f6 01       	movw	r30, r12
    2cb6:	f7 86       	std	Z+15, r15	; 0x0f
    2cb8:	e6 86       	std	Z+14, r14	; 0x0e
    2cba:	ee 24       	eor	r14, r14
    2cbc:	1e 01       	movw	r2, r28
    2cbe:	08 94       	sec
    2cc0:	21 1c       	adc	r2, r1
    2cc2:	31 1c       	adc	r3, r1
    2cc4:	39 01       	movw	r6, r18
    2cc6:	4d 01       	movw	r8, r26
    2cc8:	5c 01       	movw	r10, r24
    2cca:	28 c0       	rjmp	.+80     	; 0x2d1c <_ZN18PololuQTRSensorsRC4initEPhhjh+0xa0>
    2ccc:	0e 2d       	mov	r16, r14
    2cce:	10 e0       	ldi	r17, 0x00	; 0
    2cd0:	f2 01       	movw	r30, r4
    2cd2:	e0 0f       	add	r30, r16
    2cd4:	f1 1f       	adc	r31, r17
    2cd6:	c1 01       	movw	r24, r2
    2cd8:	60 81       	ld	r22, Z
    2cda:	0e 94 00 15 	call	0x2a00	; 0x2a00 <_ZN16OrangutanDigital14getIORegistersEP8IOStructh>
    2cde:	2f 81       	ldd	r18, Y+7	; 0x07
    2ce0:	f6 01       	movw	r30, r12
    2ce2:	e0 0f       	add	r30, r16
    2ce4:	f1 1f       	adc	r31, r17
    2ce6:	21 8b       	std	Z+17, r18	; 0x11
    2ce8:	89 81       	ldd	r24, Y+1	; 0x01
    2cea:	9a 81       	ldd	r25, Y+2	; 0x02
    2cec:	00 0f       	add	r16, r16
    2cee:	11 1f       	adc	r17, r17
    2cf0:	0c 0d       	add	r16, r12
    2cf2:	1d 1d       	adc	r17, r13
    2cf4:	f8 01       	movw	r30, r16
    2cf6:	92 a3       	std	Z+34, r25	; 0x22
    2cf8:	81 a3       	std	Z+33, r24	; 0x21
    2cfa:	83 32       	cpi	r24, 0x23	; 35
    2cfc:	91 05       	cpc	r25, r1
    2cfe:	11 f4       	brne	.+4      	; 0x2d04 <_ZN18PololuQTRSensorsRC4initEPhhjh+0x88>
    2d00:	f5 01       	movw	r30, r10
    2d02:	08 c0       	rjmp	.+16     	; 0x2d14 <_ZN18PololuQTRSensorsRC4initEPhhjh+0x98>
    2d04:	86 32       	cpi	r24, 0x26	; 38
    2d06:	91 05       	cpc	r25, r1
    2d08:	11 f4       	brne	.+4      	; 0x2d0e <_ZN18PololuQTRSensorsRC4initEPhhjh+0x92>
    2d0a:	f4 01       	movw	r30, r8
    2d0c:	03 c0       	rjmp	.+6      	; 0x2d14 <_ZN18PololuQTRSensorsRC4initEPhhjh+0x98>
    2d0e:	89 97       	sbiw	r24, 0x29	; 41
    2d10:	21 f4       	brne	.+8      	; 0x2d1a <_ZN18PololuQTRSensorsRC4initEPhhjh+0x9e>
    2d12:	f3 01       	movw	r30, r6
    2d14:	80 81       	ld	r24, Z
    2d16:	82 2b       	or	r24, r18
    2d18:	80 83       	st	Z, r24
    2d1a:	e3 94       	inc	r14
    2d1c:	f6 01       	movw	r30, r12
    2d1e:	80 85       	ldd	r24, Z+8	; 0x08
    2d20:	e8 16       	cp	r14, r24
    2d22:	a0 f2       	brcs	.-88     	; 0x2ccc <_ZN18PololuQTRSensorsRC4initEPhhjh+0x50>
    2d24:	27 96       	adiw	r28, 0x07	; 7
    2d26:	e2 e1       	ldi	r30, 0x12	; 18
    2d28:	0c 94 64 1c 	jmp	0x38c8	; 0x38c8 <__epilogue_restores__>

00002d2c <_ZN18PololuQTRSensorsRCC1EPhhjh>:
    2d2c:	0f 93       	push	r16
    2d2e:	0e 94 3e 16 	call	0x2c7c	; 0x2c7c <_ZN18PololuQTRSensorsRC4initEPhhjh>
    2d32:	0f 91       	pop	r16
    2d34:	08 95       	ret

00002d36 <_ZN18PololuQTRSensorsRCC2EPhhjh>:
    2d36:	0f 93       	push	r16
    2d38:	0e 94 3e 16 	call	0x2c7c	; 0x2c7c <_ZN18PololuQTRSensorsRC4initEPhhjh>
    2d3c:	0f 91       	pop	r16
    2d3e:	08 95       	ret

00002d40 <_ZN18PololuQTRSensorsRC11readPrivateEPj>:
    2d40:	a0 e0       	ldi	r26, 0x00	; 0
    2d42:	b0 e0       	ldi	r27, 0x00	; 0
    2d44:	e6 ea       	ldi	r30, 0xA6	; 166
    2d46:	f6 e1       	ldi	r31, 0x16	; 22
    2d48:	0c 94 4e 1c 	jmp	0x389c	; 0x389c <__prologue_saves__+0xc>
    2d4c:	ec 01       	movw	r28, r24
    2d4e:	5b 01       	movw	r10, r22
    2d50:	cf 5b       	subi	r28, 0xBF	; 191
    2d52:	df 4f       	sbci	r29, 0xFF	; 255
    2d54:	49 91       	ld	r20, Y+
    2d56:	a9 91       	ld	r26, Y+
    2d58:	88 80       	ld	r8, Y
    2d5a:	c3 54       	subi	r28, 0x43	; 67
    2d5c:	d0 40       	sbci	r29, 0x00	; 0
    2d5e:	90 e0       	ldi	r25, 0x00	; 0
    2d60:	09 c0       	rjmp	.+18     	; 0x2d74 <_ZN18PololuQTRSensorsRC11readPrivateEPj+0x34>
    2d62:	e9 2f       	mov	r30, r25
    2d64:	f0 e0       	ldi	r31, 0x00	; 0
    2d66:	ee 0f       	add	r30, r30
    2d68:	ff 1f       	adc	r31, r31
    2d6a:	ea 0d       	add	r30, r10
    2d6c:	fb 1d       	adc	r31, r11
    2d6e:	11 82       	std	Z+1, r1	; 0x01
    2d70:	10 82       	st	Z, r1
    2d72:	9f 5f       	subi	r25, 0xFF	; 255
    2d74:	88 85       	ldd	r24, Y+8	; 0x08
    2d76:	98 17       	cp	r25, r24
    2d78:	a0 f3       	brcs	.-24     	; 0x2d62 <_ZN18PololuQTRSensorsRC11readPrivateEPj+0x22>
    2d7a:	84 b1       	in	r24, 0x04	; 4
    2d7c:	cf 5b       	subi	r28, 0xBF	; 191
    2d7e:	df 4f       	sbci	r29, 0xFF	; 255
    2d80:	39 91       	ld	r19, Y+
    2d82:	83 2b       	or	r24, r19
    2d84:	84 b9       	out	0x04, r24	; 4
    2d86:	87 b1       	in	r24, 0x07	; 7
    2d88:	29 91       	ld	r18, Y+
    2d8a:	82 2b       	or	r24, r18
    2d8c:	87 b9       	out	0x07, r24	; 7
    2d8e:	8a b1       	in	r24, 0x0a	; 10
    2d90:	98 81       	ld	r25, Y
    2d92:	c3 54       	subi	r28, 0x43	; 67
    2d94:	d0 40       	sbci	r29, 0x00	; 0
    2d96:	89 2b       	or	r24, r25
    2d98:	8a b9       	out	0x0a, r24	; 10
    2d9a:	85 b1       	in	r24, 0x05	; 5
    2d9c:	83 2b       	or	r24, r19
    2d9e:	85 b9       	out	0x05, r24	; 5
    2da0:	88 b1       	in	r24, 0x08	; 8
    2da2:	82 2b       	or	r24, r18
    2da4:	88 b9       	out	0x08, r24	; 8
    2da6:	8b b1       	in	r24, 0x0b	; 11
    2da8:	89 2b       	or	r24, r25
    2daa:	8b b9       	out	0x0b, r24	; 11
    2dac:	ea e0       	ldi	r30, 0x0A	; 10
    2dae:	f0 e0       	ldi	r31, 0x00	; 0
    2db0:	6f 93       	push	r22
    2db2:	64 e0       	ldi	r22, 0x04	; 4
    2db4:	6a 95       	dec	r22
    2db6:	f1 f7       	brne	.-4      	; 0x2db4 <_ZN18PololuQTRSensorsRC11readPrivateEPj+0x74>
    2db8:	6f 91       	pop	r22
    2dba:	31 97       	sbiw	r30, 0x01	; 1
    2dbc:	c9 f7       	brne	.-14     	; 0x2db0 <_ZN18PololuQTRSensorsRC11readPrivateEPj+0x70>
    2dbe:	84 b1       	in	r24, 0x04	; 4
    2dc0:	30 95       	com	r19
    2dc2:	83 23       	and	r24, r19
    2dc4:	84 b9       	out	0x04, r24	; 4
    2dc6:	87 b1       	in	r24, 0x07	; 7
    2dc8:	20 95       	com	r18
    2dca:	82 23       	and	r24, r18
    2dcc:	87 b9       	out	0x07, r24	; 7
    2dce:	8a b1       	in	r24, 0x0a	; 10
    2dd0:	90 95       	com	r25
    2dd2:	89 23       	and	r24, r25
    2dd4:	8a b9       	out	0x0a, r24	; 10
    2dd6:	85 b1       	in	r24, 0x05	; 5
    2dd8:	38 23       	and	r19, r24
    2dda:	35 b9       	out	0x05, r19	; 5
    2ddc:	88 b1       	in	r24, 0x08	; 8
    2dde:	28 23       	and	r18, r24
    2de0:	28 b9       	out	0x08, r18	; 8
    2de2:	8b b1       	in	r24, 0x0b	; 11
    2de4:	98 23       	and	r25, r24
    2de6:	9b b9       	out	0x0b, r25	; 11
    2de8:	90 90 b0 00 	lds	r9, 0x00B0
    2dec:	c0 90 b1 00 	lds	r12, 0x00B1
    2df0:	80 91 b0 00 	lds	r24, 0x00B0
    2df4:	83 60       	ori	r24, 0x03	; 3
    2df6:	80 93 b0 00 	sts	0x00B0, r24
    2dfa:	82 e0       	ldi	r24, 0x02	; 2
    2dfc:	80 93 b1 00 	sts	0x00B1, r24
    2e00:	d0 90 b2 00 	lds	r13, 0x00B2
    2e04:	60 e0       	ldi	r22, 0x00	; 0
    2e06:	70 e0       	ldi	r23, 0x00	; 0
    2e08:	3a c0       	rjmp	.+116    	; 0x2e7e <_ZN18PololuQTRSensorsRC11readPrivateEPj+0x13e>
    2e0a:	50 91 b2 00 	lds	r21, 0x00B2
    2e0e:	5d 19       	sub	r21, r13
    2e10:	65 0f       	add	r22, r21
    2e12:	71 1d       	adc	r23, r1
    2e14:	e3 b0       	in	r14, 0x03	; 3
    2e16:	e4 16       	cp	r14, r20
    2e18:	09 f0       	breq	.+2      	; 0x2e1c <_ZN18PololuQTRSensorsRC11readPrivateEPj+0xdc>
    2e1a:	4f c0       	rjmp	.+158    	; 0x2eba <_ZN18PololuQTRSensorsRC11readPrivateEPj+0x17a>
    2e1c:	f6 b0       	in	r15, 0x06	; 6
    2e1e:	fa 16       	cp	r15, r26
    2e20:	09 f0       	breq	.+2      	; 0x2e24 <_ZN18PololuQTRSensorsRC11readPrivateEPj+0xe4>
    2e22:	4b c0       	rjmp	.+150    	; 0x2eba <_ZN18PololuQTRSensorsRC11readPrivateEPj+0x17a>
    2e24:	89 b1       	in	r24, 0x09	; 9
    2e26:	88 15       	cp	r24, r8
    2e28:	09 f0       	breq	.+2      	; 0x2e2c <_ZN18PololuQTRSensorsRC11readPrivateEPj+0xec>
    2e2a:	47 c0       	rjmp	.+142    	; 0x2eba <_ZN18PololuQTRSensorsRC11readPrivateEPj+0x17a>
    2e2c:	25 c0       	rjmp	.+74     	; 0x2e78 <_ZN18PololuQTRSensorsRC11readPrivateEPj+0x138>
    2e2e:	a4 2f       	mov	r26, r20
    2e30:	b0 e0       	ldi	r27, 0x00	; 0
    2e32:	9d 01       	movw	r18, r26
    2e34:	22 0f       	add	r18, r18
    2e36:	33 1f       	adc	r19, r19
    2e38:	85 01       	movw	r16, r10
    2e3a:	02 0f       	add	r16, r18
    2e3c:	13 1f       	adc	r17, r19
    2e3e:	f8 01       	movw	r30, r16
    2e40:	80 81       	ld	r24, Z
    2e42:	91 81       	ldd	r25, Z+1	; 0x01
    2e44:	89 2b       	or	r24, r25
    2e46:	a1 f4       	brne	.+40     	; 0x2e70 <_ZN18PololuQTRSensorsRC11readPrivateEPj+0x130>
    2e48:	2c 0f       	add	r18, r28
    2e4a:	3d 1f       	adc	r19, r29
    2e4c:	f9 01       	movw	r30, r18
    2e4e:	81 a1       	ldd	r24, Z+33	; 0x21
    2e50:	92 a1       	ldd	r25, Z+34	; 0x22
    2e52:	fc 01       	movw	r30, r24
    2e54:	20 81       	ld	r18, Z
    2e56:	30 e0       	ldi	r19, 0x00	; 0
    2e58:	ac 0f       	add	r26, r28
    2e5a:	bd 1f       	adc	r27, r29
    2e5c:	51 96       	adiw	r26, 0x11	; 17
    2e5e:	8c 91       	ld	r24, X
    2e60:	90 e0       	ldi	r25, 0x00	; 0
    2e62:	28 23       	and	r18, r24
    2e64:	39 23       	and	r19, r25
    2e66:	23 2b       	or	r18, r19
    2e68:	19 f4       	brne	.+6      	; 0x2e70 <_ZN18PololuQTRSensorsRC11readPrivateEPj+0x130>
    2e6a:	f8 01       	movw	r30, r16
    2e6c:	71 83       	std	Z+1, r23	; 0x01
    2e6e:	60 83       	st	Z, r22
    2e70:	4f 5f       	subi	r20, 0xFF	; 255
    2e72:	88 85       	ldd	r24, Y+8	; 0x08
    2e74:	48 17       	cp	r20, r24
    2e76:	d8 f2       	brcs	.-74     	; 0x2e2e <_ZN18PololuQTRSensorsRC11readPrivateEPj+0xee>
    2e78:	d5 0e       	add	r13, r21
    2e7a:	4e 2d       	mov	r20, r14
    2e7c:	af 2d       	mov	r26, r15
    2e7e:	8e 85       	ldd	r24, Y+14	; 0x0e
    2e80:	9f 85       	ldd	r25, Y+15	; 0x0f
    2e82:	68 17       	cp	r22, r24
    2e84:	79 07       	cpc	r23, r25
    2e86:	08 f2       	brcs	.-126    	; 0x2e0a <_ZN18PololuQTRSensorsRC11readPrivateEPj+0xca>
    2e88:	90 92 b0 00 	sts	0x00B0, r9
    2e8c:	c0 92 b1 00 	sts	0x00B1, r12
    2e90:	20 e0       	ldi	r18, 0x00	; 0
    2e92:	0f c0       	rjmp	.+30     	; 0x2eb2 <_ZN18PololuQTRSensorsRC11readPrivateEPj+0x172>
    2e94:	e2 2f       	mov	r30, r18
    2e96:	f0 e0       	ldi	r31, 0x00	; 0
    2e98:	ee 0f       	add	r30, r30
    2e9a:	ff 1f       	adc	r31, r31
    2e9c:	ea 0d       	add	r30, r10
    2e9e:	fb 1d       	adc	r31, r11
    2ea0:	80 81       	ld	r24, Z
    2ea2:	91 81       	ldd	r25, Z+1	; 0x01
    2ea4:	89 2b       	or	r24, r25
    2ea6:	21 f4       	brne	.+8      	; 0x2eb0 <_ZN18PololuQTRSensorsRC11readPrivateEPj+0x170>
    2ea8:	8e 85       	ldd	r24, Y+14	; 0x0e
    2eaa:	9f 85       	ldd	r25, Y+15	; 0x0f
    2eac:	91 83       	std	Z+1, r25	; 0x01
    2eae:	80 83       	st	Z, r24
    2eb0:	2f 5f       	subi	r18, 0xFF	; 255
    2eb2:	88 85       	ldd	r24, Y+8	; 0x08
    2eb4:	28 17       	cp	r18, r24
    2eb6:	70 f3       	brcs	.-36     	; 0x2e94 <_ZN18PololuQTRSensorsRC11readPrivateEPj+0x154>
    2eb8:	05 c0       	rjmp	.+10     	; 0x2ec4 <_ZN18PololuQTRSensorsRC11readPrivateEPj+0x184>
    2eba:	e3 b0       	in	r14, 0x03	; 3
    2ebc:	f6 b0       	in	r15, 0x06	; 6
    2ebe:	89 b0       	in	r8, 0x09	; 9
    2ec0:	40 e0       	ldi	r20, 0x00	; 0
    2ec2:	d7 cf       	rjmp	.-82     	; 0x2e72 <_ZN18PololuQTRSensorsRC11readPrivateEPj+0x132>
    2ec4:	cd b7       	in	r28, 0x3d	; 61
    2ec6:	de b7       	in	r29, 0x3e	; 62
    2ec8:	ec e0       	ldi	r30, 0x0C	; 12
    2eca:	0c 94 6a 1c 	jmp	0x38d4	; 0x38d4 <__epilogue_restores__+0xc>

00002ece <_ZN22PololuQTRSensorsAnalog4initEPhhhh>:
    2ece:	ef 92       	push	r14
    2ed0:	ff 92       	push	r15
    2ed2:	0f 93       	push	r16
    2ed4:	1f 93       	push	r17
    2ed6:	cf 93       	push	r28
    2ed8:	df 93       	push	r29
    2eda:	ec 01       	movw	r28, r24
    2edc:	7b 01       	movw	r14, r22
    2ede:	12 2f       	mov	r17, r18
    2ee0:	64 2f       	mov	r22, r20
    2ee2:	40 2f       	mov	r20, r16
    2ee4:	21 e0       	ldi	r18, 0x01	; 1
    2ee6:	0e 94 8a 15 	call	0x2b14	; 0x2b14 <_ZN16PololuQTRSensors4initEhhh>
    2eea:	19 a3       	std	Y+33, r17	; 0x21
    2eec:	1a a2       	std	Y+34, r1	; 0x22
    2eee:	30 e0       	ldi	r19, 0x00	; 0
    2ef0:	41 e0       	ldi	r20, 0x01	; 1
    2ef2:	50 e0       	ldi	r21, 0x00	; 0
    2ef4:	13 c0       	rjmp	.+38     	; 0x2f1c <_ZN22PololuQTRSensorsAnalog4initEPhhhh+0x4e>
    2ef6:	e3 2f       	mov	r30, r19
    2ef8:	f0 e0       	ldi	r31, 0x00	; 0
    2efa:	d7 01       	movw	r26, r14
    2efc:	ae 0f       	add	r26, r30
    2efe:	bf 1f       	adc	r27, r31
    2f00:	ec 0f       	add	r30, r28
    2f02:	fd 1f       	adc	r31, r29
    2f04:	8c 91       	ld	r24, X
    2f06:	81 8b       	std	Z+17, r24	; 0x11
    2f08:	ca 01       	movw	r24, r20
    2f0a:	0c 90       	ld	r0, X
    2f0c:	02 c0       	rjmp	.+4      	; 0x2f12 <_ZN22PololuQTRSensorsAnalog4initEPhhhh+0x44>
    2f0e:	88 0f       	add	r24, r24
    2f10:	99 1f       	adc	r25, r25
    2f12:	0a 94       	dec	r0
    2f14:	e2 f7       	brpl	.-8      	; 0x2f0e <_ZN22PololuQTRSensorsAnalog4initEPhhhh+0x40>
    2f16:	28 2b       	or	r18, r24
    2f18:	2a a3       	std	Y+34, r18	; 0x22
    2f1a:	3f 5f       	subi	r19, 0xFF	; 255
    2f1c:	88 85       	ldd	r24, Y+8	; 0x08
    2f1e:	2a a1       	ldd	r18, Y+34	; 0x22
    2f20:	38 17       	cp	r19, r24
    2f22:	48 f3       	brcs	.-46     	; 0x2ef6 <_ZN22PololuQTRSensorsAnalog4initEPhhhh+0x28>
    2f24:	2f 73       	andi	r18, 0x3F	; 63
    2f26:	2a a3       	std	Y+34, r18	; 0x22
    2f28:	8f ef       	ldi	r24, 0xFF	; 255
    2f2a:	93 e0       	ldi	r25, 0x03	; 3
    2f2c:	9f 87       	std	Y+15, r25	; 0x0f
    2f2e:	8e 87       	std	Y+14, r24	; 0x0e
    2f30:	cd b7       	in	r28, 0x3d	; 61
    2f32:	de b7       	in	r29, 0x3e	; 62
    2f34:	e6 e0       	ldi	r30, 0x06	; 6
    2f36:	0c 94 70 1c 	jmp	0x38e0	; 0x38e0 <__epilogue_restores__+0x18>

00002f3a <_ZN22PololuQTRSensorsAnalogC1EPhhhh>:
    2f3a:	0f 93       	push	r16
    2f3c:	0e 94 67 17 	call	0x2ece	; 0x2ece <_ZN22PololuQTRSensorsAnalog4initEPhhhh>
    2f40:	0f 91       	pop	r16
    2f42:	08 95       	ret

00002f44 <_ZN22PololuQTRSensorsAnalogC2EPhhhh>:
    2f44:	0f 93       	push	r16
    2f46:	0e 94 67 17 	call	0x2ece	; 0x2ece <_ZN22PololuQTRSensorsAnalog4initEPhhhh>
    2f4a:	0f 91       	pop	r16
    2f4c:	08 95       	ret

00002f4e <_ZN22PololuQTRSensorsAnalog11readPrivateEPj>:
    2f4e:	a0 e0       	ldi	r26, 0x00	; 0
    2f50:	b0 e0       	ldi	r27, 0x00	; 0
    2f52:	ed ea       	ldi	r30, 0xAD	; 173
    2f54:	f7 e1       	ldi	r31, 0x17	; 23
    2f56:	0c 94 52 1c 	jmp	0x38a4	; 0x38a4 <__prologue_saves__+0x14>
    2f5a:	ec 01       	movw	r28, r24
    2f5c:	8b 01       	movw	r16, r22
    2f5e:	d0 90 7c 00 	lds	r13, 0x007C
    2f62:	e0 90 7a 00 	lds	r14, 0x007A
    2f66:	c7 b0       	in	r12, 0x07	; 7
    2f68:	f8 b0       	in	r15, 0x08	; 8
    2f6a:	80 91 7a 00 	lds	r24, 0x007A
    2f6e:	86 fd       	sbrc	r24, 6
    2f70:	fc cf       	rjmp	.-8      	; 0x2f6a <_ZN22PololuQTRSensorsAnalog11readPrivateEPj+0x1c>
    2f72:	90 e0       	ldi	r25, 0x00	; 0
    2f74:	09 c0       	rjmp	.+18     	; 0x2f88 <_ZN22PololuQTRSensorsAnalog11readPrivateEPj+0x3a>
    2f76:	e9 2f       	mov	r30, r25
    2f78:	f0 e0       	ldi	r31, 0x00	; 0
    2f7a:	ee 0f       	add	r30, r30
    2f7c:	ff 1f       	adc	r31, r31
    2f7e:	e0 0f       	add	r30, r16
    2f80:	f1 1f       	adc	r31, r17
    2f82:	11 82       	std	Z+1, r1	; 0x01
    2f84:	10 82       	st	Z, r1
    2f86:	9f 5f       	subi	r25, 0xFF	; 255
    2f88:	88 85       	ldd	r24, Y+8	; 0x08
    2f8a:	98 17       	cp	r25, r24
    2f8c:	a0 f3       	brcs	.-24     	; 0x2f76 <_ZN22PololuQTRSensorsAnalog11readPrivateEPj+0x28>
    2f8e:	97 b1       	in	r25, 0x07	; 7
    2f90:	8a a1       	ldd	r24, Y+34	; 0x22
    2f92:	80 95       	com	r24
    2f94:	98 23       	and	r25, r24
    2f96:	97 b9       	out	0x07, r25	; 7
    2f98:	98 b1       	in	r25, 0x08	; 8
    2f9a:	89 23       	and	r24, r25
    2f9c:	88 b9       	out	0x08, r24	; 8
    2f9e:	87 e8       	ldi	r24, 0x87	; 135
    2fa0:	80 93 7a 00 	sts	0x007A, r24
    2fa4:	50 e0       	ldi	r21, 0x00	; 0
    2fa6:	25 c0       	rjmp	.+74     	; 0x2ff2 <_ZN22PololuQTRSensorsAnalog11readPrivateEPj+0xa4>
    2fa8:	fe 01       	movw	r30, r28
    2faa:	e4 0f       	add	r30, r20
    2fac:	f1 1d       	adc	r31, r1
    2fae:	81 89       	ldd	r24, Z+17	; 0x11
    2fb0:	80 64       	ori	r24, 0x40	; 64
    2fb2:	80 93 7c 00 	sts	0x007C, r24
    2fb6:	80 91 7a 00 	lds	r24, 0x007A
    2fba:	80 64       	ori	r24, 0x40	; 64
    2fbc:	80 93 7a 00 	sts	0x007A, r24
    2fc0:	80 91 7a 00 	lds	r24, 0x007A
    2fc4:	86 fd       	sbrc	r24, 6
    2fc6:	fc cf       	rjmp	.-8      	; 0x2fc0 <_ZN22PololuQTRSensorsAnalog11readPrivateEPj+0x72>
    2fc8:	e4 2f       	mov	r30, r20
    2fca:	f0 e0       	ldi	r31, 0x00	; 0
    2fcc:	ee 0f       	add	r30, r30
    2fce:	ff 1f       	adc	r31, r31
    2fd0:	e0 0f       	add	r30, r16
    2fd2:	f1 1f       	adc	r31, r17
    2fd4:	20 91 78 00 	lds	r18, 0x0078
    2fd8:	30 91 79 00 	lds	r19, 0x0079
    2fdc:	80 81       	ld	r24, Z
    2fde:	91 81       	ldd	r25, Z+1	; 0x01
    2fe0:	82 0f       	add	r24, r18
    2fe2:	93 1f       	adc	r25, r19
    2fe4:	91 83       	std	Z+1, r25	; 0x01
    2fe6:	80 83       	st	Z, r24
    2fe8:	4f 5f       	subi	r20, 0xFF	; 255
    2fea:	88 85       	ldd	r24, Y+8	; 0x08
    2fec:	48 17       	cp	r20, r24
    2fee:	e0 f2       	brcs	.-72     	; 0x2fa8 <_ZN22PololuQTRSensorsAnalog11readPrivateEPj+0x5a>
    2ff0:	5f 5f       	subi	r21, 0xFF	; 255
    2ff2:	89 a1       	ldd	r24, Y+33	; 0x21
    2ff4:	58 17       	cp	r21, r24
    2ff6:	10 f0       	brcs	.+4      	; 0x2ffc <_ZN22PololuQTRSensorsAnalog11readPrivateEPj+0xae>
    2ff8:	40 e0       	ldi	r20, 0x00	; 0
    2ffa:	17 c0       	rjmp	.+46     	; 0x302a <_ZN22PololuQTRSensorsAnalog11readPrivateEPj+0xdc>
    2ffc:	40 e0       	ldi	r20, 0x00	; 0
    2ffe:	f5 cf       	rjmp	.-22     	; 0x2fea <_ZN22PololuQTRSensorsAnalog11readPrivateEPj+0x9c>
    3000:	e4 2f       	mov	r30, r20
    3002:	f0 e0       	ldi	r31, 0x00	; 0
    3004:	ee 0f       	add	r30, r30
    3006:	ff 1f       	adc	r31, r31
    3008:	e0 0f       	add	r30, r16
    300a:	f1 1f       	adc	r31, r17
    300c:	69 a1       	ldd	r22, Y+33	; 0x21
    300e:	86 2f       	mov	r24, r22
    3010:	90 e0       	ldi	r25, 0x00	; 0
    3012:	95 95       	asr	r25
    3014:	87 95       	ror	r24
    3016:	20 81       	ld	r18, Z
    3018:	31 81       	ldd	r19, Z+1	; 0x01
    301a:	82 0f       	add	r24, r18
    301c:	93 1f       	adc	r25, r19
    301e:	70 e0       	ldi	r23, 0x00	; 0
    3020:	0e 94 e4 1b 	call	0x37c8	; 0x37c8 <__udivmodhi4>
    3024:	71 83       	std	Z+1, r23	; 0x01
    3026:	60 83       	st	Z, r22
    3028:	4f 5f       	subi	r20, 0xFF	; 255
    302a:	88 85       	ldd	r24, Y+8	; 0x08
    302c:	48 17       	cp	r20, r24
    302e:	40 f3       	brcs	.-48     	; 0x3000 <_ZN22PololuQTRSensorsAnalog11readPrivateEPj+0xb2>
    3030:	d0 92 7c 00 	sts	0x007C, r13
    3034:	e0 92 7a 00 	sts	0x007A, r14
    3038:	f8 b8       	out	0x08, r15	; 8
    303a:	c7 b8       	out	0x07, r12	; 7
    303c:	cd b7       	in	r28, 0x3d	; 61
    303e:	de b7       	in	r29, 0x3e	; 62
    3040:	e8 e0       	ldi	r30, 0x08	; 8
    3042:	0c 94 6e 1c 	jmp	0x38dc	; 0x38dc <__epilogue_restores__+0x14>

00003046 <_ZN16PololuQTRSensors4readEPjh>:
    3046:	a0 e2       	ldi	r26, 0x20	; 32
    3048:	b0 e0       	ldi	r27, 0x00	; 0
    304a:	e9 e2       	ldi	r30, 0x29	; 41
    304c:	f8 e1       	ldi	r31, 0x18	; 24
    304e:	0c 94 52 1c 	jmp	0x38a4	; 0x38a4 <__prologue_saves__+0x14>
    3052:	8c 01       	movw	r16, r24
    3054:	7b 01       	movw	r14, r22
    3056:	d4 2e       	mov	r13, r20
    3058:	84 2f       	mov	r24, r20
    305a:	81 50       	subi	r24, 0x01	; 1
    305c:	82 30       	cpi	r24, 0x02	; 2
    305e:	b0 f4       	brcc	.+44     	; 0x308c <_ZN16PololuQTRSensors4readEPjh+0x46>
    3060:	d8 01       	movw	r26, r16
    3062:	1c 96       	adiw	r26, 0x0c	; 12
    3064:	ed 91       	ld	r30, X+
    3066:	fc 91       	ld	r31, X
    3068:	1d 97       	sbiw	r26, 0x0d	; 13
    306a:	30 97       	sbiw	r30, 0x00	; 0
    306c:	79 f0       	breq	.+30     	; 0x308c <_ZN16PololuQTRSensors4readEPjh+0x46>
    306e:	80 81       	ld	r24, Z
    3070:	19 96       	adiw	r26, 0x09	; 9
    3072:	9c 91       	ld	r25, X
    3074:	19 97       	sbiw	r26, 0x09	; 9
    3076:	89 2b       	or	r24, r25
    3078:	80 83       	st	Z, r24
    307a:	1a 96       	adiw	r26, 0x0a	; 10
    307c:	ed 91       	ld	r30, X+
    307e:	fc 91       	ld	r31, X
    3080:	1b 97       	sbiw	r26, 0x0b	; 11
    3082:	80 81       	ld	r24, Z
    3084:	19 96       	adiw	r26, 0x09	; 9
    3086:	9c 91       	ld	r25, X
    3088:	89 2b       	or	r24, r25
    308a:	80 83       	st	Z, r24
    308c:	f8 01       	movw	r30, r16
    308e:	80 89       	ldd	r24, Z+16	; 0x10
    3090:	88 23       	and	r24, r24
    3092:	89 f4       	brne	.+34     	; 0x30b6 <_ZN16PololuQTRSensors4readEPjh+0x70>
    3094:	c8 01       	movw	r24, r16
    3096:	b7 01       	movw	r22, r14
    3098:	0e 94 a0 16 	call	0x2d40	; 0x2d40 <_ZN18PololuQTRSensorsRC11readPrivateEPj>
    309c:	c8 01       	movw	r24, r16
    309e:	0e 94 b7 15 	call	0x2b6e	; 0x2b6e <_ZN16PololuQTRSensors11emittersOffEv>
    30a2:	f2 e0       	ldi	r31, 0x02	; 2
    30a4:	df 16       	cp	r13, r31
    30a6:	d9 f5       	brne	.+118    	; 0x311e <_ZN16PololuQTRSensors4readEPjh+0xd8>
    30a8:	c8 01       	movw	r24, r16
    30aa:	be 01       	movw	r22, r28
    30ac:	6f 5f       	subi	r22, 0xFF	; 255
    30ae:	7f 4f       	sbci	r23, 0xFF	; 255
    30b0:	0e 94 a0 16 	call	0x2d40	; 0x2d40 <_ZN18PololuQTRSensorsRC11readPrivateEPj>
    30b4:	10 c0       	rjmp	.+32     	; 0x30d6 <_ZN16PololuQTRSensors4readEPjh+0x90>
    30b6:	c8 01       	movw	r24, r16
    30b8:	b7 01       	movw	r22, r14
    30ba:	0e 94 a7 17 	call	0x2f4e	; 0x2f4e <_ZN22PololuQTRSensorsAnalog11readPrivateEPj>
    30be:	c8 01       	movw	r24, r16
    30c0:	0e 94 b7 15 	call	0x2b6e	; 0x2b6e <_ZN16PololuQTRSensors11emittersOffEv>
    30c4:	82 e0       	ldi	r24, 0x02	; 2
    30c6:	d8 16       	cp	r13, r24
    30c8:	51 f5       	brne	.+84     	; 0x311e <_ZN16PololuQTRSensors4readEPjh+0xd8>
    30ca:	c8 01       	movw	r24, r16
    30cc:	be 01       	movw	r22, r28
    30ce:	6f 5f       	subi	r22, 0xFF	; 255
    30d0:	7f 4f       	sbci	r23, 0xFF	; 255
    30d2:	0e 94 a7 17 	call	0x2f4e	; 0x2f4e <_ZN22PololuQTRSensorsAnalog11readPrivateEPj>
    30d6:	40 e0       	ldi	r20, 0x00	; 0
    30d8:	be 01       	movw	r22, r28
    30da:	6f 5f       	subi	r22, 0xFF	; 255
    30dc:	7f 4f       	sbci	r23, 0xFF	; 255
    30de:	1a c0       	rjmp	.+52     	; 0x3114 <_ZN16PololuQTRSensors4readEPjh+0xce>
    30e0:	e4 2f       	mov	r30, r20
    30e2:	f0 e0       	ldi	r31, 0x00	; 0
    30e4:	ee 0f       	add	r30, r30
    30e6:	ff 1f       	adc	r31, r31
    30e8:	67 01       	movw	r12, r14
    30ea:	ce 0e       	add	r12, r30
    30ec:	df 1e       	adc	r13, r31
    30ee:	e6 0f       	add	r30, r22
    30f0:	f7 1f       	adc	r31, r23
    30f2:	d8 01       	movw	r26, r16
    30f4:	1e 96       	adiw	r26, 0x0e	; 14
    30f6:	2d 91       	ld	r18, X+
    30f8:	3c 91       	ld	r19, X
    30fa:	1f 97       	sbiw	r26, 0x0f	; 15
    30fc:	80 81       	ld	r24, Z
    30fe:	91 81       	ldd	r25, Z+1	; 0x01
    3100:	28 1b       	sub	r18, r24
    3102:	39 0b       	sbc	r19, r25
    3104:	f6 01       	movw	r30, r12
    3106:	80 81       	ld	r24, Z
    3108:	91 81       	ldd	r25, Z+1	; 0x01
    310a:	82 0f       	add	r24, r18
    310c:	93 1f       	adc	r25, r19
    310e:	91 83       	std	Z+1, r25	; 0x01
    3110:	80 83       	st	Z, r24
    3112:	4f 5f       	subi	r20, 0xFF	; 255
    3114:	d8 01       	movw	r26, r16
    3116:	18 96       	adiw	r26, 0x08	; 8
    3118:	8c 91       	ld	r24, X
    311a:	48 17       	cp	r20, r24
    311c:	08 f3       	brcs	.-62     	; 0x30e0 <_ZN16PololuQTRSensors4readEPjh+0x9a>
    311e:	a0 96       	adiw	r28, 0x20	; 32
    3120:	e8 e0       	ldi	r30, 0x08	; 8
    3122:	0c 94 6e 1c 	jmp	0x38dc	; 0x38dc <__epilogue_restores__+0x14>

00003126 <_ZN16PololuQTRSensors14readCalibratedEPjh>:
    3126:	a0 e0       	ldi	r26, 0x00	; 0
    3128:	b0 e0       	ldi	r27, 0x00	; 0
    312a:	e9 e9       	ldi	r30, 0x99	; 153
    312c:	f8 e1       	ldi	r31, 0x18	; 24
    312e:	0c 94 4f 1c 	jmp	0x389e	; 0x389e <__prologue_saves__+0xe>
    3132:	ec 01       	movw	r28, r24
    3134:	16 2f       	mov	r17, r22
    3136:	07 2f       	mov	r16, r23
    3138:	94 2e       	mov	r9, r20
    313a:	22 e0       	ldi	r18, 0x02	; 2
    313c:	42 17       	cp	r20, r18
    313e:	11 f0       	breq	.+4      	; 0x3144 <_ZN16PololuQTRSensors14readCalibratedEPjh+0x1e>
    3140:	44 23       	and	r20, r20
    3142:	51 f4       	brne	.+20     	; 0x3158 <_ZN16PololuQTRSensors14readCalibratedEPjh+0x32>
    3144:	8c 81       	ldd	r24, Y+4	; 0x04
    3146:	9d 81       	ldd	r25, Y+5	; 0x05
    3148:	89 2b       	or	r24, r25
    314a:	09 f4       	brne	.+2      	; 0x314e <_ZN16PololuQTRSensors14readCalibratedEPjh+0x28>
    314c:	a4 c0       	rjmp	.+328    	; 0x3296 <_ZN16PololuQTRSensors14readCalibratedEPjh+0x170>
    314e:	8e 81       	ldd	r24, Y+6	; 0x06
    3150:	9f 81       	ldd	r25, Y+7	; 0x07
    3152:	89 2b       	or	r24, r25
    3154:	09 f4       	brne	.+2      	; 0x3158 <_ZN16PololuQTRSensors14readCalibratedEPjh+0x32>
    3156:	9f c0       	rjmp	.+318    	; 0x3296 <_ZN16PololuQTRSensors14readCalibratedEPjh+0x170>
    3158:	89 2d       	mov	r24, r9
    315a:	81 50       	subi	r24, 0x01	; 1
    315c:	82 30       	cpi	r24, 0x02	; 2
    315e:	50 f4       	brcc	.+20     	; 0x3174 <_ZN16PololuQTRSensors14readCalibratedEPjh+0x4e>
    3160:	88 81       	ld	r24, Y
    3162:	99 81       	ldd	r25, Y+1	; 0x01
    3164:	89 2b       	or	r24, r25
    3166:	09 f4       	brne	.+2      	; 0x316a <_ZN16PololuQTRSensors14readCalibratedEPjh+0x44>
    3168:	96 c0       	rjmp	.+300    	; 0x3296 <_ZN16PololuQTRSensors14readCalibratedEPjh+0x170>
    316a:	8a 81       	ldd	r24, Y+2	; 0x02
    316c:	9b 81       	ldd	r25, Y+3	; 0x03
    316e:	89 2b       	or	r24, r25
    3170:	09 f4       	brne	.+2      	; 0x3174 <_ZN16PololuQTRSensors14readCalibratedEPjh+0x4e>
    3172:	91 c0       	rjmp	.+290    	; 0x3296 <_ZN16PololuQTRSensors14readCalibratedEPjh+0x170>
    3174:	ce 01       	movw	r24, r28
    3176:	61 2f       	mov	r22, r17
    3178:	70 2f       	mov	r23, r16
    317a:	49 2d       	mov	r20, r9
    317c:	0e 94 23 18 	call	0x3046	; 0x3046 <_ZN16PololuQTRSensors4readEPjh>
    3180:	81 2f       	mov	r24, r17
    3182:	90 2f       	mov	r25, r16
    3184:	9c 01       	movw	r18, r24
    3186:	59 01       	movw	r10, r18
    3188:	cc 24       	eor	r12, r12
    318a:	dd 24       	eor	r13, r13
    318c:	00 e0       	ldi	r16, 0x00	; 0
    318e:	10 e0       	ldi	r17, 0x00	; 0
    3190:	7c c0       	rjmp	.+248    	; 0x328a <_ZN16PololuQTRSensors14readCalibratedEPjh+0x164>
    3192:	81 e0       	ldi	r24, 0x01	; 1
    3194:	98 16       	cp	r9, r24
    3196:	69 f4       	brne	.+26     	; 0x31b2 <_ZN16PololuQTRSensors14readCalibratedEPjh+0x8c>
    3198:	ea 81       	ldd	r30, Y+2	; 0x02
    319a:	fb 81       	ldd	r31, Y+3	; 0x03
    319c:	e0 0f       	add	r30, r16
    319e:	f1 1f       	adc	r31, r17
    31a0:	20 81       	ld	r18, Z
    31a2:	31 81       	ldd	r19, Z+1	; 0x01
    31a4:	e8 81       	ld	r30, Y
    31a6:	f9 81       	ldd	r31, Y+1	; 0x01
    31a8:	e0 0f       	add	r30, r16
    31aa:	f1 1f       	adc	r31, r17
    31ac:	40 81       	ld	r20, Z
    31ae:	51 81       	ldd	r21, Z+1	; 0x01
    31b0:	3d c0       	rjmp	.+122    	; 0x322c <_ZN16PololuQTRSensors14readCalibratedEPjh+0x106>
    31b2:	ac 81       	ldd	r26, Y+4	; 0x04
    31b4:	bd 81       	ldd	r27, Y+5	; 0x05
    31b6:	99 20       	and	r9, r9
    31b8:	59 f4       	brne	.+22     	; 0x31d0 <_ZN16PololuQTRSensors14readCalibratedEPjh+0xaa>
    31ba:	ee 81       	ldd	r30, Y+6	; 0x06
    31bc:	ff 81       	ldd	r31, Y+7	; 0x07
    31be:	e0 0f       	add	r30, r16
    31c0:	f1 1f       	adc	r31, r17
    31c2:	20 81       	ld	r18, Z
    31c4:	31 81       	ldd	r19, Z+1	; 0x01
    31c6:	a0 0f       	add	r26, r16
    31c8:	b1 1f       	adc	r27, r17
    31ca:	4d 91       	ld	r20, X+
    31cc:	5c 91       	ld	r21, X
    31ce:	2e c0       	rjmp	.+92     	; 0x322c <_ZN16PololuQTRSensors14readCalibratedEPjh+0x106>
    31d0:	a0 0f       	add	r26, r16
    31d2:	b1 1f       	adc	r27, r17
    31d4:	8d 91       	ld	r24, X+
    31d6:	9c 91       	ld	r25, X
    31d8:	e8 81       	ld	r30, Y
    31da:	f9 81       	ldd	r31, Y+1	; 0x01
    31dc:	e0 0f       	add	r30, r16
    31de:	f1 1f       	adc	r31, r17
    31e0:	20 81       	ld	r18, Z
    31e2:	31 81       	ldd	r19, Z+1	; 0x01
    31e4:	ee 85       	ldd	r30, Y+14	; 0x0e
    31e6:	ff 85       	ldd	r31, Y+15	; 0x0f
    31e8:	82 17       	cp	r24, r18
    31ea:	93 07       	cpc	r25, r19
    31ec:	10 f4       	brcc	.+4      	; 0x31f2 <_ZN16PololuQTRSensors14readCalibratedEPjh+0xcc>
    31ee:	af 01       	movw	r20, r30
    31f0:	05 c0       	rjmp	.+10     	; 0x31fc <_ZN16PololuQTRSensors14readCalibratedEPjh+0xd6>
    31f2:	a9 01       	movw	r20, r18
    31f4:	4e 0f       	add	r20, r30
    31f6:	5f 1f       	adc	r21, r31
    31f8:	48 1b       	sub	r20, r24
    31fa:	59 0b       	sbc	r21, r25
    31fc:	ee 81       	ldd	r30, Y+6	; 0x06
    31fe:	ff 81       	ldd	r31, Y+7	; 0x07
    3200:	e0 0f       	add	r30, r16
    3202:	f1 1f       	adc	r31, r17
    3204:	60 81       	ld	r22, Z
    3206:	71 81       	ldd	r23, Z+1	; 0x01
    3208:	ea 81       	ldd	r30, Y+2	; 0x02
    320a:	fb 81       	ldd	r31, Y+3	; 0x03
    320c:	e0 0f       	add	r30, r16
    320e:	f1 1f       	adc	r31, r17
    3210:	80 81       	ld	r24, Z
    3212:	91 81       	ldd	r25, Z+1	; 0x01
    3214:	ee 85       	ldd	r30, Y+14	; 0x0e
    3216:	ff 85       	ldd	r31, Y+15	; 0x0f
    3218:	68 17       	cp	r22, r24
    321a:	79 07       	cpc	r23, r25
    321c:	10 f4       	brcc	.+4      	; 0x3222 <_ZN16PololuQTRSensors14readCalibratedEPjh+0xfc>
    321e:	9f 01       	movw	r18, r30
    3220:	05 c0       	rjmp	.+10     	; 0x322c <_ZN16PololuQTRSensors14readCalibratedEPjh+0x106>
    3222:	9c 01       	movw	r18, r24
    3224:	2e 0f       	add	r18, r30
    3226:	3f 1f       	adc	r19, r31
    3228:	26 1b       	sub	r18, r22
    322a:	37 0b       	sbc	r19, r23
    322c:	79 01       	movw	r14, r18
    322e:	e4 1a       	sub	r14, r20
    3230:	f5 0a       	sbc	r15, r21
    3232:	01 f1       	breq	.+64     	; 0x3274 <_ZN16PololuQTRSensors14readCalibratedEPjh+0x14e>
    3234:	f5 01       	movw	r30, r10
    3236:	60 81       	ld	r22, Z
    3238:	71 81       	ldd	r23, Z+1	; 0x01
    323a:	80 e0       	ldi	r24, 0x00	; 0
    323c:	90 e0       	ldi	r25, 0x00	; 0
    323e:	9a 01       	movw	r18, r20
    3240:	40 e0       	ldi	r20, 0x00	; 0
    3242:	50 e0       	ldi	r21, 0x00	; 0
    3244:	62 1b       	sub	r22, r18
    3246:	73 0b       	sbc	r23, r19
    3248:	84 0b       	sbc	r24, r20
    324a:	95 0b       	sbc	r25, r21
    324c:	28 ee       	ldi	r18, 0xE8	; 232
    324e:	33 e0       	ldi	r19, 0x03	; 3
    3250:	40 e0       	ldi	r20, 0x00	; 0
    3252:	50 e0       	ldi	r21, 0x00	; 0
    3254:	0e 94 b9 1b 	call	0x3772	; 0x3772 <__mulsi3>
    3258:	97 01       	movw	r18, r14
    325a:	40 e0       	ldi	r20, 0x00	; 0
    325c:	50 e0       	ldi	r21, 0x00	; 0
    325e:	0e 94 2d 1c 	call	0x385a	; 0x385a <__divmodsi4>
    3262:	c9 01       	movw	r24, r18
    3264:	f3 e0       	ldi	r31, 0x03	; 3
    3266:	29 3e       	cpi	r18, 0xE9	; 233
    3268:	3f 07       	cpc	r19, r31
    326a:	14 f0       	brlt	.+4      	; 0x3270 <_ZN16PololuQTRSensors14readCalibratedEPjh+0x14a>
    326c:	88 ee       	ldi	r24, 0xE8	; 232
    326e:	93 e0       	ldi	r25, 0x03	; 3
    3270:	97 ff       	sbrs	r25, 7
    3272:	02 c0       	rjmp	.+4      	; 0x3278 <_ZN16PololuQTRSensors14readCalibratedEPjh+0x152>
    3274:	80 e0       	ldi	r24, 0x00	; 0
    3276:	90 e0       	ldi	r25, 0x00	; 0
    3278:	f5 01       	movw	r30, r10
    327a:	81 93       	st	Z+, r24
    327c:	91 93       	st	Z+, r25
    327e:	5f 01       	movw	r10, r30
    3280:	08 94       	sec
    3282:	c1 1c       	adc	r12, r1
    3284:	d1 1c       	adc	r13, r1
    3286:	0e 5f       	subi	r16, 0xFE	; 254
    3288:	1f 4f       	sbci	r17, 0xFF	; 255
    328a:	88 85       	ldd	r24, Y+8	; 0x08
    328c:	90 e0       	ldi	r25, 0x00	; 0
    328e:	c8 16       	cp	r12, r24
    3290:	d9 06       	cpc	r13, r25
    3292:	0c f4       	brge	.+2      	; 0x3296 <_ZN16PololuQTRSensors14readCalibratedEPjh+0x170>
    3294:	7e cf       	rjmp	.-260    	; 0x3192 <_ZN16PololuQTRSensors14readCalibratedEPjh+0x6c>
    3296:	cd b7       	in	r28, 0x3d	; 61
    3298:	de b7       	in	r29, 0x3e	; 62
    329a:	eb e0       	ldi	r30, 0x0B	; 11
    329c:	0c 94 6b 1c 	jmp	0x38d6	; 0x38d6 <__epilogue_restores__+0xe>

000032a0 <_ZN16PololuQTRSensors8readLineEPjhh>:
    32a0:	a4 e0       	ldi	r26, 0x04	; 4
    32a2:	b0 e0       	ldi	r27, 0x00	; 0
    32a4:	e6 e5       	ldi	r30, 0x56	; 86
    32a6:	f9 e1       	ldi	r31, 0x19	; 25
    32a8:	0c 94 48 1c 	jmp	0x3890	; 0x3890 <__prologue_saves__>
    32ac:	8c 01       	movw	r16, r24
    32ae:	f6 2e       	mov	r15, r22
    32b0:	e7 2e       	mov	r14, r23
    32b2:	2a 83       	std	Y+2, r18	; 0x02
    32b4:	0e 94 93 18 	call	0x3126	; 0x3126 <_ZN16PololuQTRSensors14readCalibratedEPjh>
    32b8:	d8 01       	movw	r26, r16
    32ba:	18 96       	adiw	r26, 0x08	; 8
    32bc:	bc 91       	ld	r27, X
    32be:	b9 83       	std	Y+1, r27	; 0x01
    32c0:	2f 2d       	mov	r18, r15
    32c2:	3e 2d       	mov	r19, r14
    32c4:	c9 01       	movw	r24, r18
    32c6:	8c 01       	movw	r16, r24
    32c8:	55 24       	eor	r5, r5
    32ca:	44 24       	eor	r4, r4
    32cc:	66 24       	eor	r6, r6
    32ce:	77 24       	eor	r7, r7
    32d0:	43 01       	movw	r8, r6
    32d2:	1c 82       	std	Y+4, r1	; 0x04
    32d4:	1b 82       	std	Y+3, r1	; 0x03
    32d6:	aa 24       	eor	r10, r10
    32d8:	bb 24       	eor	r11, r11
    32da:	65 01       	movw	r12, r10
    32dc:	b8 ee       	ldi	r27, 0xE8	; 232
    32de:	2b 2e       	mov	r2, r27
    32e0:	b3 e0       	ldi	r27, 0x03	; 3
    32e2:	3b 2e       	mov	r3, r27
    32e4:	32 c0       	rjmp	.+100    	; 0x334a <_ZN16PololuQTRSensors8readLineEPjhh+0xaa>
    32e6:	f8 01       	movw	r30, r16
    32e8:	e0 80       	ld	r14, Z
    32ea:	f1 80       	ldd	r15, Z+1	; 0x01
    32ec:	fa 81       	ldd	r31, Y+2	; 0x02
    32ee:	ff 23       	and	r31, r31
    32f0:	21 f0       	breq	.+8      	; 0x32fa <_ZN16PololuQTRSensors8readLineEPjhh+0x5a>
    32f2:	91 01       	movw	r18, r2
    32f4:	2e 19       	sub	r18, r14
    32f6:	3f 09       	sbc	r19, r15
    32f8:	79 01       	movw	r14, r18
    32fa:	39 ec       	ldi	r19, 0xC9	; 201
    32fc:	e3 16       	cp	r14, r19
    32fe:	f1 04       	cpc	r15, r1
    3300:	14 f0       	brlt	.+4      	; 0x3306 <_ZN16PololuQTRSensors8readLineEPjhh+0x66>
    3302:	44 24       	eor	r4, r4
    3304:	43 94       	inc	r4
    3306:	83 e3       	ldi	r24, 0x33	; 51
    3308:	e8 16       	cp	r14, r24
    330a:	f1 04       	cpc	r15, r1
    330c:	9c f0       	brlt	.+38     	; 0x3334 <_ZN16PololuQTRSensors8readLineEPjhh+0x94>
    330e:	b7 01       	movw	r22, r14
    3310:	88 27       	eor	r24, r24
    3312:	77 fd       	sbrc	r23, 7
    3314:	80 95       	com	r24
    3316:	98 2f       	mov	r25, r24
    3318:	a6 01       	movw	r20, r12
    331a:	95 01       	movw	r18, r10
    331c:	0e 94 b9 1b 	call	0x3772	; 0x3772 <__mulsi3>
    3320:	66 0e       	add	r6, r22
    3322:	77 1e       	adc	r7, r23
    3324:	88 1e       	adc	r8, r24
    3326:	99 1e       	adc	r9, r25
    3328:	ab 81       	ldd	r26, Y+3	; 0x03
    332a:	bc 81       	ldd	r27, Y+4	; 0x04
    332c:	ae 0d       	add	r26, r14
    332e:	bf 1d       	adc	r27, r15
    3330:	bc 83       	std	Y+4, r27	; 0x04
    3332:	ab 83       	std	Y+3, r26	; 0x03
    3334:	53 94       	inc	r5
    3336:	88 ee       	ldi	r24, 0xE8	; 232
    3338:	93 e0       	ldi	r25, 0x03	; 3
    333a:	a0 e0       	ldi	r26, 0x00	; 0
    333c:	b0 e0       	ldi	r27, 0x00	; 0
    333e:	a8 0e       	add	r10, r24
    3340:	b9 1e       	adc	r11, r25
    3342:	ca 1e       	adc	r12, r26
    3344:	db 1e       	adc	r13, r27
    3346:	0e 5f       	subi	r16, 0xFE	; 254
    3348:	1f 4f       	sbci	r17, 0xFF	; 255
    334a:	99 81       	ldd	r25, Y+1	; 0x01
    334c:	59 16       	cp	r5, r25
    334e:	58 f2       	brcs	.-106    	; 0x32e6 <_ZN16PololuQTRSensors8readLineEPjhh+0x46>
    3350:	44 20       	and	r4, r4
    3352:	21 f5       	brne	.+72     	; 0x339c <_ZN16PololuQTRSensors8readLineEPjhh+0xfc>
    3354:	69 2f       	mov	r22, r25
    3356:	70 e0       	ldi	r23, 0x00	; 0
    3358:	84 ef       	ldi	r24, 0xF4	; 244
    335a:	91 e0       	ldi	r25, 0x01	; 1
    335c:	dc 01       	movw	r26, r24
    335e:	6a 9f       	mul	r22, r26
    3360:	c0 01       	movw	r24, r0
    3362:	6b 9f       	mul	r22, r27
    3364:	90 0d       	add	r25, r0
    3366:	7a 9f       	mul	r23, r26
    3368:	90 0d       	add	r25, r0
    336a:	11 24       	eor	r1, r1
    336c:	84 5f       	subi	r24, 0xF4	; 244
    336e:	91 40       	sbci	r25, 0x01	; 1
    3370:	20 91 99 02 	lds	r18, 0x0299
    3374:	30 91 9a 02 	lds	r19, 0x029A
    3378:	28 17       	cp	r18, r24
    337a:	39 07       	cpc	r19, r25
    337c:	1c f4       	brge	.+6      	; 0x3384 <_ZN16PololuQTRSensors8readLineEPjhh+0xe4>
    337e:	40 e0       	ldi	r20, 0x00	; 0
    3380:	50 e0       	ldi	r21, 0x00	; 0
    3382:	1a c0       	rjmp	.+52     	; 0x33b8 <_ZN16PololuQTRSensors8readLineEPjhh+0x118>
    3384:	88 ee       	ldi	r24, 0xE8	; 232
    3386:	93 e0       	ldi	r25, 0x03	; 3
    3388:	68 9f       	mul	r22, r24
    338a:	a0 01       	movw	r20, r0
    338c:	69 9f       	mul	r22, r25
    338e:	50 0d       	add	r21, r0
    3390:	78 9f       	mul	r23, r24
    3392:	50 0d       	add	r21, r0
    3394:	11 24       	eor	r1, r1
    3396:	48 5e       	subi	r20, 0xE8	; 232
    3398:	53 40       	sbci	r21, 0x03	; 3
    339a:	0e c0       	rjmp	.+28     	; 0x33b8 <_ZN16PololuQTRSensors8readLineEPjhh+0x118>
    339c:	eb 81       	ldd	r30, Y+3	; 0x03
    339e:	fc 81       	ldd	r31, Y+4	; 0x04
    33a0:	9f 01       	movw	r18, r30
    33a2:	40 e0       	ldi	r20, 0x00	; 0
    33a4:	50 e0       	ldi	r21, 0x00	; 0
    33a6:	c4 01       	movw	r24, r8
    33a8:	b3 01       	movw	r22, r6
    33aa:	0e 94 0b 1c 	call	0x3816	; 0x3816 <__udivmodsi4>
    33ae:	a9 01       	movw	r20, r18
    33b0:	30 93 9a 02 	sts	0x029A, r19
    33b4:	20 93 99 02 	sts	0x0299, r18
    33b8:	ca 01       	movw	r24, r20
    33ba:	24 96       	adiw	r28, 0x04	; 4
    33bc:	e2 e1       	ldi	r30, 0x12	; 18
    33be:	0c 94 64 1c 	jmp	0x38c8	; 0x38c8 <__epilogue_restores__>

000033c2 <qtr_read_line_white>:
    33c2:	9c 01       	movw	r18, r24
    33c4:	46 2f       	mov	r20, r22
    33c6:	80 91 9b 02 	lds	r24, 0x029B
    33ca:	90 91 9c 02 	lds	r25, 0x029C
    33ce:	b9 01       	movw	r22, r18
    33d0:	21 e0       	ldi	r18, 0x01	; 1
    33d2:	0e 94 50 19 	call	0x32a0	; 0x32a0 <_ZN16PololuQTRSensors8readLineEPjhh>
    33d6:	08 95       	ret

000033d8 <qtr_read_line>:
    33d8:	9c 01       	movw	r18, r24
    33da:	46 2f       	mov	r20, r22
    33dc:	80 91 9b 02 	lds	r24, 0x029B
    33e0:	90 91 9c 02 	lds	r25, 0x029C
    33e4:	b9 01       	movw	r22, r18
    33e6:	20 e0       	ldi	r18, 0x00	; 0
    33e8:	0e 94 50 19 	call	0x32a0	; 0x32a0 <_ZN16PololuQTRSensors8readLineEPjhh>
    33ec:	08 95       	ret

000033ee <qtr_read_calibrated>:
    33ee:	9c 01       	movw	r18, r24
    33f0:	46 2f       	mov	r20, r22
    33f2:	80 91 9b 02 	lds	r24, 0x029B
    33f6:	90 91 9c 02 	lds	r25, 0x029C
    33fa:	b9 01       	movw	r22, r18
    33fc:	0e 94 93 18 	call	0x3126	; 0x3126 <_ZN16PololuQTRSensors14readCalibratedEPjh>
    3400:	08 95       	ret

00003402 <qtr_read>:
    3402:	9c 01       	movw	r18, r24
    3404:	46 2f       	mov	r20, r22
    3406:	80 91 9b 02 	lds	r24, 0x029B
    340a:	90 91 9c 02 	lds	r25, 0x029C
    340e:	b9 01       	movw	r22, r18
    3410:	0e 94 23 18 	call	0x3046	; 0x3046 <_ZN16PololuQTRSensors4readEPjh>
    3414:	08 95       	ret

00003416 <_ZN16PololuQTRSensorsD1Ev>:
    3416:	cf 93       	push	r28
    3418:	df 93       	push	r29
    341a:	ec 01       	movw	r28, r24
    341c:	8a 81       	ldd	r24, Y+2	; 0x02
    341e:	9b 81       	ldd	r25, Y+3	; 0x03
    3420:	00 97       	sbiw	r24, 0x00	; 0
    3422:	11 f0       	breq	.+4      	; 0x3428 <_ZN16PololuQTRSensorsD1Ev+0x12>
    3424:	0e 94 32 1d 	call	0x3a64	; 0x3a64 <free>
    3428:	8e 81       	ldd	r24, Y+6	; 0x06
    342a:	9f 81       	ldd	r25, Y+7	; 0x07
    342c:	00 97       	sbiw	r24, 0x00	; 0
    342e:	11 f0       	breq	.+4      	; 0x3434 <_ZN16PololuQTRSensorsD1Ev+0x1e>
    3430:	0e 94 32 1d 	call	0x3a64	; 0x3a64 <free>
    3434:	88 81       	ld	r24, Y
    3436:	99 81       	ldd	r25, Y+1	; 0x01
    3438:	00 97       	sbiw	r24, 0x00	; 0
    343a:	11 f0       	breq	.+4      	; 0x3440 <_ZN16PololuQTRSensorsD1Ev+0x2a>
    343c:	0e 94 32 1d 	call	0x3a64	; 0x3a64 <free>
    3440:	8c 81       	ldd	r24, Y+4	; 0x04
    3442:	9d 81       	ldd	r25, Y+5	; 0x05
    3444:	00 97       	sbiw	r24, 0x00	; 0
    3446:	11 f0       	breq	.+4      	; 0x344c <_ZN16PololuQTRSensorsD1Ev+0x36>
    3448:	0e 94 32 1d 	call	0x3a64	; 0x3a64 <free>
    344c:	df 91       	pop	r29
    344e:	cf 91       	pop	r28
    3450:	08 95       	ret

00003452 <_ZN16PololuQTRSensorsD2Ev>:
    3452:	cf 93       	push	r28
    3454:	df 93       	push	r29
    3456:	ec 01       	movw	r28, r24
    3458:	8a 81       	ldd	r24, Y+2	; 0x02
    345a:	9b 81       	ldd	r25, Y+3	; 0x03
    345c:	00 97       	sbiw	r24, 0x00	; 0
    345e:	11 f0       	breq	.+4      	; 0x3464 <_ZN16PololuQTRSensorsD2Ev+0x12>
    3460:	0e 94 32 1d 	call	0x3a64	; 0x3a64 <free>
    3464:	8e 81       	ldd	r24, Y+6	; 0x06
    3466:	9f 81       	ldd	r25, Y+7	; 0x07
    3468:	00 97       	sbiw	r24, 0x00	; 0
    346a:	11 f0       	breq	.+4      	; 0x3470 <_ZN16PololuQTRSensorsD2Ev+0x1e>
    346c:	0e 94 32 1d 	call	0x3a64	; 0x3a64 <free>
    3470:	88 81       	ld	r24, Y
    3472:	99 81       	ldd	r25, Y+1	; 0x01
    3474:	00 97       	sbiw	r24, 0x00	; 0
    3476:	11 f0       	breq	.+4      	; 0x347c <_ZN16PololuQTRSensorsD2Ev+0x2a>
    3478:	0e 94 32 1d 	call	0x3a64	; 0x3a64 <free>
    347c:	8c 81       	ldd	r24, Y+4	; 0x04
    347e:	9d 81       	ldd	r25, Y+5	; 0x05
    3480:	00 97       	sbiw	r24, 0x00	; 0
    3482:	11 f0       	breq	.+4      	; 0x3488 <_ZN16PololuQTRSensorsD2Ev+0x36>
    3484:	0e 94 32 1d 	call	0x3a64	; 0x3a64 <free>
    3488:	df 91       	pop	r29
    348a:	cf 91       	pop	r28
    348c:	08 95       	ret

0000348e <_ZN16PololuQTRSensors16calibrateOnOrOffEPPjS1_h>:
    348e:	a3 e6       	ldi	r26, 0x63	; 99
    3490:	b0 e0       	ldi	r27, 0x00	; 0
    3492:	ed e4       	ldi	r30, 0x4D	; 77
    3494:	fa e1       	ldi	r31, 0x1A	; 26
    3496:	0c 94 48 1c 	jmp	0x3890	; 0x3890 <__prologue_saves__>
    349a:	7c 01       	movw	r14, r24
    349c:	5b 01       	movw	r10, r22
    349e:	6a 01       	movw	r12, r20
    34a0:	a2 96       	adiw	r28, 0x22	; 34
    34a2:	2f af       	std	Y+63, r18	; 0x3f
    34a4:	a2 97       	sbiw	r28, 0x22	; 34
    34a6:	da 01       	movw	r26, r20
    34a8:	8d 91       	ld	r24, X+
    34aa:	9c 91       	ld	r25, X
    34ac:	89 2b       	or	r24, r25
    34ae:	11 f5       	brne	.+68     	; 0x34f4 <_ZN16PololuQTRSensors16calibrateOnOrOffEPPjS1_h+0x66>
    34b0:	f7 01       	movw	r30, r14
    34b2:	80 85       	ldd	r24, Z+8	; 0x08
    34b4:	90 e0       	ldi	r25, 0x00	; 0
    34b6:	88 0f       	add	r24, r24
    34b8:	99 1f       	adc	r25, r25
    34ba:	0e 94 85 1c 	call	0x390a	; 0x390a <malloc>
    34be:	d6 01       	movw	r26, r12
    34c0:	8d 93       	st	X+, r24
    34c2:	9c 93       	st	X, r25
    34c4:	00 97       	sbiw	r24, 0x00	; 0
    34c6:	09 f4       	brne	.+2      	; 0x34ca <_ZN16PololuQTRSensors16calibrateOnOrOffEPPjS1_h+0x3c>
    34c8:	df c0       	rjmp	.+446    	; 0x3688 <_ZN16PololuQTRSensors16calibrateOnOrOffEPPjS1_h+0x1fa>
    34ca:	20 e0       	ldi	r18, 0x00	; 0
    34cc:	30 e0       	ldi	r19, 0x00	; 0
    34ce:	0c c0       	rjmp	.+24     	; 0x34e8 <_ZN16PololuQTRSensors16calibrateOnOrOffEPPjS1_h+0x5a>
    34d0:	c9 01       	movw	r24, r18
    34d2:	88 0f       	add	r24, r24
    34d4:	99 1f       	adc	r25, r25
    34d6:	d6 01       	movw	r26, r12
    34d8:	ed 91       	ld	r30, X+
    34da:	fc 91       	ld	r31, X
    34dc:	e8 0f       	add	r30, r24
    34de:	f9 1f       	adc	r31, r25
    34e0:	11 82       	std	Z+1, r1	; 0x01
    34e2:	10 82       	st	Z, r1
    34e4:	2f 5f       	subi	r18, 0xFF	; 255
    34e6:	3f 4f       	sbci	r19, 0xFF	; 255
    34e8:	f7 01       	movw	r30, r14
    34ea:	80 85       	ldd	r24, Z+8	; 0x08
    34ec:	90 e0       	ldi	r25, 0x00	; 0
    34ee:	28 17       	cp	r18, r24
    34f0:	39 07       	cpc	r19, r25
    34f2:	74 f3       	brlt	.-36     	; 0x34d0 <_ZN16PololuQTRSensors16calibrateOnOrOffEPPjS1_h+0x42>
    34f4:	d5 01       	movw	r26, r10
    34f6:	8d 91       	ld	r24, X+
    34f8:	9c 91       	ld	r25, X
    34fa:	89 2b       	or	r24, r25
    34fc:	89 f0       	breq	.+34     	; 0x3520 <_ZN16PololuQTRSensors16calibrateOnOrOffEPPjS1_h+0x92>
    34fe:	00 e0       	ldi	r16, 0x00	; 0
    3500:	10 e0       	ldi	r17, 0x00	; 0
    3502:	3e 01       	movw	r6, r28
    3504:	08 94       	sec
    3506:	61 1c       	adc	r6, r1
    3508:	71 1c       	adc	r7, r1
    350a:	41 e4       	ldi	r20, 0x41	; 65
    350c:	24 2e       	mov	r2, r20
    350e:	31 2c       	mov	r3, r1
    3510:	2c 0e       	add	r2, r28
    3512:	3d 1e       	adc	r3, r29
    3514:	31 e2       	ldi	r19, 0x21	; 33
    3516:	43 2e       	mov	r4, r19
    3518:	51 2c       	mov	r5, r1
    351a:	4c 0e       	add	r4, r28
    351c:	5d 1e       	adc	r5, r29
    351e:	28 c0       	rjmp	.+80     	; 0x3570 <_ZN16PololuQTRSensors16calibrateOnOrOffEPPjS1_h+0xe2>
    3520:	f7 01       	movw	r30, r14
    3522:	80 85       	ldd	r24, Z+8	; 0x08
    3524:	90 e0       	ldi	r25, 0x00	; 0
    3526:	88 0f       	add	r24, r24
    3528:	99 1f       	adc	r25, r25
    352a:	0e 94 85 1c 	call	0x390a	; 0x390a <malloc>
    352e:	d5 01       	movw	r26, r10
    3530:	8d 93       	st	X+, r24
    3532:	9c 93       	st	X, r25
    3534:	00 97       	sbiw	r24, 0x00	; 0
    3536:	09 f4       	brne	.+2      	; 0x353a <_ZN16PololuQTRSensors16calibrateOnOrOffEPPjS1_h+0xac>
    3538:	a7 c0       	rjmp	.+334    	; 0x3688 <_ZN16PololuQTRSensors16calibrateOnOrOffEPPjS1_h+0x1fa>
    353a:	20 e0       	ldi	r18, 0x00	; 0
    353c:	30 e0       	ldi	r19, 0x00	; 0
    353e:	11 c0       	rjmp	.+34     	; 0x3562 <_ZN16PololuQTRSensors16calibrateOnOrOffEPPjS1_h+0xd4>
    3540:	c9 01       	movw	r24, r18
    3542:	88 0f       	add	r24, r24
    3544:	99 1f       	adc	r25, r25
    3546:	d5 01       	movw	r26, r10
    3548:	ed 91       	ld	r30, X+
    354a:	fc 91       	ld	r31, X
    354c:	e8 0f       	add	r30, r24
    354e:	f9 1f       	adc	r31, r25
    3550:	d7 01       	movw	r26, r14
    3552:	1e 96       	adiw	r26, 0x0e	; 14
    3554:	8d 91       	ld	r24, X+
    3556:	9c 91       	ld	r25, X
    3558:	1f 97       	sbiw	r26, 0x0f	; 15
    355a:	91 83       	std	Z+1, r25	; 0x01
    355c:	80 83       	st	Z, r24
    355e:	2f 5f       	subi	r18, 0xFF	; 255
    3560:	3f 4f       	sbci	r19, 0xFF	; 255
    3562:	f7 01       	movw	r30, r14
    3564:	80 85       	ldd	r24, Z+8	; 0x08
    3566:	90 e0       	ldi	r25, 0x00	; 0
    3568:	28 17       	cp	r18, r24
    356a:	39 07       	cpc	r19, r25
    356c:	4c f3       	brlt	.-46     	; 0x3540 <_ZN16PololuQTRSensors16calibrateOnOrOffEPPjS1_h+0xb2>
    356e:	c7 cf       	rjmp	.-114    	; 0x34fe <_ZN16PololuQTRSensors16calibrateOnOrOffEPPjS1_h+0x70>
    3570:	c7 01       	movw	r24, r14
    3572:	b3 01       	movw	r22, r6
    3574:	a2 96       	adiw	r28, 0x22	; 34
    3576:	4f ad       	ldd	r20, Y+63	; 0x3f
    3578:	a2 97       	sbiw	r28, 0x22	; 34
    357a:	0e 94 23 18 	call	0x3046	; 0x3046 <_ZN16PololuQTRSensors4readEPjh>
    357e:	d7 01       	movw	r26, r14
    3580:	18 96       	adiw	r26, 0x08	; 8
    3582:	8c 91       	ld	r24, X
    3584:	88 2e       	mov	r8, r24
    3586:	99 24       	eor	r9, r9
    3588:	a1 01       	movw	r20, r2
    358a:	f3 01       	movw	r30, r6
    358c:	a4 96       	adiw	r28, 0x24	; 36
    358e:	5f ae       	std	Y+63, r5	; 0x3f
    3590:	4e ae       	std	Y+62, r4	; 0x3e
    3592:	a4 97       	sbiw	r28, 0x24	; 36
    3594:	60 e0       	ldi	r22, 0x00	; 0
    3596:	70 e0       	ldi	r23, 0x00	; 0
    3598:	34 c0       	rjmp	.+104    	; 0x3602 <_ZN16PololuQTRSensors16calibrateOnOrOffEPPjS1_h+0x174>
    359a:	01 15       	cp	r16, r1
    359c:	11 05       	cpc	r17, r1
    359e:	59 f0       	breq	.+22     	; 0x35b6 <_ZN16PololuQTRSensors16calibrateOnOrOffEPPjS1_h+0x128>
    35a0:	a4 96       	adiw	r28, 0x24	; 36
    35a2:	ae ad       	ldd	r26, Y+62	; 0x3e
    35a4:	bf ad       	ldd	r27, Y+63	; 0x3f
    35a6:	a4 97       	sbiw	r28, 0x24	; 36
    35a8:	2d 91       	ld	r18, X+
    35aa:	3c 91       	ld	r19, X
    35ac:	80 81       	ld	r24, Z
    35ae:	91 81       	ldd	r25, Z+1	; 0x01
    35b0:	28 17       	cp	r18, r24
    35b2:	39 07       	cpc	r19, r25
    35b4:	58 f4       	brcc	.+22     	; 0x35cc <_ZN16PololuQTRSensors16calibrateOnOrOffEPPjS1_h+0x13e>
    35b6:	80 81       	ld	r24, Z
    35b8:	91 81       	ldd	r25, Z+1	; 0x01
    35ba:	a4 96       	adiw	r28, 0x24	; 36
    35bc:	ae ad       	ldd	r26, Y+62	; 0x3e
    35be:	bf ad       	ldd	r27, Y+63	; 0x3f
    35c0:	a4 97       	sbiw	r28, 0x24	; 36
    35c2:	8d 93       	st	X+, r24
    35c4:	9c 93       	st	X, r25
    35c6:	01 15       	cp	r16, r1
    35c8:	11 05       	cpc	r17, r1
    35ca:	41 f0       	breq	.+16     	; 0x35dc <_ZN16PololuQTRSensors16calibrateOnOrOffEPPjS1_h+0x14e>
    35cc:	da 01       	movw	r26, r20
    35ce:	2d 91       	ld	r18, X+
    35d0:	3c 91       	ld	r19, X
    35d2:	80 81       	ld	r24, Z
    35d4:	91 81       	ldd	r25, Z+1	; 0x01
    35d6:	82 17       	cp	r24, r18
    35d8:	93 07       	cpc	r25, r19
    35da:	28 f4       	brcc	.+10     	; 0x35e6 <_ZN16PololuQTRSensors16calibrateOnOrOffEPPjS1_h+0x158>
    35dc:	80 81       	ld	r24, Z
    35de:	91 81       	ldd	r25, Z+1	; 0x01
    35e0:	da 01       	movw	r26, r20
    35e2:	8d 93       	st	X+, r24
    35e4:	9c 93       	st	X, r25
    35e6:	6f 5f       	subi	r22, 0xFF	; 255
    35e8:	7f 4f       	sbci	r23, 0xFF	; 255
    35ea:	4e 5f       	subi	r20, 0xFE	; 254
    35ec:	5f 4f       	sbci	r21, 0xFF	; 255
    35ee:	32 96       	adiw	r30, 0x02	; 2
    35f0:	a4 96       	adiw	r28, 0x24	; 36
    35f2:	8e ad       	ldd	r24, Y+62	; 0x3e
    35f4:	9f ad       	ldd	r25, Y+63	; 0x3f
    35f6:	a4 97       	sbiw	r28, 0x24	; 36
    35f8:	02 96       	adiw	r24, 0x02	; 2
    35fa:	a4 96       	adiw	r28, 0x24	; 36
    35fc:	9f af       	std	Y+63, r25	; 0x3f
    35fe:	8e af       	std	Y+62, r24	; 0x3e
    3600:	a4 97       	sbiw	r28, 0x24	; 36
    3602:	68 15       	cp	r22, r8
    3604:	79 05       	cpc	r23, r9
    3606:	4c f2       	brlt	.-110    	; 0x359a <_ZN16PololuQTRSensors16calibrateOnOrOffEPPjS1_h+0x10c>
    3608:	0f 5f       	subi	r16, 0xFF	; 255
    360a:	1f 4f       	sbci	r17, 0xFF	; 255
    360c:	0a 30       	cpi	r16, 0x0A	; 10
    360e:	11 05       	cpc	r17, r1
    3610:	09 f0       	breq	.+2      	; 0x3614 <_ZN16PololuQTRSensors16calibrateOnOrOffEPPjS1_h+0x186>
    3612:	ae cf       	rjmp	.-164    	; 0x3570 <_ZN16PololuQTRSensors16calibrateOnOrOffEPPjS1_h+0xe2>
    3614:	40 e0       	ldi	r20, 0x00	; 0
    3616:	50 e0       	ldi	r21, 0x00	; 0
    3618:	20 e0       	ldi	r18, 0x00	; 0
    361a:	30 e0       	ldi	r19, 0x00	; 0
    361c:	8e 01       	movw	r16, r28
    361e:	0f 5b       	subi	r16, 0xBF	; 191
    3620:	1f 4f       	sbci	r17, 0xFF	; 255
    3622:	be 01       	movw	r22, r28
    3624:	6f 5d       	subi	r22, 0xDF	; 223
    3626:	7f 4f       	sbci	r23, 0xFF	; 255
    3628:	28 c0       	rjmp	.+80     	; 0x367a <_ZN16PololuQTRSensors16calibrateOnOrOffEPPjS1_h+0x1ec>
    362a:	f8 01       	movw	r30, r16
    362c:	e2 0f       	add	r30, r18
    362e:	f3 1f       	adc	r31, r19
    3630:	80 80       	ld	r8, Z
    3632:	91 80       	ldd	r9, Z+1	; 0x01
    3634:	f6 01       	movw	r30, r12
    3636:	a0 81       	ld	r26, Z
    3638:	b1 81       	ldd	r27, Z+1	; 0x01
    363a:	a2 0f       	add	r26, r18
    363c:	b3 1f       	adc	r27, r19
    363e:	8d 91       	ld	r24, X+
    3640:	9c 91       	ld	r25, X
    3642:	11 97       	sbiw	r26, 0x01	; 1
    3644:	88 15       	cp	r24, r8
    3646:	99 05       	cpc	r25, r9
    3648:	10 f4       	brcc	.+4      	; 0x364e <_ZN16PololuQTRSensors16calibrateOnOrOffEPPjS1_h+0x1c0>
    364a:	8d 92       	st	X+, r8
    364c:	9c 92       	st	X, r9
    364e:	fb 01       	movw	r30, r22
    3650:	e2 0f       	add	r30, r18
    3652:	f3 1f       	adc	r31, r19
    3654:	80 80       	ld	r8, Z
    3656:	91 80       	ldd	r9, Z+1	; 0x01
    3658:	f5 01       	movw	r30, r10
    365a:	a0 81       	ld	r26, Z
    365c:	b1 81       	ldd	r27, Z+1	; 0x01
    365e:	a2 0f       	add	r26, r18
    3660:	b3 1f       	adc	r27, r19
    3662:	8d 91       	ld	r24, X+
    3664:	9c 91       	ld	r25, X
    3666:	11 97       	sbiw	r26, 0x01	; 1
    3668:	88 16       	cp	r8, r24
    366a:	99 06       	cpc	r9, r25
    366c:	10 f4       	brcc	.+4      	; 0x3672 <_ZN16PololuQTRSensors16calibrateOnOrOffEPPjS1_h+0x1e4>
    366e:	8d 92       	st	X+, r8
    3670:	9c 92       	st	X, r9
    3672:	4f 5f       	subi	r20, 0xFF	; 255
    3674:	5f 4f       	sbci	r21, 0xFF	; 255
    3676:	2e 5f       	subi	r18, 0xFE	; 254
    3678:	3f 4f       	sbci	r19, 0xFF	; 255
    367a:	d7 01       	movw	r26, r14
    367c:	18 96       	adiw	r26, 0x08	; 8
    367e:	8c 91       	ld	r24, X
    3680:	90 e0       	ldi	r25, 0x00	; 0
    3682:	48 17       	cp	r20, r24
    3684:	59 07       	cpc	r21, r25
    3686:	8c f2       	brlt	.-94     	; 0x362a <_ZN16PololuQTRSensors16calibrateOnOrOffEPPjS1_h+0x19c>
    3688:	cd 59       	subi	r28, 0x9D	; 157
    368a:	df 4f       	sbci	r29, 0xFF	; 255
    368c:	e2 e1       	ldi	r30, 0x12	; 18
    368e:	0c 94 64 1c 	jmp	0x38c8	; 0x38c8 <__epilogue_restores__>

00003692 <_ZN16PololuQTRSensors9calibrateEh>:
    3692:	1f 93       	push	r17
    3694:	cf 93       	push	r28
    3696:	df 93       	push	r29
    3698:	ec 01       	movw	r28, r24
    369a:	16 2f       	mov	r17, r22
    369c:	86 2f       	mov	r24, r22
    369e:	81 50       	subi	r24, 0x01	; 1
    36a0:	82 30       	cpi	r24, 0x02	; 2
    36a2:	40 f4       	brcc	.+16     	; 0x36b4 <_ZN16PololuQTRSensors9calibrateEh+0x22>
    36a4:	ae 01       	movw	r20, r28
    36a6:	4e 5f       	subi	r20, 0xFE	; 254
    36a8:	5f 4f       	sbci	r21, 0xFF	; 255
    36aa:	ce 01       	movw	r24, r28
    36ac:	be 01       	movw	r22, r28
    36ae:	21 e0       	ldi	r18, 0x01	; 1
    36b0:	0e 94 47 1a 	call	0x348e	; 0x348e <_ZN16PololuQTRSensors16calibrateOnOrOffEPPjS1_h>
    36b4:	12 30       	cpi	r17, 0x02	; 2
    36b6:	11 f0       	breq	.+4      	; 0x36bc <_ZN16PololuQTRSensors9calibrateEh+0x2a>
    36b8:	11 23       	and	r17, r17
    36ba:	49 f4       	brne	.+18     	; 0x36ce <_ZN16PololuQTRSensors9calibrateEh+0x3c>
    36bc:	ae 01       	movw	r20, r28
    36be:	4a 5f       	subi	r20, 0xFA	; 250
    36c0:	5f 4f       	sbci	r21, 0xFF	; 255
    36c2:	ce 01       	movw	r24, r28
    36c4:	24 96       	adiw	r28, 0x04	; 4
    36c6:	be 01       	movw	r22, r28
    36c8:	20 e0       	ldi	r18, 0x00	; 0
    36ca:	0e 94 47 1a 	call	0x348e	; 0x348e <_ZN16PololuQTRSensors16calibrateOnOrOffEPPjS1_h>
    36ce:	df 91       	pop	r29
    36d0:	cf 91       	pop	r28
    36d2:	1f 91       	pop	r17
    36d4:	08 95       	ret

000036d6 <qtr_calibrate>:
    36d6:	68 2f       	mov	r22, r24
    36d8:	80 91 9b 02 	lds	r24, 0x029B
    36dc:	90 91 9c 02 	lds	r25, 0x029C
    36e0:	0e 94 49 1b 	call	0x3692	; 0x3692 <_ZN16PololuQTRSensors9calibrateEh>
    36e4:	08 95       	ret

000036e6 <qtr_analog_init>:
    36e6:	a0 e0       	ldi	r26, 0x00	; 0
    36e8:	b0 e0       	ldi	r27, 0x00	; 0
    36ea:	e9 e7       	ldi	r30, 0x79	; 121
    36ec:	fb e1       	ldi	r31, 0x1B	; 27
    36ee:	0c 94 53 1c 	jmp	0x38a6	; 0x38a6 <__prologue_saves__+0x16>
    36f2:	8c 01       	movw	r16, r24
    36f4:	f6 2e       	mov	r15, r22
    36f6:	e4 2e       	mov	r14, r20
    36f8:	d2 2e       	mov	r13, r18
    36fa:	83 e2       	ldi	r24, 0x23	; 35
    36fc:	90 e0       	ldi	r25, 0x00	; 0
    36fe:	0e 94 85 1c 	call	0x390a	; 0x390a <malloc>
    3702:	ec 01       	movw	r28, r24
    3704:	00 97       	sbiw	r24, 0x00	; 0
    3706:	11 f4       	brne	.+4      	; 0x370c <qtr_analog_init+0x26>
    3708:	80 e0       	ldi	r24, 0x00	; 0
    370a:	0b c0       	rjmp	.+22     	; 0x3722 <qtr_analog_init+0x3c>
    370c:	b8 01       	movw	r22, r16
    370e:	4f 2d       	mov	r20, r15
    3710:	2e 2d       	mov	r18, r14
    3712:	0d 2d       	mov	r16, r13
    3714:	0e 94 67 17 	call	0x2ece	; 0x2ece <_ZN22PololuQTRSensorsAnalog4initEPhhhh>
    3718:	d0 93 9c 02 	sts	0x029C, r29
    371c:	c0 93 9b 02 	sts	0x029B, r28
    3720:	81 e0       	ldi	r24, 0x01	; 1
    3722:	cd b7       	in	r28, 0x3d	; 61
    3724:	de b7       	in	r29, 0x3e	; 62
    3726:	e7 e0       	ldi	r30, 0x07	; 7
    3728:	0c 94 6f 1c 	jmp	0x38de	; 0x38de <__epilogue_restores__+0x16>

0000372c <qtr_rc_init>:
    372c:	a0 e0       	ldi	r26, 0x00	; 0
    372e:	b0 e0       	ldi	r27, 0x00	; 0
    3730:	ec e9       	ldi	r30, 0x9C	; 156
    3732:	fb e1       	ldi	r31, 0x1B	; 27
    3734:	0c 94 52 1c 	jmp	0x38a4	; 0x38a4 <__prologue_saves__+0x14>
    3738:	8c 01       	movw	r16, r24
    373a:	d6 2e       	mov	r13, r22
    373c:	7a 01       	movw	r14, r20
    373e:	c2 2e       	mov	r12, r18
    3740:	84 e4       	ldi	r24, 0x44	; 68
    3742:	90 e0       	ldi	r25, 0x00	; 0
    3744:	0e 94 85 1c 	call	0x390a	; 0x390a <malloc>
    3748:	ec 01       	movw	r28, r24
    374a:	00 97       	sbiw	r24, 0x00	; 0
    374c:	11 f4       	brne	.+4      	; 0x3752 <qtr_rc_init+0x26>
    374e:	80 e0       	ldi	r24, 0x00	; 0
    3750:	0b c0       	rjmp	.+22     	; 0x3768 <qtr_rc_init+0x3c>
    3752:	b8 01       	movw	r22, r16
    3754:	4d 2d       	mov	r20, r13
    3756:	97 01       	movw	r18, r14
    3758:	0c 2d       	mov	r16, r12
    375a:	0e 94 3e 16 	call	0x2c7c	; 0x2c7c <_ZN18PololuQTRSensorsRC4initEPhhjh>
    375e:	d0 93 9c 02 	sts	0x029C, r29
    3762:	c0 93 9b 02 	sts	0x029B, r28
    3766:	81 e0       	ldi	r24, 0x01	; 1
    3768:	cd b7       	in	r28, 0x3d	; 61
    376a:	de b7       	in	r29, 0x3e	; 62
    376c:	e8 e0       	ldi	r30, 0x08	; 8
    376e:	0c 94 6e 1c 	jmp	0x38dc	; 0x38dc <__epilogue_restores__+0x14>

00003772 <__mulsi3>:
    3772:	62 9f       	mul	r22, r18
    3774:	d0 01       	movw	r26, r0
    3776:	73 9f       	mul	r23, r19
    3778:	f0 01       	movw	r30, r0
    377a:	82 9f       	mul	r24, r18
    377c:	e0 0d       	add	r30, r0
    377e:	f1 1d       	adc	r31, r1
    3780:	64 9f       	mul	r22, r20
    3782:	e0 0d       	add	r30, r0
    3784:	f1 1d       	adc	r31, r1
    3786:	92 9f       	mul	r25, r18
    3788:	f0 0d       	add	r31, r0
    378a:	83 9f       	mul	r24, r19
    378c:	f0 0d       	add	r31, r0
    378e:	74 9f       	mul	r23, r20
    3790:	f0 0d       	add	r31, r0
    3792:	65 9f       	mul	r22, r21
    3794:	f0 0d       	add	r31, r0
    3796:	99 27       	eor	r25, r25
    3798:	72 9f       	mul	r23, r18
    379a:	b0 0d       	add	r27, r0
    379c:	e1 1d       	adc	r30, r1
    379e:	f9 1f       	adc	r31, r25
    37a0:	63 9f       	mul	r22, r19
    37a2:	b0 0d       	add	r27, r0
    37a4:	e1 1d       	adc	r30, r1
    37a6:	f9 1f       	adc	r31, r25
    37a8:	bd 01       	movw	r22, r26
    37aa:	cf 01       	movw	r24, r30
    37ac:	11 24       	eor	r1, r1
    37ae:	08 95       	ret

000037b0 <__udivmodqi4>:
    37b0:	99 1b       	sub	r25, r25
    37b2:	79 e0       	ldi	r23, 0x09	; 9
    37b4:	04 c0       	rjmp	.+8      	; 0x37be <__udivmodqi4_ep>

000037b6 <__udivmodqi4_loop>:
    37b6:	99 1f       	adc	r25, r25
    37b8:	96 17       	cp	r25, r22
    37ba:	08 f0       	brcs	.+2      	; 0x37be <__udivmodqi4_ep>
    37bc:	96 1b       	sub	r25, r22

000037be <__udivmodqi4_ep>:
    37be:	88 1f       	adc	r24, r24
    37c0:	7a 95       	dec	r23
    37c2:	c9 f7       	brne	.-14     	; 0x37b6 <__udivmodqi4_loop>
    37c4:	80 95       	com	r24
    37c6:	08 95       	ret

000037c8 <__udivmodhi4>:
    37c8:	aa 1b       	sub	r26, r26
    37ca:	bb 1b       	sub	r27, r27
    37cc:	51 e1       	ldi	r21, 0x11	; 17
    37ce:	07 c0       	rjmp	.+14     	; 0x37de <__udivmodhi4_ep>

000037d0 <__udivmodhi4_loop>:
    37d0:	aa 1f       	adc	r26, r26
    37d2:	bb 1f       	adc	r27, r27
    37d4:	a6 17       	cp	r26, r22
    37d6:	b7 07       	cpc	r27, r23
    37d8:	10 f0       	brcs	.+4      	; 0x37de <__udivmodhi4_ep>
    37da:	a6 1b       	sub	r26, r22
    37dc:	b7 0b       	sbc	r27, r23

000037de <__udivmodhi4_ep>:
    37de:	88 1f       	adc	r24, r24
    37e0:	99 1f       	adc	r25, r25
    37e2:	5a 95       	dec	r21
    37e4:	a9 f7       	brne	.-22     	; 0x37d0 <__udivmodhi4_loop>
    37e6:	80 95       	com	r24
    37e8:	90 95       	com	r25
    37ea:	bc 01       	movw	r22, r24
    37ec:	cd 01       	movw	r24, r26
    37ee:	08 95       	ret

000037f0 <__divmodhi4>:
    37f0:	97 fb       	bst	r25, 7
    37f2:	09 2e       	mov	r0, r25
    37f4:	07 26       	eor	r0, r23
    37f6:	0a d0       	rcall	.+20     	; 0x380c <__divmodhi4_neg1>
    37f8:	77 fd       	sbrc	r23, 7
    37fa:	04 d0       	rcall	.+8      	; 0x3804 <__divmodhi4_neg2>
    37fc:	e5 df       	rcall	.-54     	; 0x37c8 <__udivmodhi4>
    37fe:	06 d0       	rcall	.+12     	; 0x380c <__divmodhi4_neg1>
    3800:	00 20       	and	r0, r0
    3802:	1a f4       	brpl	.+6      	; 0x380a <__divmodhi4_exit>

00003804 <__divmodhi4_neg2>:
    3804:	70 95       	com	r23
    3806:	61 95       	neg	r22
    3808:	7f 4f       	sbci	r23, 0xFF	; 255

0000380a <__divmodhi4_exit>:
    380a:	08 95       	ret

0000380c <__divmodhi4_neg1>:
    380c:	f6 f7       	brtc	.-4      	; 0x380a <__divmodhi4_exit>
    380e:	90 95       	com	r25
    3810:	81 95       	neg	r24
    3812:	9f 4f       	sbci	r25, 0xFF	; 255
    3814:	08 95       	ret

00003816 <__udivmodsi4>:
    3816:	a1 e2       	ldi	r26, 0x21	; 33
    3818:	1a 2e       	mov	r1, r26
    381a:	aa 1b       	sub	r26, r26
    381c:	bb 1b       	sub	r27, r27
    381e:	fd 01       	movw	r30, r26
    3820:	0d c0       	rjmp	.+26     	; 0x383c <__udivmodsi4_ep>

00003822 <__udivmodsi4_loop>:
    3822:	aa 1f       	adc	r26, r26
    3824:	bb 1f       	adc	r27, r27
    3826:	ee 1f       	adc	r30, r30
    3828:	ff 1f       	adc	r31, r31
    382a:	a2 17       	cp	r26, r18
    382c:	b3 07       	cpc	r27, r19
    382e:	e4 07       	cpc	r30, r20
    3830:	f5 07       	cpc	r31, r21
    3832:	20 f0       	brcs	.+8      	; 0x383c <__udivmodsi4_ep>
    3834:	a2 1b       	sub	r26, r18
    3836:	b3 0b       	sbc	r27, r19
    3838:	e4 0b       	sbc	r30, r20
    383a:	f5 0b       	sbc	r31, r21

0000383c <__udivmodsi4_ep>:
    383c:	66 1f       	adc	r22, r22
    383e:	77 1f       	adc	r23, r23
    3840:	88 1f       	adc	r24, r24
    3842:	99 1f       	adc	r25, r25
    3844:	1a 94       	dec	r1
    3846:	69 f7       	brne	.-38     	; 0x3822 <__udivmodsi4_loop>
    3848:	60 95       	com	r22
    384a:	70 95       	com	r23
    384c:	80 95       	com	r24
    384e:	90 95       	com	r25
    3850:	9b 01       	movw	r18, r22
    3852:	ac 01       	movw	r20, r24
    3854:	bd 01       	movw	r22, r26
    3856:	cf 01       	movw	r24, r30
    3858:	08 95       	ret

0000385a <__divmodsi4>:
    385a:	97 fb       	bst	r25, 7
    385c:	09 2e       	mov	r0, r25
    385e:	05 26       	eor	r0, r21
    3860:	0e d0       	rcall	.+28     	; 0x387e <__divmodsi4_neg1>
    3862:	57 fd       	sbrc	r21, 7
    3864:	04 d0       	rcall	.+8      	; 0x386e <__divmodsi4_neg2>
    3866:	d7 df       	rcall	.-82     	; 0x3816 <__udivmodsi4>
    3868:	0a d0       	rcall	.+20     	; 0x387e <__divmodsi4_neg1>
    386a:	00 1c       	adc	r0, r0
    386c:	38 f4       	brcc	.+14     	; 0x387c <__divmodsi4_exit>

0000386e <__divmodsi4_neg2>:
    386e:	50 95       	com	r21
    3870:	40 95       	com	r20
    3872:	30 95       	com	r19
    3874:	21 95       	neg	r18
    3876:	3f 4f       	sbci	r19, 0xFF	; 255
    3878:	4f 4f       	sbci	r20, 0xFF	; 255
    387a:	5f 4f       	sbci	r21, 0xFF	; 255

0000387c <__divmodsi4_exit>:
    387c:	08 95       	ret

0000387e <__divmodsi4_neg1>:
    387e:	f6 f7       	brtc	.-4      	; 0x387c <__divmodsi4_exit>
    3880:	90 95       	com	r25
    3882:	80 95       	com	r24
    3884:	70 95       	com	r23
    3886:	61 95       	neg	r22
    3888:	7f 4f       	sbci	r23, 0xFF	; 255
    388a:	8f 4f       	sbci	r24, 0xFF	; 255
    388c:	9f 4f       	sbci	r25, 0xFF	; 255
    388e:	08 95       	ret

00003890 <__prologue_saves__>:
    3890:	2f 92       	push	r2
    3892:	3f 92       	push	r3
    3894:	4f 92       	push	r4
    3896:	5f 92       	push	r5
    3898:	6f 92       	push	r6
    389a:	7f 92       	push	r7
    389c:	8f 92       	push	r8
    389e:	9f 92       	push	r9
    38a0:	af 92       	push	r10
    38a2:	bf 92       	push	r11
    38a4:	cf 92       	push	r12
    38a6:	df 92       	push	r13
    38a8:	ef 92       	push	r14
    38aa:	ff 92       	push	r15
    38ac:	0f 93       	push	r16
    38ae:	1f 93       	push	r17
    38b0:	cf 93       	push	r28
    38b2:	df 93       	push	r29
    38b4:	cd b7       	in	r28, 0x3d	; 61
    38b6:	de b7       	in	r29, 0x3e	; 62
    38b8:	ca 1b       	sub	r28, r26
    38ba:	db 0b       	sbc	r29, r27
    38bc:	0f b6       	in	r0, 0x3f	; 63
    38be:	f8 94       	cli
    38c0:	de bf       	out	0x3e, r29	; 62
    38c2:	0f be       	out	0x3f, r0	; 63
    38c4:	cd bf       	out	0x3d, r28	; 61
    38c6:	09 94       	ijmp

000038c8 <__epilogue_restores__>:
    38c8:	2a 88       	ldd	r2, Y+18	; 0x12
    38ca:	39 88       	ldd	r3, Y+17	; 0x11
    38cc:	48 88       	ldd	r4, Y+16	; 0x10
    38ce:	5f 84       	ldd	r5, Y+15	; 0x0f
    38d0:	6e 84       	ldd	r6, Y+14	; 0x0e
    38d2:	7d 84       	ldd	r7, Y+13	; 0x0d
    38d4:	8c 84       	ldd	r8, Y+12	; 0x0c
    38d6:	9b 84       	ldd	r9, Y+11	; 0x0b
    38d8:	aa 84       	ldd	r10, Y+10	; 0x0a
    38da:	b9 84       	ldd	r11, Y+9	; 0x09
    38dc:	c8 84       	ldd	r12, Y+8	; 0x08
    38de:	df 80       	ldd	r13, Y+7	; 0x07
    38e0:	ee 80       	ldd	r14, Y+6	; 0x06
    38e2:	fd 80       	ldd	r15, Y+5	; 0x05
    38e4:	0c 81       	ldd	r16, Y+4	; 0x04
    38e6:	1b 81       	ldd	r17, Y+3	; 0x03
    38e8:	aa 81       	ldd	r26, Y+2	; 0x02
    38ea:	b9 81       	ldd	r27, Y+1	; 0x01
    38ec:	ce 0f       	add	r28, r30
    38ee:	d1 1d       	adc	r29, r1
    38f0:	0f b6       	in	r0, 0x3f	; 63
    38f2:	f8 94       	cli
    38f4:	de bf       	out	0x3e, r29	; 62
    38f6:	0f be       	out	0x3f, r0	; 63
    38f8:	cd bf       	out	0x3d, r28	; 61
    38fa:	ed 01       	movw	r28, r26
    38fc:	08 95       	ret

000038fe <__tablejump2__>:
    38fe:	ee 0f       	add	r30, r30
    3900:	ff 1f       	adc	r31, r31

00003902 <__tablejump__>:
    3902:	05 90       	lpm	r0, Z+
    3904:	f4 91       	lpm	r31, Z+
    3906:	e0 2d       	mov	r30, r0
    3908:	09 94       	ijmp

0000390a <malloc>:
    390a:	cf 93       	push	r28
    390c:	df 93       	push	r29
    390e:	bc 01       	movw	r22, r24
    3910:	82 30       	cpi	r24, 0x02	; 2
    3912:	91 05       	cpc	r25, r1
    3914:	10 f4       	brcc	.+4      	; 0x391a <malloc+0x10>
    3916:	62 e0       	ldi	r22, 0x02	; 2
    3918:	70 e0       	ldi	r23, 0x00	; 0
    391a:	a0 91 9f 02 	lds	r26, 0x029F
    391e:	b0 91 a0 02 	lds	r27, 0x02A0
    3922:	ed 01       	movw	r28, r26
    3924:	e0 e0       	ldi	r30, 0x00	; 0
    3926:	f0 e0       	ldi	r31, 0x00	; 0
    3928:	40 e0       	ldi	r20, 0x00	; 0
    392a:	50 e0       	ldi	r21, 0x00	; 0
    392c:	21 c0       	rjmp	.+66     	; 0x3970 <malloc+0x66>
    392e:	88 81       	ld	r24, Y
    3930:	99 81       	ldd	r25, Y+1	; 0x01
    3932:	86 17       	cp	r24, r22
    3934:	97 07       	cpc	r25, r23
    3936:	69 f4       	brne	.+26     	; 0x3952 <malloc+0x48>
    3938:	8a 81       	ldd	r24, Y+2	; 0x02
    393a:	9b 81       	ldd	r25, Y+3	; 0x03
    393c:	30 97       	sbiw	r30, 0x00	; 0
    393e:	19 f0       	breq	.+6      	; 0x3946 <malloc+0x3c>
    3940:	93 83       	std	Z+3, r25	; 0x03
    3942:	82 83       	std	Z+2, r24	; 0x02
    3944:	04 c0       	rjmp	.+8      	; 0x394e <malloc+0x44>
    3946:	90 93 a0 02 	sts	0x02A0, r25
    394a:	80 93 9f 02 	sts	0x029F, r24
    394e:	fe 01       	movw	r30, r28
    3950:	34 c0       	rjmp	.+104    	; 0x39ba <malloc+0xb0>
    3952:	68 17       	cp	r22, r24
    3954:	79 07       	cpc	r23, r25
    3956:	38 f4       	brcc	.+14     	; 0x3966 <malloc+0x5c>
    3958:	41 15       	cp	r20, r1
    395a:	51 05       	cpc	r21, r1
    395c:	19 f0       	breq	.+6      	; 0x3964 <malloc+0x5a>
    395e:	84 17       	cp	r24, r20
    3960:	95 07       	cpc	r25, r21
    3962:	08 f4       	brcc	.+2      	; 0x3966 <malloc+0x5c>
    3964:	ac 01       	movw	r20, r24
    3966:	fe 01       	movw	r30, r28
    3968:	8a 81       	ldd	r24, Y+2	; 0x02
    396a:	9b 81       	ldd	r25, Y+3	; 0x03
    396c:	9c 01       	movw	r18, r24
    396e:	e9 01       	movw	r28, r18
    3970:	20 97       	sbiw	r28, 0x00	; 0
    3972:	e9 f6       	brne	.-70     	; 0x392e <malloc+0x24>
    3974:	41 15       	cp	r20, r1
    3976:	51 05       	cpc	r21, r1
    3978:	a9 f1       	breq	.+106    	; 0x39e4 <malloc+0xda>
    397a:	ca 01       	movw	r24, r20
    397c:	86 1b       	sub	r24, r22
    397e:	97 0b       	sbc	r25, r23
    3980:	04 97       	sbiw	r24, 0x04	; 4
    3982:	08 f4       	brcc	.+2      	; 0x3986 <malloc+0x7c>
    3984:	ba 01       	movw	r22, r20
    3986:	e0 e0       	ldi	r30, 0x00	; 0
    3988:	f0 e0       	ldi	r31, 0x00	; 0
    398a:	2a c0       	rjmp	.+84     	; 0x39e0 <malloc+0xd6>
    398c:	8d 91       	ld	r24, X+
    398e:	9c 91       	ld	r25, X
    3990:	11 97       	sbiw	r26, 0x01	; 1
    3992:	84 17       	cp	r24, r20
    3994:	95 07       	cpc	r25, r21
    3996:	f9 f4       	brne	.+62     	; 0x39d6 <malloc+0xcc>
    3998:	64 17       	cp	r22, r20
    399a:	75 07       	cpc	r23, r21
    399c:	81 f4       	brne	.+32     	; 0x39be <malloc+0xb4>
    399e:	12 96       	adiw	r26, 0x02	; 2
    39a0:	8d 91       	ld	r24, X+
    39a2:	9c 91       	ld	r25, X
    39a4:	13 97       	sbiw	r26, 0x03	; 3
    39a6:	30 97       	sbiw	r30, 0x00	; 0
    39a8:	19 f0       	breq	.+6      	; 0x39b0 <malloc+0xa6>
    39aa:	93 83       	std	Z+3, r25	; 0x03
    39ac:	82 83       	std	Z+2, r24	; 0x02
    39ae:	04 c0       	rjmp	.+8      	; 0x39b8 <malloc+0xae>
    39b0:	90 93 a0 02 	sts	0x02A0, r25
    39b4:	80 93 9f 02 	sts	0x029F, r24
    39b8:	fd 01       	movw	r30, r26
    39ba:	32 96       	adiw	r30, 0x02	; 2
    39bc:	4f c0       	rjmp	.+158    	; 0x3a5c <malloc+0x152>
    39be:	ca 01       	movw	r24, r20
    39c0:	86 1b       	sub	r24, r22
    39c2:	97 0b       	sbc	r25, r23
    39c4:	fd 01       	movw	r30, r26
    39c6:	e8 0f       	add	r30, r24
    39c8:	f9 1f       	adc	r31, r25
    39ca:	61 93       	st	Z+, r22
    39cc:	71 93       	st	Z+, r23
    39ce:	02 97       	sbiw	r24, 0x02	; 2
    39d0:	8d 93       	st	X+, r24
    39d2:	9c 93       	st	X, r25
    39d4:	43 c0       	rjmp	.+134    	; 0x3a5c <malloc+0x152>
    39d6:	fd 01       	movw	r30, r26
    39d8:	82 81       	ldd	r24, Z+2	; 0x02
    39da:	93 81       	ldd	r25, Z+3	; 0x03
    39dc:	9c 01       	movw	r18, r24
    39de:	d9 01       	movw	r26, r18
    39e0:	10 97       	sbiw	r26, 0x00	; 0
    39e2:	a1 f6       	brne	.-88     	; 0x398c <malloc+0x82>
    39e4:	80 91 9d 02 	lds	r24, 0x029D
    39e8:	90 91 9e 02 	lds	r25, 0x029E
    39ec:	89 2b       	or	r24, r25
    39ee:	41 f4       	brne	.+16     	; 0x3a00 <malloc+0xf6>
    39f0:	80 91 25 02 	lds	r24, 0x0225
    39f4:	90 91 26 02 	lds	r25, 0x0226
    39f8:	90 93 9e 02 	sts	0x029E, r25
    39fc:	80 93 9d 02 	sts	0x029D, r24
    3a00:	40 91 27 02 	lds	r20, 0x0227
    3a04:	50 91 28 02 	lds	r21, 0x0228
    3a08:	41 15       	cp	r20, r1
    3a0a:	51 05       	cpc	r21, r1
    3a0c:	41 f4       	brne	.+16     	; 0x3a1e <malloc+0x114>
    3a0e:	4d b7       	in	r20, 0x3d	; 61
    3a10:	5e b7       	in	r21, 0x3e	; 62
    3a12:	80 91 23 02 	lds	r24, 0x0223
    3a16:	90 91 24 02 	lds	r25, 0x0224
    3a1a:	48 1b       	sub	r20, r24
    3a1c:	59 0b       	sbc	r21, r25
    3a1e:	20 91 9d 02 	lds	r18, 0x029D
    3a22:	30 91 9e 02 	lds	r19, 0x029E
    3a26:	24 17       	cp	r18, r20
    3a28:	35 07       	cpc	r19, r21
    3a2a:	b0 f4       	brcc	.+44     	; 0x3a58 <malloc+0x14e>
    3a2c:	ca 01       	movw	r24, r20
    3a2e:	82 1b       	sub	r24, r18
    3a30:	93 0b       	sbc	r25, r19
    3a32:	86 17       	cp	r24, r22
    3a34:	97 07       	cpc	r25, r23
    3a36:	80 f0       	brcs	.+32     	; 0x3a58 <malloc+0x14e>
    3a38:	ab 01       	movw	r20, r22
    3a3a:	4e 5f       	subi	r20, 0xFE	; 254
    3a3c:	5f 4f       	sbci	r21, 0xFF	; 255
    3a3e:	84 17       	cp	r24, r20
    3a40:	95 07       	cpc	r25, r21
    3a42:	50 f0       	brcs	.+20     	; 0x3a58 <malloc+0x14e>
    3a44:	42 0f       	add	r20, r18
    3a46:	53 1f       	adc	r21, r19
    3a48:	50 93 9e 02 	sts	0x029E, r21
    3a4c:	40 93 9d 02 	sts	0x029D, r20
    3a50:	f9 01       	movw	r30, r18
    3a52:	61 93       	st	Z+, r22
    3a54:	71 93       	st	Z+, r23
    3a56:	02 c0       	rjmp	.+4      	; 0x3a5c <malloc+0x152>
    3a58:	e0 e0       	ldi	r30, 0x00	; 0
    3a5a:	f0 e0       	ldi	r31, 0x00	; 0
    3a5c:	cf 01       	movw	r24, r30
    3a5e:	df 91       	pop	r29
    3a60:	cf 91       	pop	r28
    3a62:	08 95       	ret

00003a64 <free>:
    3a64:	cf 93       	push	r28
    3a66:	df 93       	push	r29
    3a68:	00 97       	sbiw	r24, 0x00	; 0
    3a6a:	09 f4       	brne	.+2      	; 0x3a6e <free+0xa>
    3a6c:	50 c0       	rjmp	.+160    	; 0x3b0e <free+0xaa>
    3a6e:	ec 01       	movw	r28, r24
    3a70:	22 97       	sbiw	r28, 0x02	; 2
    3a72:	1b 82       	std	Y+3, r1	; 0x03
    3a74:	1a 82       	std	Y+2, r1	; 0x02
    3a76:	a0 91 9f 02 	lds	r26, 0x029F
    3a7a:	b0 91 a0 02 	lds	r27, 0x02A0
    3a7e:	10 97       	sbiw	r26, 0x00	; 0
    3a80:	09 f1       	breq	.+66     	; 0x3ac4 <free+0x60>
    3a82:	40 e0       	ldi	r20, 0x00	; 0
    3a84:	50 e0       	ldi	r21, 0x00	; 0
    3a86:	ac 17       	cp	r26, r28
    3a88:	bd 07       	cpc	r27, r29
    3a8a:	08 f1       	brcs	.+66     	; 0x3ace <free+0x6a>
    3a8c:	bb 83       	std	Y+3, r27	; 0x03
    3a8e:	aa 83       	std	Y+2, r26	; 0x02
    3a90:	fe 01       	movw	r30, r28
    3a92:	21 91       	ld	r18, Z+
    3a94:	31 91       	ld	r19, Z+
    3a96:	e2 0f       	add	r30, r18
    3a98:	f3 1f       	adc	r31, r19
    3a9a:	ae 17       	cp	r26, r30
    3a9c:	bf 07       	cpc	r27, r31
    3a9e:	79 f4       	brne	.+30     	; 0x3abe <free+0x5a>
    3aa0:	8d 91       	ld	r24, X+
    3aa2:	9c 91       	ld	r25, X
    3aa4:	11 97       	sbiw	r26, 0x01	; 1
    3aa6:	28 0f       	add	r18, r24
    3aa8:	39 1f       	adc	r19, r25
    3aaa:	2e 5f       	subi	r18, 0xFE	; 254
    3aac:	3f 4f       	sbci	r19, 0xFF	; 255
    3aae:	39 83       	std	Y+1, r19	; 0x01
    3ab0:	28 83       	st	Y, r18
    3ab2:	12 96       	adiw	r26, 0x02	; 2
    3ab4:	8d 91       	ld	r24, X+
    3ab6:	9c 91       	ld	r25, X
    3ab8:	13 97       	sbiw	r26, 0x03	; 3
    3aba:	9b 83       	std	Y+3, r25	; 0x03
    3abc:	8a 83       	std	Y+2, r24	; 0x02
    3abe:	41 15       	cp	r20, r1
    3ac0:	51 05       	cpc	r21, r1
    3ac2:	71 f4       	brne	.+28     	; 0x3ae0 <free+0x7c>
    3ac4:	d0 93 a0 02 	sts	0x02A0, r29
    3ac8:	c0 93 9f 02 	sts	0x029F, r28
    3acc:	20 c0       	rjmp	.+64     	; 0x3b0e <free+0xaa>
    3ace:	12 96       	adiw	r26, 0x02	; 2
    3ad0:	8d 91       	ld	r24, X+
    3ad2:	9c 91       	ld	r25, X
    3ad4:	13 97       	sbiw	r26, 0x03	; 3
    3ad6:	ad 01       	movw	r20, r26
    3ad8:	00 97       	sbiw	r24, 0x00	; 0
    3ada:	11 f0       	breq	.+4      	; 0x3ae0 <free+0x7c>
    3adc:	dc 01       	movw	r26, r24
    3ade:	d3 cf       	rjmp	.-90     	; 0x3a86 <free+0x22>
    3ae0:	fa 01       	movw	r30, r20
    3ae2:	d3 83       	std	Z+3, r29	; 0x03
    3ae4:	c2 83       	std	Z+2, r28	; 0x02
    3ae6:	21 91       	ld	r18, Z+
    3ae8:	31 91       	ld	r19, Z+
    3aea:	e2 0f       	add	r30, r18
    3aec:	f3 1f       	adc	r31, r19
    3aee:	ce 17       	cp	r28, r30
    3af0:	df 07       	cpc	r29, r31
    3af2:	69 f4       	brne	.+26     	; 0x3b0e <free+0xaa>
    3af4:	88 81       	ld	r24, Y
    3af6:	99 81       	ldd	r25, Y+1	; 0x01
    3af8:	28 0f       	add	r18, r24
    3afa:	39 1f       	adc	r19, r25
    3afc:	2e 5f       	subi	r18, 0xFE	; 254
    3afe:	3f 4f       	sbci	r19, 0xFF	; 255
    3b00:	fa 01       	movw	r30, r20
    3b02:	31 83       	std	Z+1, r19	; 0x01
    3b04:	20 83       	st	Z, r18
    3b06:	8a 81       	ldd	r24, Y+2	; 0x02
    3b08:	9b 81       	ldd	r25, Y+3	; 0x03
    3b0a:	93 83       	std	Z+3, r25	; 0x03
    3b0c:	82 83       	std	Z+2, r24	; 0x02
    3b0e:	df 91       	pop	r29
    3b10:	cf 91       	pop	r28
    3b12:	08 95       	ret

00003b14 <fdevopen>:
    3b14:	0f 93       	push	r16
    3b16:	1f 93       	push	r17
    3b18:	cf 93       	push	r28
    3b1a:	df 93       	push	r29
    3b1c:	8c 01       	movw	r16, r24
    3b1e:	eb 01       	movw	r28, r22
    3b20:	00 97       	sbiw	r24, 0x00	; 0
    3b22:	31 f4       	brne	.+12     	; 0x3b30 <fdevopen+0x1c>
    3b24:	61 15       	cp	r22, r1
    3b26:	71 05       	cpc	r23, r1
    3b28:	19 f4       	brne	.+6      	; 0x3b30 <fdevopen+0x1c>
    3b2a:	20 e0       	ldi	r18, 0x00	; 0
    3b2c:	30 e0       	ldi	r19, 0x00	; 0
    3b2e:	38 c0       	rjmp	.+112    	; 0x3ba0 <fdevopen+0x8c>
    3b30:	81 e0       	ldi	r24, 0x01	; 1
    3b32:	90 e0       	ldi	r25, 0x00	; 0
    3b34:	6e e0       	ldi	r22, 0x0E	; 14
    3b36:	70 e0       	ldi	r23, 0x00	; 0
    3b38:	0e 94 d6 1d 	call	0x3bac	; 0x3bac <calloc>
    3b3c:	fc 01       	movw	r30, r24
    3b3e:	9c 01       	movw	r18, r24
    3b40:	00 97       	sbiw	r24, 0x00	; 0
    3b42:	71 f1       	breq	.+92     	; 0x3ba0 <fdevopen+0x8c>
    3b44:	80 e8       	ldi	r24, 0x80	; 128
    3b46:	83 83       	std	Z+3, r24	; 0x03
    3b48:	20 97       	sbiw	r28, 0x00	; 0
    3b4a:	71 f0       	breq	.+28     	; 0x3b68 <fdevopen+0x54>
    3b4c:	d3 87       	std	Z+11, r29	; 0x0b
    3b4e:	c2 87       	std	Z+10, r28	; 0x0a
    3b50:	81 e8       	ldi	r24, 0x81	; 129
    3b52:	83 83       	std	Z+3, r24	; 0x03
    3b54:	80 91 a1 02 	lds	r24, 0x02A1
    3b58:	90 91 a2 02 	lds	r25, 0x02A2
    3b5c:	89 2b       	or	r24, r25
    3b5e:	21 f4       	brne	.+8      	; 0x3b68 <fdevopen+0x54>
    3b60:	f0 93 a2 02 	sts	0x02A2, r31
    3b64:	e0 93 a1 02 	sts	0x02A1, r30
    3b68:	01 15       	cp	r16, r1
    3b6a:	11 05       	cpc	r17, r1
    3b6c:	c9 f0       	breq	.+50     	; 0x3ba0 <fdevopen+0x8c>
    3b6e:	11 87       	std	Z+9, r17	; 0x09
    3b70:	00 87       	std	Z+8, r16	; 0x08
    3b72:	83 81       	ldd	r24, Z+3	; 0x03
    3b74:	82 60       	ori	r24, 0x02	; 2
    3b76:	83 83       	std	Z+3, r24	; 0x03
    3b78:	80 91 a3 02 	lds	r24, 0x02A3
    3b7c:	90 91 a4 02 	lds	r25, 0x02A4
    3b80:	89 2b       	or	r24, r25
    3b82:	71 f4       	brne	.+28     	; 0x3ba0 <fdevopen+0x8c>
    3b84:	f0 93 a4 02 	sts	0x02A4, r31
    3b88:	e0 93 a3 02 	sts	0x02A3, r30
    3b8c:	80 91 a5 02 	lds	r24, 0x02A5
    3b90:	90 91 a6 02 	lds	r25, 0x02A6
    3b94:	89 2b       	or	r24, r25
    3b96:	21 f4       	brne	.+8      	; 0x3ba0 <fdevopen+0x8c>
    3b98:	f0 93 a6 02 	sts	0x02A6, r31
    3b9c:	e0 93 a5 02 	sts	0x02A5, r30
    3ba0:	c9 01       	movw	r24, r18
    3ba2:	df 91       	pop	r29
    3ba4:	cf 91       	pop	r28
    3ba6:	1f 91       	pop	r17
    3ba8:	0f 91       	pop	r16
    3baa:	08 95       	ret

00003bac <calloc>:
    3bac:	0f 93       	push	r16
    3bae:	1f 93       	push	r17
    3bb0:	cf 93       	push	r28
    3bb2:	df 93       	push	r29
    3bb4:	68 9f       	mul	r22, r24
    3bb6:	80 01       	movw	r16, r0
    3bb8:	69 9f       	mul	r22, r25
    3bba:	10 0d       	add	r17, r0
    3bbc:	78 9f       	mul	r23, r24
    3bbe:	10 0d       	add	r17, r0
    3bc0:	11 24       	eor	r1, r1
    3bc2:	c8 01       	movw	r24, r16
    3bc4:	0e 94 85 1c 	call	0x390a	; 0x390a <malloc>
    3bc8:	ec 01       	movw	r28, r24
    3bca:	00 97       	sbiw	r24, 0x00	; 0
    3bcc:	29 f0       	breq	.+10     	; 0x3bd8 <calloc+0x2c>
    3bce:	60 e0       	ldi	r22, 0x00	; 0
    3bd0:	70 e0       	ldi	r23, 0x00	; 0
    3bd2:	a8 01       	movw	r20, r16
    3bd4:	0e 94 f2 1d 	call	0x3be4	; 0x3be4 <memset>
    3bd8:	ce 01       	movw	r24, r28
    3bda:	df 91       	pop	r29
    3bdc:	cf 91       	pop	r28
    3bde:	1f 91       	pop	r17
    3be0:	0f 91       	pop	r16
    3be2:	08 95       	ret

00003be4 <memset>:
    3be4:	dc 01       	movw	r26, r24
    3be6:	01 c0       	rjmp	.+2      	; 0x3bea <memset+0x6>
    3be8:	6d 93       	st	X+, r22
    3bea:	41 50       	subi	r20, 0x01	; 1
    3bec:	50 40       	sbci	r21, 0x00	; 0
    3bee:	e0 f7       	brcc	.-8      	; 0x3be8 <memset+0x4>
    3bf0:	08 95       	ret

00003bf2 <__do_global_dtors>:
    3bf2:	10 e0       	ldi	r17, 0x00	; 0
    3bf4:	c2 e8       	ldi	r28, 0x82	; 130
    3bf6:	d0 e0       	ldi	r29, 0x00	; 0
    3bf8:	04 c0       	rjmp	.+8      	; 0x3c02 <.do_global_dtors_start>

00003bfa <.do_global_dtors_loop>:
    3bfa:	fe 01       	movw	r30, r28
    3bfc:	0e 94 81 1c 	call	0x3902	; 0x3902 <__tablejump__>
    3c00:	22 96       	adiw	r28, 0x02	; 2

00003c02 <.do_global_dtors_start>:
    3c02:	c4 38       	cpi	r28, 0x84	; 132
    3c04:	d1 07       	cpc	r29, r17
    3c06:	c9 f7       	brne	.-14     	; 0x3bfa <.do_global_dtors_loop>
    3c08:	f8 94       	cli

00003c0a <__stop_program>:
    3c0a:	ff cf       	rjmp	.-2      	; 0x3c0a <__stop_program>
