
maze-solver.elf:     file format elf32-avr

Sections:
Idx Name          Size      VMA       LMA       File off  Algn
  0 .data         0000018a  00800100  0000342a  000034be  2**0
                  CONTENTS, ALLOC, LOAD, DATA
  1 .text         0000342a  00000000  00000000  00000094  2**1
                  CONTENTS, ALLOC, LOAD, READONLY, CODE
  2 .bss          00000035  0080028a  0080028a  00003648  2**0
                  ALLOC
  3 .debug_aranges 00000660  00000000  00000000  00003648  2**0
                  CONTENTS, READONLY, DEBUGGING
  4 .debug_pubnames 0000141d  00000000  00000000  00003ca8  2**0
                  CONTENTS, READONLY, DEBUGGING
  5 .debug_info   00005182  00000000  00000000  000050c5  2**0
                  CONTENTS, READONLY, DEBUGGING
  6 .debug_abbrev 0000201a  00000000  00000000  0000a247  2**0
                  CONTENTS, READONLY, DEBUGGING
  7 .debug_line   00003da9  00000000  00000000  0000c261  2**0
                  CONTENTS, READONLY, DEBUGGING
  8 .debug_frame  00000c20  00000000  00000000  0001000c  2**2
                  CONTENTS, READONLY, DEBUGGING
  9 .debug_str    0000207b  00000000  00000000  00010c2c  2**0
                  CONTENTS, READONLY, DEBUGGING
 10 .debug_loc    0000247a  00000000  00000000  00012ca7  2**0
                  CONTENTS, READONLY, DEBUGGING
 11 .debug_ranges 00000570  00000000  00000000  00015121  2**0
                  CONTENTS, READONLY, DEBUGGING

Disassembly of section .text:

00000000 <__vectors>:
       0:	0c 94 40 00 	jmp	0x80	; 0x80 <__ctors_end>
       4:	0c 94 5d 00 	jmp	0xba	; 0xba <__bad_interrupt>
       8:	0c 94 5d 00 	jmp	0xba	; 0xba <__bad_interrupt>
       c:	0c 94 5d 00 	jmp	0xba	; 0xba <__bad_interrupt>
      10:	0c 94 5d 00 	jmp	0xba	; 0xba <__bad_interrupt>
      14:	0c 94 5d 00 	jmp	0xba	; 0xba <__bad_interrupt>
      18:	0c 94 5d 00 	jmp	0xba	; 0xba <__bad_interrupt>
      1c:	0c 94 5d 00 	jmp	0xba	; 0xba <__bad_interrupt>
      20:	0c 94 5d 00 	jmp	0xba	; 0xba <__bad_interrupt>
      24:	0c 94 db 16 	jmp	0x2db6	; 0x2db6 <__vector_9>
      28:	0c 94 5d 00 	jmp	0xba	; 0xba <__bad_interrupt>
      2c:	0c 94 5d 00 	jmp	0xba	; 0xba <__bad_interrupt>
      30:	0c 94 5d 00 	jmp	0xba	; 0xba <__bad_interrupt>
      34:	0c 94 58 0f 	jmp	0x1eb0	; 0x1eb0 <__vector_13>
      38:	0c 94 5d 00 	jmp	0xba	; 0xba <__bad_interrupt>
      3c:	0c 94 5d 00 	jmp	0xba	; 0xba <__bad_interrupt>
      40:	0c 94 5d 00 	jmp	0xba	; 0xba <__bad_interrupt>
      44:	0c 94 5d 00 	jmp	0xba	; 0xba <__bad_interrupt>
      48:	0c 94 5d 00 	jmp	0xba	; 0xba <__bad_interrupt>
      4c:	0c 94 5d 00 	jmp	0xba	; 0xba <__bad_interrupt>
      50:	0c 94 5d 00 	jmp	0xba	; 0xba <__bad_interrupt>
      54:	0c 94 5d 00 	jmp	0xba	; 0xba <__bad_interrupt>
      58:	0c 94 5d 00 	jmp	0xba	; 0xba <__bad_interrupt>
      5c:	0c 94 5d 00 	jmp	0xba	; 0xba <__bad_interrupt>
      60:	0c 94 5d 00 	jmp	0xba	; 0xba <__bad_interrupt>
      64:	0c 94 5d 00 	jmp	0xba	; 0xba <__bad_interrupt>
      68:	78 0c       	add	r7, r8
      6a:	7e 0c       	add	r7, r14
      6c:	81 0c       	add	r8, r1
      6e:	84 0c       	add	r8, r4
      70:	87 0c       	add	r8, r7
      72:	8a 0c       	add	r8, r10
      74:	8d 0c       	add	r8, r13
      76:	90 0c       	add	r9, r0
      78:	93 0c       	add	r9, r3
      7a:	96 0c       	add	r9, r6
      7c:	99 0c       	add	r9, r9
      7e:	9c 0c       	add	r9, r12

00000080 <__ctors_end>:
      80:	11 24       	eor	r1, r1
      82:	1f be       	out	0x3f, r1	; 63
      84:	cf ef       	ldi	r28, 0xFF	; 255
      86:	d4 e0       	ldi	r29, 0x04	; 4
      88:	de bf       	out	0x3e, r29	; 62
      8a:	cd bf       	out	0x3d, r28	; 61

0000008c <__do_copy_data>:
      8c:	12 e0       	ldi	r17, 0x02	; 2
      8e:	a0 e0       	ldi	r26, 0x00	; 0
      90:	b1 e0       	ldi	r27, 0x01	; 1
      92:	ea e2       	ldi	r30, 0x2A	; 42
      94:	f4 e3       	ldi	r31, 0x34	; 52
      96:	02 c0       	rjmp	.+4      	; 0x9c <.do_copy_data_start>

00000098 <.do_copy_data_loop>:
      98:	05 90       	lpm	r0, Z+
      9a:	0d 92       	st	X+, r0

0000009c <.do_copy_data_start>:
      9c:	aa 38       	cpi	r26, 0x8A	; 138
      9e:	b1 07       	cpc	r27, r17
      a0:	d9 f7       	brne	.-10     	; 0x98 <.do_copy_data_loop>

000000a2 <__do_clear_bss>:
      a2:	12 e0       	ldi	r17, 0x02	; 2
      a4:	aa e8       	ldi	r26, 0x8A	; 138
      a6:	b2 e0       	ldi	r27, 0x02	; 2
      a8:	01 c0       	rjmp	.+2      	; 0xac <.do_clear_bss_start>

000000aa <.do_clear_bss_loop>:
      aa:	1d 92       	st	X+, r1

000000ac <.do_clear_bss_start>:
      ac:	af 3b       	cpi	r26, 0xBF	; 191
      ae:	b1 07       	cpc	r27, r17
      b0:	e1 f7       	brne	.-8      	; 0xaa <.do_clear_bss_loop>
      b2:	0e 94 cd 02 	call	0x59a	; 0x59a <main>
      b6:	0c 94 13 1a 	jmp	0x3426	; 0x3426 <_exit>

000000ba <__bad_interrupt>:
      ba:	0c 94 00 00 	jmp	0	; 0x0 <__vectors>

000000be <init_sensors>:
static inline void set_analog_mode(unsigned char mode)
{
	if (mode == MODE_10_BIT)
		ADMUX &= ~(1 << ADLAR);	// right-adjust result (ADC has result)
	else
		ADMUX |= 1 << ADLAR;		// left-adjust result (ADCH has result)	
      be:	ec e7       	ldi	r30, 0x7C	; 124
      c0:	f0 e0       	ldi	r31, 0x00	; 0
      c2:	80 81       	ld	r24, Z
      c4:	80 62       	ori	r24, 0x20	; 32
      c6:	80 83       	st	Z, r24
//Initializes the digital sensors
//MODE_8_BIT => 0=far away, 150=close
void init_sensors()
{
	set_analog_mode(MODE_8_BIT);
	DDRC &= ~(1<< PORTC5);
      c8:	3d 98       	cbi	0x07, 5	; 7
	PORTC &= ~(1<< PORTC5);
      ca:	45 98       	cbi	0x08, 5	; 8
}
      cc:	08 95       	ret

000000ce <turn_left_in_place>:
}

// Turn to the left in place
void turn_left_in_place()
{
	set_motors(-50, 50);
      ce:	8e ec       	ldi	r24, 0xCE	; 206
      d0:	9f ef       	ldi	r25, 0xFF	; 255
      d2:	62 e3       	ldi	r22, 0x32	; 50
      d4:	70 e0       	ldi	r23, 0x00	; 0
      d6:	0e 94 ce 14 	call	0x299c	; 0x299c <set_motors>
}
      da:	08 95       	ret

000000dc <turn_right_in_place>:
}

// Turn to the right in place
void turn_right_in_place()
{
	set_motors(50, -50);
      dc:	82 e3       	ldi	r24, 0x32	; 50
      de:	90 e0       	ldi	r25, 0x00	; 0
      e0:	6e ec       	ldi	r22, 0xCE	; 206
      e2:	7f ef       	ldi	r23, 0xFF	; 255
      e4:	0e 94 ce 14 	call	0x299c	; 0x299c <set_motors>
}
      e8:	08 95       	ret

000000ea <back_up_right>:
}

// Back up slightly to the right
void back_up_right()
{
	set_motors(-90,-50);
      ea:	86 ea       	ldi	r24, 0xA6	; 166
      ec:	9f ef       	ldi	r25, 0xFF	; 255
      ee:	6e ec       	ldi	r22, 0xCE	; 206
      f0:	7f ef       	ldi	r23, 0xFF	; 255
      f2:	0e 94 ce 14 	call	0x299c	; 0x299c <set_motors>
}
      f6:	08 95       	ret

000000f8 <back_up_left>:
}

// Back up slightly to the left
void back_up_left()
{
	set_motors(-50,-90);
      f8:	8e ec       	ldi	r24, 0xCE	; 206
      fa:	9f ef       	ldi	r25, 0xFF	; 255
      fc:	66 ea       	ldi	r22, 0xA6	; 166
      fe:	7f ef       	ldi	r23, 0xFF	; 255
     100:	0e 94 ce 14 	call	0x299c	; 0x299c <set_motors>
}
     104:	08 95       	ret

00000106 <turn_right>:
	set_motors(0,0);
}

//Turn the robot to right
void turn_right(int power, int angle)
{
     106:	af 92       	push	r10
     108:	bf 92       	push	r11
     10a:	cf 92       	push	r12
     10c:	df 92       	push	r13
     10e:	ef 92       	push	r14
     110:	ff 92       	push	r15
     112:	0f 93       	push	r16
     114:	1f 93       	push	r17
     116:	5c 01       	movw	r10, r24
     118:	7b 01       	movw	r14, r22
	int delay = (DELAY_PER_ANGLE_PER_POWER * angle)/power;

	set_motors(power,-power);
     11a:	66 27       	eor	r22, r22
     11c:	77 27       	eor	r23, r23
     11e:	68 1b       	sub	r22, r24
     120:	79 0b       	sbc	r23, r25
     122:	0e 94 ce 14 	call	0x299c	; 0x299c <set_motors>
	delay_ms(delay);
     126:	00 27       	eor	r16, r16
     128:	f7 fc       	sbrc	r15, 7
     12a:	00 95       	com	r16
     12c:	10 2f       	mov	r17, r16
     12e:	c8 01       	movw	r24, r16
     130:	b7 01       	movw	r22, r14
     132:	0e 94 26 07 	call	0xe4c	; 0xe4c <__floatsisf>
     136:	28 e4       	ldi	r18, 0x48	; 72
     138:	31 ee       	ldi	r19, 0xE1	; 225
     13a:	4a e5       	ldi	r20, 0x5A	; 90
     13c:	53 e4       	ldi	r21, 0x43	; 67
     13e:	0e 94 80 05 	call	0xb00	; 0xb00 <__mulsf3>
     142:	7b 01       	movw	r14, r22
     144:	8c 01       	movw	r16, r24
     146:	cc 24       	eor	r12, r12
     148:	b7 fc       	sbrc	r11, 7
     14a:	c0 94       	com	r12
     14c:	dc 2c       	mov	r13, r12
     14e:	c6 01       	movw	r24, r12
     150:	b5 01       	movw	r22, r10
     152:	0e 94 26 07 	call	0xe4c	; 0xe4c <__floatsisf>
     156:	9b 01       	movw	r18, r22
     158:	ac 01       	movw	r20, r24
     15a:	c8 01       	movw	r24, r16
     15c:	b7 01       	movw	r22, r14
     15e:	0e 94 7a 06 	call	0xcf4	; 0xcf4 <__divsf3>
     162:	0e 94 84 07 	call	0xf08	; 0xf08 <__fixsfsi>
     166:	dc 01       	movw	r26, r24
     168:	cb 01       	movw	r24, r22
     16a:	0e 94 15 17 	call	0x2e2a	; 0x2e2a <delay_ms>
	set_motors(0,0);
     16e:	80 e0       	ldi	r24, 0x00	; 0
     170:	90 e0       	ldi	r25, 0x00	; 0
     172:	60 e0       	ldi	r22, 0x00	; 0
     174:	70 e0       	ldi	r23, 0x00	; 0
     176:	0e 94 ce 14 	call	0x299c	; 0x299c <set_motors>
}
     17a:	1f 91       	pop	r17
     17c:	0f 91       	pop	r16
     17e:	ff 90       	pop	r15
     180:	ef 90       	pop	r14
     182:	df 90       	pop	r13
     184:	cf 90       	pop	r12
     186:	bf 90       	pop	r11
     188:	af 90       	pop	r10
     18a:	08 95       	ret

0000018c <turn_left>:
	set_motors(0,0);
}

//Turn the robot to left
void turn_left(int power, int angle)
{
     18c:	af 92       	push	r10
     18e:	bf 92       	push	r11
     190:	cf 92       	push	r12
     192:	df 92       	push	r13
     194:	ef 92       	push	r14
     196:	ff 92       	push	r15
     198:	0f 93       	push	r16
     19a:	1f 93       	push	r17
     19c:	5c 01       	movw	r10, r24
     19e:	7b 01       	movw	r14, r22
	int delay = (DELAY_PER_ANGLE_PER_POWER * angle)/power;

	set_motors(-power,power);
     1a0:	88 27       	eor	r24, r24
     1a2:	99 27       	eor	r25, r25
     1a4:	8a 19       	sub	r24, r10
     1a6:	9b 09       	sbc	r25, r11
     1a8:	b5 01       	movw	r22, r10
     1aa:	0e 94 ce 14 	call	0x299c	; 0x299c <set_motors>
	delay_ms(delay);
     1ae:	00 27       	eor	r16, r16
     1b0:	f7 fc       	sbrc	r15, 7
     1b2:	00 95       	com	r16
     1b4:	10 2f       	mov	r17, r16
     1b6:	c8 01       	movw	r24, r16
     1b8:	b7 01       	movw	r22, r14
     1ba:	0e 94 26 07 	call	0xe4c	; 0xe4c <__floatsisf>
     1be:	28 e4       	ldi	r18, 0x48	; 72
     1c0:	31 ee       	ldi	r19, 0xE1	; 225
     1c2:	4a e5       	ldi	r20, 0x5A	; 90
     1c4:	53 e4       	ldi	r21, 0x43	; 67
     1c6:	0e 94 80 05 	call	0xb00	; 0xb00 <__mulsf3>
     1ca:	7b 01       	movw	r14, r22
     1cc:	8c 01       	movw	r16, r24
     1ce:	cc 24       	eor	r12, r12
     1d0:	b7 fc       	sbrc	r11, 7
     1d2:	c0 94       	com	r12
     1d4:	dc 2c       	mov	r13, r12
     1d6:	c6 01       	movw	r24, r12
     1d8:	b5 01       	movw	r22, r10
     1da:	0e 94 26 07 	call	0xe4c	; 0xe4c <__floatsisf>
     1de:	9b 01       	movw	r18, r22
     1e0:	ac 01       	movw	r20, r24
     1e2:	c8 01       	movw	r24, r16
     1e4:	b7 01       	movw	r22, r14
     1e6:	0e 94 7a 06 	call	0xcf4	; 0xcf4 <__divsf3>
     1ea:	0e 94 84 07 	call	0xf08	; 0xf08 <__fixsfsi>
     1ee:	dc 01       	movw	r26, r24
     1f0:	cb 01       	movw	r24, r22
     1f2:	0e 94 15 17 	call	0x2e2a	; 0x2e2a <delay_ms>
	set_motors(0,0);
     1f6:	80 e0       	ldi	r24, 0x00	; 0
     1f8:	90 e0       	ldi	r25, 0x00	; 0
     1fa:	60 e0       	ldi	r22, 0x00	; 0
     1fc:	70 e0       	ldi	r23, 0x00	; 0
     1fe:	0e 94 ce 14 	call	0x299c	; 0x299c <set_motors>
}
     202:	1f 91       	pop	r17
     204:	0f 91       	pop	r16
     206:	ff 90       	pop	r15
     208:	ef 90       	pop	r14
     20a:	df 90       	pop	r13
     20c:	cf 90       	pop	r12
     20e:	bf 90       	pop	r11
     210:	af 90       	pop	r10
     212:	08 95       	ret

00000214 <dash>:
	set_motors(0,0);
}

//Dash forward
void dash(int power, int delay)
{
     214:	0f 93       	push	r16
     216:	1f 93       	push	r17
     218:	9c 01       	movw	r18, r24
     21a:	8b 01       	movw	r16, r22
	set_motors(power,power);
     21c:	b9 01       	movw	r22, r18
     21e:	0e 94 ce 14 	call	0x299c	; 0x299c <set_motors>
	delay_ms(delay);
     222:	c8 01       	movw	r24, r16
     224:	0e 94 15 17 	call	0x2e2a	; 0x2e2a <delay_ms>
	set_motors(0,0);
     228:	80 e0       	ldi	r24, 0x00	; 0
     22a:	90 e0       	ldi	r25, 0x00	; 0
     22c:	60 e0       	ldi	r22, 0x00	; 0
     22e:	70 e0       	ldi	r23, 0x00	; 0
     230:	0e 94 ce 14 	call	0x299c	; 0x299c <set_motors>
}
     234:	1f 91       	pop	r17
     236:	0f 91       	pop	r16
     238:	08 95       	ret

0000023a <halt>:


//Stop both motors
void halt()
{
	set_motors(0,0);
     23a:	80 e0       	ldi	r24, 0x00	; 0
     23c:	90 e0       	ldi	r25, 0x00	; 0
     23e:	60 e0       	ldi	r22, 0x00	; 0
     240:	70 e0       	ldi	r23, 0x00	; 0
     242:	0e 94 ce 14 	call	0x299c	; 0x299c <set_motors>
}
     246:	08 95       	ret

00000248 <print_xy>:
{
	return analog_read(SENSOR_5);
}

void print_xy( int row, int col, char *message, int doClear)
{
     248:	0f 93       	push	r16
     24a:	1f 93       	push	r17
     24c:	cf 93       	push	r28
     24e:	df 93       	push	r29
     250:	18 2f       	mov	r17, r24
     252:	06 2f       	mov	r16, r22
     254:	ea 01       	movw	r28, r20
	if(doClear)
     256:	23 2b       	or	r18, r19
     258:	11 f0       	breq	.+4      	; 0x25e <print_xy+0x16>
	{
		clear();
     25a:	0e 94 a0 11 	call	0x2340	; 0x2340 <clear>
	}
	lcd_goto_xy(row,col);
     25e:	81 2f       	mov	r24, r17
     260:	60 2f       	mov	r22, r16
     262:	0e 94 70 11 	call	0x22e0	; 0x22e0 <lcd_goto_xy>
	print(message);
     266:	ce 01       	movw	r24, r28
     268:	0e 94 8c 12 	call	0x2518	; 0x2518 <print>
}
     26c:	df 91       	pop	r29
     26e:	cf 91       	pop	r28
     270:	1f 91       	pop	r17
     272:	0f 91       	pop	r16
     274:	08 95       	ret

00000276 <print_num_xy>:

void print_num_xy( int row, int col, long num, int doClear)
{
     276:	af 92       	push	r10
     278:	bf 92       	push	r11
     27a:	cf 92       	push	r12
     27c:	df 92       	push	r13
     27e:	ef 92       	push	r14
     280:	ff 92       	push	r15
     282:	0f 93       	push	r16
     284:	1f 93       	push	r17
     286:	b8 2e       	mov	r11, r24
     288:	a6 2e       	mov	r10, r22
     28a:	69 01       	movw	r12, r18
     28c:	7a 01       	movw	r14, r20
	if(doClear)
     28e:	01 2b       	or	r16, r17
     290:	11 f0       	breq	.+4      	; 0x296 <print_num_xy+0x20>
	{
		clear();
     292:	0e 94 a0 11 	call	0x2340	; 0x2340 <clear>
	}
	lcd_goto_xy(row,col);
     296:	8b 2d       	mov	r24, r11
     298:	6a 2d       	mov	r22, r10
     29a:	0e 94 70 11 	call	0x22e0	; 0x22e0 <lcd_goto_xy>
	print_long(num);
     29e:	c7 01       	movw	r24, r14
     2a0:	b6 01       	movw	r22, r12
     2a2:	0e 94 6b 12 	call	0x24d6	; 0x24d6 <print_long>
}
     2a6:	1f 91       	pop	r17
     2a8:	0f 91       	pop	r16
     2aa:	ff 90       	pop	r15
     2ac:	ef 90       	pop	r14
     2ae:	df 90       	pop	r13
     2b0:	cf 90       	pop	r12
     2b2:	bf 90       	pop	r11
     2b4:	af 90       	pop	r10
     2b6:	08 95       	ret

000002b8 <count_down>:
	return pdata;
}

//Display a countdown for count, increment by one second
void count_down(int count)
{
     2b8:	ef 92       	push	r14
     2ba:	ff 92       	push	r15
     2bc:	0f 93       	push	r16
     2be:	1f 93       	push	r17
     2c0:	cf 93       	push	r28
     2c2:	df 93       	push	r29
     2c4:	ec 01       	movw	r28, r24
	int i = 1;
	clear();
     2c6:	0e 94 a0 11 	call	0x2340	; 0x2340 <clear>
     2ca:	ee 24       	eor	r14, r14
     2cc:	ff 24       	eor	r15, r15
     2ce:	87 01       	movw	r16, r14
     2d0:	0e c0       	rjmp	.+28     	; 0x2ee <count_down+0x36>
	while(i <= count)
	{
		lcd_goto_xy(0,0);
     2d2:	80 e0       	ldi	r24, 0x00	; 0
     2d4:	60 e0       	ldi	r22, 0x00	; 0
     2d6:	0e 94 70 11 	call	0x22e0	; 0x22e0 <lcd_goto_xy>
		print_long(i);
     2da:	c8 01       	movw	r24, r16
     2dc:	b7 01       	movw	r22, r14
     2de:	0e 94 6b 12 	call	0x24d6	; 0x24d6 <print_long>
		delay_ms(1000);
     2e2:	88 ee       	ldi	r24, 0xE8	; 232
     2e4:	93 e0       	ldi	r25, 0x03	; 3
     2e6:	0e 94 15 17 	call	0x2e2a	; 0x2e2a <delay_ms>
		clear();
     2ea:	0e 94 a0 11 	call	0x2340	; 0x2340 <clear>
     2ee:	08 94       	sec
     2f0:	e1 1c       	adc	r14, r1
     2f2:	f1 1c       	adc	r15, r1
     2f4:	01 1d       	adc	r16, r1
     2f6:	11 1d       	adc	r17, r1
//Display a countdown for count, increment by one second
void count_down(int count)
{
	int i = 1;
	clear();
	while(i <= count)
     2f8:	ce 15       	cp	r28, r14
     2fa:	df 05       	cpc	r29, r15
     2fc:	54 f7       	brge	.-44     	; 0x2d2 <count_down+0x1a>
		print_long(i);
		delay_ms(1000);
		clear();
		i++;
	}
}
     2fe:	df 91       	pop	r29
     300:	cf 91       	pop	r28
     302:	1f 91       	pop	r17
     304:	0f 91       	pop	r16
     306:	ff 90       	pop	r15
     308:	ef 90       	pop	r14
     30a:	08 95       	ret

0000030c <read_right_sensor>:
}

//Read right sensor data
int read_right_sensor()
{
	return analog_read(SENSOR_5);
     30c:	85 e0       	ldi	r24, 0x05	; 5
     30e:	0e 94 cd 09 	call	0x139a	; 0x139a <analog_read>
}
     312:	08 95       	ret

00000314 <read_left_sensor>:
}

//Read left sensor data
int read_left_sensor()
{
	return analog_read(SENSOR_7);
     314:	87 e0       	ldi	r24, 0x07	; 7
     316:	0e 94 cd 09 	call	0x139a	; 0x139a <analog_read>
}
     31a:	08 95       	ret

0000031c <read_forward_sensor>:
}

//Read forward sensor data
int read_forward_sensor()
{
	return analog_read(SENSOR_6);
     31c:	86 e0       	ldi	r24, 0x06	; 6
     31e:	0e 94 cd 09 	call	0x139a	; 0x139a <analog_read>
}
     322:	08 95       	ret

00000324 <read_sensor>:
	}
}

int read_sensor(int sensor)
{
	return analog_read(sensor);
     324:	0e 94 cd 09 	call	0x139a	; 0x139a <analog_read>
}
     328:	08 95       	ret

0000032a <scan_360>:
	set_motors(-50, 50);
}

//Scans 360 degree and reports an array of distance data
int* scan_360(int sensor)
{
     32a:	ef 92       	push	r14
     32c:	ff 92       	push	r15
     32e:	0f 93       	push	r16
     330:	1f 93       	push	r17
     332:	df 93       	push	r29
     334:	cf 93       	push	r28
     336:	cd b7       	in	r28, 0x3d	; 61
     338:	de b7       	in	r29, 0x3e	; 62
     33a:	e2 97       	sbiw	r28, 0x32	; 50
     33c:	0f b6       	in	r0, 0x3f	; 63
     33e:	f8 94       	cli
     340:	de bf       	out	0x3e, r29	; 62
     342:	0f be       	out	0x3f, r0	; 63
     344:	cd bf       	out	0x3d, r28	; 61
     346:	8e 01       	movw	r16, r28
     348:	0f 5f       	subi	r16, 0xFF	; 255
     34a:	1f 4f       	sbci	r17, 0xFF	; 255
	int i, *pdata, data[25];
	int power = 40;

	for(i=0; i<25; i++)
     34c:	83 e3       	ldi	r24, 0x33	; 51
     34e:	e8 2e       	mov	r14, r24
     350:	f1 2c       	mov	r15, r1
     352:	ec 0e       	add	r14, r28
     354:	fd 1e       	adc	r15, r29
	{
		// rotate LEFT 15 degrees then stop
		int delay = (DELAY_PER_ANGLE_PER_POWER * 15)/power;
		set_motors(-power,power);
     356:	88 ed       	ldi	r24, 0xD8	; 216
     358:	9f ef       	ldi	r25, 0xFF	; 255
     35a:	68 e2       	ldi	r22, 0x28	; 40
     35c:	70 e0       	ldi	r23, 0x00	; 0
     35e:	0e 94 ce 14 	call	0x299c	; 0x299c <set_motors>
		delay_ms(delay);
     362:	82 e5       	ldi	r24, 0x52	; 82
     364:	90 e0       	ldi	r25, 0x00	; 0
     366:	0e 94 15 17 	call	0x2e2a	; 0x2e2a <delay_ms>
		set_motors(0,0);
     36a:	80 e0       	ldi	r24, 0x00	; 0
     36c:	90 e0       	ldi	r25, 0x00	; 0
     36e:	60 e0       	ldi	r22, 0x00	; 0
     370:	70 e0       	ldi	r23, 0x00	; 0
     372:	0e 94 ce 14 	call	0x299c	; 0x299c <set_motors>

		// scan forward and store value
		data[i] = analog_read(SENSOR_6);
     376:	86 e0       	ldi	r24, 0x06	; 6
     378:	0e 94 cd 09 	call	0x139a	; 0x139a <analog_read>
     37c:	f8 01       	movw	r30, r16
     37e:	81 93       	st	Z+, r24
     380:	91 93       	st	Z+, r25
     382:	8f 01       	movw	r16, r30
int* scan_360(int sensor)
{
	int i, *pdata, data[25];
	int power = 40;

	for(i=0; i<25; i++)
     384:	ee 15       	cp	r30, r14
     386:	ff 05       	cpc	r31, r15
     388:	31 f7       	brne	.-52     	; 0x356 <scan_360+0x2c>
		data[i] = analog_read(SENSOR_6);
	}

	pdata = &data[0];
	return pdata;
}
     38a:	ce 01       	movw	r24, r28
     38c:	01 96       	adiw	r24, 0x01	; 1
     38e:	e2 96       	adiw	r28, 0x32	; 50
     390:	0f b6       	in	r0, 0x3f	; 63
     392:	f8 94       	cli
     394:	de bf       	out	0x3e, r29	; 62
     396:	0f be       	out	0x3f, r0	; 63
     398:	cd bf       	out	0x3d, r28	; 61
     39a:	cf 91       	pop	r28
     39c:	df 91       	pop	r29
     39e:	1f 91       	pop	r17
     3a0:	0f 91       	pop	r16
     3a2:	ff 90       	pop	r15
     3a4:	ef 90       	pop	r14
     3a6:	08 95       	ret

000003a8 <get_target_difference>:
		}
	}
}

int get_target_difference()
{
     3a8:	ef 92       	push	r14
     3aa:	ff 92       	push	r15
     3ac:	0f 93       	push	r16
     3ae:	1f 93       	push	r17
     3b0:	2c c0       	rjmp	.+88     	; 0x40a <get_target_difference+0x62>
	int s1 = 0;
	int s2 = 0;

	while(!button_is_pressed(BUTTON_B))
	{
		if(get_ms() % 500 == 0)
     3b2:	0e 94 7e 17 	call	0x2efc	; 0x2efc <get_ms>
     3b6:	24 ef       	ldi	r18, 0xF4	; 244
     3b8:	31 e0       	ldi	r19, 0x01	; 1
     3ba:	40 e0       	ldi	r20, 0x00	; 0
     3bc:	50 e0       	ldi	r21, 0x00	; 0
     3be:	0e 94 25 18 	call	0x304a	; 0x304a <__udivmodsi4>
     3c2:	61 15       	cp	r22, r1
     3c4:	71 05       	cpc	r23, r1
     3c6:	81 05       	cpc	r24, r1
     3c8:	91 05       	cpc	r25, r1
     3ca:	f9 f4       	brne	.+62     	; 0x40a <get_target_difference+0x62>
		{
			clear();
     3cc:	0e 94 a0 11 	call	0x2340	; 0x2340 <clear>
			print_xy(0,0,"AlignBot");
     3d0:	80 e0       	ldi	r24, 0x00	; 0
     3d2:	90 e0       	ldi	r25, 0x00	; 0
     3d4:	60 e0       	ldi	r22, 0x00	; 0
     3d6:	70 e0       	ldi	r23, 0x00	; 0
     3d8:	40 e0       	ldi	r20, 0x00	; 0
     3da:	51 e0       	ldi	r21, 0x01	; 1
     3dc:	0e 94 24 01 	call	0x248	; 0x248 <print_xy>
			lcd_goto_xy(0,1);
     3e0:	80 e0       	ldi	r24, 0x00	; 0
     3e2:	61 e0       	ldi	r22, 0x01	; 1
     3e4:	0e 94 70 11 	call	0x22e0	; 0x22e0 <lcd_goto_xy>
	}
}

int read_sensor(int sensor)
{
	return analog_read(sensor);
     3e8:	85 e0       	ldi	r24, 0x05	; 5
     3ea:	0e 94 cd 09 	call	0x139a	; 0x139a <analog_read>
     3ee:	7c 01       	movw	r14, r24
		if(get_ms() % 500 == 0)
		{
			clear();
			print_xy(0,0,"AlignBot");
			lcd_goto_xy(0,1);
			print_long(read_sensor(SENSOR_ONE)-read_sensor(SENSOR_TWO));
     3f0:	86 e0       	ldi	r24, 0x06	; 6
     3f2:	0e 94 cd 09 	call	0x139a	; 0x139a <analog_read>
     3f6:	e8 1a       	sub	r14, r24
     3f8:	f9 0a       	sbc	r15, r25
     3fa:	00 27       	eor	r16, r16
     3fc:	f7 fc       	sbrc	r15, 7
     3fe:	00 95       	com	r16
     400:	10 2f       	mov	r17, r16
     402:	c8 01       	movw	r24, r16
     404:	b7 01       	movw	r22, r14
     406:	0e 94 6b 12 	call	0x24d6	; 0x24d6 <print_long>
{

	int s1 = 0;
	int s2 = 0;

	while(!button_is_pressed(BUTTON_B))
     40a:	80 e1       	ldi	r24, 0x10	; 16
     40c:	0e 94 03 15 	call	0x2a06	; 0x2a06 <button_is_pressed>
     410:	88 23       	and	r24, r24
     412:	79 f2       	breq	.-98     	; 0x3b2 <get_target_difference+0xa>
	}
}

int read_sensor(int sensor)
{
	return analog_read(sensor);
     414:	85 e0       	ldi	r24, 0x05	; 5
     416:	0e 94 cd 09 	call	0x139a	; 0x139a <analog_read>
     41a:	8c 01       	movw	r16, r24
	}

	s1 = read_sensor(SENSOR_ONE); // 0 (far away) - 150 (close)
	s2 = read_sensor(SENSOR_TWO); // 0 (far away) - 150 (close)

	play(">g32>>c32");
     41c:	86 e0       	ldi	r24, 0x06	; 6
     41e:	0e 94 cd 09 	call	0x139a	; 0x139a <analog_read>
     422:	7c 01       	movw	r14, r24
     424:	89 e0       	ldi	r24, 0x09	; 9
     426:	91 e0       	ldi	r25, 0x01	; 1
     428:	0e 94 55 0f 	call	0x1eaa	; 0x1eaa <play>
     42c:	0e 19       	sub	r16, r14
     42e:	1f 09       	sbc	r17, r15

	return s1-s2;


}
     430:	c8 01       	movw	r24, r16
     432:	1f 91       	pop	r17
     434:	0f 91       	pop	r16
     436:	ff 90       	pop	r15
     438:	ef 90       	pop	r14
     43a:	08 95       	ret

0000043c <get_value_from_user>:
	while(!button_is_pressed(BUTTON_B));
	delay_ms(500);
}

int get_value_from_user(char *msg, int default_value, int increment)
{
     43c:	cf 92       	push	r12
     43e:	df 92       	push	r13
     440:	ef 92       	push	r14
     442:	ff 92       	push	r15
     444:	0f 93       	push	r16
     446:	1f 93       	push	r17
     448:	cf 93       	push	r28
     44a:	df 93       	push	r29
     44c:	7c 01       	movw	r14, r24
     44e:	8a 01       	movw	r16, r20
     450:	eb 01       	movw	r28, r22
		{
			value = -32000 + (32000 % increment);
		}
		if(value > 32000)
		{
			value = 32000 - (32000 % increment);
     452:	c1 2c       	mov	r12, r1
     454:	9d e7       	ldi	r25, 0x7D	; 125
     456:	d9 2e       	mov	r13, r25
{
	int value = default_value;

	while(1)
	{
		clear();
     458:	0e 94 a0 11 	call	0x2340	; 0x2340 <clear>

		// print name
		lcd_goto_xy(0,0);
     45c:	80 e0       	ldi	r24, 0x00	; 0
     45e:	60 e0       	ldi	r22, 0x00	; 0
     460:	0e 94 70 11 	call	0x22e0	; 0x22e0 <lcd_goto_xy>
		print(msg);
     464:	c7 01       	movw	r24, r14
     466:	0e 94 8c 12 	call	0x2518	; 0x2518 <print>
		print("=?");
     46a:	83 e1       	ldi	r24, 0x13	; 19
     46c:	91 e0       	ldi	r25, 0x01	; 1
     46e:	0e 94 8c 12 	call	0x2518	; 0x2518 <print>

		// print current value
		lcd_goto_xy(0,1);
     472:	80 e0       	ldi	r24, 0x00	; 0
     474:	61 e0       	ldi	r22, 0x01	; 1
     476:	0e 94 70 11 	call	0x22e0	; 0x22e0 <lcd_goto_xy>
		print_long(value);
     47a:	be 01       	movw	r22, r28
     47c:	88 27       	eor	r24, r24
     47e:	77 fd       	sbrc	r23, 7
     480:	80 95       	com	r24
     482:	98 2f       	mov	r25, r24
     484:	0e 94 6b 12 	call	0x24d6	; 0x24d6 <print_long>
		lcd_show_cursor(CURSOR_BLINKING);
     488:	81 e0       	ldi	r24, 0x01	; 1
     48a:	0e 94 4e 11 	call	0x229c	; 0x229c <lcd_show_cursor>

		// wait for all buttons to be released, then a press
		while(button_is_pressed(ANY_BUTTON));
     48e:	82 e3       	ldi	r24, 0x32	; 50
     490:	0e 94 03 15 	call	0x2a06	; 0x2a06 <button_is_pressed>
     494:	88 23       	and	r24, r24
     496:	d9 f7       	brne	.-10     	; 0x48e <get_value_from_user+0x52>
		char button = wait_for_button_press(ANY_BUTTON);
     498:	82 e3       	ldi	r24, 0x32	; 50
     49a:	0e 94 b7 16 	call	0x2d6e	; 0x2d6e <wait_for_button_press>

		if(button & BUTTON_A)
     49e:	81 ff       	sbrs	r24, 1
     4a0:	07 c0       	rjmp	.+14     	; 0x4b0 <get_value_from_user+0x74>
		{
			play("!c32");
     4a2:	86 e1       	ldi	r24, 0x16	; 22
     4a4:	91 e0       	ldi	r25, 0x01	; 1
     4a6:	0e 94 55 0f 	call	0x1eaa	; 0x1eaa <play>
			value = value - increment;
     4aa:	c0 1b       	sub	r28, r16
     4ac:	d1 0b       	sbc	r29, r17
     4ae:	20 c0       	rjmp	.+64     	; 0x4f0 <get_value_from_user+0xb4>
		}
		else if(button & BUTTON_B)
     4b0:	84 ff       	sbrs	r24, 4
     4b2:	16 c0       	rjmp	.+44     	; 0x4e0 <get_value_from_user+0xa4>
		{
			lcd_hide_cursor();
     4b4:	0e 94 43 11 	call	0x2286	; 0x2286 <lcd_hide_cursor>
			clear();
     4b8:	0e 94 a0 11 	call	0x2340	; 0x2340 <clear>
			play("!e32");
     4bc:	8b e1       	ldi	r24, 0x1B	; 27
     4be:	91 e0       	ldi	r25, 0x01	; 1
     4c0:	0e 94 55 0f 	call	0x1eaa	; 0x1eaa <play>
			delay_ms(100);
     4c4:	84 e6       	ldi	r24, 0x64	; 100
     4c6:	90 e0       	ldi	r25, 0x00	; 0
     4c8:	0e 94 15 17 	call	0x2e2a	; 0x2e2a <delay_ms>
		if(value > 32000)
		{
			value = 32000 - (32000 % increment);
		}
	}
}
     4cc:	ce 01       	movw	r24, r28
     4ce:	df 91       	pop	r29
     4d0:	cf 91       	pop	r28
     4d2:	1f 91       	pop	r17
     4d4:	0f 91       	pop	r16
     4d6:	ff 90       	pop	r15
     4d8:	ef 90       	pop	r14
     4da:	df 90       	pop	r13
     4dc:	cf 90       	pop	r12
     4de:	08 95       	ret
			clear();
			play("!e32");
			delay_ms(100);
			return value;
		}
		else if(button & BUTTON_C)
     4e0:	85 ff       	sbrs	r24, 5
     4e2:	06 c0       	rjmp	.+12     	; 0x4f0 <get_value_from_user+0xb4>
		{
			play("!g32");
     4e4:	80 e2       	ldi	r24, 0x20	; 32
     4e6:	91 e0       	ldi	r25, 0x01	; 1
     4e8:	0e 94 55 0f 	call	0x1eaa	; 0x1eaa <play>
			value = value + increment;
     4ec:	c0 0f       	add	r28, r16
     4ee:	d1 1f       	adc	r29, r17
		}

		if(value < -32000)
     4f0:	83 e8       	ldi	r24, 0x83	; 131
     4f2:	c0 30       	cpi	r28, 0x00	; 0
     4f4:	d8 07       	cpc	r29, r24
     4f6:	4c f4       	brge	.+18     	; 0x50a <__stack+0xb>
		{
			value = -32000 + (32000 % increment);
     4f8:	80 e0       	ldi	r24, 0x00	; 0
     4fa:	9d e7       	ldi	r25, 0x7D	; 125
     4fc:	b8 01       	movw	r22, r16
     4fe:	0e 94 12 18 	call	0x3024	; 0x3024 <__divmodhi4>
     502:	ec 01       	movw	r28, r24
     504:	c0 50       	subi	r28, 0x00	; 0
     506:	dd 47       	sbci	r29, 0x7D	; 125
     508:	a7 cf       	rjmp	.-178    	; 0x458 <get_value_from_user+0x1c>
		}
		if(value > 32000)
     50a:	8d e7       	ldi	r24, 0x7D	; 125
     50c:	c1 30       	cpi	r28, 0x01	; 1
     50e:	d8 07       	cpc	r29, r24
     510:	0c f4       	brge	.+2      	; 0x514 <__stack+0x15>
     512:	a2 cf       	rjmp	.-188    	; 0x458 <get_value_from_user+0x1c>
		{
			value = 32000 - (32000 % increment);
     514:	80 e0       	ldi	r24, 0x00	; 0
     516:	9d e7       	ldi	r25, 0x7D	; 125
     518:	b8 01       	movw	r22, r16
     51a:	0e 94 12 18 	call	0x3024	; 0x3024 <__divmodhi4>
     51e:	e6 01       	movw	r28, r12
     520:	c8 1b       	sub	r28, r24
     522:	d9 0b       	sbc	r29, r25
     524:	99 cf       	rjmp	.-206    	; 0x458 <get_value_from_user+0x1c>

00000526 <wait_with_message>:
	PORTC &= ~(1<< PORTC5);
}

//Displays a message and waits for B button to press
void wait_with_message(char *str)
{
     526:	0f 93       	push	r16
     528:	1f 93       	push	r17
     52a:	8c 01       	movw	r16, r24
	 play_frequency(200, 50, 14);
     52c:	88 ec       	ldi	r24, 0xC8	; 200
     52e:	90 e0       	ldi	r25, 0x00	; 0
     530:	62 e3       	ldi	r22, 0x32	; 50
     532:	70 e0       	ldi	r23, 0x00	; 0
     534:	4e e0       	ldi	r20, 0x0E	; 14
     536:	0e 94 47 0c 	call	0x188e	; 0x188e <play_frequency>
	 delay_ms(75);
     53a:	8b e4       	ldi	r24, 0x4B	; 75
     53c:	90 e0       	ldi	r25, 0x00	; 0
     53e:	0e 94 15 17 	call	0x2e2a	; 0x2e2a <delay_ms>
	 play_frequency(300, 50, 14);
     542:	8c e2       	ldi	r24, 0x2C	; 44
     544:	91 e0       	ldi	r25, 0x01	; 1
     546:	62 e3       	ldi	r22, 0x32	; 50
     548:	70 e0       	ldi	r23, 0x00	; 0
     54a:	4e e0       	ldi	r20, 0x0E	; 14
     54c:	0e 94 47 0c 	call	0x188e	; 0x188e <play_frequency>

	 play_frequency(200, 50, 14);
     550:	88 ec       	ldi	r24, 0xC8	; 200
     552:	90 e0       	ldi	r25, 0x00	; 0
     554:	62 e3       	ldi	r22, 0x32	; 50
     556:	70 e0       	ldi	r23, 0x00	; 0
     558:	4e e0       	ldi	r20, 0x0E	; 14
     55a:	0e 94 47 0c 	call	0x188e	; 0x188e <play_frequency>
	 delay_ms(75);
     55e:	8b e4       	ldi	r24, 0x4B	; 75
     560:	90 e0       	ldi	r25, 0x00	; 0
     562:	0e 94 15 17 	call	0x2e2a	; 0x2e2a <delay_ms>
	 play_frequency(300, 50, 14);
     566:	8c e2       	ldi	r24, 0x2C	; 44
     568:	91 e0       	ldi	r25, 0x01	; 1
     56a:	62 e3       	ldi	r22, 0x32	; 50
     56c:	70 e0       	ldi	r23, 0x00	; 0
     56e:	4e e0       	ldi	r20, 0x0E	; 14
     570:	0e 94 47 0c 	call	0x188e	; 0x188e <play_frequency>

	lcd_goto_xy(0,0);
     574:	80 e0       	ldi	r24, 0x00	; 0
     576:	60 e0       	ldi	r22, 0x00	; 0
     578:	0e 94 70 11 	call	0x22e0	; 0x22e0 <lcd_goto_xy>
	print(str);
     57c:	c8 01       	movw	r24, r16
     57e:	0e 94 8c 12 	call	0x2518	; 0x2518 <print>

	while(!button_is_pressed(BUTTON_B));
     582:	80 e1       	ldi	r24, 0x10	; 16
     584:	0e 94 03 15 	call	0x2a06	; 0x2a06 <button_is_pressed>
     588:	88 23       	and	r24, r24
     58a:	d9 f3       	breq	.-10     	; 0x582 <wait_with_message+0x5c>
	delay_ms(500);
     58c:	84 ef       	ldi	r24, 0xF4	; 244
     58e:	91 e0       	ldi	r25, 0x01	; 1
     590:	0e 94 15 17 	call	0x2e2a	; 0x2e2a <delay_ms>
}
     594:	1f 91       	pop	r17
     596:	0f 91       	pop	r16
     598:	08 95       	ret

0000059a <main>:

//#define P_GAIN 1
//#define D_GAIN 1

int main()
{
     59a:	2f 92       	push	r2
     59c:	3f 92       	push	r3
     59e:	4f 92       	push	r4
     5a0:	5f 92       	push	r5
     5a2:	6f 92       	push	r6
     5a4:	7f 92       	push	r7
     5a6:	8f 92       	push	r8
     5a8:	9f 92       	push	r9
     5aa:	af 92       	push	r10
     5ac:	bf 92       	push	r11
     5ae:	cf 92       	push	r12
     5b0:	df 92       	push	r13
     5b2:	ef 92       	push	r14
     5b4:	ff 92       	push	r15
     5b6:	0f 93       	push	r16
     5b8:	1f 93       	push	r17
     5ba:	df 93       	push	r29
     5bc:	cf 93       	push	r28
     5be:	00 d0       	rcall	.+0      	; 0x5c0 <main+0x26>
     5c0:	cd b7       	in	r28, 0x3d	; 61
     5c2:	de b7       	in	r29, 0x3e	; 62
	// initialize sensors and wait for button press
    init_sensors();
     5c4:	0e 94 5f 00 	call	0xbe	; 0xbe <init_sensors>
	wait_with_message("Maze 3.4");
     5c8:	85 e2       	ldi	r24, 0x25	; 37
     5ca:	91 e0       	ldi	r25, 0x01	; 1
     5cc:	0e 94 93 02 	call	0x526	; 0x526 <wait_with_message>
	int DIFFERENCE_THRESHOLD = -40;//get_value_from_user("diff min=", -40, 5);

	int dash1 = 475;//get_value_from_user("dash1=? ", 475, 25);
	int dash2 = 875;//get_value_from_user("dash2=? ", 875, 25);

	int pnum = get_value_from_user("P num=? ", 1, 1);
     5d0:	8e e2       	ldi	r24, 0x2E	; 46
     5d2:	91 e0       	ldi	r25, 0x01	; 1
     5d4:	61 e0       	ldi	r22, 0x01	; 1
     5d6:	70 e0       	ldi	r23, 0x00	; 0
     5d8:	41 e0       	ldi	r20, 0x01	; 1
     5da:	50 e0       	ldi	r21, 0x00	; 0
     5dc:	0e 94 1e 02 	call	0x43c	; 0x43c <get_value_from_user>
     5e0:	5c 01       	movw	r10, r24
	int pden = get_value_from_user("Pdenom=?", 1, 1);
     5e2:	87 e3       	ldi	r24, 0x37	; 55
     5e4:	91 e0       	ldi	r25, 0x01	; 1
     5e6:	61 e0       	ldi	r22, 0x01	; 1
     5e8:	70 e0       	ldi	r23, 0x00	; 0
     5ea:	41 e0       	ldi	r20, 0x01	; 1
     5ec:	50 e0       	ldi	r21, 0x00	; 0
     5ee:	0e 94 1e 02 	call	0x43c	; 0x43c <get_value_from_user>
     5f2:	7c 01       	movw	r14, r24
	int dnum = get_value_from_user("D num=? ", 1, 1);
     5f4:	80 e4       	ldi	r24, 0x40	; 64
     5f6:	91 e0       	ldi	r25, 0x01	; 1
     5f8:	61 e0       	ldi	r22, 0x01	; 1
     5fa:	70 e0       	ldi	r23, 0x00	; 0
     5fc:	41 e0       	ldi	r20, 0x01	; 1
     5fe:	50 e0       	ldi	r21, 0x00	; 0
     600:	0e 94 1e 02 	call	0x43c	; 0x43c <get_value_from_user>
     604:	6c 01       	movw	r12, r24
	int dden = get_value_from_user("Ddenom=?", 1, 1);
     606:	89 e4       	ldi	r24, 0x49	; 73
     608:	91 e0       	ldi	r25, 0x01	; 1
     60a:	61 e0       	ldi	r22, 0x01	; 1
     60c:	70 e0       	ldi	r23, 0x00	; 0
     60e:	41 e0       	ldi	r20, 0x01	; 1
     610:	50 e0       	ldi	r21, 0x00	; 0
     612:	0e 94 1e 02 	call	0x43c	; 0x43c <get_value_from_user>
     616:	8c 01       	movw	r16, r24

	float P_GAIN = pnum / pden;
     618:	c5 01       	movw	r24, r10
     61a:	b7 01       	movw	r22, r14
     61c:	0e 94 12 18 	call	0x3024	; 0x3024 <__divmodhi4>
     620:	88 27       	eor	r24, r24
     622:	77 fd       	sbrc	r23, 7
     624:	80 95       	com	r24
     626:	98 2f       	mov	r25, r24
     628:	0e 94 26 07 	call	0xe4c	; 0xe4c <__floatsisf>
     62c:	1b 01       	movw	r2, r22
     62e:	2c 01       	movw	r4, r24
	float D_GAIN = dnum / dden;
     630:	c6 01       	movw	r24, r12
     632:	b8 01       	movw	r22, r16
     634:	0e 94 12 18 	call	0x3024	; 0x3024 <__divmodhi4>
     638:	88 27       	eor	r24, r24
     63a:	77 fd       	sbrc	r23, 7
     63c:	80 95       	com	r24
     63e:	98 2f       	mov	r25, r24
     640:	0e 94 26 07 	call	0xe4c	; 0xe4c <__floatsisf>
     644:	3b 01       	movw	r6, r22
     646:	4c 01       	movw	r8, r24

	int angle_for_left_90 = 80;//get_value_from_user("angle90=", 80, 5);

	int target_difference = get_target_difference();
     648:	0e 94 d4 01 	call	0x3a8	; 0x3a8 <get_target_difference>
     64c:	9a 83       	std	Y+2, r25	; 0x02
     64e:	89 83       	std	Y+1, r24	; 0x01
	delay_ms(777);
     650:	89 e0       	ldi	r24, 0x09	; 9
     652:	93 e0       	ldi	r25, 0x03	; 3
     654:	0e 94 15 17 	call	0x2e2a	; 0x2e2a <delay_ms>
     658:	cc 24       	eor	r12, r12
     65a:	dd 24       	eor	r13, r13
	}
}

int read_sensor(int sensor)
{
	return analog_read(sensor);
     65c:	85 e0       	ldi	r24, 0x05	; 5
     65e:	0e 94 cd 09 	call	0x139a	; 0x139a <analog_read>
     662:	8c 01       	movw	r16, r24
    while(1)
    {
		// read left sensors
		int s1 = read_sensor(SENSOR_ONE); // 0 (far away) - 150 (close)
		int s2 = read_sensor(SENSOR_TWO); // 0 (far away) - 150 (close)
        int difference = s1 - s2;
     664:	86 e0       	ldi	r24, 0x06	; 6
     666:	0e 94 cd 09 	call	0x139a	; 0x139a <analog_read>
     66a:	7c 01       	movw	r14, r24
     66c:	58 01       	movw	r10, r16
     66e:	a8 1a       	sub	r10, r24
     670:	b9 0a       	sbc	r11, r25

		// print sensor readings periodically
		if(get_ms() % 250 == 0)
     672:	0e 94 7e 17 	call	0x2efc	; 0x2efc <get_ms>
     676:	2a ef       	ldi	r18, 0xFA	; 250
     678:	30 e0       	ldi	r19, 0x00	; 0
     67a:	40 e0       	ldi	r20, 0x00	; 0
     67c:	50 e0       	ldi	r21, 0x00	; 0
     67e:	0e 94 25 18 	call	0x304a	; 0x304a <__udivmodsi4>
     682:	61 15       	cp	r22, r1
     684:	71 05       	cpc	r23, r1
     686:	81 05       	cpc	r24, r1
     688:	91 05       	cpc	r25, r1
     68a:	d1 f4       	brne	.+52     	; 0x6c0 <main+0x126>
		{
			print_num_xy(0,0,s1,1);
     68c:	98 01       	movw	r18, r16
     68e:	44 27       	eor	r20, r20
     690:	37 fd       	sbrc	r19, 7
     692:	40 95       	com	r20
     694:	54 2f       	mov	r21, r20
     696:	80 e0       	ldi	r24, 0x00	; 0
     698:	90 e0       	ldi	r25, 0x00	; 0
     69a:	60 e0       	ldi	r22, 0x00	; 0
     69c:	70 e0       	ldi	r23, 0x00	; 0
     69e:	01 e0       	ldi	r16, 0x01	; 1
     6a0:	10 e0       	ldi	r17, 0x00	; 0
     6a2:	0e 94 3b 01 	call	0x276	; 0x276 <print_num_xy>
			print_num_xy(0,1,s2,0);
     6a6:	97 01       	movw	r18, r14
     6a8:	44 27       	eor	r20, r20
     6aa:	37 fd       	sbrc	r19, 7
     6ac:	40 95       	com	r20
     6ae:	54 2f       	mov	r21, r20
     6b0:	80 e0       	ldi	r24, 0x00	; 0
     6b2:	90 e0       	ldi	r25, 0x00	; 0
     6b4:	61 e0       	ldi	r22, 0x01	; 1
     6b6:	70 e0       	ldi	r23, 0x00	; 0
     6b8:	00 e0       	ldi	r16, 0x00	; 0
     6ba:	10 e0       	ldi	r17, 0x00	; 0
     6bc:	0e 94 3b 01 	call	0x276	; 0x276 <print_num_xy>
		}

		// if there's no wall to left, perform 90 degree left turn
		if(difference < DIFFERENCE_THRESHOLD)
     6c0:	88 ed       	ldi	r24, 0xD8	; 216
     6c2:	a8 16       	cp	r10, r24
     6c4:	8f ef       	ldi	r24, 0xFF	; 255
     6c6:	b8 06       	cpc	r11, r24
     6c8:	1c f5       	brge	.+70     	; 0x710 <main+0x176>
		{
			// stop
			clear();
     6ca:	0e 94 a0 11 	call	0x2340	; 0x2340 <clear>
			print("Go Left");
     6ce:	82 e5       	ldi	r24, 0x52	; 82
     6d0:	91 e0       	ldi	r25, 0x01	; 1
     6d2:	0e 94 8c 12 	call	0x2518	; 0x2518 <print>
			play(">g32>>c32");
     6d6:	89 e0       	ldi	r24, 0x09	; 9
     6d8:	91 e0       	ldi	r25, 0x01	; 1
     6da:	0e 94 55 0f 	call	0x1eaa	; 0x1eaa <play>


//Stop both motors
void halt()
{
	set_motors(0,0);
     6de:	80 e0       	ldi	r24, 0x00	; 0
     6e0:	90 e0       	ldi	r25, 0x00	; 0
     6e2:	60 e0       	ldi	r22, 0x00	; 0
     6e4:	70 e0       	ldi	r23, 0x00	; 0
     6e6:	0e 94 ce 14 	call	0x299c	; 0x299c <set_motors>
			halt();
			//delay_ms(1000);

			// go forward a bit
			dash(50, dash1);
     6ea:	82 e3       	ldi	r24, 0x32	; 50
     6ec:	90 e0       	ldi	r25, 0x00	; 0
     6ee:	6b ed       	ldi	r22, 0xDB	; 219
     6f0:	71 e0       	ldi	r23, 0x01	; 1
     6f2:	0e 94 0a 01 	call	0x214	; 0x214 <dash>
			//delay_ms(1000);

			// perform 90 degree turn
			turn_left(BASE_SPEED, angle_for_left_90);
     6f6:	82 e3       	ldi	r24, 0x32	; 50
     6f8:	90 e0       	ldi	r25, 0x00	; 0
     6fa:	60 e5       	ldi	r22, 0x50	; 80
     6fc:	70 e0       	ldi	r23, 0x00	; 0
     6fe:	0e 94 c6 00 	call	0x18c	; 0x18c <turn_left>
			//delay_ms(1000);

			// go forward a bit
			dash(50, dash2);
     702:	82 e3       	ldi	r24, 0x32	; 50
     704:	90 e0       	ldi	r25, 0x00	; 0
     706:	6b e6       	ldi	r22, 0x6B	; 107
     708:	73 e0       	ldi	r23, 0x03	; 3
     70a:	0e 94 0a 01 	call	0x214	; 0x214 <dash>
     70e:	a4 cf       	rjmp	.-184    	; 0x658 <main+0xbe>
	}
}

int read_sensor(int sensor)
{
	return analog_read(sensor);
     710:	87 e0       	ldi	r24, 0x07	; 7
     712:	0e 94 cd 09 	call	0x139a	; 0x139a <analog_read>

			// continue...
			previous_difference = 0;
		}
		// if there's a wall directly in front of us,  perform 90 degree right turn
		else if(read_sensor(SENSOR_FRONT) > FORWARD_SENSOR_THRESHOLD)
     716:	85 36       	cpi	r24, 0x65	; 101
     718:	91 05       	cpc	r25, r1
     71a:	bc f0       	brlt	.+46     	; 0x74a <main+0x1b0>
		{
			// stop
			clear();
     71c:	0e 94 a0 11 	call	0x2340	; 0x2340 <clear>
			print("Go Right");
     720:	8a e5       	ldi	r24, 0x5A	; 90
     722:	91 e0       	ldi	r25, 0x01	; 1
     724:	0e 94 8c 12 	call	0x2518	; 0x2518 <print>
			play(">c32>>g32");
     728:	83 e6       	ldi	r24, 0x63	; 99
     72a:	91 e0       	ldi	r25, 0x01	; 1
     72c:	0e 94 55 0f 	call	0x1eaa	; 0x1eaa <play>


//Stop both motors
void halt()
{
	set_motors(0,0);
     730:	80 e0       	ldi	r24, 0x00	; 0
     732:	90 e0       	ldi	r25, 0x00	; 0
     734:	60 e0       	ldi	r22, 0x00	; 0
     736:	70 e0       	ldi	r23, 0x00	; 0
     738:	0e 94 ce 14 	call	0x299c	; 0x299c <set_motors>
			halt();

			// perform 90 degree turn
			turn_right(BASE_SPEED, 90);
     73c:	82 e3       	ldi	r24, 0x32	; 50
     73e:	90 e0       	ldi	r25, 0x00	; 0
     740:	6a e5       	ldi	r22, 0x5A	; 90
     742:	70 e0       	ldi	r23, 0x00	; 0
     744:	0e 94 83 00 	call	0x106	; 0x106 <turn_right>
     748:	87 cf       	rjmp	.-242    	; 0x658 <main+0xbe>
		{
			// calculate PD-controller value
	        int p = difference - target_difference;
	        int d = difference - previous_difference;

	        int pd = p * P_GAIN + d * D_GAIN;
     74a:	b5 01       	movw	r22, r10
     74c:	e9 81       	ldd	r30, Y+1	; 0x01
     74e:	fa 81       	ldd	r31, Y+2	; 0x02
     750:	6e 1b       	sub	r22, r30
     752:	7f 0b       	sbc	r23, r31
     754:	88 27       	eor	r24, r24
     756:	77 fd       	sbrc	r23, 7
     758:	80 95       	com	r24
     75a:	98 2f       	mov	r25, r24
     75c:	0e 94 26 07 	call	0xe4c	; 0xe4c <__floatsisf>
     760:	a2 01       	movw	r20, r4
     762:	91 01       	movw	r18, r2
     764:	0e 94 80 05 	call	0xb00	; 0xb00 <__mulsf3>
     768:	7b 01       	movw	r14, r22
     76a:	8c 01       	movw	r16, r24
     76c:	b5 01       	movw	r22, r10
     76e:	6c 19       	sub	r22, r12
     770:	7d 09       	sbc	r23, r13
     772:	88 27       	eor	r24, r24
     774:	77 fd       	sbrc	r23, 7
     776:	80 95       	com	r24
     778:	98 2f       	mov	r25, r24
     77a:	0e 94 26 07 	call	0xe4c	; 0xe4c <__floatsisf>
     77e:	a4 01       	movw	r20, r8
     780:	93 01       	movw	r18, r6
     782:	0e 94 80 05 	call	0xb00	; 0xb00 <__mulsf3>
     786:	9b 01       	movw	r18, r22
     788:	ac 01       	movw	r20, r24
     78a:	c8 01       	movw	r24, r16
     78c:	b7 01       	movw	r22, r14
     78e:	0e 94 53 05 	call	0xaa6	; 0xaa6 <__addsf3>
     792:	0e 94 84 07 	call	0xf08	; 0xf08 <__fixsfsi>
     796:	dc 01       	movw	r26, r24
     798:	cb 01       	movw	r24, r22
				pd = BASE_SPEED / 4;
			}
			*/
	        int left_motor_speed = BASE_SPEED + pd;
	        int right_motor_speed = BASE_SPEED - pd;
	        set_motors(left_motor_speed, right_motor_speed);
     79a:	62 e3       	ldi	r22, 0x32	; 50
     79c:	70 e0       	ldi	r23, 0x00	; 0
     79e:	68 1b       	sub	r22, r24
     7a0:	79 0b       	sbc	r23, r25
     7a2:	c2 96       	adiw	r24, 0x32	; 50
     7a4:	0e 94 ce 14 	call	0x299c	; 0x299c <set_motors>
     7a8:	65 01       	movw	r12, r10
     7aa:	58 cf       	rjmp	.-336    	; 0x65c <main+0xc2>

000007ac <_fpadd_parts>:
     7ac:	a0 e0       	ldi	r26, 0x00	; 0
     7ae:	b0 e0       	ldi	r27, 0x00	; 0
     7b0:	ec ed       	ldi	r30, 0xDC	; 220
     7b2:	f3 e0       	ldi	r31, 0x03	; 3
     7b4:	0c 94 62 18 	jmp	0x30c4	; 0x30c4 <__prologue_saves__>
     7b8:	dc 01       	movw	r26, r24
     7ba:	2b 01       	movw	r4, r22
     7bc:	fa 01       	movw	r30, r20
     7be:	9c 91       	ld	r25, X
     7c0:	92 30       	cpi	r25, 0x02	; 2
     7c2:	08 f4       	brcc	.+2      	; 0x7c6 <_fpadd_parts+0x1a>
     7c4:	39 c1       	rjmp	.+626    	; 0xa38 <_fpadd_parts+0x28c>
     7c6:	eb 01       	movw	r28, r22
     7c8:	88 81       	ld	r24, Y
     7ca:	82 30       	cpi	r24, 0x02	; 2
     7cc:	08 f4       	brcc	.+2      	; 0x7d0 <_fpadd_parts+0x24>
     7ce:	33 c1       	rjmp	.+614    	; 0xa36 <_fpadd_parts+0x28a>
     7d0:	94 30       	cpi	r25, 0x04	; 4
     7d2:	69 f4       	brne	.+26     	; 0x7ee <_fpadd_parts+0x42>
     7d4:	84 30       	cpi	r24, 0x04	; 4
     7d6:	09 f0       	breq	.+2      	; 0x7da <_fpadd_parts+0x2e>
     7d8:	2f c1       	rjmp	.+606    	; 0xa38 <_fpadd_parts+0x28c>
     7da:	11 96       	adiw	r26, 0x01	; 1
     7dc:	9c 91       	ld	r25, X
     7de:	11 97       	sbiw	r26, 0x01	; 1
     7e0:	89 81       	ldd	r24, Y+1	; 0x01
     7e2:	98 17       	cp	r25, r24
     7e4:	09 f4       	brne	.+2      	; 0x7e8 <_fpadd_parts+0x3c>
     7e6:	28 c1       	rjmp	.+592    	; 0xa38 <_fpadd_parts+0x28c>
     7e8:	ab e7       	ldi	r26, 0x7B	; 123
     7ea:	b1 e0       	ldi	r27, 0x01	; 1
     7ec:	25 c1       	rjmp	.+586    	; 0xa38 <_fpadd_parts+0x28c>
     7ee:	84 30       	cpi	r24, 0x04	; 4
     7f0:	09 f4       	brne	.+2      	; 0x7f4 <_fpadd_parts+0x48>
     7f2:	21 c1       	rjmp	.+578    	; 0xa36 <_fpadd_parts+0x28a>
     7f4:	82 30       	cpi	r24, 0x02	; 2
     7f6:	a9 f4       	brne	.+42     	; 0x822 <_fpadd_parts+0x76>
     7f8:	92 30       	cpi	r25, 0x02	; 2
     7fa:	09 f0       	breq	.+2      	; 0x7fe <_fpadd_parts+0x52>
     7fc:	1d c1       	rjmp	.+570    	; 0xa38 <_fpadd_parts+0x28c>
     7fe:	9a 01       	movw	r18, r20
     800:	ad 01       	movw	r20, r26
     802:	88 e0       	ldi	r24, 0x08	; 8
     804:	ea 01       	movw	r28, r20
     806:	09 90       	ld	r0, Y+
     808:	ae 01       	movw	r20, r28
     80a:	e9 01       	movw	r28, r18
     80c:	09 92       	st	Y+, r0
     80e:	9e 01       	movw	r18, r28
     810:	81 50       	subi	r24, 0x01	; 1
     812:	c1 f7       	brne	.-16     	; 0x804 <_fpadd_parts+0x58>
     814:	e2 01       	movw	r28, r4
     816:	89 81       	ldd	r24, Y+1	; 0x01
     818:	11 96       	adiw	r26, 0x01	; 1
     81a:	9c 91       	ld	r25, X
     81c:	89 23       	and	r24, r25
     81e:	81 83       	std	Z+1, r24	; 0x01
     820:	08 c1       	rjmp	.+528    	; 0xa32 <_fpadd_parts+0x286>
     822:	92 30       	cpi	r25, 0x02	; 2
     824:	09 f4       	brne	.+2      	; 0x828 <_fpadd_parts+0x7c>
     826:	07 c1       	rjmp	.+526    	; 0xa36 <_fpadd_parts+0x28a>
     828:	12 96       	adiw	r26, 0x02	; 2
     82a:	2d 90       	ld	r2, X+
     82c:	3c 90       	ld	r3, X
     82e:	13 97       	sbiw	r26, 0x03	; 3
     830:	eb 01       	movw	r28, r22
     832:	8a 81       	ldd	r24, Y+2	; 0x02
     834:	9b 81       	ldd	r25, Y+3	; 0x03
     836:	14 96       	adiw	r26, 0x04	; 4
     838:	ad 90       	ld	r10, X+
     83a:	bd 90       	ld	r11, X+
     83c:	cd 90       	ld	r12, X+
     83e:	dc 90       	ld	r13, X
     840:	17 97       	sbiw	r26, 0x07	; 7
     842:	ec 80       	ldd	r14, Y+4	; 0x04
     844:	fd 80       	ldd	r15, Y+5	; 0x05
     846:	0e 81       	ldd	r16, Y+6	; 0x06
     848:	1f 81       	ldd	r17, Y+7	; 0x07
     84a:	91 01       	movw	r18, r2
     84c:	28 1b       	sub	r18, r24
     84e:	39 0b       	sbc	r19, r25
     850:	b9 01       	movw	r22, r18
     852:	37 ff       	sbrs	r19, 7
     854:	04 c0       	rjmp	.+8      	; 0x85e <_fpadd_parts+0xb2>
     856:	66 27       	eor	r22, r22
     858:	77 27       	eor	r23, r23
     85a:	62 1b       	sub	r22, r18
     85c:	73 0b       	sbc	r23, r19
     85e:	60 32       	cpi	r22, 0x20	; 32
     860:	71 05       	cpc	r23, r1
     862:	0c f0       	brlt	.+2      	; 0x866 <_fpadd_parts+0xba>
     864:	61 c0       	rjmp	.+194    	; 0x928 <_fpadd_parts+0x17c>
     866:	12 16       	cp	r1, r18
     868:	13 06       	cpc	r1, r19
     86a:	6c f5       	brge	.+90     	; 0x8c6 <_fpadd_parts+0x11a>
     86c:	37 01       	movw	r6, r14
     86e:	48 01       	movw	r8, r16
     870:	06 2e       	mov	r0, r22
     872:	04 c0       	rjmp	.+8      	; 0x87c <_fpadd_parts+0xd0>
     874:	96 94       	lsr	r9
     876:	87 94       	ror	r8
     878:	77 94       	ror	r7
     87a:	67 94       	ror	r6
     87c:	0a 94       	dec	r0
     87e:	d2 f7       	brpl	.-12     	; 0x874 <_fpadd_parts+0xc8>
     880:	21 e0       	ldi	r18, 0x01	; 1
     882:	30 e0       	ldi	r19, 0x00	; 0
     884:	40 e0       	ldi	r20, 0x00	; 0
     886:	50 e0       	ldi	r21, 0x00	; 0
     888:	04 c0       	rjmp	.+8      	; 0x892 <_fpadd_parts+0xe6>
     88a:	22 0f       	add	r18, r18
     88c:	33 1f       	adc	r19, r19
     88e:	44 1f       	adc	r20, r20
     890:	55 1f       	adc	r21, r21
     892:	6a 95       	dec	r22
     894:	d2 f7       	brpl	.-12     	; 0x88a <_fpadd_parts+0xde>
     896:	21 50       	subi	r18, 0x01	; 1
     898:	30 40       	sbci	r19, 0x00	; 0
     89a:	40 40       	sbci	r20, 0x00	; 0
     89c:	50 40       	sbci	r21, 0x00	; 0
     89e:	2e 21       	and	r18, r14
     8a0:	3f 21       	and	r19, r15
     8a2:	40 23       	and	r20, r16
     8a4:	51 23       	and	r21, r17
     8a6:	21 15       	cp	r18, r1
     8a8:	31 05       	cpc	r19, r1
     8aa:	41 05       	cpc	r20, r1
     8ac:	51 05       	cpc	r21, r1
     8ae:	21 f0       	breq	.+8      	; 0x8b8 <_fpadd_parts+0x10c>
     8b0:	21 e0       	ldi	r18, 0x01	; 1
     8b2:	30 e0       	ldi	r19, 0x00	; 0
     8b4:	40 e0       	ldi	r20, 0x00	; 0
     8b6:	50 e0       	ldi	r21, 0x00	; 0
     8b8:	79 01       	movw	r14, r18
     8ba:	8a 01       	movw	r16, r20
     8bc:	e6 28       	or	r14, r6
     8be:	f7 28       	or	r15, r7
     8c0:	08 29       	or	r16, r8
     8c2:	19 29       	or	r17, r9
     8c4:	3c c0       	rjmp	.+120    	; 0x93e <_fpadd_parts+0x192>
     8c6:	23 2b       	or	r18, r19
     8c8:	d1 f1       	breq	.+116    	; 0x93e <_fpadd_parts+0x192>
     8ca:	26 0e       	add	r2, r22
     8cc:	37 1e       	adc	r3, r23
     8ce:	35 01       	movw	r6, r10
     8d0:	46 01       	movw	r8, r12
     8d2:	06 2e       	mov	r0, r22
     8d4:	04 c0       	rjmp	.+8      	; 0x8de <_fpadd_parts+0x132>
     8d6:	96 94       	lsr	r9
     8d8:	87 94       	ror	r8
     8da:	77 94       	ror	r7
     8dc:	67 94       	ror	r6
     8de:	0a 94       	dec	r0
     8e0:	d2 f7       	brpl	.-12     	; 0x8d6 <_fpadd_parts+0x12a>
     8e2:	21 e0       	ldi	r18, 0x01	; 1
     8e4:	30 e0       	ldi	r19, 0x00	; 0
     8e6:	40 e0       	ldi	r20, 0x00	; 0
     8e8:	50 e0       	ldi	r21, 0x00	; 0
     8ea:	04 c0       	rjmp	.+8      	; 0x8f4 <_fpadd_parts+0x148>
     8ec:	22 0f       	add	r18, r18
     8ee:	33 1f       	adc	r19, r19
     8f0:	44 1f       	adc	r20, r20
     8f2:	55 1f       	adc	r21, r21
     8f4:	6a 95       	dec	r22
     8f6:	d2 f7       	brpl	.-12     	; 0x8ec <_fpadd_parts+0x140>
     8f8:	21 50       	subi	r18, 0x01	; 1
     8fa:	30 40       	sbci	r19, 0x00	; 0
     8fc:	40 40       	sbci	r20, 0x00	; 0
     8fe:	50 40       	sbci	r21, 0x00	; 0
     900:	2a 21       	and	r18, r10
     902:	3b 21       	and	r19, r11
     904:	4c 21       	and	r20, r12
     906:	5d 21       	and	r21, r13
     908:	21 15       	cp	r18, r1
     90a:	31 05       	cpc	r19, r1
     90c:	41 05       	cpc	r20, r1
     90e:	51 05       	cpc	r21, r1
     910:	21 f0       	breq	.+8      	; 0x91a <_fpadd_parts+0x16e>
     912:	21 e0       	ldi	r18, 0x01	; 1
     914:	30 e0       	ldi	r19, 0x00	; 0
     916:	40 e0       	ldi	r20, 0x00	; 0
     918:	50 e0       	ldi	r21, 0x00	; 0
     91a:	59 01       	movw	r10, r18
     91c:	6a 01       	movw	r12, r20
     91e:	a6 28       	or	r10, r6
     920:	b7 28       	or	r11, r7
     922:	c8 28       	or	r12, r8
     924:	d9 28       	or	r13, r9
     926:	0b c0       	rjmp	.+22     	; 0x93e <_fpadd_parts+0x192>
     928:	82 15       	cp	r24, r2
     92a:	93 05       	cpc	r25, r3
     92c:	2c f0       	brlt	.+10     	; 0x938 <_fpadd_parts+0x18c>
     92e:	1c 01       	movw	r2, r24
     930:	aa 24       	eor	r10, r10
     932:	bb 24       	eor	r11, r11
     934:	65 01       	movw	r12, r10
     936:	03 c0       	rjmp	.+6      	; 0x93e <_fpadd_parts+0x192>
     938:	ee 24       	eor	r14, r14
     93a:	ff 24       	eor	r15, r15
     93c:	87 01       	movw	r16, r14
     93e:	11 96       	adiw	r26, 0x01	; 1
     940:	9c 91       	ld	r25, X
     942:	d2 01       	movw	r26, r4
     944:	11 96       	adiw	r26, 0x01	; 1
     946:	8c 91       	ld	r24, X
     948:	98 17       	cp	r25, r24
     94a:	09 f4       	brne	.+2      	; 0x94e <_fpadd_parts+0x1a2>
     94c:	45 c0       	rjmp	.+138    	; 0x9d8 <_fpadd_parts+0x22c>
     94e:	99 23       	and	r25, r25
     950:	39 f0       	breq	.+14     	; 0x960 <_fpadd_parts+0x1b4>
     952:	a8 01       	movw	r20, r16
     954:	97 01       	movw	r18, r14
     956:	2a 19       	sub	r18, r10
     958:	3b 09       	sbc	r19, r11
     95a:	4c 09       	sbc	r20, r12
     95c:	5d 09       	sbc	r21, r13
     95e:	06 c0       	rjmp	.+12     	; 0x96c <_fpadd_parts+0x1c0>
     960:	a6 01       	movw	r20, r12
     962:	95 01       	movw	r18, r10
     964:	2e 19       	sub	r18, r14
     966:	3f 09       	sbc	r19, r15
     968:	40 0b       	sbc	r20, r16
     96a:	51 0b       	sbc	r21, r17
     96c:	57 fd       	sbrc	r21, 7
     96e:	08 c0       	rjmp	.+16     	; 0x980 <_fpadd_parts+0x1d4>
     970:	11 82       	std	Z+1, r1	; 0x01
     972:	33 82       	std	Z+3, r3	; 0x03
     974:	22 82       	std	Z+2, r2	; 0x02
     976:	24 83       	std	Z+4, r18	; 0x04
     978:	35 83       	std	Z+5, r19	; 0x05
     97a:	46 83       	std	Z+6, r20	; 0x06
     97c:	57 83       	std	Z+7, r21	; 0x07
     97e:	1d c0       	rjmp	.+58     	; 0x9ba <_fpadd_parts+0x20e>
     980:	81 e0       	ldi	r24, 0x01	; 1
     982:	81 83       	std	Z+1, r24	; 0x01
     984:	33 82       	std	Z+3, r3	; 0x03
     986:	22 82       	std	Z+2, r2	; 0x02
     988:	88 27       	eor	r24, r24
     98a:	99 27       	eor	r25, r25
     98c:	dc 01       	movw	r26, r24
     98e:	82 1b       	sub	r24, r18
     990:	93 0b       	sbc	r25, r19
     992:	a4 0b       	sbc	r26, r20
     994:	b5 0b       	sbc	r27, r21
     996:	84 83       	std	Z+4, r24	; 0x04
     998:	95 83       	std	Z+5, r25	; 0x05
     99a:	a6 83       	std	Z+6, r26	; 0x06
     99c:	b7 83       	std	Z+7, r27	; 0x07
     99e:	0d c0       	rjmp	.+26     	; 0x9ba <_fpadd_parts+0x20e>
     9a0:	22 0f       	add	r18, r18
     9a2:	33 1f       	adc	r19, r19
     9a4:	44 1f       	adc	r20, r20
     9a6:	55 1f       	adc	r21, r21
     9a8:	24 83       	std	Z+4, r18	; 0x04
     9aa:	35 83       	std	Z+5, r19	; 0x05
     9ac:	46 83       	std	Z+6, r20	; 0x06
     9ae:	57 83       	std	Z+7, r21	; 0x07
     9b0:	82 81       	ldd	r24, Z+2	; 0x02
     9b2:	93 81       	ldd	r25, Z+3	; 0x03
     9b4:	01 97       	sbiw	r24, 0x01	; 1
     9b6:	93 83       	std	Z+3, r25	; 0x03
     9b8:	82 83       	std	Z+2, r24	; 0x02
     9ba:	24 81       	ldd	r18, Z+4	; 0x04
     9bc:	35 81       	ldd	r19, Z+5	; 0x05
     9be:	46 81       	ldd	r20, Z+6	; 0x06
     9c0:	57 81       	ldd	r21, Z+7	; 0x07
     9c2:	da 01       	movw	r26, r20
     9c4:	c9 01       	movw	r24, r18
     9c6:	01 97       	sbiw	r24, 0x01	; 1
     9c8:	a1 09       	sbc	r26, r1
     9ca:	b1 09       	sbc	r27, r1
     9cc:	8f 5f       	subi	r24, 0xFF	; 255
     9ce:	9f 4f       	sbci	r25, 0xFF	; 255
     9d0:	af 4f       	sbci	r26, 0xFF	; 255
     9d2:	bf 43       	sbci	r27, 0x3F	; 63
     9d4:	28 f3       	brcs	.-54     	; 0x9a0 <_fpadd_parts+0x1f4>
     9d6:	0b c0       	rjmp	.+22     	; 0x9ee <_fpadd_parts+0x242>
     9d8:	91 83       	std	Z+1, r25	; 0x01
     9da:	33 82       	std	Z+3, r3	; 0x03
     9dc:	22 82       	std	Z+2, r2	; 0x02
     9de:	ea 0c       	add	r14, r10
     9e0:	fb 1c       	adc	r15, r11
     9e2:	0c 1d       	adc	r16, r12
     9e4:	1d 1d       	adc	r17, r13
     9e6:	e4 82       	std	Z+4, r14	; 0x04
     9e8:	f5 82       	std	Z+5, r15	; 0x05
     9ea:	06 83       	std	Z+6, r16	; 0x06
     9ec:	17 83       	std	Z+7, r17	; 0x07
     9ee:	83 e0       	ldi	r24, 0x03	; 3
     9f0:	80 83       	st	Z, r24
     9f2:	24 81       	ldd	r18, Z+4	; 0x04
     9f4:	35 81       	ldd	r19, Z+5	; 0x05
     9f6:	46 81       	ldd	r20, Z+6	; 0x06
     9f8:	57 81       	ldd	r21, Z+7	; 0x07
     9fa:	57 ff       	sbrs	r21, 7
     9fc:	1a c0       	rjmp	.+52     	; 0xa32 <_fpadd_parts+0x286>
     9fe:	c9 01       	movw	r24, r18
     a00:	aa 27       	eor	r26, r26
     a02:	97 fd       	sbrc	r25, 7
     a04:	a0 95       	com	r26
     a06:	ba 2f       	mov	r27, r26
     a08:	81 70       	andi	r24, 0x01	; 1
     a0a:	90 70       	andi	r25, 0x00	; 0
     a0c:	a0 70       	andi	r26, 0x00	; 0
     a0e:	b0 70       	andi	r27, 0x00	; 0
     a10:	56 95       	lsr	r21
     a12:	47 95       	ror	r20
     a14:	37 95       	ror	r19
     a16:	27 95       	ror	r18
     a18:	82 2b       	or	r24, r18
     a1a:	93 2b       	or	r25, r19
     a1c:	a4 2b       	or	r26, r20
     a1e:	b5 2b       	or	r27, r21
     a20:	84 83       	std	Z+4, r24	; 0x04
     a22:	95 83       	std	Z+5, r25	; 0x05
     a24:	a6 83       	std	Z+6, r26	; 0x06
     a26:	b7 83       	std	Z+7, r27	; 0x07
     a28:	82 81       	ldd	r24, Z+2	; 0x02
     a2a:	93 81       	ldd	r25, Z+3	; 0x03
     a2c:	01 96       	adiw	r24, 0x01	; 1
     a2e:	93 83       	std	Z+3, r25	; 0x03
     a30:	82 83       	std	Z+2, r24	; 0x02
     a32:	df 01       	movw	r26, r30
     a34:	01 c0       	rjmp	.+2      	; 0xa38 <_fpadd_parts+0x28c>
     a36:	d2 01       	movw	r26, r4
     a38:	cd 01       	movw	r24, r26
     a3a:	cd b7       	in	r28, 0x3d	; 61
     a3c:	de b7       	in	r29, 0x3e	; 62
     a3e:	e2 e1       	ldi	r30, 0x12	; 18
     a40:	0c 94 7e 18 	jmp	0x30fc	; 0x30fc <__epilogue_restores__>

00000a44 <__subsf3>:
     a44:	a0 e2       	ldi	r26, 0x20	; 32
     a46:	b0 e0       	ldi	r27, 0x00	; 0
     a48:	e8 e2       	ldi	r30, 0x28	; 40
     a4a:	f5 e0       	ldi	r31, 0x05	; 5
     a4c:	0c 94 6e 18 	jmp	0x30dc	; 0x30dc <__prologue_saves__+0x18>
     a50:	69 83       	std	Y+1, r22	; 0x01
     a52:	7a 83       	std	Y+2, r23	; 0x02
     a54:	8b 83       	std	Y+3, r24	; 0x03
     a56:	9c 83       	std	Y+4, r25	; 0x04
     a58:	2d 83       	std	Y+5, r18	; 0x05
     a5a:	3e 83       	std	Y+6, r19	; 0x06
     a5c:	4f 83       	std	Y+7, r20	; 0x07
     a5e:	58 87       	std	Y+8, r21	; 0x08
     a60:	e9 e0       	ldi	r30, 0x09	; 9
     a62:	ee 2e       	mov	r14, r30
     a64:	f1 2c       	mov	r15, r1
     a66:	ec 0e       	add	r14, r28
     a68:	fd 1e       	adc	r15, r29
     a6a:	ce 01       	movw	r24, r28
     a6c:	01 96       	adiw	r24, 0x01	; 1
     a6e:	b7 01       	movw	r22, r14
     a70:	0e 94 fc 08 	call	0x11f8	; 0x11f8 <__unpack_f>
     a74:	8e 01       	movw	r16, r28
     a76:	0f 5e       	subi	r16, 0xEF	; 239
     a78:	1f 4f       	sbci	r17, 0xFF	; 255
     a7a:	ce 01       	movw	r24, r28
     a7c:	05 96       	adiw	r24, 0x05	; 5
     a7e:	b8 01       	movw	r22, r16
     a80:	0e 94 fc 08 	call	0x11f8	; 0x11f8 <__unpack_f>
     a84:	8a 89       	ldd	r24, Y+18	; 0x12
     a86:	91 e0       	ldi	r25, 0x01	; 1
     a88:	89 27       	eor	r24, r25
     a8a:	8a 8b       	std	Y+18, r24	; 0x12
     a8c:	c7 01       	movw	r24, r14
     a8e:	b8 01       	movw	r22, r16
     a90:	ae 01       	movw	r20, r28
     a92:	47 5e       	subi	r20, 0xE7	; 231
     a94:	5f 4f       	sbci	r21, 0xFF	; 255
     a96:	0e 94 d6 03 	call	0x7ac	; 0x7ac <_fpadd_parts>
     a9a:	0e 94 27 08 	call	0x104e	; 0x104e <__pack_f>
     a9e:	a0 96       	adiw	r28, 0x20	; 32
     aa0:	e6 e0       	ldi	r30, 0x06	; 6
     aa2:	0c 94 8a 18 	jmp	0x3114	; 0x3114 <__epilogue_restores__+0x18>

00000aa6 <__addsf3>:
     aa6:	a0 e2       	ldi	r26, 0x20	; 32
     aa8:	b0 e0       	ldi	r27, 0x00	; 0
     aaa:	e9 e5       	ldi	r30, 0x59	; 89
     aac:	f5 e0       	ldi	r31, 0x05	; 5
     aae:	0c 94 6e 18 	jmp	0x30dc	; 0x30dc <__prologue_saves__+0x18>
     ab2:	69 83       	std	Y+1, r22	; 0x01
     ab4:	7a 83       	std	Y+2, r23	; 0x02
     ab6:	8b 83       	std	Y+3, r24	; 0x03
     ab8:	9c 83       	std	Y+4, r25	; 0x04
     aba:	2d 83       	std	Y+5, r18	; 0x05
     abc:	3e 83       	std	Y+6, r19	; 0x06
     abe:	4f 83       	std	Y+7, r20	; 0x07
     ac0:	58 87       	std	Y+8, r21	; 0x08
     ac2:	f9 e0       	ldi	r31, 0x09	; 9
     ac4:	ef 2e       	mov	r14, r31
     ac6:	f1 2c       	mov	r15, r1
     ac8:	ec 0e       	add	r14, r28
     aca:	fd 1e       	adc	r15, r29
     acc:	ce 01       	movw	r24, r28
     ace:	01 96       	adiw	r24, 0x01	; 1
     ad0:	b7 01       	movw	r22, r14
     ad2:	0e 94 fc 08 	call	0x11f8	; 0x11f8 <__unpack_f>
     ad6:	8e 01       	movw	r16, r28
     ad8:	0f 5e       	subi	r16, 0xEF	; 239
     ada:	1f 4f       	sbci	r17, 0xFF	; 255
     adc:	ce 01       	movw	r24, r28
     ade:	05 96       	adiw	r24, 0x05	; 5
     ae0:	b8 01       	movw	r22, r16
     ae2:	0e 94 fc 08 	call	0x11f8	; 0x11f8 <__unpack_f>
     ae6:	c7 01       	movw	r24, r14
     ae8:	b8 01       	movw	r22, r16
     aea:	ae 01       	movw	r20, r28
     aec:	47 5e       	subi	r20, 0xE7	; 231
     aee:	5f 4f       	sbci	r21, 0xFF	; 255
     af0:	0e 94 d6 03 	call	0x7ac	; 0x7ac <_fpadd_parts>
     af4:	0e 94 27 08 	call	0x104e	; 0x104e <__pack_f>
     af8:	a0 96       	adiw	r28, 0x20	; 32
     afa:	e6 e0       	ldi	r30, 0x06	; 6
     afc:	0c 94 8a 18 	jmp	0x3114	; 0x3114 <__epilogue_restores__+0x18>

00000b00 <__mulsf3>:
     b00:	a0 e2       	ldi	r26, 0x20	; 32
     b02:	b0 e0       	ldi	r27, 0x00	; 0
     b04:	e6 e8       	ldi	r30, 0x86	; 134
     b06:	f5 e0       	ldi	r31, 0x05	; 5
     b08:	0c 94 62 18 	jmp	0x30c4	; 0x30c4 <__prologue_saves__>
     b0c:	69 83       	std	Y+1, r22	; 0x01
     b0e:	7a 83       	std	Y+2, r23	; 0x02
     b10:	8b 83       	std	Y+3, r24	; 0x03
     b12:	9c 83       	std	Y+4, r25	; 0x04
     b14:	2d 83       	std	Y+5, r18	; 0x05
     b16:	3e 83       	std	Y+6, r19	; 0x06
     b18:	4f 83       	std	Y+7, r20	; 0x07
     b1a:	58 87       	std	Y+8, r21	; 0x08
     b1c:	ce 01       	movw	r24, r28
     b1e:	01 96       	adiw	r24, 0x01	; 1
     b20:	be 01       	movw	r22, r28
     b22:	67 5f       	subi	r22, 0xF7	; 247
     b24:	7f 4f       	sbci	r23, 0xFF	; 255
     b26:	0e 94 fc 08 	call	0x11f8	; 0x11f8 <__unpack_f>
     b2a:	ce 01       	movw	r24, r28
     b2c:	05 96       	adiw	r24, 0x05	; 5
     b2e:	be 01       	movw	r22, r28
     b30:	6f 5e       	subi	r22, 0xEF	; 239
     b32:	7f 4f       	sbci	r23, 0xFF	; 255
     b34:	0e 94 fc 08 	call	0x11f8	; 0x11f8 <__unpack_f>
     b38:	99 85       	ldd	r25, Y+9	; 0x09
     b3a:	92 30       	cpi	r25, 0x02	; 2
     b3c:	88 f0       	brcs	.+34     	; 0xb60 <__mulsf3+0x60>
     b3e:	89 89       	ldd	r24, Y+17	; 0x11
     b40:	82 30       	cpi	r24, 0x02	; 2
     b42:	c8 f0       	brcs	.+50     	; 0xb76 <__mulsf3+0x76>
     b44:	94 30       	cpi	r25, 0x04	; 4
     b46:	19 f4       	brne	.+6      	; 0xb4e <__mulsf3+0x4e>
     b48:	82 30       	cpi	r24, 0x02	; 2
     b4a:	51 f4       	brne	.+20     	; 0xb60 <__mulsf3+0x60>
     b4c:	04 c0       	rjmp	.+8      	; 0xb56 <__mulsf3+0x56>
     b4e:	84 30       	cpi	r24, 0x04	; 4
     b50:	29 f4       	brne	.+10     	; 0xb5c <__mulsf3+0x5c>
     b52:	92 30       	cpi	r25, 0x02	; 2
     b54:	81 f4       	brne	.+32     	; 0xb76 <__mulsf3+0x76>
     b56:	8b e7       	ldi	r24, 0x7B	; 123
     b58:	91 e0       	ldi	r25, 0x01	; 1
     b5a:	c6 c0       	rjmp	.+396    	; 0xce8 <__mulsf3+0x1e8>
     b5c:	92 30       	cpi	r25, 0x02	; 2
     b5e:	49 f4       	brne	.+18     	; 0xb72 <__mulsf3+0x72>
     b60:	20 e0       	ldi	r18, 0x00	; 0
     b62:	9a 85       	ldd	r25, Y+10	; 0x0a
     b64:	8a 89       	ldd	r24, Y+18	; 0x12
     b66:	98 13       	cpse	r25, r24
     b68:	21 e0       	ldi	r18, 0x01	; 1
     b6a:	2a 87       	std	Y+10, r18	; 0x0a
     b6c:	ce 01       	movw	r24, r28
     b6e:	09 96       	adiw	r24, 0x09	; 9
     b70:	bb c0       	rjmp	.+374    	; 0xce8 <__mulsf3+0x1e8>
     b72:	82 30       	cpi	r24, 0x02	; 2
     b74:	49 f4       	brne	.+18     	; 0xb88 <__mulsf3+0x88>
     b76:	20 e0       	ldi	r18, 0x00	; 0
     b78:	9a 85       	ldd	r25, Y+10	; 0x0a
     b7a:	8a 89       	ldd	r24, Y+18	; 0x12
     b7c:	98 13       	cpse	r25, r24
     b7e:	21 e0       	ldi	r18, 0x01	; 1
     b80:	2a 8b       	std	Y+18, r18	; 0x12
     b82:	ce 01       	movw	r24, r28
     b84:	41 96       	adiw	r24, 0x11	; 17
     b86:	b0 c0       	rjmp	.+352    	; 0xce8 <__mulsf3+0x1e8>
     b88:	2d 84       	ldd	r2, Y+13	; 0x0d
     b8a:	3e 84       	ldd	r3, Y+14	; 0x0e
     b8c:	4f 84       	ldd	r4, Y+15	; 0x0f
     b8e:	58 88       	ldd	r5, Y+16	; 0x10
     b90:	6d 88       	ldd	r6, Y+21	; 0x15
     b92:	7e 88       	ldd	r7, Y+22	; 0x16
     b94:	8f 88       	ldd	r8, Y+23	; 0x17
     b96:	98 8c       	ldd	r9, Y+24	; 0x18
     b98:	ee 24       	eor	r14, r14
     b9a:	ff 24       	eor	r15, r15
     b9c:	87 01       	movw	r16, r14
     b9e:	aa 24       	eor	r10, r10
     ba0:	bb 24       	eor	r11, r11
     ba2:	65 01       	movw	r12, r10
     ba4:	40 e0       	ldi	r20, 0x00	; 0
     ba6:	50 e0       	ldi	r21, 0x00	; 0
     ba8:	60 e0       	ldi	r22, 0x00	; 0
     baa:	70 e0       	ldi	r23, 0x00	; 0
     bac:	e0 e0       	ldi	r30, 0x00	; 0
     bae:	f0 e0       	ldi	r31, 0x00	; 0
     bb0:	c1 01       	movw	r24, r2
     bb2:	81 70       	andi	r24, 0x01	; 1
     bb4:	90 70       	andi	r25, 0x00	; 0
     bb6:	89 2b       	or	r24, r25
     bb8:	e9 f0       	breq	.+58     	; 0xbf4 <__mulsf3+0xf4>
     bba:	e6 0c       	add	r14, r6
     bbc:	f7 1c       	adc	r15, r7
     bbe:	08 1d       	adc	r16, r8
     bc0:	19 1d       	adc	r17, r9
     bc2:	9a 01       	movw	r18, r20
     bc4:	ab 01       	movw	r20, r22
     bc6:	2a 0d       	add	r18, r10
     bc8:	3b 1d       	adc	r19, r11
     bca:	4c 1d       	adc	r20, r12
     bcc:	5d 1d       	adc	r21, r13
     bce:	80 e0       	ldi	r24, 0x00	; 0
     bd0:	90 e0       	ldi	r25, 0x00	; 0
     bd2:	a0 e0       	ldi	r26, 0x00	; 0
     bd4:	b0 e0       	ldi	r27, 0x00	; 0
     bd6:	e6 14       	cp	r14, r6
     bd8:	f7 04       	cpc	r15, r7
     bda:	08 05       	cpc	r16, r8
     bdc:	19 05       	cpc	r17, r9
     bde:	20 f4       	brcc	.+8      	; 0xbe8 <__mulsf3+0xe8>
     be0:	81 e0       	ldi	r24, 0x01	; 1
     be2:	90 e0       	ldi	r25, 0x00	; 0
     be4:	a0 e0       	ldi	r26, 0x00	; 0
     be6:	b0 e0       	ldi	r27, 0x00	; 0
     be8:	ba 01       	movw	r22, r20
     bea:	a9 01       	movw	r20, r18
     bec:	48 0f       	add	r20, r24
     bee:	59 1f       	adc	r21, r25
     bf0:	6a 1f       	adc	r22, r26
     bf2:	7b 1f       	adc	r23, r27
     bf4:	aa 0c       	add	r10, r10
     bf6:	bb 1c       	adc	r11, r11
     bf8:	cc 1c       	adc	r12, r12
     bfa:	dd 1c       	adc	r13, r13
     bfc:	97 fe       	sbrs	r9, 7
     bfe:	08 c0       	rjmp	.+16     	; 0xc10 <__mulsf3+0x110>
     c00:	81 e0       	ldi	r24, 0x01	; 1
     c02:	90 e0       	ldi	r25, 0x00	; 0
     c04:	a0 e0       	ldi	r26, 0x00	; 0
     c06:	b0 e0       	ldi	r27, 0x00	; 0
     c08:	a8 2a       	or	r10, r24
     c0a:	b9 2a       	or	r11, r25
     c0c:	ca 2a       	or	r12, r26
     c0e:	db 2a       	or	r13, r27
     c10:	31 96       	adiw	r30, 0x01	; 1
     c12:	e0 32       	cpi	r30, 0x20	; 32
     c14:	f1 05       	cpc	r31, r1
     c16:	49 f0       	breq	.+18     	; 0xc2a <__mulsf3+0x12a>
     c18:	66 0c       	add	r6, r6
     c1a:	77 1c       	adc	r7, r7
     c1c:	88 1c       	adc	r8, r8
     c1e:	99 1c       	adc	r9, r9
     c20:	56 94       	lsr	r5
     c22:	47 94       	ror	r4
     c24:	37 94       	ror	r3
     c26:	27 94       	ror	r2
     c28:	c3 cf       	rjmp	.-122    	; 0xbb0 <__mulsf3+0xb0>
     c2a:	fa 85       	ldd	r31, Y+10	; 0x0a
     c2c:	ea 89       	ldd	r30, Y+18	; 0x12
     c2e:	2b 89       	ldd	r18, Y+19	; 0x13
     c30:	3c 89       	ldd	r19, Y+20	; 0x14
     c32:	8b 85       	ldd	r24, Y+11	; 0x0b
     c34:	9c 85       	ldd	r25, Y+12	; 0x0c
     c36:	28 0f       	add	r18, r24
     c38:	39 1f       	adc	r19, r25
     c3a:	2e 5f       	subi	r18, 0xFE	; 254
     c3c:	3f 4f       	sbci	r19, 0xFF	; 255
     c3e:	17 c0       	rjmp	.+46     	; 0xc6e <__mulsf3+0x16e>
     c40:	ca 01       	movw	r24, r20
     c42:	81 70       	andi	r24, 0x01	; 1
     c44:	90 70       	andi	r25, 0x00	; 0
     c46:	89 2b       	or	r24, r25
     c48:	61 f0       	breq	.+24     	; 0xc62 <__mulsf3+0x162>
     c4a:	16 95       	lsr	r17
     c4c:	07 95       	ror	r16
     c4e:	f7 94       	ror	r15
     c50:	e7 94       	ror	r14
     c52:	80 e0       	ldi	r24, 0x00	; 0
     c54:	90 e0       	ldi	r25, 0x00	; 0
     c56:	a0 e0       	ldi	r26, 0x00	; 0
     c58:	b0 e8       	ldi	r27, 0x80	; 128
     c5a:	e8 2a       	or	r14, r24
     c5c:	f9 2a       	or	r15, r25
     c5e:	0a 2b       	or	r16, r26
     c60:	1b 2b       	or	r17, r27
     c62:	76 95       	lsr	r23
     c64:	67 95       	ror	r22
     c66:	57 95       	ror	r21
     c68:	47 95       	ror	r20
     c6a:	2f 5f       	subi	r18, 0xFF	; 255
     c6c:	3f 4f       	sbci	r19, 0xFF	; 255
     c6e:	77 fd       	sbrc	r23, 7
     c70:	e7 cf       	rjmp	.-50     	; 0xc40 <__mulsf3+0x140>
     c72:	0c c0       	rjmp	.+24     	; 0xc8c <__mulsf3+0x18c>
     c74:	44 0f       	add	r20, r20
     c76:	55 1f       	adc	r21, r21
     c78:	66 1f       	adc	r22, r22
     c7a:	77 1f       	adc	r23, r23
     c7c:	17 fd       	sbrc	r17, 7
     c7e:	41 60       	ori	r20, 0x01	; 1
     c80:	ee 0c       	add	r14, r14
     c82:	ff 1c       	adc	r15, r15
     c84:	00 1f       	adc	r16, r16
     c86:	11 1f       	adc	r17, r17
     c88:	21 50       	subi	r18, 0x01	; 1
     c8a:	30 40       	sbci	r19, 0x00	; 0
     c8c:	40 30       	cpi	r20, 0x00	; 0
     c8e:	90 e0       	ldi	r25, 0x00	; 0
     c90:	59 07       	cpc	r21, r25
     c92:	90 e0       	ldi	r25, 0x00	; 0
     c94:	69 07       	cpc	r22, r25
     c96:	90 e4       	ldi	r25, 0x40	; 64
     c98:	79 07       	cpc	r23, r25
     c9a:	60 f3       	brcs	.-40     	; 0xc74 <__mulsf3+0x174>
     c9c:	2b 8f       	std	Y+27, r18	; 0x1b
     c9e:	3c 8f       	std	Y+28, r19	; 0x1c
     ca0:	db 01       	movw	r26, r22
     ca2:	ca 01       	movw	r24, r20
     ca4:	8f 77       	andi	r24, 0x7F	; 127
     ca6:	90 70       	andi	r25, 0x00	; 0
     ca8:	a0 70       	andi	r26, 0x00	; 0
     caa:	b0 70       	andi	r27, 0x00	; 0
     cac:	80 34       	cpi	r24, 0x40	; 64
     cae:	91 05       	cpc	r25, r1
     cb0:	a1 05       	cpc	r26, r1
     cb2:	b1 05       	cpc	r27, r1
     cb4:	61 f4       	brne	.+24     	; 0xcce <__mulsf3+0x1ce>
     cb6:	47 fd       	sbrc	r20, 7
     cb8:	0a c0       	rjmp	.+20     	; 0xcce <__mulsf3+0x1ce>
     cba:	e1 14       	cp	r14, r1
     cbc:	f1 04       	cpc	r15, r1
     cbe:	01 05       	cpc	r16, r1
     cc0:	11 05       	cpc	r17, r1
     cc2:	29 f0       	breq	.+10     	; 0xcce <__mulsf3+0x1ce>
     cc4:	40 5c       	subi	r20, 0xC0	; 192
     cc6:	5f 4f       	sbci	r21, 0xFF	; 255
     cc8:	6f 4f       	sbci	r22, 0xFF	; 255
     cca:	7f 4f       	sbci	r23, 0xFF	; 255
     ccc:	40 78       	andi	r20, 0x80	; 128
     cce:	1a 8e       	std	Y+26, r1	; 0x1a
     cd0:	fe 17       	cp	r31, r30
     cd2:	11 f0       	breq	.+4      	; 0xcd8 <__mulsf3+0x1d8>
     cd4:	81 e0       	ldi	r24, 0x01	; 1
     cd6:	8a 8f       	std	Y+26, r24	; 0x1a
     cd8:	4d 8f       	std	Y+29, r20	; 0x1d
     cda:	5e 8f       	std	Y+30, r21	; 0x1e
     cdc:	6f 8f       	std	Y+31, r22	; 0x1f
     cde:	78 a3       	std	Y+32, r23	; 0x20
     ce0:	83 e0       	ldi	r24, 0x03	; 3
     ce2:	89 8f       	std	Y+25, r24	; 0x19
     ce4:	ce 01       	movw	r24, r28
     ce6:	49 96       	adiw	r24, 0x19	; 25
     ce8:	0e 94 27 08 	call	0x104e	; 0x104e <__pack_f>
     cec:	a0 96       	adiw	r28, 0x20	; 32
     cee:	e2 e1       	ldi	r30, 0x12	; 18
     cf0:	0c 94 7e 18 	jmp	0x30fc	; 0x30fc <__epilogue_restores__>

00000cf4 <__divsf3>:
     cf4:	a8 e1       	ldi	r26, 0x18	; 24
     cf6:	b0 e0       	ldi	r27, 0x00	; 0
     cf8:	e0 e8       	ldi	r30, 0x80	; 128
     cfa:	f6 e0       	ldi	r31, 0x06	; 6
     cfc:	0c 94 6a 18 	jmp	0x30d4	; 0x30d4 <__prologue_saves__+0x10>
     d00:	69 83       	std	Y+1, r22	; 0x01
     d02:	7a 83       	std	Y+2, r23	; 0x02
     d04:	8b 83       	std	Y+3, r24	; 0x03
     d06:	9c 83       	std	Y+4, r25	; 0x04
     d08:	2d 83       	std	Y+5, r18	; 0x05
     d0a:	3e 83       	std	Y+6, r19	; 0x06
     d0c:	4f 83       	std	Y+7, r20	; 0x07
     d0e:	58 87       	std	Y+8, r21	; 0x08
     d10:	b9 e0       	ldi	r27, 0x09	; 9
     d12:	eb 2e       	mov	r14, r27
     d14:	f1 2c       	mov	r15, r1
     d16:	ec 0e       	add	r14, r28
     d18:	fd 1e       	adc	r15, r29
     d1a:	ce 01       	movw	r24, r28
     d1c:	01 96       	adiw	r24, 0x01	; 1
     d1e:	b7 01       	movw	r22, r14
     d20:	0e 94 fc 08 	call	0x11f8	; 0x11f8 <__unpack_f>
     d24:	8e 01       	movw	r16, r28
     d26:	0f 5e       	subi	r16, 0xEF	; 239
     d28:	1f 4f       	sbci	r17, 0xFF	; 255
     d2a:	ce 01       	movw	r24, r28
     d2c:	05 96       	adiw	r24, 0x05	; 5
     d2e:	b8 01       	movw	r22, r16
     d30:	0e 94 fc 08 	call	0x11f8	; 0x11f8 <__unpack_f>
     d34:	29 85       	ldd	r18, Y+9	; 0x09
     d36:	22 30       	cpi	r18, 0x02	; 2
     d38:	08 f4       	brcc	.+2      	; 0xd3c <__divsf3+0x48>
     d3a:	7e c0       	rjmp	.+252    	; 0xe38 <__divsf3+0x144>
     d3c:	39 89       	ldd	r19, Y+17	; 0x11
     d3e:	32 30       	cpi	r19, 0x02	; 2
     d40:	10 f4       	brcc	.+4      	; 0xd46 <__divsf3+0x52>
     d42:	b8 01       	movw	r22, r16
     d44:	7c c0       	rjmp	.+248    	; 0xe3e <__divsf3+0x14a>
     d46:	8a 85       	ldd	r24, Y+10	; 0x0a
     d48:	9a 89       	ldd	r25, Y+18	; 0x12
     d4a:	89 27       	eor	r24, r25
     d4c:	8a 87       	std	Y+10, r24	; 0x0a
     d4e:	24 30       	cpi	r18, 0x04	; 4
     d50:	11 f0       	breq	.+4      	; 0xd56 <__divsf3+0x62>
     d52:	22 30       	cpi	r18, 0x02	; 2
     d54:	31 f4       	brne	.+12     	; 0xd62 <__divsf3+0x6e>
     d56:	23 17       	cp	r18, r19
     d58:	09 f0       	breq	.+2      	; 0xd5c <__divsf3+0x68>
     d5a:	6e c0       	rjmp	.+220    	; 0xe38 <__divsf3+0x144>
     d5c:	6b e7       	ldi	r22, 0x7B	; 123
     d5e:	71 e0       	ldi	r23, 0x01	; 1
     d60:	6e c0       	rjmp	.+220    	; 0xe3e <__divsf3+0x14a>
     d62:	34 30       	cpi	r19, 0x04	; 4
     d64:	39 f4       	brne	.+14     	; 0xd74 <__divsf3+0x80>
     d66:	1d 86       	std	Y+13, r1	; 0x0d
     d68:	1e 86       	std	Y+14, r1	; 0x0e
     d6a:	1f 86       	std	Y+15, r1	; 0x0f
     d6c:	18 8a       	std	Y+16, r1	; 0x10
     d6e:	1c 86       	std	Y+12, r1	; 0x0c
     d70:	1b 86       	std	Y+11, r1	; 0x0b
     d72:	04 c0       	rjmp	.+8      	; 0xd7c <__divsf3+0x88>
     d74:	32 30       	cpi	r19, 0x02	; 2
     d76:	21 f4       	brne	.+8      	; 0xd80 <__divsf3+0x8c>
     d78:	84 e0       	ldi	r24, 0x04	; 4
     d7a:	89 87       	std	Y+9, r24	; 0x09
     d7c:	b7 01       	movw	r22, r14
     d7e:	5f c0       	rjmp	.+190    	; 0xe3e <__divsf3+0x14a>
     d80:	2b 85       	ldd	r18, Y+11	; 0x0b
     d82:	3c 85       	ldd	r19, Y+12	; 0x0c
     d84:	8b 89       	ldd	r24, Y+19	; 0x13
     d86:	9c 89       	ldd	r25, Y+20	; 0x14
     d88:	28 1b       	sub	r18, r24
     d8a:	39 0b       	sbc	r19, r25
     d8c:	3c 87       	std	Y+12, r19	; 0x0c
     d8e:	2b 87       	std	Y+11, r18	; 0x0b
     d90:	ed 84       	ldd	r14, Y+13	; 0x0d
     d92:	fe 84       	ldd	r15, Y+14	; 0x0e
     d94:	0f 85       	ldd	r16, Y+15	; 0x0f
     d96:	18 89       	ldd	r17, Y+16	; 0x10
     d98:	ad 88       	ldd	r10, Y+21	; 0x15
     d9a:	be 88       	ldd	r11, Y+22	; 0x16
     d9c:	cf 88       	ldd	r12, Y+23	; 0x17
     d9e:	d8 8c       	ldd	r13, Y+24	; 0x18
     da0:	ea 14       	cp	r14, r10
     da2:	fb 04       	cpc	r15, r11
     da4:	0c 05       	cpc	r16, r12
     da6:	1d 05       	cpc	r17, r13
     da8:	40 f4       	brcc	.+16     	; 0xdba <__divsf3+0xc6>
     daa:	ee 0c       	add	r14, r14
     dac:	ff 1c       	adc	r15, r15
     dae:	00 1f       	adc	r16, r16
     db0:	11 1f       	adc	r17, r17
     db2:	21 50       	subi	r18, 0x01	; 1
     db4:	30 40       	sbci	r19, 0x00	; 0
     db6:	3c 87       	std	Y+12, r19	; 0x0c
     db8:	2b 87       	std	Y+11, r18	; 0x0b
     dba:	20 e0       	ldi	r18, 0x00	; 0
     dbc:	30 e0       	ldi	r19, 0x00	; 0
     dbe:	40 e0       	ldi	r20, 0x00	; 0
     dc0:	50 e0       	ldi	r21, 0x00	; 0
     dc2:	80 e0       	ldi	r24, 0x00	; 0
     dc4:	90 e0       	ldi	r25, 0x00	; 0
     dc6:	a0 e0       	ldi	r26, 0x00	; 0
     dc8:	b0 e4       	ldi	r27, 0x40	; 64
     dca:	60 e0       	ldi	r22, 0x00	; 0
     dcc:	70 e0       	ldi	r23, 0x00	; 0
     dce:	ea 14       	cp	r14, r10
     dd0:	fb 04       	cpc	r15, r11
     dd2:	0c 05       	cpc	r16, r12
     dd4:	1d 05       	cpc	r17, r13
     dd6:	40 f0       	brcs	.+16     	; 0xde8 <__divsf3+0xf4>
     dd8:	28 2b       	or	r18, r24
     dda:	39 2b       	or	r19, r25
     ddc:	4a 2b       	or	r20, r26
     dde:	5b 2b       	or	r21, r27
     de0:	ea 18       	sub	r14, r10
     de2:	fb 08       	sbc	r15, r11
     de4:	0c 09       	sbc	r16, r12
     de6:	1d 09       	sbc	r17, r13
     de8:	b6 95       	lsr	r27
     dea:	a7 95       	ror	r26
     dec:	97 95       	ror	r25
     dee:	87 95       	ror	r24
     df0:	ee 0c       	add	r14, r14
     df2:	ff 1c       	adc	r15, r15
     df4:	00 1f       	adc	r16, r16
     df6:	11 1f       	adc	r17, r17
     df8:	6f 5f       	subi	r22, 0xFF	; 255
     dfa:	7f 4f       	sbci	r23, 0xFF	; 255
     dfc:	6f 31       	cpi	r22, 0x1F	; 31
     dfe:	71 05       	cpc	r23, r1
     e00:	31 f7       	brne	.-52     	; 0xdce <__divsf3+0xda>
     e02:	da 01       	movw	r26, r20
     e04:	c9 01       	movw	r24, r18
     e06:	8f 77       	andi	r24, 0x7F	; 127
     e08:	90 70       	andi	r25, 0x00	; 0
     e0a:	a0 70       	andi	r26, 0x00	; 0
     e0c:	b0 70       	andi	r27, 0x00	; 0
     e0e:	80 34       	cpi	r24, 0x40	; 64
     e10:	91 05       	cpc	r25, r1
     e12:	a1 05       	cpc	r26, r1
     e14:	b1 05       	cpc	r27, r1
     e16:	61 f4       	brne	.+24     	; 0xe30 <__divsf3+0x13c>
     e18:	27 fd       	sbrc	r18, 7
     e1a:	0a c0       	rjmp	.+20     	; 0xe30 <__divsf3+0x13c>
     e1c:	e1 14       	cp	r14, r1
     e1e:	f1 04       	cpc	r15, r1
     e20:	01 05       	cpc	r16, r1
     e22:	11 05       	cpc	r17, r1
     e24:	29 f0       	breq	.+10     	; 0xe30 <__divsf3+0x13c>
     e26:	20 5c       	subi	r18, 0xC0	; 192
     e28:	3f 4f       	sbci	r19, 0xFF	; 255
     e2a:	4f 4f       	sbci	r20, 0xFF	; 255
     e2c:	5f 4f       	sbci	r21, 0xFF	; 255
     e2e:	20 78       	andi	r18, 0x80	; 128
     e30:	2d 87       	std	Y+13, r18	; 0x0d
     e32:	3e 87       	std	Y+14, r19	; 0x0e
     e34:	4f 87       	std	Y+15, r20	; 0x0f
     e36:	58 8b       	std	Y+16, r21	; 0x10
     e38:	be 01       	movw	r22, r28
     e3a:	67 5f       	subi	r22, 0xF7	; 247
     e3c:	7f 4f       	sbci	r23, 0xFF	; 255
     e3e:	cb 01       	movw	r24, r22
     e40:	0e 94 27 08 	call	0x104e	; 0x104e <__pack_f>
     e44:	68 96       	adiw	r28, 0x18	; 24
     e46:	ea e0       	ldi	r30, 0x0A	; 10
     e48:	0c 94 86 18 	jmp	0x310c	; 0x310c <__epilogue_restores__+0x10>

00000e4c <__floatsisf>:
     e4c:	a8 e0       	ldi	r26, 0x08	; 8
     e4e:	b0 e0       	ldi	r27, 0x00	; 0
     e50:	ec e2       	ldi	r30, 0x2C	; 44
     e52:	f7 e0       	ldi	r31, 0x07	; 7
     e54:	0c 94 6b 18 	jmp	0x30d6	; 0x30d6 <__prologue_saves__+0x12>
     e58:	9b 01       	movw	r18, r22
     e5a:	ac 01       	movw	r20, r24
     e5c:	83 e0       	ldi	r24, 0x03	; 3
     e5e:	89 83       	std	Y+1, r24	; 0x01
     e60:	da 01       	movw	r26, r20
     e62:	c9 01       	movw	r24, r18
     e64:	88 27       	eor	r24, r24
     e66:	b7 fd       	sbrc	r27, 7
     e68:	83 95       	inc	r24
     e6a:	99 27       	eor	r25, r25
     e6c:	aa 27       	eor	r26, r26
     e6e:	bb 27       	eor	r27, r27
     e70:	b8 2e       	mov	r11, r24
     e72:	21 15       	cp	r18, r1
     e74:	31 05       	cpc	r19, r1
     e76:	41 05       	cpc	r20, r1
     e78:	51 05       	cpc	r21, r1
     e7a:	19 f4       	brne	.+6      	; 0xe82 <__floatsisf+0x36>
     e7c:	82 e0       	ldi	r24, 0x02	; 2
     e7e:	89 83       	std	Y+1, r24	; 0x01
     e80:	3a c0       	rjmp	.+116    	; 0xef6 <__floatsisf+0xaa>
     e82:	88 23       	and	r24, r24
     e84:	a9 f0       	breq	.+42     	; 0xeb0 <__floatsisf+0x64>
     e86:	20 30       	cpi	r18, 0x00	; 0
     e88:	80 e0       	ldi	r24, 0x00	; 0
     e8a:	38 07       	cpc	r19, r24
     e8c:	80 e0       	ldi	r24, 0x00	; 0
     e8e:	48 07       	cpc	r20, r24
     e90:	80 e8       	ldi	r24, 0x80	; 128
     e92:	58 07       	cpc	r21, r24
     e94:	29 f4       	brne	.+10     	; 0xea0 <__floatsisf+0x54>
     e96:	60 e0       	ldi	r22, 0x00	; 0
     e98:	70 e0       	ldi	r23, 0x00	; 0
     e9a:	80 e0       	ldi	r24, 0x00	; 0
     e9c:	9f ec       	ldi	r25, 0xCF	; 207
     e9e:	30 c0       	rjmp	.+96     	; 0xf00 <__floatsisf+0xb4>
     ea0:	ee 24       	eor	r14, r14
     ea2:	ff 24       	eor	r15, r15
     ea4:	87 01       	movw	r16, r14
     ea6:	e2 1a       	sub	r14, r18
     ea8:	f3 0a       	sbc	r15, r19
     eaa:	04 0b       	sbc	r16, r20
     eac:	15 0b       	sbc	r17, r21
     eae:	02 c0       	rjmp	.+4      	; 0xeb4 <__floatsisf+0x68>
     eb0:	79 01       	movw	r14, r18
     eb2:	8a 01       	movw	r16, r20
     eb4:	8e e1       	ldi	r24, 0x1E	; 30
     eb6:	c8 2e       	mov	r12, r24
     eb8:	d1 2c       	mov	r13, r1
     eba:	dc 82       	std	Y+4, r13	; 0x04
     ebc:	cb 82       	std	Y+3, r12	; 0x03
     ebe:	ed 82       	std	Y+5, r14	; 0x05
     ec0:	fe 82       	std	Y+6, r15	; 0x06
     ec2:	0f 83       	std	Y+7, r16	; 0x07
     ec4:	18 87       	std	Y+8, r17	; 0x08
     ec6:	c8 01       	movw	r24, r16
     ec8:	b7 01       	movw	r22, r14
     eca:	0e 94 d8 07 	call	0xfb0	; 0xfb0 <__clzsi2>
     ece:	01 97       	sbiw	r24, 0x01	; 1
     ed0:	18 16       	cp	r1, r24
     ed2:	19 06       	cpc	r1, r25
     ed4:	84 f4       	brge	.+32     	; 0xef6 <__floatsisf+0xaa>
     ed6:	08 2e       	mov	r0, r24
     ed8:	04 c0       	rjmp	.+8      	; 0xee2 <__floatsisf+0x96>
     eda:	ee 0c       	add	r14, r14
     edc:	ff 1c       	adc	r15, r15
     ede:	00 1f       	adc	r16, r16
     ee0:	11 1f       	adc	r17, r17
     ee2:	0a 94       	dec	r0
     ee4:	d2 f7       	brpl	.-12     	; 0xeda <__floatsisf+0x8e>
     ee6:	ed 82       	std	Y+5, r14	; 0x05
     ee8:	fe 82       	std	Y+6, r15	; 0x06
     eea:	0f 83       	std	Y+7, r16	; 0x07
     eec:	18 87       	std	Y+8, r17	; 0x08
     eee:	c8 1a       	sub	r12, r24
     ef0:	d9 0a       	sbc	r13, r25
     ef2:	dc 82       	std	Y+4, r13	; 0x04
     ef4:	cb 82       	std	Y+3, r12	; 0x03
     ef6:	ba 82       	std	Y+2, r11	; 0x02
     ef8:	ce 01       	movw	r24, r28
     efa:	01 96       	adiw	r24, 0x01	; 1
     efc:	0e 94 27 08 	call	0x104e	; 0x104e <__pack_f>
     f00:	28 96       	adiw	r28, 0x08	; 8
     f02:	e9 e0       	ldi	r30, 0x09	; 9
     f04:	0c 94 87 18 	jmp	0x310e	; 0x310e <__epilogue_restores__+0x12>

00000f08 <__fixsfsi>:
     f08:	ac e0       	ldi	r26, 0x0C	; 12
     f0a:	b0 e0       	ldi	r27, 0x00	; 0
     f0c:	ea e8       	ldi	r30, 0x8A	; 138
     f0e:	f7 e0       	ldi	r31, 0x07	; 7
     f10:	0c 94 72 18 	jmp	0x30e4	; 0x30e4 <__prologue_saves__+0x20>
     f14:	69 83       	std	Y+1, r22	; 0x01
     f16:	7a 83       	std	Y+2, r23	; 0x02
     f18:	8b 83       	std	Y+3, r24	; 0x03
     f1a:	9c 83       	std	Y+4, r25	; 0x04
     f1c:	ce 01       	movw	r24, r28
     f1e:	01 96       	adiw	r24, 0x01	; 1
     f20:	be 01       	movw	r22, r28
     f22:	6b 5f       	subi	r22, 0xFB	; 251
     f24:	7f 4f       	sbci	r23, 0xFF	; 255
     f26:	0e 94 fc 08 	call	0x11f8	; 0x11f8 <__unpack_f>
     f2a:	8d 81       	ldd	r24, Y+5	; 0x05
     f2c:	82 30       	cpi	r24, 0x02	; 2
     f2e:	61 f1       	breq	.+88     	; 0xf88 <__fixsfsi+0x80>
     f30:	82 30       	cpi	r24, 0x02	; 2
     f32:	50 f1       	brcs	.+84     	; 0xf88 <__fixsfsi+0x80>
     f34:	84 30       	cpi	r24, 0x04	; 4
     f36:	21 f4       	brne	.+8      	; 0xf40 <__fixsfsi+0x38>
     f38:	8e 81       	ldd	r24, Y+6	; 0x06
     f3a:	88 23       	and	r24, r24
     f3c:	51 f1       	breq	.+84     	; 0xf92 <__fixsfsi+0x8a>
     f3e:	2e c0       	rjmp	.+92     	; 0xf9c <__fixsfsi+0x94>
     f40:	2f 81       	ldd	r18, Y+7	; 0x07
     f42:	38 85       	ldd	r19, Y+8	; 0x08
     f44:	37 fd       	sbrc	r19, 7
     f46:	20 c0       	rjmp	.+64     	; 0xf88 <__fixsfsi+0x80>
     f48:	6e 81       	ldd	r22, Y+6	; 0x06
     f4a:	2f 31       	cpi	r18, 0x1F	; 31
     f4c:	31 05       	cpc	r19, r1
     f4e:	1c f0       	brlt	.+6      	; 0xf56 <__fixsfsi+0x4e>
     f50:	66 23       	and	r22, r22
     f52:	f9 f0       	breq	.+62     	; 0xf92 <__fixsfsi+0x8a>
     f54:	23 c0       	rjmp	.+70     	; 0xf9c <__fixsfsi+0x94>
     f56:	8e e1       	ldi	r24, 0x1E	; 30
     f58:	90 e0       	ldi	r25, 0x00	; 0
     f5a:	82 1b       	sub	r24, r18
     f5c:	93 0b       	sbc	r25, r19
     f5e:	29 85       	ldd	r18, Y+9	; 0x09
     f60:	3a 85       	ldd	r19, Y+10	; 0x0a
     f62:	4b 85       	ldd	r20, Y+11	; 0x0b
     f64:	5c 85       	ldd	r21, Y+12	; 0x0c
     f66:	04 c0       	rjmp	.+8      	; 0xf70 <__fixsfsi+0x68>
     f68:	56 95       	lsr	r21
     f6a:	47 95       	ror	r20
     f6c:	37 95       	ror	r19
     f6e:	27 95       	ror	r18
     f70:	8a 95       	dec	r24
     f72:	d2 f7       	brpl	.-12     	; 0xf68 <__fixsfsi+0x60>
     f74:	66 23       	and	r22, r22
     f76:	b1 f0       	breq	.+44     	; 0xfa4 <__fixsfsi+0x9c>
     f78:	50 95       	com	r21
     f7a:	40 95       	com	r20
     f7c:	30 95       	com	r19
     f7e:	21 95       	neg	r18
     f80:	3f 4f       	sbci	r19, 0xFF	; 255
     f82:	4f 4f       	sbci	r20, 0xFF	; 255
     f84:	5f 4f       	sbci	r21, 0xFF	; 255
     f86:	0e c0       	rjmp	.+28     	; 0xfa4 <__fixsfsi+0x9c>
     f88:	20 e0       	ldi	r18, 0x00	; 0
     f8a:	30 e0       	ldi	r19, 0x00	; 0
     f8c:	40 e0       	ldi	r20, 0x00	; 0
     f8e:	50 e0       	ldi	r21, 0x00	; 0
     f90:	09 c0       	rjmp	.+18     	; 0xfa4 <__fixsfsi+0x9c>
     f92:	2f ef       	ldi	r18, 0xFF	; 255
     f94:	3f ef       	ldi	r19, 0xFF	; 255
     f96:	4f ef       	ldi	r20, 0xFF	; 255
     f98:	5f e7       	ldi	r21, 0x7F	; 127
     f9a:	04 c0       	rjmp	.+8      	; 0xfa4 <__fixsfsi+0x9c>
     f9c:	20 e0       	ldi	r18, 0x00	; 0
     f9e:	30 e0       	ldi	r19, 0x00	; 0
     fa0:	40 e0       	ldi	r20, 0x00	; 0
     fa2:	50 e8       	ldi	r21, 0x80	; 128
     fa4:	b9 01       	movw	r22, r18
     fa6:	ca 01       	movw	r24, r20
     fa8:	2c 96       	adiw	r28, 0x0c	; 12
     faa:	e2 e0       	ldi	r30, 0x02	; 2
     fac:	0c 94 8e 18 	jmp	0x311c	; 0x311c <__epilogue_restores__+0x20>

00000fb0 <__clzsi2>:
     fb0:	ef 92       	push	r14
     fb2:	ff 92       	push	r15
     fb4:	0f 93       	push	r16
     fb6:	1f 93       	push	r17
     fb8:	7b 01       	movw	r14, r22
     fba:	8c 01       	movw	r16, r24
     fbc:	80 e0       	ldi	r24, 0x00	; 0
     fbe:	e8 16       	cp	r14, r24
     fc0:	80 e0       	ldi	r24, 0x00	; 0
     fc2:	f8 06       	cpc	r15, r24
     fc4:	81 e0       	ldi	r24, 0x01	; 1
     fc6:	08 07       	cpc	r16, r24
     fc8:	80 e0       	ldi	r24, 0x00	; 0
     fca:	18 07       	cpc	r17, r24
     fcc:	88 f4       	brcc	.+34     	; 0xff0 <__clzsi2+0x40>
     fce:	8f ef       	ldi	r24, 0xFF	; 255
     fd0:	e8 16       	cp	r14, r24
     fd2:	f1 04       	cpc	r15, r1
     fd4:	01 05       	cpc	r16, r1
     fd6:	11 05       	cpc	r17, r1
     fd8:	31 f0       	breq	.+12     	; 0xfe6 <__clzsi2+0x36>
     fda:	28 f0       	brcs	.+10     	; 0xfe6 <__clzsi2+0x36>
     fdc:	88 e0       	ldi	r24, 0x08	; 8
     fde:	90 e0       	ldi	r25, 0x00	; 0
     fe0:	a0 e0       	ldi	r26, 0x00	; 0
     fe2:	b0 e0       	ldi	r27, 0x00	; 0
     fe4:	17 c0       	rjmp	.+46     	; 0x1014 <__clzsi2+0x64>
     fe6:	80 e0       	ldi	r24, 0x00	; 0
     fe8:	90 e0       	ldi	r25, 0x00	; 0
     fea:	a0 e0       	ldi	r26, 0x00	; 0
     fec:	b0 e0       	ldi	r27, 0x00	; 0
     fee:	12 c0       	rjmp	.+36     	; 0x1014 <__clzsi2+0x64>
     ff0:	80 e0       	ldi	r24, 0x00	; 0
     ff2:	e8 16       	cp	r14, r24
     ff4:	80 e0       	ldi	r24, 0x00	; 0
     ff6:	f8 06       	cpc	r15, r24
     ff8:	80 e0       	ldi	r24, 0x00	; 0
     ffa:	08 07       	cpc	r16, r24
     ffc:	81 e0       	ldi	r24, 0x01	; 1
     ffe:	18 07       	cpc	r17, r24
    1000:	28 f0       	brcs	.+10     	; 0x100c <__clzsi2+0x5c>
    1002:	88 e1       	ldi	r24, 0x18	; 24
    1004:	90 e0       	ldi	r25, 0x00	; 0
    1006:	a0 e0       	ldi	r26, 0x00	; 0
    1008:	b0 e0       	ldi	r27, 0x00	; 0
    100a:	04 c0       	rjmp	.+8      	; 0x1014 <__clzsi2+0x64>
    100c:	80 e1       	ldi	r24, 0x10	; 16
    100e:	90 e0       	ldi	r25, 0x00	; 0
    1010:	a0 e0       	ldi	r26, 0x00	; 0
    1012:	b0 e0       	ldi	r27, 0x00	; 0
    1014:	20 e2       	ldi	r18, 0x20	; 32
    1016:	30 e0       	ldi	r19, 0x00	; 0
    1018:	40 e0       	ldi	r20, 0x00	; 0
    101a:	50 e0       	ldi	r21, 0x00	; 0
    101c:	28 1b       	sub	r18, r24
    101e:	39 0b       	sbc	r19, r25
    1020:	4a 0b       	sbc	r20, r26
    1022:	5b 0b       	sbc	r21, r27
    1024:	04 c0       	rjmp	.+8      	; 0x102e <__clzsi2+0x7e>
    1026:	16 95       	lsr	r17
    1028:	07 95       	ror	r16
    102a:	f7 94       	ror	r15
    102c:	e7 94       	ror	r14
    102e:	8a 95       	dec	r24
    1030:	d2 f7       	brpl	.-12     	; 0x1026 <__clzsi2+0x76>
    1032:	f7 01       	movw	r30, r14
    1034:	ed 57       	subi	r30, 0x7D	; 125
    1036:	fe 4f       	sbci	r31, 0xFE	; 254
    1038:	80 81       	ld	r24, Z
    103a:	28 1b       	sub	r18, r24
    103c:	31 09       	sbc	r19, r1
    103e:	41 09       	sbc	r20, r1
    1040:	51 09       	sbc	r21, r1
    1042:	c9 01       	movw	r24, r18
    1044:	1f 91       	pop	r17
    1046:	0f 91       	pop	r16
    1048:	ff 90       	pop	r15
    104a:	ef 90       	pop	r14
    104c:	08 95       	ret

0000104e <__pack_f>:
    104e:	df 92       	push	r13
    1050:	ef 92       	push	r14
    1052:	ff 92       	push	r15
    1054:	0f 93       	push	r16
    1056:	1f 93       	push	r17
    1058:	fc 01       	movw	r30, r24
    105a:	e4 80       	ldd	r14, Z+4	; 0x04
    105c:	f5 80       	ldd	r15, Z+5	; 0x05
    105e:	06 81       	ldd	r16, Z+6	; 0x06
    1060:	17 81       	ldd	r17, Z+7	; 0x07
    1062:	d1 80       	ldd	r13, Z+1	; 0x01
    1064:	80 81       	ld	r24, Z
    1066:	82 30       	cpi	r24, 0x02	; 2
    1068:	48 f4       	brcc	.+18     	; 0x107c <__pack_f+0x2e>
    106a:	80 e0       	ldi	r24, 0x00	; 0
    106c:	90 e0       	ldi	r25, 0x00	; 0
    106e:	a0 e1       	ldi	r26, 0x10	; 16
    1070:	b0 e0       	ldi	r27, 0x00	; 0
    1072:	e8 2a       	or	r14, r24
    1074:	f9 2a       	or	r15, r25
    1076:	0a 2b       	or	r16, r26
    1078:	1b 2b       	or	r17, r27
    107a:	a5 c0       	rjmp	.+330    	; 0x11c6 <__pack_f+0x178>
    107c:	84 30       	cpi	r24, 0x04	; 4
    107e:	09 f4       	brne	.+2      	; 0x1082 <__pack_f+0x34>
    1080:	9f c0       	rjmp	.+318    	; 0x11c0 <__pack_f+0x172>
    1082:	82 30       	cpi	r24, 0x02	; 2
    1084:	21 f4       	brne	.+8      	; 0x108e <__pack_f+0x40>
    1086:	ee 24       	eor	r14, r14
    1088:	ff 24       	eor	r15, r15
    108a:	87 01       	movw	r16, r14
    108c:	05 c0       	rjmp	.+10     	; 0x1098 <__pack_f+0x4a>
    108e:	e1 14       	cp	r14, r1
    1090:	f1 04       	cpc	r15, r1
    1092:	01 05       	cpc	r16, r1
    1094:	11 05       	cpc	r17, r1
    1096:	19 f4       	brne	.+6      	; 0x109e <__pack_f+0x50>
    1098:	e0 e0       	ldi	r30, 0x00	; 0
    109a:	f0 e0       	ldi	r31, 0x00	; 0
    109c:	96 c0       	rjmp	.+300    	; 0x11ca <__pack_f+0x17c>
    109e:	62 81       	ldd	r22, Z+2	; 0x02
    10a0:	73 81       	ldd	r23, Z+3	; 0x03
    10a2:	9f ef       	ldi	r25, 0xFF	; 255
    10a4:	62 38       	cpi	r22, 0x82	; 130
    10a6:	79 07       	cpc	r23, r25
    10a8:	0c f0       	brlt	.+2      	; 0x10ac <__pack_f+0x5e>
    10aa:	5b c0       	rjmp	.+182    	; 0x1162 <__pack_f+0x114>
    10ac:	22 e8       	ldi	r18, 0x82	; 130
    10ae:	3f ef       	ldi	r19, 0xFF	; 255
    10b0:	26 1b       	sub	r18, r22
    10b2:	37 0b       	sbc	r19, r23
    10b4:	2a 31       	cpi	r18, 0x1A	; 26
    10b6:	31 05       	cpc	r19, r1
    10b8:	2c f0       	brlt	.+10     	; 0x10c4 <__pack_f+0x76>
    10ba:	20 e0       	ldi	r18, 0x00	; 0
    10bc:	30 e0       	ldi	r19, 0x00	; 0
    10be:	40 e0       	ldi	r20, 0x00	; 0
    10c0:	50 e0       	ldi	r21, 0x00	; 0
    10c2:	2a c0       	rjmp	.+84     	; 0x1118 <__pack_f+0xca>
    10c4:	b8 01       	movw	r22, r16
    10c6:	a7 01       	movw	r20, r14
    10c8:	02 2e       	mov	r0, r18
    10ca:	04 c0       	rjmp	.+8      	; 0x10d4 <__pack_f+0x86>
    10cc:	76 95       	lsr	r23
    10ce:	67 95       	ror	r22
    10d0:	57 95       	ror	r21
    10d2:	47 95       	ror	r20
    10d4:	0a 94       	dec	r0
    10d6:	d2 f7       	brpl	.-12     	; 0x10cc <__pack_f+0x7e>
    10d8:	81 e0       	ldi	r24, 0x01	; 1
    10da:	90 e0       	ldi	r25, 0x00	; 0
    10dc:	a0 e0       	ldi	r26, 0x00	; 0
    10de:	b0 e0       	ldi	r27, 0x00	; 0
    10e0:	04 c0       	rjmp	.+8      	; 0x10ea <__pack_f+0x9c>
    10e2:	88 0f       	add	r24, r24
    10e4:	99 1f       	adc	r25, r25
    10e6:	aa 1f       	adc	r26, r26
    10e8:	bb 1f       	adc	r27, r27
    10ea:	2a 95       	dec	r18
    10ec:	d2 f7       	brpl	.-12     	; 0x10e2 <__pack_f+0x94>
    10ee:	01 97       	sbiw	r24, 0x01	; 1
    10f0:	a1 09       	sbc	r26, r1
    10f2:	b1 09       	sbc	r27, r1
    10f4:	8e 21       	and	r24, r14
    10f6:	9f 21       	and	r25, r15
    10f8:	a0 23       	and	r26, r16
    10fa:	b1 23       	and	r27, r17
    10fc:	00 97       	sbiw	r24, 0x00	; 0
    10fe:	a1 05       	cpc	r26, r1
    1100:	b1 05       	cpc	r27, r1
    1102:	21 f0       	breq	.+8      	; 0x110c <__pack_f+0xbe>
    1104:	81 e0       	ldi	r24, 0x01	; 1
    1106:	90 e0       	ldi	r25, 0x00	; 0
    1108:	a0 e0       	ldi	r26, 0x00	; 0
    110a:	b0 e0       	ldi	r27, 0x00	; 0
    110c:	9a 01       	movw	r18, r20
    110e:	ab 01       	movw	r20, r22
    1110:	28 2b       	or	r18, r24
    1112:	39 2b       	or	r19, r25
    1114:	4a 2b       	or	r20, r26
    1116:	5b 2b       	or	r21, r27
    1118:	da 01       	movw	r26, r20
    111a:	c9 01       	movw	r24, r18
    111c:	8f 77       	andi	r24, 0x7F	; 127
    111e:	90 70       	andi	r25, 0x00	; 0
    1120:	a0 70       	andi	r26, 0x00	; 0
    1122:	b0 70       	andi	r27, 0x00	; 0
    1124:	80 34       	cpi	r24, 0x40	; 64
    1126:	91 05       	cpc	r25, r1
    1128:	a1 05       	cpc	r26, r1
    112a:	b1 05       	cpc	r27, r1
    112c:	39 f4       	brne	.+14     	; 0x113c <__pack_f+0xee>
    112e:	27 ff       	sbrs	r18, 7
    1130:	09 c0       	rjmp	.+18     	; 0x1144 <__pack_f+0xf6>
    1132:	20 5c       	subi	r18, 0xC0	; 192
    1134:	3f 4f       	sbci	r19, 0xFF	; 255
    1136:	4f 4f       	sbci	r20, 0xFF	; 255
    1138:	5f 4f       	sbci	r21, 0xFF	; 255
    113a:	04 c0       	rjmp	.+8      	; 0x1144 <__pack_f+0xf6>
    113c:	21 5c       	subi	r18, 0xC1	; 193
    113e:	3f 4f       	sbci	r19, 0xFF	; 255
    1140:	4f 4f       	sbci	r20, 0xFF	; 255
    1142:	5f 4f       	sbci	r21, 0xFF	; 255
    1144:	e0 e0       	ldi	r30, 0x00	; 0
    1146:	f0 e0       	ldi	r31, 0x00	; 0
    1148:	20 30       	cpi	r18, 0x00	; 0
    114a:	a0 e0       	ldi	r26, 0x00	; 0
    114c:	3a 07       	cpc	r19, r26
    114e:	a0 e0       	ldi	r26, 0x00	; 0
    1150:	4a 07       	cpc	r20, r26
    1152:	a0 e4       	ldi	r26, 0x40	; 64
    1154:	5a 07       	cpc	r21, r26
    1156:	10 f0       	brcs	.+4      	; 0x115c <__pack_f+0x10e>
    1158:	e1 e0       	ldi	r30, 0x01	; 1
    115a:	f0 e0       	ldi	r31, 0x00	; 0
    115c:	79 01       	movw	r14, r18
    115e:	8a 01       	movw	r16, r20
    1160:	27 c0       	rjmp	.+78     	; 0x11b0 <__pack_f+0x162>
    1162:	60 38       	cpi	r22, 0x80	; 128
    1164:	71 05       	cpc	r23, r1
    1166:	64 f5       	brge	.+88     	; 0x11c0 <__pack_f+0x172>
    1168:	fb 01       	movw	r30, r22
    116a:	e1 58       	subi	r30, 0x81	; 129
    116c:	ff 4f       	sbci	r31, 0xFF	; 255
    116e:	d8 01       	movw	r26, r16
    1170:	c7 01       	movw	r24, r14
    1172:	8f 77       	andi	r24, 0x7F	; 127
    1174:	90 70       	andi	r25, 0x00	; 0
    1176:	a0 70       	andi	r26, 0x00	; 0
    1178:	b0 70       	andi	r27, 0x00	; 0
    117a:	80 34       	cpi	r24, 0x40	; 64
    117c:	91 05       	cpc	r25, r1
    117e:	a1 05       	cpc	r26, r1
    1180:	b1 05       	cpc	r27, r1
    1182:	39 f4       	brne	.+14     	; 0x1192 <__pack_f+0x144>
    1184:	e7 fe       	sbrs	r14, 7
    1186:	0d c0       	rjmp	.+26     	; 0x11a2 <__pack_f+0x154>
    1188:	80 e4       	ldi	r24, 0x40	; 64
    118a:	90 e0       	ldi	r25, 0x00	; 0
    118c:	a0 e0       	ldi	r26, 0x00	; 0
    118e:	b0 e0       	ldi	r27, 0x00	; 0
    1190:	04 c0       	rjmp	.+8      	; 0x119a <__pack_f+0x14c>
    1192:	8f e3       	ldi	r24, 0x3F	; 63
    1194:	90 e0       	ldi	r25, 0x00	; 0
    1196:	a0 e0       	ldi	r26, 0x00	; 0
    1198:	b0 e0       	ldi	r27, 0x00	; 0
    119a:	e8 0e       	add	r14, r24
    119c:	f9 1e       	adc	r15, r25
    119e:	0a 1f       	adc	r16, r26
    11a0:	1b 1f       	adc	r17, r27
    11a2:	17 ff       	sbrs	r17, 7
    11a4:	05 c0       	rjmp	.+10     	; 0x11b0 <__pack_f+0x162>
    11a6:	16 95       	lsr	r17
    11a8:	07 95       	ror	r16
    11aa:	f7 94       	ror	r15
    11ac:	e7 94       	ror	r14
    11ae:	31 96       	adiw	r30, 0x01	; 1
    11b0:	87 e0       	ldi	r24, 0x07	; 7
    11b2:	16 95       	lsr	r17
    11b4:	07 95       	ror	r16
    11b6:	f7 94       	ror	r15
    11b8:	e7 94       	ror	r14
    11ba:	8a 95       	dec	r24
    11bc:	d1 f7       	brne	.-12     	; 0x11b2 <__pack_f+0x164>
    11be:	05 c0       	rjmp	.+10     	; 0x11ca <__pack_f+0x17c>
    11c0:	ee 24       	eor	r14, r14
    11c2:	ff 24       	eor	r15, r15
    11c4:	87 01       	movw	r16, r14
    11c6:	ef ef       	ldi	r30, 0xFF	; 255
    11c8:	f0 e0       	ldi	r31, 0x00	; 0
    11ca:	6e 2f       	mov	r22, r30
    11cc:	67 95       	ror	r22
    11ce:	66 27       	eor	r22, r22
    11d0:	67 95       	ror	r22
    11d2:	90 2f       	mov	r25, r16
    11d4:	9f 77       	andi	r25, 0x7F	; 127
    11d6:	d7 94       	ror	r13
    11d8:	dd 24       	eor	r13, r13
    11da:	d7 94       	ror	r13
    11dc:	8e 2f       	mov	r24, r30
    11de:	86 95       	lsr	r24
    11e0:	49 2f       	mov	r20, r25
    11e2:	46 2b       	or	r20, r22
    11e4:	58 2f       	mov	r21, r24
    11e6:	5d 29       	or	r21, r13
    11e8:	b7 01       	movw	r22, r14
    11ea:	ca 01       	movw	r24, r20
    11ec:	1f 91       	pop	r17
    11ee:	0f 91       	pop	r16
    11f0:	ff 90       	pop	r15
    11f2:	ef 90       	pop	r14
    11f4:	df 90       	pop	r13
    11f6:	08 95       	ret

000011f8 <__unpack_f>:
    11f8:	fc 01       	movw	r30, r24
    11fa:	db 01       	movw	r26, r22
    11fc:	40 81       	ld	r20, Z
    11fe:	51 81       	ldd	r21, Z+1	; 0x01
    1200:	22 81       	ldd	r18, Z+2	; 0x02
    1202:	62 2f       	mov	r22, r18
    1204:	6f 77       	andi	r22, 0x7F	; 127
    1206:	70 e0       	ldi	r23, 0x00	; 0
    1208:	22 1f       	adc	r18, r18
    120a:	22 27       	eor	r18, r18
    120c:	22 1f       	adc	r18, r18
    120e:	93 81       	ldd	r25, Z+3	; 0x03
    1210:	89 2f       	mov	r24, r25
    1212:	88 0f       	add	r24, r24
    1214:	82 2b       	or	r24, r18
    1216:	28 2f       	mov	r18, r24
    1218:	30 e0       	ldi	r19, 0x00	; 0
    121a:	99 1f       	adc	r25, r25
    121c:	99 27       	eor	r25, r25
    121e:	99 1f       	adc	r25, r25
    1220:	11 96       	adiw	r26, 0x01	; 1
    1222:	9c 93       	st	X, r25
    1224:	11 97       	sbiw	r26, 0x01	; 1
    1226:	21 15       	cp	r18, r1
    1228:	31 05       	cpc	r19, r1
    122a:	a9 f5       	brne	.+106    	; 0x1296 <__unpack_f+0x9e>
    122c:	41 15       	cp	r20, r1
    122e:	51 05       	cpc	r21, r1
    1230:	61 05       	cpc	r22, r1
    1232:	71 05       	cpc	r23, r1
    1234:	11 f4       	brne	.+4      	; 0x123a <__unpack_f+0x42>
    1236:	82 e0       	ldi	r24, 0x02	; 2
    1238:	37 c0       	rjmp	.+110    	; 0x12a8 <__unpack_f+0xb0>
    123a:	82 e8       	ldi	r24, 0x82	; 130
    123c:	9f ef       	ldi	r25, 0xFF	; 255
    123e:	13 96       	adiw	r26, 0x03	; 3
    1240:	9c 93       	st	X, r25
    1242:	8e 93       	st	-X, r24
    1244:	12 97       	sbiw	r26, 0x02	; 2
    1246:	9a 01       	movw	r18, r20
    1248:	ab 01       	movw	r20, r22
    124a:	67 e0       	ldi	r22, 0x07	; 7
    124c:	22 0f       	add	r18, r18
    124e:	33 1f       	adc	r19, r19
    1250:	44 1f       	adc	r20, r20
    1252:	55 1f       	adc	r21, r21
    1254:	6a 95       	dec	r22
    1256:	d1 f7       	brne	.-12     	; 0x124c <__unpack_f+0x54>
    1258:	83 e0       	ldi	r24, 0x03	; 3
    125a:	8c 93       	st	X, r24
    125c:	0d c0       	rjmp	.+26     	; 0x1278 <__unpack_f+0x80>
    125e:	22 0f       	add	r18, r18
    1260:	33 1f       	adc	r19, r19
    1262:	44 1f       	adc	r20, r20
    1264:	55 1f       	adc	r21, r21
    1266:	12 96       	adiw	r26, 0x02	; 2
    1268:	8d 91       	ld	r24, X+
    126a:	9c 91       	ld	r25, X
    126c:	13 97       	sbiw	r26, 0x03	; 3
    126e:	01 97       	sbiw	r24, 0x01	; 1
    1270:	13 96       	adiw	r26, 0x03	; 3
    1272:	9c 93       	st	X, r25
    1274:	8e 93       	st	-X, r24
    1276:	12 97       	sbiw	r26, 0x02	; 2
    1278:	20 30       	cpi	r18, 0x00	; 0
    127a:	80 e0       	ldi	r24, 0x00	; 0
    127c:	38 07       	cpc	r19, r24
    127e:	80 e0       	ldi	r24, 0x00	; 0
    1280:	48 07       	cpc	r20, r24
    1282:	80 e4       	ldi	r24, 0x40	; 64
    1284:	58 07       	cpc	r21, r24
    1286:	58 f3       	brcs	.-42     	; 0x125e <__unpack_f+0x66>
    1288:	14 96       	adiw	r26, 0x04	; 4
    128a:	2d 93       	st	X+, r18
    128c:	3d 93       	st	X+, r19
    128e:	4d 93       	st	X+, r20
    1290:	5c 93       	st	X, r21
    1292:	17 97       	sbiw	r26, 0x07	; 7
    1294:	08 95       	ret
    1296:	2f 3f       	cpi	r18, 0xFF	; 255
    1298:	31 05       	cpc	r19, r1
    129a:	79 f4       	brne	.+30     	; 0x12ba <__unpack_f+0xc2>
    129c:	41 15       	cp	r20, r1
    129e:	51 05       	cpc	r21, r1
    12a0:	61 05       	cpc	r22, r1
    12a2:	71 05       	cpc	r23, r1
    12a4:	19 f4       	brne	.+6      	; 0x12ac <__unpack_f+0xb4>
    12a6:	84 e0       	ldi	r24, 0x04	; 4
    12a8:	8c 93       	st	X, r24
    12aa:	08 95       	ret
    12ac:	64 ff       	sbrs	r22, 4
    12ae:	03 c0       	rjmp	.+6      	; 0x12b6 <__unpack_f+0xbe>
    12b0:	81 e0       	ldi	r24, 0x01	; 1
    12b2:	8c 93       	st	X, r24
    12b4:	12 c0       	rjmp	.+36     	; 0x12da <__unpack_f+0xe2>
    12b6:	1c 92       	st	X, r1
    12b8:	10 c0       	rjmp	.+32     	; 0x12da <__unpack_f+0xe2>
    12ba:	2f 57       	subi	r18, 0x7F	; 127
    12bc:	30 40       	sbci	r19, 0x00	; 0
    12be:	13 96       	adiw	r26, 0x03	; 3
    12c0:	3c 93       	st	X, r19
    12c2:	2e 93       	st	-X, r18
    12c4:	12 97       	sbiw	r26, 0x02	; 2
    12c6:	83 e0       	ldi	r24, 0x03	; 3
    12c8:	8c 93       	st	X, r24
    12ca:	87 e0       	ldi	r24, 0x07	; 7
    12cc:	44 0f       	add	r20, r20
    12ce:	55 1f       	adc	r21, r21
    12d0:	66 1f       	adc	r22, r22
    12d2:	77 1f       	adc	r23, r23
    12d4:	8a 95       	dec	r24
    12d6:	d1 f7       	brne	.-12     	; 0x12cc <__unpack_f+0xd4>
    12d8:	70 64       	ori	r23, 0x40	; 64
    12da:	14 96       	adiw	r26, 0x04	; 4
    12dc:	4d 93       	st	X+, r20
    12de:	5d 93       	st	X+, r21
    12e0:	6d 93       	st	X+, r22
    12e2:	7c 93       	st	X, r23
    12e4:	17 97       	sbiw	r26, 0x07	; 7
    12e6:	08 95       	ret

000012e8 <analog_conversion_result>:
    12e8:	80 91 7c 00 	lds	r24, 0x007C
    12ec:	85 ff       	sbrs	r24, 5
    12ee:	05 c0       	rjmp	.+10     	; 0x12fa <analog_conversion_result+0x12>
    12f0:	80 91 79 00 	lds	r24, 0x0079
    12f4:	28 2f       	mov	r18, r24
    12f6:	30 e0       	ldi	r19, 0x00	; 0
    12f8:	04 c0       	rjmp	.+8      	; 0x1302 <analog_conversion_result+0x1a>
    12fa:	20 91 78 00 	lds	r18, 0x0078
    12fe:	30 91 79 00 	lds	r19, 0x0079
    1302:	c9 01       	movw	r24, r18
    1304:	08 95       	ret

00001306 <set_millivolt_calibration>:
    1306:	90 93 6e 01 	sts	0x016E, r25
    130a:	80 93 6d 01 	sts	0x016D, r24
    130e:	08 95       	ret

00001310 <_ZN15OrangutanAnalogC2Ev>:
    1310:	08 95       	ret

00001312 <_ZN15OrangutanAnalogC1Ev>:
    1312:	08 95       	ret

00001314 <_ZN15OrangutanAnalog16conversionResultEv>:
    1314:	80 91 7c 00 	lds	r24, 0x007C
    1318:	85 ff       	sbrs	r24, 5
    131a:	05 c0       	rjmp	.+10     	; 0x1326 <_ZN15OrangutanAnalog16conversionResultEv+0x12>
    131c:	80 91 79 00 	lds	r24, 0x0079
    1320:	28 2f       	mov	r18, r24
    1322:	30 e0       	ldi	r19, 0x00	; 0
    1324:	04 c0       	rjmp	.+8      	; 0x132e <_ZN15OrangutanAnalog16conversionResultEv+0x1a>
    1326:	20 91 78 00 	lds	r18, 0x0078
    132a:	30 91 79 00 	lds	r19, 0x0079
    132e:	c9 01       	movw	r24, r18
    1330:	08 95       	ret

00001332 <_ZN15OrangutanAnalog15startConversionEhh>:
    1332:	28 2f       	mov	r18, r24
    1334:	80 32       	cpi	r24, 0x20	; 32
    1336:	b0 f4       	brcc	.+44     	; 0x1364 <_ZN15OrangutanAnalog15startConversionEhh+0x32>
    1338:	87 e8       	ldi	r24, 0x87	; 135
    133a:	80 93 7a 00 	sts	0x007A, r24
    133e:	80 91 7c 00 	lds	r24, 0x007C
    1342:	98 2f       	mov	r25, r24
    1344:	90 64       	ori	r25, 0x40	; 64
    1346:	66 23       	and	r22, r22
    1348:	11 f0       	breq	.+4      	; 0x134e <_ZN15OrangutanAnalog15startConversionEhh+0x1c>
    134a:	80 6c       	ori	r24, 0xC0	; 192
    134c:	02 c0       	rjmp	.+4      	; 0x1352 <_ZN15OrangutanAnalog15startConversionEhh+0x20>
    134e:	89 2f       	mov	r24, r25
    1350:	8f 77       	andi	r24, 0x7F	; 127
    1352:	80 7e       	andi	r24, 0xE0	; 224
    1354:	82 2b       	or	r24, r18
    1356:	80 93 7c 00 	sts	0x007C, r24
    135a:	80 91 7a 00 	lds	r24, 0x007A
    135e:	80 64       	ori	r24, 0x40	; 64
    1360:	80 93 7a 00 	sts	0x007A, r24
    1364:	08 95       	ret

00001366 <start_analog_conversion>:
    1366:	60 e0       	ldi	r22, 0x00	; 0
    1368:	0e 94 99 09 	call	0x1332	; 0x1332 <_ZN15OrangutanAnalog15startConversionEhh>
    136c:	08 95       	ret

0000136e <_ZN15OrangutanAnalog4readEh>:
    136e:	60 e0       	ldi	r22, 0x00	; 0
    1370:	0e 94 99 09 	call	0x1332	; 0x1332 <_ZN15OrangutanAnalog15startConversionEhh>
    1374:	80 91 7a 00 	lds	r24, 0x007A
    1378:	86 fd       	sbrc	r24, 6
    137a:	fc cf       	rjmp	.-8      	; 0x1374 <_ZN15OrangutanAnalog4readEh+0x6>
    137c:	80 91 7c 00 	lds	r24, 0x007C
    1380:	85 ff       	sbrs	r24, 5
    1382:	05 c0       	rjmp	.+10     	; 0x138e <_ZN15OrangutanAnalog4readEh+0x20>
    1384:	80 91 79 00 	lds	r24, 0x0079
    1388:	28 2f       	mov	r18, r24
    138a:	30 e0       	ldi	r19, 0x00	; 0
    138c:	04 c0       	rjmp	.+8      	; 0x1396 <_ZN15OrangutanAnalog4readEh+0x28>
    138e:	20 91 78 00 	lds	r18, 0x0078
    1392:	30 91 79 00 	lds	r19, 0x0079
    1396:	c9 01       	movw	r24, r18
    1398:	08 95       	ret

0000139a <analog_read>:
    139a:	0e 94 b7 09 	call	0x136e	; 0x136e <_ZN15OrangutanAnalog4readEh>
    139e:	08 95       	ret

000013a0 <_ZN15OrangutanAnalog11readAverageEhj>:
    13a0:	ef 92       	push	r14
    13a2:	ff 92       	push	r15
    13a4:	0f 93       	push	r16
    13a6:	1f 93       	push	r17
    13a8:	cf 93       	push	r28
    13aa:	df 93       	push	r29
    13ac:	eb 01       	movw	r28, r22
    13ae:	60 e0       	ldi	r22, 0x00	; 0
    13b0:	0e 94 99 09 	call	0x1332	; 0x1332 <_ZN15OrangutanAnalog15startConversionEhh>
    13b4:	80 91 7a 00 	lds	r24, 0x007A
    13b8:	86 fd       	sbrc	r24, 6
    13ba:	fc cf       	rjmp	.-8      	; 0x13b4 <_ZN15OrangutanAnalog11readAverageEhj+0x14>
    13bc:	9e 01       	movw	r18, r28
    13be:	ee 24       	eor	r14, r14
    13c0:	ff 24       	eor	r15, r15
    13c2:	87 01       	movw	r16, r14
    13c4:	80 91 7a 00 	lds	r24, 0x007A
    13c8:	80 64       	ori	r24, 0x40	; 64
    13ca:	80 93 7a 00 	sts	0x007A, r24
    13ce:	80 91 7a 00 	lds	r24, 0x007A
    13d2:	86 fd       	sbrc	r24, 6
    13d4:	fc cf       	rjmp	.-8      	; 0x13ce <_ZN15OrangutanAnalog11readAverageEhj+0x2e>
    13d6:	80 91 7c 00 	lds	r24, 0x007C
    13da:	85 ff       	sbrs	r24, 5
    13dc:	04 c0       	rjmp	.+8      	; 0x13e6 <_ZN15OrangutanAnalog11readAverageEhj+0x46>
    13de:	80 91 79 00 	lds	r24, 0x0079
    13e2:	90 e0       	ldi	r25, 0x00	; 0
    13e4:	04 c0       	rjmp	.+8      	; 0x13ee <_ZN15OrangutanAnalog11readAverageEhj+0x4e>
    13e6:	80 91 78 00 	lds	r24, 0x0078
    13ea:	90 91 79 00 	lds	r25, 0x0079
    13ee:	a0 e0       	ldi	r26, 0x00	; 0
    13f0:	b0 e0       	ldi	r27, 0x00	; 0
    13f2:	e8 0e       	add	r14, r24
    13f4:	f9 1e       	adc	r15, r25
    13f6:	0a 1f       	adc	r16, r26
    13f8:	1b 1f       	adc	r17, r27
    13fa:	21 50       	subi	r18, 0x01	; 1
    13fc:	30 40       	sbci	r19, 0x00	; 0
    13fe:	11 f7       	brne	.-60     	; 0x13c4 <_ZN15OrangutanAnalog11readAverageEhj+0x24>
    1400:	ce 01       	movw	r24, r28
    1402:	96 95       	lsr	r25
    1404:	87 95       	ror	r24
    1406:	c0 34       	cpi	r28, 0x40	; 64
    1408:	d1 05       	cpc	r29, r1
    140a:	40 f4       	brcc	.+16     	; 0x141c <_ZN15OrangutanAnalog11readAverageEhj+0x7c>
    140c:	8e 0d       	add	r24, r14
    140e:	9f 1d       	adc	r25, r15
    1410:	6c 2f       	mov	r22, r28
    1412:	70 e0       	ldi	r23, 0x00	; 0
    1414:	0e 94 fe 17 	call	0x2ffc	; 0x2ffc <__udivmodhi4>
    1418:	9b 01       	movw	r18, r22
    141a:	0d c0       	rjmp	.+26     	; 0x1436 <_ZN15OrangutanAnalog11readAverageEhj+0x96>
    141c:	a0 e0       	ldi	r26, 0x00	; 0
    141e:	b0 e0       	ldi	r27, 0x00	; 0
    1420:	e8 0e       	add	r14, r24
    1422:	f9 1e       	adc	r15, r25
    1424:	0a 1f       	adc	r16, r26
    1426:	1b 1f       	adc	r17, r27
    1428:	9e 01       	movw	r18, r28
    142a:	40 e0       	ldi	r20, 0x00	; 0
    142c:	50 e0       	ldi	r21, 0x00	; 0
    142e:	c8 01       	movw	r24, r16
    1430:	b7 01       	movw	r22, r14
    1432:	0e 94 25 18 	call	0x304a	; 0x304a <__udivmodsi4>
    1436:	c9 01       	movw	r24, r18
    1438:	cd b7       	in	r28, 0x3d	; 61
    143a:	de b7       	in	r29, 0x3e	; 62
    143c:	e6 e0       	ldi	r30, 0x06	; 6
    143e:	0c 94 8a 18 	jmp	0x3114	; 0x3114 <__epilogue_restores__+0x18>

00001442 <read_trimpot>:
    1442:	87 e0       	ldi	r24, 0x07	; 7
    1444:	64 e1       	ldi	r22, 0x14	; 20
    1446:	70 e0       	ldi	r23, 0x00	; 0
    1448:	0e 94 d0 09 	call	0x13a0	; 0x13a0 <_ZN15OrangutanAnalog11readAverageEhj>
    144c:	08 95       	ret

0000144e <analog_read_average>:
    144e:	0e 94 d0 09 	call	0x13a0	; 0x13a0 <_ZN15OrangutanAnalog11readAverageEhj>
    1452:	08 95       	ret

00001454 <_ZN15OrangutanAnalog23setMillivoltCalibrationEj>:
    1454:	90 93 6e 01 	sts	0x016E, r25
    1458:	80 93 6d 01 	sts	0x016D, r24
    145c:	08 95       	ret

0000145e <_ZN15OrangutanAnalog17readVCCMillivoltsEv>:
    145e:	1f 93       	push	r17
    1460:	10 91 7c 00 	lds	r17, 0x007C
    1464:	80 91 7c 00 	lds	r24, 0x007C
    1468:	8f 7d       	andi	r24, 0xDF	; 223
    146a:	80 93 7c 00 	sts	0x007C, r24
    146e:	8e e1       	ldi	r24, 0x1E	; 30
    1470:	64 e1       	ldi	r22, 0x14	; 20
    1472:	70 e0       	ldi	r23, 0x00	; 0
    1474:	0e 94 d0 09 	call	0x13a0	; 0x13a0 <_ZN15OrangutanAnalog11readAverageEhj>
    1478:	8e e1       	ldi	r24, 0x1E	; 30
    147a:	64 e1       	ldi	r22, 0x14	; 20
    147c:	70 e0       	ldi	r23, 0x00	; 0
    147e:	0e 94 d0 09 	call	0x13a0	; 0x13a0 <_ZN15OrangutanAnalog11readAverageEhj>
    1482:	9c 01       	movw	r18, r24
    1484:	15 fd       	sbrc	r17, 5
    1486:	04 c0       	rjmp	.+8      	; 0x1490 <_ZN15OrangutanAnalog17readVCCMillivoltsEv+0x32>
    1488:	80 91 7c 00 	lds	r24, 0x007C
    148c:	8f 7d       	andi	r24, 0xDF	; 223
    148e:	03 c0       	rjmp	.+6      	; 0x1496 <_ZN15OrangutanAnalog17readVCCMillivoltsEv+0x38>
    1490:	80 91 7c 00 	lds	r24, 0x007C
    1494:	80 62       	ori	r24, 0x20	; 32
    1496:	80 93 7c 00 	sts	0x007C, r24
    149a:	b9 01       	movw	r22, r18
    149c:	76 95       	lsr	r23
    149e:	67 95       	ror	r22
    14a0:	80 e0       	ldi	r24, 0x00	; 0
    14a2:	90 e0       	ldi	r25, 0x00	; 0
    14a4:	6c 54       	subi	r22, 0x4C	; 76
    14a6:	74 4d       	sbci	r23, 0xD4	; 212
    14a8:	8e 4e       	sbci	r24, 0xEE	; 238
    14aa:	9f 4f       	sbci	r25, 0xFF	; 255
    14ac:	40 e0       	ldi	r20, 0x00	; 0
    14ae:	50 e0       	ldi	r21, 0x00	; 0
    14b0:	0e 94 25 18 	call	0x304a	; 0x304a <__udivmodsi4>
    14b4:	c9 01       	movw	r24, r18
    14b6:	1f 91       	pop	r17
    14b8:	08 95       	ret

000014ba <read_vcc_millivolts>:
    14ba:	0e 94 2f 0a 	call	0x145e	; 0x145e <_ZN15OrangutanAnalog17readVCCMillivoltsEv>
    14be:	08 95       	ret

000014c0 <_ZN15OrangutanAnalog12toMillivoltsEj>:
    14c0:	a0 e0       	ldi	r26, 0x00	; 0
    14c2:	b0 e0       	ldi	r27, 0x00	; 0
    14c4:	20 91 6d 01 	lds	r18, 0x016D
    14c8:	30 91 6e 01 	lds	r19, 0x016E
    14cc:	40 e0       	ldi	r20, 0x00	; 0
    14ce:	50 e0       	ldi	r21, 0x00	; 0
    14d0:	bc 01       	movw	r22, r24
    14d2:	cd 01       	movw	r24, r26
    14d4:	0e 94 d3 17 	call	0x2fa6	; 0x2fa6 <__mulsi3>
    14d8:	9b 01       	movw	r18, r22
    14da:	ac 01       	movw	r20, r24
    14dc:	80 91 7c 00 	lds	r24, 0x007C
    14e0:	85 ff       	sbrs	r24, 5
    14e2:	0b c0       	rjmp	.+22     	; 0x14fa <_ZN15OrangutanAnalog12toMillivoltsEj+0x3a>
    14e4:	b9 01       	movw	r22, r18
    14e6:	ca 01       	movw	r24, r20
    14e8:	61 58       	subi	r22, 0x81	; 129
    14ea:	7f 4f       	sbci	r23, 0xFF	; 255
    14ec:	8f 4f       	sbci	r24, 0xFF	; 255
    14ee:	9f 4f       	sbci	r25, 0xFF	; 255
    14f0:	2f ef       	ldi	r18, 0xFF	; 255
    14f2:	30 e0       	ldi	r19, 0x00	; 0
    14f4:	40 e0       	ldi	r20, 0x00	; 0
    14f6:	50 e0       	ldi	r21, 0x00	; 0
    14f8:	0a c0       	rjmp	.+20     	; 0x150e <_ZN15OrangutanAnalog12toMillivoltsEj+0x4e>
    14fa:	b9 01       	movw	r22, r18
    14fc:	ca 01       	movw	r24, r20
    14fe:	61 50       	subi	r22, 0x01	; 1
    1500:	7e 4f       	sbci	r23, 0xFE	; 254
    1502:	8f 4f       	sbci	r24, 0xFF	; 255
    1504:	9f 4f       	sbci	r25, 0xFF	; 255
    1506:	2f ef       	ldi	r18, 0xFF	; 255
    1508:	33 e0       	ldi	r19, 0x03	; 3
    150a:	40 e0       	ldi	r20, 0x00	; 0
    150c:	50 e0       	ldi	r21, 0x00	; 0
    150e:	0e 94 25 18 	call	0x304a	; 0x304a <__udivmodsi4>
    1512:	c9 01       	movw	r24, r18
    1514:	08 95       	ret

00001516 <_ZN15OrangutanAnalog21readAverageMillivoltsEhj>:
    1516:	0e 94 d0 09 	call	0x13a0	; 0x13a0 <_ZN15OrangutanAnalog11readAverageEhj>
    151a:	0e 94 60 0a 	call	0x14c0	; 0x14c0 <_ZN15OrangutanAnalog12toMillivoltsEj>
    151e:	08 95       	ret

00001520 <analog_read_average_millivolts>:
    1520:	0e 94 8b 0a 	call	0x1516	; 0x1516 <_ZN15OrangutanAnalog21readAverageMillivoltsEhj>
    1524:	08 95       	ret

00001526 <_ZN15OrangutanAnalog26conversionResultMillivoltsEv>:
    1526:	80 91 7c 00 	lds	r24, 0x007C
    152a:	85 ff       	sbrs	r24, 5
    152c:	06 c0       	rjmp	.+12     	; 0x153a <_ZN15OrangutanAnalog26conversionResultMillivoltsEv+0x14>
    152e:	80 91 79 00 	lds	r24, 0x0079
    1532:	90 e0       	ldi	r25, 0x00	; 0
    1534:	0e 94 60 0a 	call	0x14c0	; 0x14c0 <_ZN15OrangutanAnalog12toMillivoltsEj>
    1538:	08 95       	ret
    153a:	80 91 78 00 	lds	r24, 0x0078
    153e:	90 91 79 00 	lds	r25, 0x0079
    1542:	0e 94 60 0a 	call	0x14c0	; 0x14c0 <_ZN15OrangutanAnalog12toMillivoltsEj>
    1546:	08 95       	ret

00001548 <_ZN15OrangutanAnalog14readMillivoltsEh>:
    1548:	60 e0       	ldi	r22, 0x00	; 0
    154a:	0e 94 99 09 	call	0x1332	; 0x1332 <_ZN15OrangutanAnalog15startConversionEhh>
    154e:	80 91 7a 00 	lds	r24, 0x007A
    1552:	86 fd       	sbrc	r24, 6
    1554:	fc cf       	rjmp	.-8      	; 0x154e <_ZN15OrangutanAnalog14readMillivoltsEh+0x6>
    1556:	0e 94 93 0a 	call	0x1526	; 0x1526 <_ZN15OrangutanAnalog26conversionResultMillivoltsEv>
    155a:	08 95       	ret

0000155c <analog_read_millivolts>:
    155c:	0e 94 a4 0a 	call	0x1548	; 0x1548 <_ZN15OrangutanAnalog14readMillivoltsEh>
    1560:	08 95       	ret

00001562 <analog_conversion_result_millivolts>:
    1562:	0e 94 93 0a 	call	0x1526	; 0x1526 <_ZN15OrangutanAnalog26conversionResultMillivoltsEv>
    1566:	08 95       	ret

00001568 <read_trimpot_millivolts>:
    1568:	87 e0       	ldi	r24, 0x07	; 7
    156a:	64 e1       	ldi	r22, 0x14	; 20
    156c:	70 e0       	ldi	r23, 0x00	; 0
    156e:	0e 94 d0 09 	call	0x13a0	; 0x13a0 <_ZN15OrangutanAnalog11readAverageEhj>
    1572:	0e 94 60 0a 	call	0x14c0	; 0x14c0 <_ZN15OrangutanAnalog12toMillivoltsEj>
    1576:	08 95       	ret

00001578 <to_millivolts>:
    1578:	0e 94 60 0a 	call	0x14c0	; 0x14c0 <_ZN15OrangutanAnalog12toMillivoltsEj>
    157c:	08 95       	ret

0000157e <_ZN15OrangutanAnalog16readTemperatureFEv>:
    157e:	1f 93       	push	r17
    1580:	10 91 7c 00 	lds	r17, 0x007C
    1584:	80 91 7c 00 	lds	r24, 0x007C
    1588:	8f 7d       	andi	r24, 0xDF	; 223
    158a:	80 93 7c 00 	sts	0x007C, r24
    158e:	86 e0       	ldi	r24, 0x06	; 6
    1590:	64 e1       	ldi	r22, 0x14	; 20
    1592:	70 e0       	ldi	r23, 0x00	; 0
    1594:	0e 94 8b 0a 	call	0x1516	; 0x1516 <_ZN15OrangutanAnalog21readAverageMillivoltsEhj>
    1598:	9c 01       	movw	r18, r24
    159a:	15 fd       	sbrc	r17, 5
    159c:	04 c0       	rjmp	.+8      	; 0x15a6 <_ZN15OrangutanAnalog16readTemperatureFEv+0x28>
    159e:	80 91 7c 00 	lds	r24, 0x007C
    15a2:	8f 7d       	andi	r24, 0xDF	; 223
    15a4:	03 c0       	rjmp	.+6      	; 0x15ac <_ZN15OrangutanAnalog16readTemperatureFEv+0x2e>
    15a6:	80 91 7c 00 	lds	r24, 0x007C
    15aa:	80 62       	ori	r24, 0x20	; 32
    15ac:	80 93 7c 00 	sts	0x007C, r24
    15b0:	c9 01       	movw	r24, r18
    15b2:	88 0f       	add	r24, r24
    15b4:	99 1f       	adc	r25, r25
    15b6:	82 0f       	add	r24, r18
    15b8:	93 1f       	adc	r25, r19
    15ba:	88 0f       	add	r24, r24
    15bc:	99 1f       	adc	r25, r25
    15be:	88 0f       	add	r24, r24
    15c0:	99 1f       	adc	r25, r25
    15c2:	8a 57       	subi	r24, 0x7A	; 122
    15c4:	92 40       	sbci	r25, 0x02	; 2
    15c6:	6d e0       	ldi	r22, 0x0D	; 13
    15c8:	70 e0       	ldi	r23, 0x00	; 0
    15ca:	0e 94 12 18 	call	0x3024	; 0x3024 <__divmodhi4>
    15ce:	cb 01       	movw	r24, r22
    15d0:	1f 91       	pop	r17
    15d2:	08 95       	ret

000015d4 <read_temperature_f>:
    15d4:	0e 94 bf 0a 	call	0x157e	; 0x157e <_ZN15OrangutanAnalog16readTemperatureFEv>
    15d8:	08 95       	ret

000015da <_ZN15OrangutanAnalog16readTemperatureCEv>:
    15da:	1f 93       	push	r17
    15dc:	10 91 7c 00 	lds	r17, 0x007C
    15e0:	80 91 7c 00 	lds	r24, 0x007C
    15e4:	8f 7d       	andi	r24, 0xDF	; 223
    15e6:	80 93 7c 00 	sts	0x007C, r24
    15ea:	86 e0       	ldi	r24, 0x06	; 6
    15ec:	64 e1       	ldi	r22, 0x14	; 20
    15ee:	70 e0       	ldi	r23, 0x00	; 0
    15f0:	0e 94 8b 0a 	call	0x1516	; 0x1516 <_ZN15OrangutanAnalog21readAverageMillivoltsEhj>
    15f4:	9c 01       	movw	r18, r24
    15f6:	15 fd       	sbrc	r17, 5
    15f8:	04 c0       	rjmp	.+8      	; 0x1602 <_ZN15OrangutanAnalog16readTemperatureCEv+0x28>
    15fa:	80 91 7c 00 	lds	r24, 0x007C
    15fe:	8f 7d       	andi	r24, 0xDF	; 223
    1600:	03 c0       	rjmp	.+6      	; 0x1608 <_ZN15OrangutanAnalog16readTemperatureCEv+0x2e>
    1602:	80 91 7c 00 	lds	r24, 0x007C
    1606:	80 62       	ori	r24, 0x20	; 32
    1608:	80 93 7c 00 	sts	0x007C, r24
    160c:	84 e1       	ldi	r24, 0x14	; 20
    160e:	90 e0       	ldi	r25, 0x00	; 0
    1610:	ac 01       	movw	r20, r24
    1612:	24 9f       	mul	r18, r20
    1614:	c0 01       	movw	r24, r0
    1616:	25 9f       	mul	r18, r21
    1618:	90 0d       	add	r25, r0
    161a:	34 9f       	mul	r19, r20
    161c:	90 0d       	add	r25, r0
    161e:	11 24       	eor	r1, r1
    1620:	8e 52       	subi	r24, 0x2E	; 46
    1622:	9f 41       	sbci	r25, 0x1F	; 31
    1624:	67 e2       	ldi	r22, 0x27	; 39
    1626:	70 e0       	ldi	r23, 0x00	; 0
    1628:	0e 94 12 18 	call	0x3024	; 0x3024 <__divmodhi4>
    162c:	cb 01       	movw	r24, r22
    162e:	1f 91       	pop	r17
    1630:	08 95       	ret

00001632 <read_temperature_c>:
    1632:	0e 94 ed 0a 	call	0x15da	; 0x15da <_ZN15OrangutanAnalog16readTemperatureCEv>
    1636:	08 95       	ret

00001638 <_ZN15OrangutanAnalog25readBatteryMillivolts_3piEv>:
    1638:	1f 93       	push	r17
    163a:	10 91 7c 00 	lds	r17, 0x007C
    163e:	80 91 7c 00 	lds	r24, 0x007C
    1642:	8f 7d       	andi	r24, 0xDF	; 223
    1644:	80 93 7c 00 	sts	0x007C, r24
    1648:	86 e0       	ldi	r24, 0x06	; 6
    164a:	6a e0       	ldi	r22, 0x0A	; 10
    164c:	70 e0       	ldi	r23, 0x00	; 0
    164e:	0e 94 8b 0a 	call	0x1516	; 0x1516 <_ZN15OrangutanAnalog21readAverageMillivoltsEhj>
    1652:	ac 01       	movw	r20, r24
    1654:	15 fd       	sbrc	r17, 5
    1656:	04 c0       	rjmp	.+8      	; 0x1660 <_ZN15OrangutanAnalog25readBatteryMillivolts_3piEv+0x28>
    1658:	80 91 7c 00 	lds	r24, 0x007C
    165c:	8f 7d       	andi	r24, 0xDF	; 223
    165e:	03 c0       	rjmp	.+6      	; 0x1666 <_ZN15OrangutanAnalog25readBatteryMillivolts_3piEv+0x2e>
    1660:	80 91 7c 00 	lds	r24, 0x007C
    1664:	80 62       	ori	r24, 0x20	; 32
    1666:	80 93 7c 00 	sts	0x007C, r24
    166a:	9a 01       	movw	r18, r20
    166c:	22 0f       	add	r18, r18
    166e:	33 1f       	adc	r19, r19
    1670:	24 0f       	add	r18, r20
    1672:	35 1f       	adc	r19, r21
    1674:	2f 5f       	subi	r18, 0xFF	; 255
    1676:	3f 4f       	sbci	r19, 0xFF	; 255
    1678:	36 95       	lsr	r19
    167a:	27 95       	ror	r18
    167c:	c9 01       	movw	r24, r18
    167e:	1f 91       	pop	r17
    1680:	08 95       	ret

00001682 <read_battery_millivolts_3pi>:
    1682:	0e 94 1c 0b 	call	0x1638	; 0x1638 <_ZN15OrangutanAnalog25readBatteryMillivolts_3piEv>
    1686:	08 95       	ret

00001688 <_ZN15OrangutanAnalog24readBatteryMillivolts_SVEv>:
    1688:	1f 93       	push	r17
    168a:	10 91 7c 00 	lds	r17, 0x007C
    168e:	80 91 7c 00 	lds	r24, 0x007C
    1692:	8f 7d       	andi	r24, 0xDF	; 223
    1694:	80 93 7c 00 	sts	0x007C, r24
    1698:	86 e0       	ldi	r24, 0x06	; 6
    169a:	6a e0       	ldi	r22, 0x0A	; 10
    169c:	70 e0       	ldi	r23, 0x00	; 0
    169e:	0e 94 8b 0a 	call	0x1516	; 0x1516 <_ZN15OrangutanAnalog21readAverageMillivoltsEhj>
    16a2:	ac 01       	movw	r20, r24
    16a4:	15 fd       	sbrc	r17, 5
    16a6:	04 c0       	rjmp	.+8      	; 0x16b0 <_ZN15OrangutanAnalog24readBatteryMillivolts_SVEv+0x28>
    16a8:	80 91 7c 00 	lds	r24, 0x007C
    16ac:	8f 7d       	andi	r24, 0xDF	; 223
    16ae:	03 c0       	rjmp	.+6      	; 0x16b6 <_ZN15OrangutanAnalog24readBatteryMillivolts_SVEv+0x2e>
    16b0:	80 91 7c 00 	lds	r24, 0x007C
    16b4:	80 62       	ori	r24, 0x20	; 32
    16b6:	80 93 7c 00 	sts	0x007C, r24
    16ba:	9a 01       	movw	r18, r20
    16bc:	22 0f       	add	r18, r18
    16be:	33 1f       	adc	r19, r19
    16c0:	24 0f       	add	r18, r20
    16c2:	35 1f       	adc	r19, r21
    16c4:	c9 01       	movw	r24, r18
    16c6:	1f 91       	pop	r17
    16c8:	08 95       	ret

000016ca <read_battery_millivolts_sv168>:
    16ca:	0e 94 44 0b 	call	0x1688	; 0x1688 <_ZN15OrangutanAnalog24readBatteryMillivolts_SVEv>
    16ce:	08 95       	ret

000016d0 <read_battery_millivolts_sv>:
    16d0:	0e 94 44 0b 	call	0x1688	; 0x1688 <_ZN15OrangutanAnalog24readBatteryMillivolts_SVEv>
    16d4:	08 95       	ret

000016d6 <_ZN15OrangutanBuzzerC2Ev>:
    16d6:	08 95       	ret

000016d8 <_ZN15OrangutanBuzzerC1Ev>:
    16d8:	08 95       	ret

000016da <is_playing>:
    16da:	80 91 7a 01 	lds	r24, 0x017A
    16de:	88 23       	and	r24, r24
    16e0:	39 f0       	breq	.+14     	; 0x16f0 <is_playing+0x16>
    16e2:	20 e0       	ldi	r18, 0x00	; 0
    16e4:	80 91 a8 02 	lds	r24, 0x02A8
    16e8:	90 91 a9 02 	lds	r25, 0x02A9
    16ec:	89 2b       	or	r24, r25
    16ee:	09 f0       	breq	.+2      	; 0x16f2 <is_playing+0x18>
    16f0:	21 e0       	ldi	r18, 0x01	; 1
    16f2:	82 2f       	mov	r24, r18
    16f4:	08 95       	ret

000016f6 <_ZN15OrangutanBuzzer5init2Ev>:
    16f6:	10 92 6f 00 	sts	0x006F, r1
    16fa:	83 e2       	ldi	r24, 0x23	; 35
    16fc:	80 93 80 00 	sts	0x0080, r24
    1700:	81 e1       	ldi	r24, 0x11	; 17
    1702:	80 93 81 00 	sts	0x0081, r24
    1706:	10 92 82 00 	sts	0x0082, r1
    170a:	80 e1       	ldi	r24, 0x10	; 16
    170c:	97 e2       	ldi	r25, 0x27	; 39
    170e:	90 93 89 00 	sts	0x0089, r25
    1712:	80 93 88 00 	sts	0x0088, r24
    1716:	10 92 8b 00 	sts	0x008B, r1
    171a:	10 92 8a 00 	sts	0x008A, r1
    171e:	22 9a       	sbi	0x04, 2	; 4
    1720:	78 94       	sei
    1722:	08 95       	ret

00001724 <_ZN15OrangutanBuzzer13playFrequencyEjjh>:
    1724:	a0 e0       	ldi	r26, 0x00	; 0
    1726:	b0 e0       	ldi	r27, 0x00	; 0
    1728:	e8 e9       	ldi	r30, 0x98	; 152
    172a:	fb e0       	ldi	r31, 0x0B	; 11
    172c:	0c 94 6a 18 	jmp	0x30d4	; 0x30d4 <__prologue_saves__+0x10>
    1730:	8c 01       	movw	r16, r24
    1732:	5b 01       	movw	r10, r22
    1734:	c4 2e       	mov	r12, r20
    1736:	80 91 a7 02 	lds	r24, 0x02A7
    173a:	88 23       	and	r24, r24
    173c:	29 f4       	brne	.+10     	; 0x1748 <_ZN15OrangutanBuzzer13playFrequencyEjjh+0x24>
    173e:	81 e0       	ldi	r24, 0x01	; 1
    1740:	80 93 a7 02 	sts	0x02A7, r24
    1744:	0e 94 7b 0b 	call	0x16f6	; 0x16f6 <_ZN15OrangutanBuzzer5init2Ev>
    1748:	10 92 7a 01 	sts	0x017A, r1
    174c:	17 fd       	sbrc	r17, 7
    174e:	03 c0       	rjmp	.+6      	; 0x1756 <_ZN15OrangutanBuzzer13playFrequencyEjjh+0x32>
    1750:	dd 24       	eor	r13, r13
    1752:	d3 94       	inc	r13
    1754:	03 c0       	rjmp	.+6      	; 0x175c <_ZN15OrangutanBuzzer13playFrequencyEjjh+0x38>
    1756:	1f 77       	andi	r17, 0x7F	; 127
    1758:	2a e0       	ldi	r18, 0x0A	; 10
    175a:	d2 2e       	mov	r13, r18
    175c:	80 91 81 00 	lds	r24, 0x0081
    1760:	e8 2e       	mov	r14, r24
    1762:	ff 24       	eor	r15, r15
    1764:	88 ef       	ldi	r24, 0xF8	; 248
    1766:	e8 22       	and	r14, r24
    1768:	ff 24       	eor	r15, r15
    176a:	88 ec       	ldi	r24, 0xC8	; 200
    176c:	d8 9e       	mul	r13, r24
    176e:	c0 01       	movw	r24, r0
    1770:	11 24       	eor	r1, r1
    1772:	80 17       	cp	r24, r16
    1774:	91 07       	cpc	r25, r17
    1776:	c8 f4       	brcc	.+50     	; 0x17aa <_ZN15OrangutanBuzzer13playFrequencyEjjh+0x86>
    1778:	e8 01       	movw	r28, r16
    177a:	97 e2       	ldi	r25, 0x27	; 39
    177c:	01 31       	cpi	r16, 0x11	; 17
    177e:	19 07       	cpc	r17, r25
    1780:	10 f0       	brcs	.+4      	; 0x1786 <_ZN15OrangutanBuzzer13playFrequencyEjjh+0x62>
    1782:	c0 e1       	ldi	r28, 0x10	; 16
    1784:	d7 e2       	ldi	r29, 0x27	; 39
    1786:	be 01       	movw	r22, r28
    1788:	76 95       	lsr	r23
    178a:	67 95       	ror	r22
    178c:	80 e0       	ldi	r24, 0x00	; 0
    178e:	90 e0       	ldi	r25, 0x00	; 0
    1790:	60 58       	subi	r22, 0x80	; 128
    1792:	79 46       	sbci	r23, 0x69	; 105
    1794:	87 46       	sbci	r24, 0x67	; 103
    1796:	9f 4f       	sbci	r25, 0xFF	; 255
    1798:	9e 01       	movw	r18, r28
    179a:	40 e0       	ldi	r20, 0x00	; 0
    179c:	50 e0       	ldi	r21, 0x00	; 0
    179e:	0e 94 25 18 	call	0x304a	; 0x304a <__udivmodsi4>
    17a2:	89 01       	movw	r16, r18
    17a4:	81 e0       	ldi	r24, 0x01	; 1
    17a6:	90 e0       	ldi	r25, 0x00	; 0
    17a8:	25 c0       	rjmp	.+74     	; 0x17f4 <_ZN15OrangutanBuzzer13playFrequencyEjjh+0xd0>
    17aa:	88 e2       	ldi	r24, 0x28	; 40
    17ac:	d8 9e       	mul	r13, r24
    17ae:	80 2d       	mov	r24, r0
    17b0:	11 24       	eor	r1, r1
    17b2:	c8 2f       	mov	r28, r24
    17b4:	d0 e0       	ldi	r29, 0x00	; 0
    17b6:	c0 17       	cp	r28, r16
    17b8:	d1 07       	cpc	r29, r17
    17ba:	08 f4       	brcc	.+2      	; 0x17be <_ZN15OrangutanBuzzer13playFrequencyEjjh+0x9a>
    17bc:	e8 01       	movw	r28, r16
    17be:	be 01       	movw	r22, r28
    17c0:	76 95       	lsr	r23
    17c2:	67 95       	ror	r22
    17c4:	9e 01       	movw	r18, r28
    17c6:	40 e0       	ldi	r20, 0x00	; 0
    17c8:	50 e0       	ldi	r21, 0x00	; 0
    17ca:	9a e0       	ldi	r25, 0x0A	; 10
    17cc:	d9 16       	cp	r13, r25
    17ce:	39 f4       	brne	.+14     	; 0x17de <_ZN15OrangutanBuzzer13playFrequencyEjjh+0xba>
    17d0:	80 e0       	ldi	r24, 0x00	; 0
    17d2:	90 e0       	ldi	r25, 0x00	; 0
    17d4:	60 5e       	subi	r22, 0xE0	; 224
    17d6:	73 44       	sbci	r23, 0x43	; 67
    17d8:	81 44       	sbci	r24, 0x41	; 65
    17da:	9f 4f       	sbci	r25, 0xFF	; 255
    17dc:	06 c0       	rjmp	.+12     	; 0x17ea <_ZN15OrangutanBuzzer13playFrequencyEjjh+0xc6>
    17de:	80 e0       	ldi	r24, 0x00	; 0
    17e0:	90 e0       	ldi	r25, 0x00	; 0
    17e2:	60 53       	subi	r22, 0x30	; 48
    17e4:	7d 4e       	sbci	r23, 0xED	; 237
    17e6:	8c 4e       	sbci	r24, 0xEC	; 236
    17e8:	9f 4f       	sbci	r25, 0xFF	; 255
    17ea:	0e 94 25 18 	call	0x304a	; 0x304a <__udivmodsi4>
    17ee:	89 01       	movw	r16, r18
    17f0:	82 e0       	ldi	r24, 0x02	; 2
    17f2:	90 e0       	ldi	r25, 0x00	; 0
    17f4:	e8 2a       	or	r14, r24
    17f6:	f9 2a       	or	r15, r25
    17f8:	9a e0       	ldi	r25, 0x0A	; 10
    17fa:	d9 16       	cp	r13, r25
    17fc:	39 f4       	brne	.+14     	; 0x180c <_ZN15OrangutanBuzzer13playFrequencyEjjh+0xe8>
    17fe:	ce 01       	movw	r24, r28
    1800:	05 96       	adiw	r24, 0x05	; 5
    1802:	6a e0       	ldi	r22, 0x0A	; 10
    1804:	70 e0       	ldi	r23, 0x00	; 0
    1806:	0e 94 fe 17 	call	0x2ffc	; 0x2ffc <__udivmodhi4>
    180a:	eb 01       	movw	r28, r22
    180c:	83 e0       	ldi	r24, 0x03	; 3
    180e:	c8 3e       	cpi	r28, 0xE8	; 232
    1810:	d8 07       	cpc	r29, r24
    1812:	11 f4       	brne	.+4      	; 0x1818 <_ZN15OrangutanBuzzer13playFrequencyEjjh+0xf4>
    1814:	b5 01       	movw	r22, r10
    1816:	0f c0       	rjmp	.+30     	; 0x1836 <_ZN15OrangutanBuzzer13playFrequencyEjjh+0x112>
    1818:	be 01       	movw	r22, r28
    181a:	80 e0       	ldi	r24, 0x00	; 0
    181c:	90 e0       	ldi	r25, 0x00	; 0
    181e:	95 01       	movw	r18, r10
    1820:	40 e0       	ldi	r20, 0x00	; 0
    1822:	50 e0       	ldi	r21, 0x00	; 0
    1824:	0e 94 d3 17 	call	0x2fa6	; 0x2fa6 <__mulsi3>
    1828:	28 ee       	ldi	r18, 0xE8	; 232
    182a:	33 e0       	ldi	r19, 0x03	; 3
    182c:	40 e0       	ldi	r20, 0x00	; 0
    182e:	50 e0       	ldi	r21, 0x00	; 0
    1830:	0e 94 47 18 	call	0x308e	; 0x308e <__divmodsi4>
    1834:	b9 01       	movw	r22, r18
    1836:	10 92 6f 00 	sts	0x006F, r1
    183a:	e0 92 81 00 	sts	0x0081, r14
    183e:	10 93 89 00 	sts	0x0089, r17
    1842:	00 93 88 00 	sts	0x0088, r16
    1846:	e0 91 88 00 	lds	r30, 0x0088
    184a:	f0 91 89 00 	lds	r31, 0x0089
    184e:	ac 2d       	mov	r26, r12
    1850:	a0 31       	cpi	r26, 0x10	; 16
    1852:	08 f0       	brcs	.+2      	; 0x1856 <_ZN15OrangutanBuzzer13playFrequencyEjjh+0x132>
    1854:	af e0       	ldi	r26, 0x0F	; 15
    1856:	80 e1       	ldi	r24, 0x10	; 16
    1858:	90 e0       	ldi	r25, 0x00	; 0
    185a:	8a 1b       	sub	r24, r26
    185c:	91 09       	sbc	r25, r1
    185e:	02 c0       	rjmp	.+4      	; 0x1864 <_ZN15OrangutanBuzzer13playFrequencyEjjh+0x140>
    1860:	f6 95       	lsr	r31
    1862:	e7 95       	ror	r30
    1864:	8a 95       	dec	r24
    1866:	e2 f7       	brpl	.-8      	; 0x1860 <_ZN15OrangutanBuzzer13playFrequencyEjjh+0x13c>
    1868:	f0 93 8b 00 	sts	0x008B, r31
    186c:	e0 93 8a 00 	sts	0x008A, r30
    1870:	70 93 8f 02 	sts	0x028F, r23
    1874:	60 93 8e 02 	sts	0x028E, r22
    1878:	86 b3       	in	r24, 0x16	; 22
    187a:	8f ef       	ldi	r24, 0xFF	; 255
    187c:	86 bb       	out	0x16, r24	; 22
    187e:	81 e0       	ldi	r24, 0x01	; 1
    1880:	80 93 6f 00 	sts	0x006F, r24
    1884:	cd b7       	in	r28, 0x3d	; 61
    1886:	de b7       	in	r29, 0x3e	; 62
    1888:	ea e0       	ldi	r30, 0x0A	; 10
    188a:	0c 94 86 18 	jmp	0x310c	; 0x310c <__epilogue_restores__+0x10>

0000188e <play_frequency>:
    188e:	0e 94 92 0b 	call	0x1724	; 0x1724 <_ZN15OrangutanBuzzer13playFrequencyEjjh>
    1892:	08 95       	ret

00001894 <_ZN15OrangutanBuzzer8playNoteEhjh>:
    1894:	cf 93       	push	r28
    1896:	df 93       	push	r29
    1898:	eb 01       	movw	r28, r22
    189a:	8f 3f       	cpi	r24, 0xFF	; 255
    189c:	11 f0       	breq	.+4      	; 0x18a2 <_ZN15OrangutanBuzzer8playNoteEhjh+0xe>
    189e:	44 23       	and	r20, r20
    18a0:	29 f4       	brne	.+10     	; 0x18ac <_ZN15OrangutanBuzzer8playNoteEhjh+0x18>
    18a2:	88 ee       	ldi	r24, 0xE8	; 232
    18a4:	93 e0       	ldi	r25, 0x03	; 3
    18a6:	be 01       	movw	r22, r28
    18a8:	40 e0       	ldi	r20, 0x00	; 0
    18aa:	67 c0       	rjmp	.+206    	; 0x197a <_ZN15OrangutanBuzzer8playNoteEhjh+0xe6>
    18ac:	81 31       	cpi	r24, 0x11	; 17
    18ae:	10 f4       	brcc	.+4      	; 0x18b4 <_ZN15OrangutanBuzzer8playNoteEhjh+0x20>
    18b0:	20 e0       	ldi	r18, 0x00	; 0
    18b2:	05 c0       	rjmp	.+10     	; 0x18be <_ZN15OrangutanBuzzer8playNoteEhjh+0x2a>
    18b4:	28 2f       	mov	r18, r24
    18b6:	20 51       	subi	r18, 0x10	; 16
    18b8:	20 36       	cpi	r18, 0x60	; 96
    18ba:	08 f0       	brcs	.+2      	; 0x18be <_ZN15OrangutanBuzzer8playNoteEhjh+0x2a>
    18bc:	2f e5       	ldi	r18, 0x5F	; 95
    18be:	82 2f       	mov	r24, r18
    18c0:	6c e0       	ldi	r22, 0x0C	; 12
    18c2:	0e 94 f2 17 	call	0x2fe4	; 0x2fe4 <__udivmodqi4>
    18c6:	38 2f       	mov	r19, r24
    18c8:	68 2f       	mov	r22, r24
    18ca:	70 e0       	ldi	r23, 0x00	; 0
    18cc:	84 ef       	ldi	r24, 0xF4	; 244
    18ce:	9f ef       	ldi	r25, 0xFF	; 255
    18d0:	68 9f       	mul	r22, r24
    18d2:	f0 01       	movw	r30, r0
    18d4:	69 9f       	mul	r22, r25
    18d6:	f0 0d       	add	r31, r0
    18d8:	78 9f       	mul	r23, r24
    18da:	f0 0d       	add	r31, r0
    18dc:	11 24       	eor	r1, r1
    18de:	e2 0f       	add	r30, r18
    18e0:	f1 1d       	adc	r31, r1
    18e2:	ec 30       	cpi	r30, 0x0C	; 12
    18e4:	f1 05       	cpc	r31, r1
    18e6:	38 f4       	brcc	.+14     	; 0x18f6 <_ZN15OrangutanBuzzer8playNoteEhjh+0x62>
    18e8:	ec 5c       	subi	r30, 0xCC	; 204
    18ea:	ff 4f       	sbci	r31, 0xFF	; 255
    18ec:	0c 94 99 18 	jmp	0x3132	; 0x3132 <__tablejump2__>
    18f0:	8c e9       	ldi	r24, 0x9C	; 156
    18f2:	91 e0       	ldi	r25, 0x01	; 1
    18f4:	23 c0       	rjmp	.+70     	; 0x193c <_ZN15OrangutanBuzzer8playNoteEhjh+0xa8>
    18f6:	80 e0       	ldi	r24, 0x00	; 0
    18f8:	90 e0       	ldi	r25, 0x00	; 0
    18fa:	20 c0       	rjmp	.+64     	; 0x193c <_ZN15OrangutanBuzzer8playNoteEhjh+0xa8>
    18fc:	85 eb       	ldi	r24, 0xB5	; 181
    18fe:	91 e0       	ldi	r25, 0x01	; 1
    1900:	1d c0       	rjmp	.+58     	; 0x193c <_ZN15OrangutanBuzzer8playNoteEhjh+0xa8>
    1902:	8f ec       	ldi	r24, 0xCF	; 207
    1904:	91 e0       	ldi	r25, 0x01	; 1
    1906:	1a c0       	rjmp	.+52     	; 0x193c <_ZN15OrangutanBuzzer8playNoteEhjh+0xa8>
    1908:	8a ee       	ldi	r24, 0xEA	; 234
    190a:	91 e0       	ldi	r25, 0x01	; 1
    190c:	17 c0       	rjmp	.+46     	; 0x193c <_ZN15OrangutanBuzzer8playNoteEhjh+0xa8>
    190e:	87 e0       	ldi	r24, 0x07	; 7
    1910:	92 e0       	ldi	r25, 0x02	; 2
    1912:	14 c0       	rjmp	.+40     	; 0x193c <_ZN15OrangutanBuzzer8playNoteEhjh+0xa8>
    1914:	86 e2       	ldi	r24, 0x26	; 38
    1916:	92 e0       	ldi	r25, 0x02	; 2
    1918:	11 c0       	rjmp	.+34     	; 0x193c <_ZN15OrangutanBuzzer8playNoteEhjh+0xa8>
    191a:	87 e4       	ldi	r24, 0x47	; 71
    191c:	92 e0       	ldi	r25, 0x02	; 2
    191e:	0e c0       	rjmp	.+28     	; 0x193c <_ZN15OrangutanBuzzer8playNoteEhjh+0xa8>
    1920:	89 e6       	ldi	r24, 0x69	; 105
    1922:	92 e0       	ldi	r25, 0x02	; 2
    1924:	0b c0       	rjmp	.+22     	; 0x193c <_ZN15OrangutanBuzzer8playNoteEhjh+0xa8>
    1926:	8e e8       	ldi	r24, 0x8E	; 142
    1928:	92 e0       	ldi	r25, 0x02	; 2
    192a:	08 c0       	rjmp	.+16     	; 0x193c <_ZN15OrangutanBuzzer8playNoteEhjh+0xa8>
    192c:	85 eb       	ldi	r24, 0xB5	; 181
    192e:	92 e0       	ldi	r25, 0x02	; 2
    1930:	05 c0       	rjmp	.+10     	; 0x193c <_ZN15OrangutanBuzzer8playNoteEhjh+0xa8>
    1932:	8e ed       	ldi	r24, 0xDE	; 222
    1934:	92 e0       	ldi	r25, 0x02	; 2
    1936:	02 c0       	rjmp	.+4      	; 0x193c <_ZN15OrangutanBuzzer8playNoteEhjh+0xa8>
    1938:	8a e0       	ldi	r24, 0x0A	; 10
    193a:	93 e0       	ldi	r25, 0x03	; 3
    193c:	37 30       	cpi	r19, 0x07	; 7
    193e:	71 f0       	breq	.+28     	; 0x195c <_ZN15OrangutanBuzzer8playNoteEhjh+0xc8>
    1940:	02 c0       	rjmp	.+4      	; 0x1946 <_ZN15OrangutanBuzzer8playNoteEhjh+0xb2>
    1942:	88 0f       	add	r24, r24
    1944:	99 1f       	adc	r25, r25
    1946:	6a 95       	dec	r22
    1948:	e2 f7       	brpl	.-8      	; 0x1942 <_ZN15OrangutanBuzzer8playNoteEhjh+0xae>
    194a:	32 30       	cpi	r19, 0x02	; 2
    194c:	20 f0       	brcs	.+8      	; 0x1956 <_ZN15OrangutanBuzzer8playNoteEhjh+0xc2>
    194e:	05 96       	adiw	r24, 0x05	; 5
    1950:	6a e0       	ldi	r22, 0x0A	; 10
    1952:	70 e0       	ldi	r23, 0x00	; 0
    1954:	0b c0       	rjmp	.+22     	; 0x196c <_ZN15OrangutanBuzzer8playNoteEhjh+0xd8>
    1956:	80 50       	subi	r24, 0x00	; 0
    1958:	90 48       	sbci	r25, 0x80	; 128
    195a:	0b c0       	rjmp	.+22     	; 0x1972 <_ZN15OrangutanBuzzer8playNoteEhjh+0xde>
    195c:	36 e0       	ldi	r19, 0x06	; 6
    195e:	88 0f       	add	r24, r24
    1960:	99 1f       	adc	r25, r25
    1962:	3a 95       	dec	r19
    1964:	e1 f7       	brne	.-8      	; 0x195e <_ZN15OrangutanBuzzer8playNoteEhjh+0xca>
    1966:	02 96       	adiw	r24, 0x02	; 2
    1968:	65 e0       	ldi	r22, 0x05	; 5
    196a:	70 e0       	ldi	r23, 0x00	; 0
    196c:	0e 94 fe 17 	call	0x2ffc	; 0x2ffc <__udivmodhi4>
    1970:	cb 01       	movw	r24, r22
    1972:	40 31       	cpi	r20, 0x10	; 16
    1974:	08 f0       	brcs	.+2      	; 0x1978 <_ZN15OrangutanBuzzer8playNoteEhjh+0xe4>
    1976:	4f e0       	ldi	r20, 0x0F	; 15
    1978:	be 01       	movw	r22, r28
    197a:	0e 94 92 0b 	call	0x1724	; 0x1724 <_ZN15OrangutanBuzzer13playFrequencyEjjh>
    197e:	df 91       	pop	r29
    1980:	cf 91       	pop	r28
    1982:	08 95       	ret

00001984 <play_note>:
    1984:	0e 94 4a 0c 	call	0x1894	; 0x1894 <_ZN15OrangutanBuzzer8playNoteEhjh>
    1988:	08 95       	ret

0000198a <_ZN15OrangutanBuzzer9isPlayingEv>:
    198a:	80 91 7a 01 	lds	r24, 0x017A
    198e:	88 23       	and	r24, r24
    1990:	39 f0       	breq	.+14     	; 0x19a0 <_ZN15OrangutanBuzzer9isPlayingEv+0x16>
    1992:	20 e0       	ldi	r18, 0x00	; 0
    1994:	80 91 a8 02 	lds	r24, 0x02A8
    1998:	90 91 a9 02 	lds	r25, 0x02A9
    199c:	89 2b       	or	r24, r25
    199e:	09 f0       	breq	.+2      	; 0x19a2 <_ZN15OrangutanBuzzer9isPlayingEv+0x18>
    19a0:	21 e0       	ldi	r18, 0x01	; 1
    19a2:	82 2f       	mov	r24, r18
    19a4:	08 95       	ret

000019a6 <_ZN15OrangutanBuzzer11stopPlayingEv>:
    19a6:	10 92 6f 00 	sts	0x006F, r1
    19aa:	e1 e8       	ldi	r30, 0x81	; 129
    19ac:	f0 e0       	ldi	r31, 0x00	; 0
    19ae:	80 81       	ld	r24, Z
    19b0:	88 7f       	andi	r24, 0xF8	; 248
    19b2:	81 60       	ori	r24, 0x01	; 1
    19b4:	80 83       	st	Z, r24
    19b6:	80 e1       	ldi	r24, 0x10	; 16
    19b8:	97 e2       	ldi	r25, 0x27	; 39
    19ba:	90 93 89 00 	sts	0x0089, r25
    19be:	80 93 88 00 	sts	0x0088, r24
    19c2:	10 92 8b 00 	sts	0x008B, r1
    19c6:	10 92 8a 00 	sts	0x008A, r1
    19ca:	81 e0       	ldi	r24, 0x01	; 1
    19cc:	80 93 7a 01 	sts	0x017A, r24
    19d0:	10 92 a9 02 	sts	0x02A9, r1
    19d4:	10 92 a8 02 	sts	0x02A8, r1
    19d8:	08 95       	ret

000019da <stop_playing>:
    19da:	0e 94 d3 0c 	call	0x19a6	; 0x19a6 <_ZN15OrangutanBuzzer11stopPlayingEv>
    19de:	08 95       	ret

000019e0 <_ZL16currentCharacterv>:
    19e0:	30 91 8c 02 	lds	r19, 0x028C
    19e4:	e0 91 a8 02 	lds	r30, 0x02A8
    19e8:	f0 91 a9 02 	lds	r31, 0x02A9
    19ec:	33 23       	and	r19, r19
    19ee:	11 f0       	breq	.+4      	; 0x19f4 <_ZL16currentCharacterv+0x14>
    19f0:	24 91       	lpm	r18, Z+
    19f2:	01 c0       	rjmp	.+2      	; 0x19f6 <_ZL16currentCharacterv+0x16>
    19f4:	20 81       	ld	r18, Z
    19f6:	82 2f       	mov	r24, r18
    19f8:	81 54       	subi	r24, 0x41	; 65
    19fa:	8a 31       	cpi	r24, 0x1A	; 26
    19fc:	08 f4       	brcc	.+2      	; 0x1a00 <_ZL16currentCharacterv+0x20>
    19fe:	20 5e       	subi	r18, 0xE0	; 224
    1a00:	20 32       	cpi	r18, 0x20	; 32
    1a02:	59 f4       	brne	.+22     	; 0x1a1a <_ZL16currentCharacterv+0x3a>
    1a04:	80 91 a8 02 	lds	r24, 0x02A8
    1a08:	90 91 a9 02 	lds	r25, 0x02A9
    1a0c:	01 96       	adiw	r24, 0x01	; 1
    1a0e:	90 93 a9 02 	sts	0x02A9, r25
    1a12:	80 93 a8 02 	sts	0x02A8, r24
    1a16:	01 97       	sbiw	r24, 0x01	; 1
    1a18:	29 f7       	brne	.-54     	; 0x19e4 <_ZL16currentCharacterv+0x4>
    1a1a:	82 2f       	mov	r24, r18
    1a1c:	08 95       	ret

00001a1e <_ZL9getNumberv>:
    1a1e:	cf 93       	push	r28
    1a20:	df 93       	push	r29
    1a22:	0e 94 f0 0c 	call	0x19e0	; 0x19e0 <_ZL16currentCharacterv>
    1a26:	28 2f       	mov	r18, r24
    1a28:	c0 e0       	ldi	r28, 0x00	; 0
    1a2a:	d0 e0       	ldi	r29, 0x00	; 0
    1a2c:	1d c0       	rjmp	.+58     	; 0x1a68 <_ZL9getNumberv+0x4a>
    1a2e:	ce 01       	movw	r24, r28
    1a30:	53 e0       	ldi	r21, 0x03	; 3
    1a32:	88 0f       	add	r24, r24
    1a34:	99 1f       	adc	r25, r25
    1a36:	5a 95       	dec	r21
    1a38:	e1 f7       	brne	.-8      	; 0x1a32 <_ZL9getNumberv+0x14>
    1a3a:	cc 0f       	add	r28, r28
    1a3c:	dd 1f       	adc	r29, r29
    1a3e:	c8 0f       	add	r28, r24
    1a40:	d9 1f       	adc	r29, r25
    1a42:	82 2f       	mov	r24, r18
    1a44:	99 27       	eor	r25, r25
    1a46:	87 fd       	sbrc	r24, 7
    1a48:	90 95       	com	r25
    1a4a:	c8 0f       	add	r28, r24
    1a4c:	d9 1f       	adc	r29, r25
    1a4e:	e0 97       	sbiw	r28, 0x30	; 48
    1a50:	80 91 a8 02 	lds	r24, 0x02A8
    1a54:	90 91 a9 02 	lds	r25, 0x02A9
    1a58:	01 96       	adiw	r24, 0x01	; 1
    1a5a:	90 93 a9 02 	sts	0x02A9, r25
    1a5e:	80 93 a8 02 	sts	0x02A8, r24
    1a62:	0e 94 f0 0c 	call	0x19e0	; 0x19e0 <_ZL16currentCharacterv>
    1a66:	28 2f       	mov	r18, r24
    1a68:	82 2f       	mov	r24, r18
    1a6a:	80 53       	subi	r24, 0x30	; 48
    1a6c:	8a 30       	cpi	r24, 0x0A	; 10
    1a6e:	f8 f2       	brcs	.-66     	; 0x1a2e <_ZL9getNumberv+0x10>
    1a70:	ce 01       	movw	r24, r28
    1a72:	df 91       	pop	r29
    1a74:	cf 91       	pop	r28
    1a76:	08 95       	ret

00001a78 <_ZL8nextNotev>:
    1a78:	a0 e0       	ldi	r26, 0x00	; 0
    1a7a:	b0 e0       	ldi	r27, 0x00	; 0
    1a7c:	e2 e4       	ldi	r30, 0x42	; 66
    1a7e:	fd e0       	ldi	r31, 0x0D	; 13
    1a80:	0c 94 68 18 	jmp	0x30d0	; 0x30d0 <__prologue_saves__+0xc>
    1a84:	80 90 6f 01 	lds	r8, 0x016F
    1a88:	b0 90 8a 02 	lds	r11, 0x028A
    1a8c:	bb 20       	and	r11, r11
    1a8e:	21 f0       	breq	.+8      	; 0x1a98 <_ZL8nextNotev+0x20>
    1a90:	60 91 8b 02 	lds	r22, 0x028B
    1a94:	66 23       	and	r22, r22
    1a96:	99 f4       	brne	.+38     	; 0x1abe <_ZL8nextNotev+0x46>
    1a98:	a0 90 8b 02 	lds	r10, 0x028B
    1a9c:	00 91 74 01 	lds	r16, 0x0174
    1aa0:	10 91 75 01 	lds	r17, 0x0175
    1aa4:	e0 90 70 01 	lds	r14, 0x0170
    1aa8:	f0 90 71 01 	lds	r15, 0x0171
    1aac:	c0 91 72 01 	lds	r28, 0x0172
    1ab0:	d0 91 73 01 	lds	r29, 0x0173
    1ab4:	c0 90 76 01 	lds	r12, 0x0176
    1ab8:	d0 90 77 01 	lds	r13, 0x0177
    1abc:	08 c1       	rjmp	.+528    	; 0x1cce <_ZL8nextNotev+0x256>
    1abe:	8f ef       	ldi	r24, 0xFF	; 255
    1ac0:	70 e0       	ldi	r23, 0x00	; 0
    1ac2:	40 e0       	ldi	r20, 0x00	; 0
    1ac4:	0e 94 4a 0c 	call	0x1894	; 0x1894 <_ZN15OrangutanBuzzer8playNoteEhjh>
    1ac8:	10 92 8b 02 	sts	0x028B, r1
    1acc:	cb c1       	rjmp	.+918    	; 0x1e64 <_ZL8nextNotev+0x3ec>
    1ace:	94 e0       	ldi	r25, 0x04	; 4
    1ad0:	89 2e       	mov	r8, r25
    1ad2:	bb 24       	eor	r11, r11
    1ad4:	04 ef       	ldi	r16, 0xF4	; 244
    1ad6:	11 e0       	ldi	r17, 0x01	; 1
    1ad8:	84 e0       	ldi	r24, 0x04	; 4
    1ada:	e8 2e       	mov	r14, r24
    1adc:	f1 2c       	mov	r15, r1
    1ade:	c0 ed       	ldi	r28, 0xD0	; 208
    1ae0:	d7 e0       	ldi	r29, 0x07	; 7
    1ae2:	b4 e0       	ldi	r27, 0x04	; 4
    1ae4:	9b 2e       	mov	r9, r27
    1ae6:	af e0       	ldi	r26, 0x0F	; 15
    1ae8:	ca 2e       	mov	r12, r26
    1aea:	d1 2c       	mov	r13, r1
    1aec:	0e 94 f0 0c 	call	0x19e0	; 0x19e0 <_ZL16currentCharacterv>
    1af0:	28 2f       	mov	r18, r24
    1af2:	80 91 a8 02 	lds	r24, 0x02A8
    1af6:	90 91 a9 02 	lds	r25, 0x02A9
    1afa:	01 96       	adiw	r24, 0x01	; 1
    1afc:	90 93 a9 02 	sts	0x02A9, r25
    1b00:	80 93 a8 02 	sts	0x02A8, r24
    1b04:	26 36       	cpi	r18, 0x66	; 102
    1b06:	09 f4       	brne	.+2      	; 0x1b0a <_ZL8nextNotev+0x92>
    1b08:	98 c0       	rjmp	.+304    	; 0x1c3a <_ZL8nextNotev+0x1c2>
    1b0a:	27 36       	cpi	r18, 0x67	; 103
    1b0c:	cc f4       	brge	.+50     	; 0x1b40 <_ZL8nextNotev+0xc8>
    1b0e:	22 36       	cpi	r18, 0x62	; 98
    1b10:	a1 f1       	breq	.+104    	; 0x1b7a <_ZL8nextNotev+0x102>
    1b12:	23 36       	cpi	r18, 0x63	; 99
    1b14:	74 f4       	brge	.+28     	; 0x1b32 <_ZL8nextNotev+0xba>
    1b16:	2e 33       	cpi	r18, 0x3E	; 62
    1b18:	61 f1       	breq	.+88     	; 0x1b72 <_ZL8nextNotev+0xfa>
    1b1a:	2f 33       	cpi	r18, 0x3F	; 63
    1b1c:	34 f4       	brge	.+12     	; 0x1b2a <_ZL8nextNotev+0xb2>
    1b1e:	21 32       	cpi	r18, 0x21	; 33
    1b20:	b1 f2       	breq	.-84     	; 0x1ace <_ZL8nextNotev+0x56>
    1b22:	2c 33       	cpi	r18, 0x3C	; 60
    1b24:	09 f0       	breq	.+2      	; 0x1b28 <_ZL8nextNotev+0xb0>
    1b26:	0b c1       	rjmp	.+534    	; 0x1d3e <_ZL8nextNotev+0x2c6>
    1b28:	26 c0       	rjmp	.+76     	; 0x1b76 <_ZL8nextNotev+0xfe>
    1b2a:	21 36       	cpi	r18, 0x61	; 97
    1b2c:	09 f0       	breq	.+2      	; 0x1b30 <_ZL8nextNotev+0xb8>
    1b2e:	07 c1       	rjmp	.+526    	; 0x1d3e <_ZL8nextNotev+0x2c6>
    1b30:	21 c1       	rjmp	.+578    	; 0x1d74 <_ZL8nextNotev+0x2fc>
    1b32:	24 36       	cpi	r18, 0x64	; 100
    1b34:	09 f4       	brne	.+2      	; 0x1b38 <_ZL8nextNotev+0xc0>
    1b36:	51 c0       	rjmp	.+162    	; 0x1bda <_ZL8nextNotev+0x162>
    1b38:	25 36       	cpi	r18, 0x65	; 101
    1b3a:	0c f0       	brlt	.+2      	; 0x1b3e <_ZL8nextNotev+0xc6>
    1b3c:	66 c0       	rjmp	.+204    	; 0x1c0a <_ZL8nextNotev+0x192>
    1b3e:	35 c0       	rjmp	.+106    	; 0x1baa <_ZL8nextNotev+0x132>
    1b40:	2f 36       	cpi	r18, 0x6F	; 111
    1b42:	09 f4       	brne	.+2      	; 0x1b46 <_ZL8nextNotev+0xce>
    1b44:	c1 c0       	rjmp	.+386    	; 0x1cc8 <_ZL8nextNotev+0x250>
    1b46:	20 37       	cpi	r18, 0x70	; 112
    1b48:	54 f4       	brge	.+20     	; 0x1b5e <_ZL8nextNotev+0xe6>
    1b4a:	2c 36       	cpi	r18, 0x6C	; 108
    1b4c:	09 f4       	brne	.+2      	; 0x1b50 <_ZL8nextNotev+0xd8>
    1b4e:	a5 c0       	rjmp	.+330    	; 0x1c9a <_ZL8nextNotev+0x222>
    1b50:	2d 36       	cpi	r18, 0x6D	; 109
    1b52:	09 f4       	brne	.+2      	; 0x1b56 <_ZL8nextNotev+0xde>
    1b54:	a6 c0       	rjmp	.+332    	; 0x1ca2 <_ZL8nextNotev+0x22a>
    1b56:	27 36       	cpi	r18, 0x67	; 103
    1b58:	09 f0       	breq	.+2      	; 0x1b5c <_ZL8nextNotev+0xe4>
    1b5a:	f1 c0       	rjmp	.+482    	; 0x1d3e <_ZL8nextNotev+0x2c6>
    1b5c:	86 c0       	rjmp	.+268    	; 0x1c6a <_ZL8nextNotev+0x1f2>
    1b5e:	24 37       	cpi	r18, 0x74	; 116
    1b60:	09 f4       	brne	.+2      	; 0x1b64 <_ZL8nextNotev+0xec>
    1b62:	d1 c0       	rjmp	.+418    	; 0x1d06 <_ZL8nextNotev+0x28e>
    1b64:	26 37       	cpi	r18, 0x76	; 118
    1b66:	09 f4       	brne	.+2      	; 0x1b6a <_ZL8nextNotev+0xf2>
    1b68:	e6 c0       	rjmp	.+460    	; 0x1d36 <_ZL8nextNotev+0x2be>
    1b6a:	22 37       	cpi	r18, 0x72	; 114
    1b6c:	09 f0       	breq	.+2      	; 0x1b70 <_ZL8nextNotev+0xf8>
    1b6e:	e7 c0       	rjmp	.+462    	; 0x1d3e <_ZL8nextNotev+0x2c6>
    1b70:	b0 c0       	rjmp	.+352    	; 0x1cd2 <_ZL8nextNotev+0x25a>
    1b72:	83 94       	inc	r8
    1b74:	bb cf       	rjmp	.-138    	; 0x1aec <_ZL8nextNotev+0x74>
    1b76:	8a 94       	dec	r8
    1b78:	b9 cf       	rjmp	.-142    	; 0x1aec <_ZL8nextNotev+0x74>
    1b7a:	a0 92 8b 02 	sts	0x028B, r10
    1b7e:	b0 92 8a 02 	sts	0x028A, r11
    1b82:	10 93 75 01 	sts	0x0175, r17
    1b86:	00 93 74 01 	sts	0x0174, r16
    1b8a:	f0 92 71 01 	sts	0x0171, r15
    1b8e:	e0 92 70 01 	sts	0x0170, r14
    1b92:	d0 93 73 01 	sts	0x0173, r29
    1b96:	c0 93 72 01 	sts	0x0172, r28
    1b9a:	90 92 6f 01 	sts	0x016F, r9
    1b9e:	d0 92 77 01 	sts	0x0177, r13
    1ba2:	c0 92 76 01 	sts	0x0176, r12
    1ba6:	2b e0       	ldi	r18, 0x0B	; 11
    1ba8:	fc c0       	rjmp	.+504    	; 0x1da2 <_ZL8nextNotev+0x32a>
    1baa:	a0 92 8b 02 	sts	0x028B, r10
    1bae:	b0 92 8a 02 	sts	0x028A, r11
    1bb2:	10 93 75 01 	sts	0x0175, r17
    1bb6:	00 93 74 01 	sts	0x0174, r16
    1bba:	f0 92 71 01 	sts	0x0171, r15
    1bbe:	e0 92 70 01 	sts	0x0170, r14
    1bc2:	d0 93 73 01 	sts	0x0173, r29
    1bc6:	c0 93 72 01 	sts	0x0172, r28
    1bca:	90 92 6f 01 	sts	0x016F, r9
    1bce:	d0 92 77 01 	sts	0x0177, r13
    1bd2:	c0 92 76 01 	sts	0x0176, r12
    1bd6:	20 e0       	ldi	r18, 0x00	; 0
    1bd8:	e4 c0       	rjmp	.+456    	; 0x1da2 <_ZL8nextNotev+0x32a>
    1bda:	a0 92 8b 02 	sts	0x028B, r10
    1bde:	b0 92 8a 02 	sts	0x028A, r11
    1be2:	10 93 75 01 	sts	0x0175, r17
    1be6:	00 93 74 01 	sts	0x0174, r16
    1bea:	f0 92 71 01 	sts	0x0171, r15
    1bee:	e0 92 70 01 	sts	0x0170, r14
    1bf2:	d0 93 73 01 	sts	0x0173, r29
    1bf6:	c0 93 72 01 	sts	0x0172, r28
    1bfa:	90 92 6f 01 	sts	0x016F, r9
    1bfe:	d0 92 77 01 	sts	0x0177, r13
    1c02:	c0 92 76 01 	sts	0x0176, r12
    1c06:	22 e0       	ldi	r18, 0x02	; 2
    1c08:	cc c0       	rjmp	.+408    	; 0x1da2 <_ZL8nextNotev+0x32a>
    1c0a:	a0 92 8b 02 	sts	0x028B, r10
    1c0e:	b0 92 8a 02 	sts	0x028A, r11
    1c12:	10 93 75 01 	sts	0x0175, r17
    1c16:	00 93 74 01 	sts	0x0174, r16
    1c1a:	f0 92 71 01 	sts	0x0171, r15
    1c1e:	e0 92 70 01 	sts	0x0170, r14
    1c22:	d0 93 73 01 	sts	0x0173, r29
    1c26:	c0 93 72 01 	sts	0x0172, r28
    1c2a:	90 92 6f 01 	sts	0x016F, r9
    1c2e:	d0 92 77 01 	sts	0x0177, r13
    1c32:	c0 92 76 01 	sts	0x0176, r12
    1c36:	24 e0       	ldi	r18, 0x04	; 4
    1c38:	b4 c0       	rjmp	.+360    	; 0x1da2 <_ZL8nextNotev+0x32a>
    1c3a:	a0 92 8b 02 	sts	0x028B, r10
    1c3e:	b0 92 8a 02 	sts	0x028A, r11
    1c42:	10 93 75 01 	sts	0x0175, r17
    1c46:	00 93 74 01 	sts	0x0174, r16
    1c4a:	f0 92 71 01 	sts	0x0171, r15
    1c4e:	e0 92 70 01 	sts	0x0170, r14
    1c52:	d0 93 73 01 	sts	0x0173, r29
    1c56:	c0 93 72 01 	sts	0x0172, r28
    1c5a:	90 92 6f 01 	sts	0x016F, r9
    1c5e:	d0 92 77 01 	sts	0x0177, r13
    1c62:	c0 92 76 01 	sts	0x0176, r12
    1c66:	25 e0       	ldi	r18, 0x05	; 5
    1c68:	9c c0       	rjmp	.+312    	; 0x1da2 <_ZL8nextNotev+0x32a>
    1c6a:	a0 92 8b 02 	sts	0x028B, r10
    1c6e:	b0 92 8a 02 	sts	0x028A, r11
    1c72:	10 93 75 01 	sts	0x0175, r17
    1c76:	00 93 74 01 	sts	0x0174, r16
    1c7a:	f0 92 71 01 	sts	0x0171, r15
    1c7e:	e0 92 70 01 	sts	0x0170, r14
    1c82:	d0 93 73 01 	sts	0x0173, r29
    1c86:	c0 93 72 01 	sts	0x0172, r28
    1c8a:	90 92 6f 01 	sts	0x016F, r9
    1c8e:	d0 92 77 01 	sts	0x0177, r13
    1c92:	c0 92 76 01 	sts	0x0176, r12
    1c96:	27 e0       	ldi	r18, 0x07	; 7
    1c98:	84 c0       	rjmp	.+264    	; 0x1da2 <_ZL8nextNotev+0x32a>
    1c9a:	0e 94 0f 0d 	call	0x1a1e	; 0x1a1e <_ZL9getNumberv>
    1c9e:	7c 01       	movw	r14, r24
    1ca0:	44 c0       	rjmp	.+136    	; 0x1d2a <_ZL8nextNotev+0x2b2>
    1ca2:	0e 94 f0 0c 	call	0x19e0	; 0x19e0 <_ZL16currentCharacterv>
    1ca6:	8c 36       	cpi	r24, 0x6C	; 108
    1ca8:	11 f4       	brne	.+4      	; 0x1cae <_ZL8nextNotev+0x236>
    1caa:	bb 24       	eor	r11, r11
    1cac:	03 c0       	rjmp	.+6      	; 0x1cb4 <_ZL8nextNotev+0x23c>
    1cae:	aa 24       	eor	r10, r10
    1cb0:	bb 24       	eor	r11, r11
    1cb2:	b3 94       	inc	r11
    1cb4:	80 91 a8 02 	lds	r24, 0x02A8
    1cb8:	90 91 a9 02 	lds	r25, 0x02A9
    1cbc:	01 96       	adiw	r24, 0x01	; 1
    1cbe:	90 93 a9 02 	sts	0x02A9, r25
    1cc2:	80 93 a8 02 	sts	0x02A8, r24
    1cc6:	12 cf       	rjmp	.-476    	; 0x1aec <_ZL8nextNotev+0x74>
    1cc8:	0e 94 0f 0d 	call	0x1a1e	; 0x1a1e <_ZL9getNumberv>
    1ccc:	88 2e       	mov	r8, r24
    1cce:	98 2c       	mov	r9, r8
    1cd0:	0d cf       	rjmp	.-486    	; 0x1aec <_ZL8nextNotev+0x74>
    1cd2:	a0 92 8b 02 	sts	0x028B, r10
    1cd6:	b0 92 8a 02 	sts	0x028A, r11
    1cda:	10 93 75 01 	sts	0x0175, r17
    1cde:	00 93 74 01 	sts	0x0174, r16
    1ce2:	f0 92 71 01 	sts	0x0171, r15
    1ce6:	e0 92 70 01 	sts	0x0170, r14
    1cea:	d0 93 73 01 	sts	0x0173, r29
    1cee:	c0 93 72 01 	sts	0x0172, r28
    1cf2:	90 92 6f 01 	sts	0x016F, r9
    1cf6:	d0 92 77 01 	sts	0x0177, r13
    1cfa:	c0 92 76 01 	sts	0x0176, r12
    1cfe:	20 e0       	ldi	r18, 0x00	; 0
    1d00:	ff 24       	eor	r15, r15
    1d02:	f3 94       	inc	r15
    1d04:	4f c0       	rjmp	.+158    	; 0x1da4 <_ZL8nextNotev+0x32c>
    1d06:	0e 94 0f 0d 	call	0x1a1e	; 0x1a1e <_ZL9getNumberv>
    1d0a:	bc 01       	movw	r22, r24
    1d0c:	80 ec       	ldi	r24, 0xC0	; 192
    1d0e:	9d e5       	ldi	r25, 0x5D	; 93
    1d10:	0e 94 fe 17 	call	0x2ffc	; 0x2ffc <__udivmodhi4>
    1d14:	cb 01       	movw	r24, r22
    1d16:	eb 01       	movw	r28, r22
    1d18:	f3 e0       	ldi	r31, 0x03	; 3
    1d1a:	cc 0f       	add	r28, r28
    1d1c:	dd 1f       	adc	r29, r29
    1d1e:	fa 95       	dec	r31
    1d20:	e1 f7       	brne	.-8      	; 0x1d1a <_ZL8nextNotev+0x2a2>
    1d22:	88 0f       	add	r24, r24
    1d24:	99 1f       	adc	r25, r25
    1d26:	c8 0f       	add	r28, r24
    1d28:	d9 1f       	adc	r29, r25
    1d2a:	ce 01       	movw	r24, r28
    1d2c:	b7 01       	movw	r22, r14
    1d2e:	0e 94 fe 17 	call	0x2ffc	; 0x2ffc <__udivmodhi4>
    1d32:	8b 01       	movw	r16, r22
    1d34:	db ce       	rjmp	.-586    	; 0x1aec <_ZL8nextNotev+0x74>
    1d36:	0e 94 0f 0d 	call	0x1a1e	; 0x1a1e <_ZL9getNumberv>
    1d3a:	6c 01       	movw	r12, r24
    1d3c:	d7 ce       	rjmp	.-594    	; 0x1aec <_ZL8nextNotev+0x74>
    1d3e:	a0 92 8b 02 	sts	0x028B, r10
    1d42:	b0 92 8a 02 	sts	0x028A, r11
    1d46:	10 93 75 01 	sts	0x0175, r17
    1d4a:	00 93 74 01 	sts	0x0174, r16
    1d4e:	f0 92 71 01 	sts	0x0171, r15
    1d52:	e0 92 70 01 	sts	0x0170, r14
    1d56:	d0 93 73 01 	sts	0x0173, r29
    1d5a:	c0 93 72 01 	sts	0x0172, r28
    1d5e:	90 92 6f 01 	sts	0x016F, r9
    1d62:	d0 92 77 01 	sts	0x0177, r13
    1d66:	c0 92 76 01 	sts	0x0176, r12
    1d6a:	10 92 a9 02 	sts	0x02A9, r1
    1d6e:	10 92 a8 02 	sts	0x02A8, r1
    1d72:	78 c0       	rjmp	.+240    	; 0x1e64 <_ZL8nextNotev+0x3ec>
    1d74:	a0 92 8b 02 	sts	0x028B, r10
    1d78:	b0 92 8a 02 	sts	0x028A, r11
    1d7c:	10 93 75 01 	sts	0x0175, r17
    1d80:	00 93 74 01 	sts	0x0174, r16
    1d84:	f0 92 71 01 	sts	0x0171, r15
    1d88:	e0 92 70 01 	sts	0x0170, r14
    1d8c:	d0 93 73 01 	sts	0x0173, r29
    1d90:	c0 93 72 01 	sts	0x0172, r28
    1d94:	90 92 6f 01 	sts	0x016F, r9
    1d98:	d0 92 77 01 	sts	0x0177, r13
    1d9c:	c0 92 76 01 	sts	0x0176, r12
    1da0:	29 e0       	ldi	r18, 0x09	; 9
    1da2:	ff 24       	eor	r15, r15
    1da4:	8c e0       	ldi	r24, 0x0C	; 12
    1da6:	88 9e       	mul	r8, r24
    1da8:	c0 01       	movw	r24, r0
    1daa:	11 24       	eor	r1, r1
    1dac:	e2 2e       	mov	r14, r18
    1dae:	e8 0e       	add	r14, r24
    1db0:	0a c0       	rjmp	.+20     	; 0x1dc6 <_ZL8nextNotev+0x34e>
    1db2:	80 91 a8 02 	lds	r24, 0x02A8
    1db6:	90 91 a9 02 	lds	r25, 0x02A9
    1dba:	01 96       	adiw	r24, 0x01	; 1
    1dbc:	90 93 a9 02 	sts	0x02A9, r25
    1dc0:	80 93 a8 02 	sts	0x02A8, r24
    1dc4:	e3 94       	inc	r14
    1dc6:	0e 94 f0 0c 	call	0x19e0	; 0x19e0 <_ZL16currentCharacterv>
    1dca:	8b 32       	cpi	r24, 0x2B	; 43
    1dcc:	91 f3       	breq	.-28     	; 0x1db2 <_ZL8nextNotev+0x33a>
    1dce:	83 32       	cpi	r24, 0x23	; 35
    1dd0:	81 f3       	breq	.-32     	; 0x1db2 <_ZL8nextNotev+0x33a>
    1dd2:	0c c0       	rjmp	.+24     	; 0x1dec <_ZL8nextNotev+0x374>
    1dd4:	80 91 a8 02 	lds	r24, 0x02A8
    1dd8:	90 91 a9 02 	lds	r25, 0x02A9
    1ddc:	01 96       	adiw	r24, 0x01	; 1
    1dde:	90 93 a9 02 	sts	0x02A9, r25
    1de2:	80 93 a8 02 	sts	0x02A8, r24
    1de6:	ea 94       	dec	r14
    1de8:	0e 94 f0 0c 	call	0x19e0	; 0x19e0 <_ZL16currentCharacterv>
    1dec:	8d 32       	cpi	r24, 0x2D	; 45
    1dee:	91 f3       	breq	.-28     	; 0x1dd4 <_ZL8nextNotev+0x35c>
    1df0:	c0 91 74 01 	lds	r28, 0x0174
    1df4:	d0 91 75 01 	lds	r29, 0x0175
    1df8:	81 53       	subi	r24, 0x31	; 49
    1dfa:	88 30       	cpi	r24, 0x08	; 8
    1dfc:	58 f4       	brcc	.+22     	; 0x1e14 <_ZL8nextNotev+0x39c>
    1dfe:	00 91 72 01 	lds	r16, 0x0172
    1e02:	10 91 73 01 	lds	r17, 0x0173
    1e06:	0e 94 0f 0d 	call	0x1a1e	; 0x1a1e <_ZL9getNumberv>
    1e0a:	bc 01       	movw	r22, r24
    1e0c:	c8 01       	movw	r24, r16
    1e0e:	0e 94 fe 17 	call	0x2ffc	; 0x2ffc <__udivmodhi4>
    1e12:	eb 01       	movw	r28, r22
    1e14:	8e 01       	movw	r16, r28
    1e16:	0b c0       	rjmp	.+22     	; 0x1e2e <_ZL8nextNotev+0x3b6>
    1e18:	80 91 a8 02 	lds	r24, 0x02A8
    1e1c:	90 91 a9 02 	lds	r25, 0x02A9
    1e20:	01 96       	adiw	r24, 0x01	; 1
    1e22:	90 93 a9 02 	sts	0x02A9, r25
    1e26:	80 93 a8 02 	sts	0x02A8, r24
    1e2a:	c0 0f       	add	r28, r16
    1e2c:	d1 1f       	adc	r29, r17
    1e2e:	16 95       	lsr	r17
    1e30:	07 95       	ror	r16
    1e32:	0e 94 f0 0c 	call	0x19e0	; 0x19e0 <_ZL16currentCharacterv>
    1e36:	8e 32       	cpi	r24, 0x2E	; 46
    1e38:	79 f3       	breq	.-34     	; 0x1e18 <_ZL8nextNotev+0x3a0>
    1e3a:	80 91 8a 02 	lds	r24, 0x028A
    1e3e:	88 23       	and	r24, r24
    1e40:	39 f0       	breq	.+14     	; 0x1e50 <_ZL8nextNotev+0x3d8>
    1e42:	ce 01       	movw	r24, r28
    1e44:	96 95       	lsr	r25
    1e46:	87 95       	ror	r24
    1e48:	80 93 8b 02 	sts	0x028B, r24
    1e4c:	c8 1b       	sub	r28, r24
    1e4e:	d1 09       	sbc	r29, r1
    1e50:	ff 20       	and	r15, r15
    1e52:	11 f0       	breq	.+4      	; 0x1e58 <_ZL8nextNotev+0x3e0>
    1e54:	ee 24       	eor	r14, r14
    1e56:	ea 94       	dec	r14
    1e58:	8e 2d       	mov	r24, r14
    1e5a:	be 01       	movw	r22, r28
    1e5c:	40 91 76 01 	lds	r20, 0x0176
    1e60:	0e 94 4a 0c 	call	0x1894	; 0x1894 <_ZN15OrangutanBuzzer8playNoteEhjh>
    1e64:	cd b7       	in	r28, 0x3d	; 61
    1e66:	de b7       	in	r29, 0x3e	; 62
    1e68:	ec e0       	ldi	r30, 0x0C	; 12
    1e6a:	0c 94 84 18 	jmp	0x3108	; 0x3108 <__epilogue_restores__+0xc>

00001e6e <_ZN15OrangutanBuzzer20playFromProgramSpaceEPKc>:
    1e6e:	10 92 6f 00 	sts	0x006F, r1
    1e72:	90 93 a9 02 	sts	0x02A9, r25
    1e76:	80 93 a8 02 	sts	0x02A8, r24
    1e7a:	81 e0       	ldi	r24, 0x01	; 1
    1e7c:	80 93 8c 02 	sts	0x028C, r24
    1e80:	10 92 8b 02 	sts	0x028B, r1
    1e84:	0e 94 3c 0d 	call	0x1a78	; 0x1a78 <_ZL8nextNotev>
    1e88:	08 95       	ret

00001e8a <play_from_program_space>:
    1e8a:	0e 94 37 0f 	call	0x1e6e	; 0x1e6e <_ZN15OrangutanBuzzer20playFromProgramSpaceEPKc>
    1e8e:	08 95       	ret

00001e90 <_ZN15OrangutanBuzzer4playEPKc>:
    1e90:	10 92 6f 00 	sts	0x006F, r1
    1e94:	90 93 a9 02 	sts	0x02A9, r25
    1e98:	80 93 a8 02 	sts	0x02A8, r24
    1e9c:	10 92 8c 02 	sts	0x028C, r1
    1ea0:	10 92 8b 02 	sts	0x028B, r1
    1ea4:	0e 94 3c 0d 	call	0x1a78	; 0x1a78 <_ZL8nextNotev>
    1ea8:	08 95       	ret

00001eaa <play>:
    1eaa:	0e 94 48 0f 	call	0x1e90	; 0x1e90 <_ZN15OrangutanBuzzer4playEPKc>
    1eae:	08 95       	ret

00001eb0 <__vector_13>:
    1eb0:	1f 92       	push	r1
    1eb2:	0f 92       	push	r0
    1eb4:	0f b6       	in	r0, 0x3f	; 63
    1eb6:	0f 92       	push	r0
    1eb8:	11 24       	eor	r1, r1
    1eba:	2f 93       	push	r18
    1ebc:	3f 93       	push	r19
    1ebe:	4f 93       	push	r20
    1ec0:	5f 93       	push	r21
    1ec2:	6f 93       	push	r22
    1ec4:	7f 93       	push	r23
    1ec6:	8f 93       	push	r24
    1ec8:	9f 93       	push	r25
    1eca:	af 93       	push	r26
    1ecc:	bf 93       	push	r27
    1ece:	ef 93       	push	r30
    1ed0:	ff 93       	push	r31
    1ed2:	80 91 8e 02 	lds	r24, 0x028E
    1ed6:	90 91 8f 02 	lds	r25, 0x028F
    1eda:	01 97       	sbiw	r24, 0x01	; 1
    1edc:	90 93 8f 02 	sts	0x028F, r25
    1ee0:	80 93 8e 02 	sts	0x028E, r24
    1ee4:	01 96       	adiw	r24, 0x01	; 1
    1ee6:	11 f5       	brne	.+68     	; 0x1f2c <__vector_13+0x7c>
    1ee8:	10 92 6f 00 	sts	0x006F, r1
    1eec:	78 94       	sei
    1eee:	80 91 81 00 	lds	r24, 0x0081
    1ef2:	88 7f       	andi	r24, 0xF8	; 248
    1ef4:	81 60       	ori	r24, 0x01	; 1
    1ef6:	80 93 81 00 	sts	0x0081, r24
    1efa:	80 e1       	ldi	r24, 0x10	; 16
    1efc:	97 e2       	ldi	r25, 0x27	; 39
    1efe:	90 93 89 00 	sts	0x0089, r25
    1f02:	80 93 88 00 	sts	0x0088, r24
    1f06:	10 92 8b 00 	sts	0x008B, r1
    1f0a:	10 92 8a 00 	sts	0x008A, r1
    1f0e:	81 e0       	ldi	r24, 0x01	; 1
    1f10:	80 93 7a 01 	sts	0x017A, r24
    1f14:	80 91 a8 02 	lds	r24, 0x02A8
    1f18:	90 91 a9 02 	lds	r25, 0x02A9
    1f1c:	89 2b       	or	r24, r25
    1f1e:	31 f0       	breq	.+12     	; 0x1f2c <__vector_13+0x7c>
    1f20:	80 91 8d 02 	lds	r24, 0x028D
    1f24:	88 23       	and	r24, r24
    1f26:	11 f4       	brne	.+4      	; 0x1f2c <__vector_13+0x7c>
    1f28:	0e 94 3c 0d 	call	0x1a78	; 0x1a78 <_ZL8nextNotev>
    1f2c:	ff 91       	pop	r31
    1f2e:	ef 91       	pop	r30
    1f30:	bf 91       	pop	r27
    1f32:	af 91       	pop	r26
    1f34:	9f 91       	pop	r25
    1f36:	8f 91       	pop	r24
    1f38:	7f 91       	pop	r23
    1f3a:	6f 91       	pop	r22
    1f3c:	5f 91       	pop	r21
    1f3e:	4f 91       	pop	r20
    1f40:	3f 91       	pop	r19
    1f42:	2f 91       	pop	r18
    1f44:	0f 90       	pop	r0
    1f46:	0f be       	out	0x3f, r0	; 63
    1f48:	0f 90       	pop	r0
    1f4a:	1f 90       	pop	r1
    1f4c:	18 95       	reti

00001f4e <_ZN15OrangutanBuzzer9playCheckEv>:
    1f4e:	10 92 6f 00 	sts	0x006F, r1
    1f52:	80 91 7a 01 	lds	r24, 0x017A
    1f56:	88 23       	and	r24, r24
    1f58:	41 f0       	breq	.+16     	; 0x1f6a <_ZN15OrangutanBuzzer9playCheckEv+0x1c>
    1f5a:	80 91 a8 02 	lds	r24, 0x02A8
    1f5e:	90 91 a9 02 	lds	r25, 0x02A9
    1f62:	89 2b       	or	r24, r25
    1f64:	11 f0       	breq	.+4      	; 0x1f6a <_ZN15OrangutanBuzzer9playCheckEv+0x1c>
    1f66:	0e 94 3c 0d 	call	0x1a78	; 0x1a78 <_ZL8nextNotev>
    1f6a:	81 e0       	ldi	r24, 0x01	; 1
    1f6c:	80 93 6f 00 	sts	0x006F, r24
    1f70:	20 e0       	ldi	r18, 0x00	; 0
    1f72:	80 91 a8 02 	lds	r24, 0x02A8
    1f76:	90 91 a9 02 	lds	r25, 0x02A9
    1f7a:	89 2b       	or	r24, r25
    1f7c:	09 f0       	breq	.+2      	; 0x1f80 <_ZN15OrangutanBuzzer9playCheckEv+0x32>
    1f7e:	21 e0       	ldi	r18, 0x01	; 1
    1f80:	82 2f       	mov	r24, r18
    1f82:	08 95       	ret

00001f84 <_ZN15OrangutanBuzzer8playModeEh>:
    1f84:	80 93 8d 02 	sts	0x028D, r24
    1f88:	88 23       	and	r24, r24
    1f8a:	11 f4       	brne	.+4      	; 0x1f90 <_ZN15OrangutanBuzzer8playModeEh+0xc>
    1f8c:	0e 94 a7 0f 	call	0x1f4e	; 0x1f4e <_ZN15OrangutanBuzzer9playCheckEv>
    1f90:	08 95       	ret

00001f92 <play_mode>:
    1f92:	0e 94 c2 0f 	call	0x1f84	; 0x1f84 <_ZN15OrangutanBuzzer8playModeEh>
    1f96:	08 95       	ret

00001f98 <play_check>:
    1f98:	0e 94 a7 0f 	call	0x1f4e	; 0x1f4e <_ZN15OrangutanBuzzer9playCheckEv>
    1f9c:	08 95       	ret

00001f9e <_ZN12OrangutanLCDC2Ev>:
    1f9e:	08 95       	ret

00001fa0 <_ZN12OrangutanLCDC1Ev>:
    1fa0:	08 95       	ret

00001fa2 <void_getchar>:
    1fa2:	80 e0       	ldi	r24, 0x00	; 0
    1fa4:	90 e0       	ldi	r25, 0x00	; 0
    1fa6:	08 95       	ret

00001fa8 <_ZN12OrangutanLCD8busyWaitEv>:
    1fa8:	ef 92       	push	r14
    1faa:	ff 92       	push	r15
    1fac:	0f 93       	push	r16
    1fae:	1f 93       	push	r17
    1fb0:	6a b1       	in	r22, 0x0a	; 10
    1fb2:	57 98       	cbi	0x0a, 7	; 10
    1fb4:	5a 98       	cbi	0x0b, 2	; 11
    1fb6:	28 9a       	sbi	0x05, 0	; 5
    1fb8:	e0 90 94 02 	lds	r14, 0x0294
    1fbc:	f0 90 95 02 	lds	r15, 0x0295
    1fc0:	00 91 96 02 	lds	r16, 0x0296
    1fc4:	10 91 97 02 	lds	r17, 0x0297
    1fc8:	20 e0       	ldi	r18, 0x00	; 0
    1fca:	30 e0       	ldi	r19, 0x00	; 0
    1fcc:	41 e0       	ldi	r20, 0x01	; 1
    1fce:	50 e0       	ldi	r21, 0x00	; 0
    1fd0:	ca 01       	movw	r24, r20
    1fd2:	6f 93       	push	r22
    1fd4:	64 e0       	ldi	r22, 0x04	; 4
    1fd6:	6a 95       	dec	r22
    1fd8:	f1 f7       	brne	.-4      	; 0x1fd6 <_ZN12OrangutanLCD8busyWaitEv+0x2e>
    1fda:	6f 91       	pop	r22
    1fdc:	01 97       	sbiw	r24, 0x01	; 1
    1fde:	c9 f7       	brne	.-14     	; 0x1fd2 <_ZN12OrangutanLCD8busyWaitEv+0x2a>
    1fe0:	5c 9a       	sbi	0x0b, 4	; 11
    1fe2:	ca 01       	movw	r24, r20
    1fe4:	6f 93       	push	r22
    1fe6:	64 e0       	ldi	r22, 0x04	; 4
    1fe8:	6a 95       	dec	r22
    1fea:	f1 f7       	brne	.-4      	; 0x1fe8 <_ZN12OrangutanLCD8busyWaitEv+0x40>
    1fec:	6f 91       	pop	r22
    1fee:	01 97       	sbiw	r24, 0x01	; 1
    1ff0:	c9 f7       	brne	.-14     	; 0x1fe4 <_ZN12OrangutanLCD8busyWaitEv+0x3c>
    1ff2:	89 b1       	in	r24, 0x09	; 9
    1ff4:	5c 98       	cbi	0x0b, 4	; 11
    1ff6:	fa 01       	movw	r30, r20
    1ff8:	6f 93       	push	r22
    1ffa:	64 e0       	ldi	r22, 0x04	; 4
    1ffc:	6a 95       	dec	r22
    1ffe:	f1 f7       	brne	.-4      	; 0x1ffc <_ZN12OrangutanLCD8busyWaitEv+0x54>
    2000:	6f 91       	pop	r22
    2002:	31 97       	sbiw	r30, 0x01	; 1
    2004:	c9 f7       	brne	.-14     	; 0x1ff8 <_ZN12OrangutanLCD8busyWaitEv+0x50>
    2006:	5c 9a       	sbi	0x0b, 4	; 11
    2008:	fa 01       	movw	r30, r20
    200a:	6f 93       	push	r22
    200c:	64 e0       	ldi	r22, 0x04	; 4
    200e:	6a 95       	dec	r22
    2010:	f1 f7       	brne	.-4      	; 0x200e <_ZN12OrangutanLCD8busyWaitEv+0x66>
    2012:	6f 91       	pop	r22
    2014:	31 97       	sbiw	r30, 0x01	; 1
    2016:	c9 f7       	brne	.-14     	; 0x200a <_ZN12OrangutanLCD8busyWaitEv+0x62>
    2018:	5c 98       	cbi	0x0b, 4	; 11
    201a:	87 ff       	sbrs	r24, 7
    201c:	0b c0       	rjmp	.+22     	; 0x2034 <_ZN12OrangutanLCD8busyWaitEv+0x8c>
    201e:	2c 5f       	subi	r18, 0xFC	; 252
    2020:	3f 4f       	sbci	r19, 0xFF	; 255
    2022:	c9 01       	movw	r24, r18
    2024:	a0 e0       	ldi	r26, 0x00	; 0
    2026:	b0 e0       	ldi	r27, 0x00	; 0
    2028:	8e 15       	cp	r24, r14
    202a:	9f 05       	cpc	r25, r15
    202c:	a0 07       	cpc	r26, r16
    202e:	b1 07       	cpc	r27, r17
    2030:	08 f4       	brcc	.+2      	; 0x2034 <_ZN12OrangutanLCD8busyWaitEv+0x8c>
    2032:	ce cf       	rjmp	.-100    	; 0x1fd0 <_ZN12OrangutanLCD8busyWaitEv+0x28>
    2034:	6a b9       	out	0x0a, r22	; 10
    2036:	1f 91       	pop	r17
    2038:	0f 91       	pop	r16
    203a:	ff 90       	pop	r15
    203c:	ef 90       	pop	r14
    203e:	08 95       	ret

00002040 <_ZN12OrangutanLCD8sendDataEh>:
    2040:	65 b1       	in	r22, 0x05	; 5
    2042:	90 e0       	ldi	r25, 0x00	; 0
    2044:	ac 01       	movw	r20, r24
    2046:	41 70       	andi	r20, 0x01	; 1
    2048:	50 70       	andi	r21, 0x00	; 0
    204a:	44 0f       	add	r20, r20
    204c:	55 1f       	adc	r21, r21
    204e:	9c 01       	movw	r18, r24
    2050:	26 70       	andi	r18, 0x06	; 6
    2052:	30 70       	andi	r19, 0x00	; 0
    2054:	53 e0       	ldi	r21, 0x03	; 3
    2056:	22 0f       	add	r18, r18
    2058:	33 1f       	adc	r19, r19
    205a:	5a 95       	dec	r21
    205c:	e1 f7       	brne	.-8      	; 0x2056 <_ZN12OrangutanLCD8sendDataEh+0x16>
    205e:	42 2b       	or	r20, r18
    2060:	6d 7c       	andi	r22, 0xCD	; 205
    2062:	46 2b       	or	r20, r22
    2064:	45 b9       	out	0x05, r20	; 5
    2066:	2b b1       	in	r18, 0x0b	; 11
    2068:	88 70       	andi	r24, 0x08	; 8
    206a:	90 70       	andi	r25, 0x00	; 0
    206c:	34 e0       	ldi	r19, 0x04	; 4
    206e:	88 0f       	add	r24, r24
    2070:	99 1f       	adc	r25, r25
    2072:	3a 95       	dec	r19
    2074:	e1 f7       	brne	.-8      	; 0x206e <_ZN12OrangutanLCD8sendDataEh+0x2e>
    2076:	2f 77       	andi	r18, 0x7F	; 127
    2078:	28 2b       	or	r18, r24
    207a:	2b b9       	out	0x0b, r18	; 11
    207c:	5c 9a       	sbi	0x0b, 4	; 11
    207e:	81 e0       	ldi	r24, 0x01	; 1
    2080:	90 e0       	ldi	r25, 0x00	; 0
    2082:	fc 01       	movw	r30, r24
    2084:	6f 93       	push	r22
    2086:	64 e0       	ldi	r22, 0x04	; 4
    2088:	6a 95       	dec	r22
    208a:	f1 f7       	brne	.-4      	; 0x2088 <_ZN12OrangutanLCD8sendDataEh+0x48>
    208c:	6f 91       	pop	r22
    208e:	31 97       	sbiw	r30, 0x01	; 1
    2090:	c9 f7       	brne	.-14     	; 0x2084 <_ZN12OrangutanLCD8sendDataEh+0x44>
    2092:	5c 98       	cbi	0x0b, 4	; 11
    2094:	6f 93       	push	r22
    2096:	64 e0       	ldi	r22, 0x04	; 4
    2098:	6a 95       	dec	r22
    209a:	f1 f7       	brne	.-4      	; 0x2098 <_ZN12OrangutanLCD8sendDataEh+0x58>
    209c:	6f 91       	pop	r22
    209e:	01 97       	sbiw	r24, 0x01	; 1
    20a0:	c9 f7       	brne	.-14     	; 0x2094 <_ZN12OrangutanLCD8sendDataEh+0x54>
    20a2:	08 95       	ret

000020a4 <_ZN12OrangutanLCD10initPrintfEv>:
    20a4:	80 91 90 02 	lds	r24, 0x0290
    20a8:	90 91 91 02 	lds	r25, 0x0291
    20ac:	00 97       	sbiw	r24, 0x00	; 0
    20ae:	11 f0       	breq	.+4      	; 0x20b4 <_ZN12OrangutanLCD10initPrintfEv+0x10>
    20b0:	0e 94 4c 19 	call	0x3298	; 0x3298 <free>
    20b4:	80 91 78 01 	lds	r24, 0x0178
    20b8:	90 e0       	ldi	r25, 0x00	; 0
    20ba:	01 97       	sbiw	r24, 0x01	; 1
    20bc:	20 91 79 01 	lds	r18, 0x0179
    20c0:	30 e0       	ldi	r19, 0x00	; 0
    20c2:	ac 01       	movw	r20, r24
    20c4:	42 9f       	mul	r20, r18
    20c6:	c0 01       	movw	r24, r0
    20c8:	43 9f       	mul	r20, r19
    20ca:	90 0d       	add	r25, r0
    20cc:	52 9f       	mul	r21, r18
    20ce:	90 0d       	add	r25, r0
    20d0:	11 24       	eor	r1, r1
    20d2:	0e 94 9f 18 	call	0x313e	; 0x313e <malloc>
    20d6:	90 93 91 02 	sts	0x0291, r25
    20da:	80 93 90 02 	sts	0x0290, r24
    20de:	00 97       	sbiw	r24, 0x00	; 0
    20e0:	29 f1       	breq	.+74     	; 0x212c <_ZN12OrangutanLCD10initPrintfEv+0x88>
    20e2:	60 e0       	ldi	r22, 0x00	; 0
    20e4:	70 e2       	ldi	r23, 0x20	; 32
    20e6:	08 c0       	rjmp	.+16     	; 0x20f8 <_ZN12OrangutanLCD10initPrintfEv+0x54>
    20e8:	e0 91 90 02 	lds	r30, 0x0290
    20ec:	f0 91 91 02 	lds	r31, 0x0291
    20f0:	e4 0f       	add	r30, r20
    20f2:	f5 1f       	adc	r31, r21
    20f4:	70 83       	st	Z, r23
    20f6:	6f 5f       	subi	r22, 0xFF	; 255
    20f8:	46 2f       	mov	r20, r22
    20fa:	50 e0       	ldi	r21, 0x00	; 0
    20fc:	80 91 78 01 	lds	r24, 0x0178
    2100:	90 e0       	ldi	r25, 0x00	; 0
    2102:	01 97       	sbiw	r24, 0x01	; 1
    2104:	20 91 79 01 	lds	r18, 0x0179
    2108:	30 e0       	ldi	r19, 0x00	; 0
    210a:	fc 01       	movw	r30, r24
    210c:	e2 9f       	mul	r30, r18
    210e:	c0 01       	movw	r24, r0
    2110:	e3 9f       	mul	r30, r19
    2112:	90 0d       	add	r25, r0
    2114:	f2 9f       	mul	r31, r18
    2116:	90 0d       	add	r25, r0
    2118:	11 24       	eor	r1, r1
    211a:	48 17       	cp	r20, r24
    211c:	59 07       	cpc	r21, r25
    211e:	24 f3       	brlt	.-56     	; 0x20e8 <_ZN12OrangutanLCD10initPrintfEv+0x44>
    2120:	85 e9       	ldi	r24, 0x95	; 149
    2122:	92 e1       	ldi	r25, 0x12	; 18
    2124:	61 ed       	ldi	r22, 0xD1	; 209
    2126:	7f e0       	ldi	r23, 0x0F	; 15
    2128:	0e 94 a4 19 	call	0x3348	; 0x3348 <fdevopen>
    212c:	08 95       	ret

0000212e <_ZN12OrangutanLCD10initPrintfEhh>:
    212e:	80 93 79 01 	sts	0x0179, r24
    2132:	60 93 78 01 	sts	0x0178, r22
    2136:	0e 94 52 10 	call	0x20a4	; 0x20a4 <_ZN12OrangutanLCD10initPrintfEv>
    213a:	08 95       	ret

0000213c <lcd_init_printf_with_dimensions>:
    213c:	80 93 79 01 	sts	0x0179, r24
    2140:	60 93 78 01 	sts	0x0178, r22
    2144:	0e 94 52 10 	call	0x20a4	; 0x20a4 <_ZN12OrangutanLCD10initPrintfEv>
    2148:	08 95       	ret

0000214a <lcd_init_printf>:
    214a:	0e 94 52 10 	call	0x20a4	; 0x20a4 <_ZN12OrangutanLCD10initPrintfEv>
    214e:	08 95       	ret

00002150 <_ZN12OrangutanLCD5init2Ev>:
    2150:	80 e1       	ldi	r24, 0x10	; 16
    2152:	97 e2       	ldi	r25, 0x27	; 39
    2154:	a0 e0       	ldi	r26, 0x00	; 0
    2156:	b0 e0       	ldi	r27, 0x00	; 0
    2158:	80 93 94 02 	sts	0x0294, r24
    215c:	90 93 95 02 	sts	0x0295, r25
    2160:	a0 93 96 02 	sts	0x0296, r26
    2164:	b0 93 97 02 	sts	0x0297, r27
    2168:	52 9a       	sbi	0x0a, 2	; 10
    216a:	20 9a       	sbi	0x04, 0	; 4
    216c:	54 9a       	sbi	0x0a, 4	; 10
    216e:	8e e1       	ldi	r24, 0x1E	; 30
    2170:	90 e0       	ldi	r25, 0x00	; 0
    2172:	0e 94 38 17 	call	0x2e70	; 0x2e70 <_ZN13OrangutanTime17delayMillisecondsEj>
    2176:	83 e0       	ldi	r24, 0x03	; 3
    2178:	0e 94 db 13 	call	0x27b6	; 0x27b6 <_ZN12OrangutanLCD13send_4bit_cmdEh>
    217c:	86 e0       	ldi	r24, 0x06	; 6
    217e:	90 e0       	ldi	r25, 0x00	; 0
    2180:	0e 94 38 17 	call	0x2e70	; 0x2e70 <_ZN13OrangutanTime17delayMillisecondsEj>
    2184:	83 e0       	ldi	r24, 0x03	; 3
    2186:	0e 94 db 13 	call	0x27b6	; 0x27b6 <_ZN12OrangutanLCD13send_4bit_cmdEh>
    218a:	82 e0       	ldi	r24, 0x02	; 2
    218c:	90 e0       	ldi	r25, 0x00	; 0
    218e:	0e 94 38 17 	call	0x2e70	; 0x2e70 <_ZN13OrangutanTime17delayMillisecondsEj>
    2192:	83 e0       	ldi	r24, 0x03	; 3
    2194:	0e 94 db 13 	call	0x27b6	; 0x27b6 <_ZN12OrangutanLCD13send_4bit_cmdEh>
    2198:	82 e0       	ldi	r24, 0x02	; 2
    219a:	90 e0       	ldi	r25, 0x00	; 0
    219c:	0e 94 38 17 	call	0x2e70	; 0x2e70 <_ZN13OrangutanTime17delayMillisecondsEj>
    21a0:	82 e0       	ldi	r24, 0x02	; 2
    21a2:	0e 94 db 13 	call	0x27b6	; 0x27b6 <_ZN12OrangutanLCD13send_4bit_cmdEh>
    21a6:	82 e0       	ldi	r24, 0x02	; 2
    21a8:	90 e0       	ldi	r25, 0x00	; 0
    21aa:	0e 94 38 17 	call	0x2e70	; 0x2e70 <_ZN13OrangutanTime17delayMillisecondsEj>
    21ae:	88 e2       	ldi	r24, 0x28	; 40
    21b0:	0e 94 25 11 	call	0x224a	; 0x224a <_ZN12OrangutanLCD8send_cmdEh>
    21b4:	88 e0       	ldi	r24, 0x08	; 8
    21b6:	0e 94 25 11 	call	0x224a	; 0x224a <_ZN12OrangutanLCD8send_cmdEh>
    21ba:	81 e0       	ldi	r24, 0x01	; 1
    21bc:	0e 94 25 11 	call	0x224a	; 0x224a <_ZN12OrangutanLCD8send_cmdEh>
    21c0:	86 e0       	ldi	r24, 0x06	; 6
    21c2:	0e 94 25 11 	call	0x224a	; 0x224a <_ZN12OrangutanLCD8send_cmdEh>
    21c6:	8c e0       	ldi	r24, 0x0C	; 12
    21c8:	0e 94 25 11 	call	0x224a	; 0x224a <_ZN12OrangutanLCD8send_cmdEh>
    21cc:	08 95       	ret

000021ce <_ZN12OrangutanLCD4initEv>:
    21ce:	80 91 98 02 	lds	r24, 0x0298
    21d2:	88 23       	and	r24, r24
    21d4:	29 f4       	brne	.+10     	; 0x21e0 <_ZN12OrangutanLCD4initEv+0x12>
    21d6:	81 e0       	ldi	r24, 0x01	; 1
    21d8:	80 93 98 02 	sts	0x0298, r24
    21dc:	0e 94 a8 10 	call	0x2150	; 0x2150 <_ZN12OrangutanLCD5init2Ev>
    21e0:	08 95       	ret

000021e2 <_ZN12OrangutanLCD4sendEhhh>:
    21e2:	bf 92       	push	r11
    21e4:	cf 92       	push	r12
    21e6:	df 92       	push	r13
    21e8:	ef 92       	push	r14
    21ea:	ff 92       	push	r15
    21ec:	0f 93       	push	r16
    21ee:	1f 93       	push	r17
    21f0:	08 2f       	mov	r16, r24
    21f2:	16 2f       	mov	r17, r22
    21f4:	f4 2e       	mov	r15, r20
    21f6:	0e 94 e7 10 	call	0x21ce	; 0x21ce <_ZN12OrangutanLCD4initEv>
    21fa:	0e 94 d4 0f 	call	0x1fa8	; 0x1fa8 <_ZN12OrangutanLCD8busyWaitEv>
    21fe:	b4 b0       	in	r11, 0x04	; 4
    2200:	c5 b0       	in	r12, 0x05	; 5
    2202:	da b0       	in	r13, 0x0a	; 10
    2204:	eb b0       	in	r14, 0x0b	; 11
    2206:	28 98       	cbi	0x05, 0	; 5
    2208:	11 23       	and	r17, r17
    220a:	11 f0       	breq	.+4      	; 0x2210 <_ZN12OrangutanLCD4sendEhhh+0x2e>
    220c:	5a 9a       	sbi	0x0b, 2	; 11
    220e:	01 c0       	rjmp	.+2      	; 0x2212 <_ZN12OrangutanLCD4sendEhhh+0x30>
    2210:	5a 98       	cbi	0x0b, 2	; 11
    2212:	84 b1       	in	r24, 0x04	; 4
    2214:	82 63       	ori	r24, 0x32	; 50
    2216:	84 b9       	out	0x04, r24	; 4
    2218:	57 9a       	sbi	0x0a, 7	; 10
    221a:	81 e0       	ldi	r24, 0x01	; 1
    221c:	f8 16       	cp	r15, r24
    221e:	29 f0       	breq	.+10     	; 0x222a <_ZN12OrangutanLCD4sendEhhh+0x48>
    2220:	80 2f       	mov	r24, r16
    2222:	82 95       	swap	r24
    2224:	8f 70       	andi	r24, 0x0F	; 15
    2226:	0e 94 20 10 	call	0x2040	; 0x2040 <_ZN12OrangutanLCD8sendDataEh>
    222a:	80 2f       	mov	r24, r16
    222c:	8f 70       	andi	r24, 0x0F	; 15
    222e:	0e 94 20 10 	call	0x2040	; 0x2040 <_ZN12OrangutanLCD8sendDataEh>
    2232:	da b8       	out	0x0a, r13	; 10
    2234:	eb b8       	out	0x0b, r14	; 11
    2236:	b4 b8       	out	0x04, r11	; 4
    2238:	c5 b8       	out	0x05, r12	; 5
    223a:	1f 91       	pop	r17
    223c:	0f 91       	pop	r16
    223e:	ff 90       	pop	r15
    2240:	ef 90       	pop	r14
    2242:	df 90       	pop	r13
    2244:	cf 90       	pop	r12
    2246:	bf 90       	pop	r11
    2248:	08 95       	ret

0000224a <_ZN12OrangutanLCD8send_cmdEh>:
    224a:	60 e0       	ldi	r22, 0x00	; 0
    224c:	42 e0       	ldi	r20, 0x02	; 2
    224e:	0e 94 f1 10 	call	0x21e2	; 0x21e2 <_ZN12OrangutanLCD4sendEhhh>
    2252:	08 95       	ret

00002254 <_ZN12OrangutanLCD10moveCursorEhh>:
    2254:	0f 93       	push	r16
    2256:	1f 93       	push	r17
    2258:	08 2f       	mov	r16, r24
    225a:	16 2f       	mov	r17, r22
    225c:	08 c0       	rjmp	.+16     	; 0x226e <_ZN12OrangutanLCD10moveCursorEhh+0x1a>
    225e:	00 23       	and	r16, r16
    2260:	11 f4       	brne	.+4      	; 0x2266 <_ZN12OrangutanLCD10moveCursorEhh+0x12>
    2262:	80 e1       	ldi	r24, 0x10	; 16
    2264:	01 c0       	rjmp	.+2      	; 0x2268 <_ZN12OrangutanLCD10moveCursorEhh+0x14>
    2266:	84 e1       	ldi	r24, 0x14	; 20
    2268:	0e 94 25 11 	call	0x224a	; 0x224a <_ZN12OrangutanLCD8send_cmdEh>
    226c:	11 50       	subi	r17, 0x01	; 1
    226e:	11 23       	and	r17, r17
    2270:	b1 f7       	brne	.-20     	; 0x225e <_ZN12OrangutanLCD10moveCursorEhh+0xa>
    2272:	1f 91       	pop	r17
    2274:	0f 91       	pop	r16
    2276:	08 95       	ret

00002278 <lcd_move_cursor>:
    2278:	0e 94 2a 11 	call	0x2254	; 0x2254 <_ZN12OrangutanLCD10moveCursorEhh>
    227c:	08 95       	ret

0000227e <_ZN12OrangutanLCD10hideCursorEv>:
    227e:	8c e0       	ldi	r24, 0x0C	; 12
    2280:	0e 94 25 11 	call	0x224a	; 0x224a <_ZN12OrangutanLCD8send_cmdEh>
    2284:	08 95       	ret

00002286 <lcd_hide_cursor>:
    2286:	0e 94 3f 11 	call	0x227e	; 0x227e <_ZN12OrangutanLCD10hideCursorEv>
    228a:	08 95       	ret

0000228c <_ZN12OrangutanLCD10showCursorEh>:
    228c:	81 30       	cpi	r24, 0x01	; 1
    228e:	11 f4       	brne	.+4      	; 0x2294 <_ZN12OrangutanLCD10showCursorEh+0x8>
    2290:	8f e0       	ldi	r24, 0x0F	; 15
    2292:	01 c0       	rjmp	.+2      	; 0x2296 <_ZN12OrangutanLCD10showCursorEh+0xa>
    2294:	8e e0       	ldi	r24, 0x0E	; 14
    2296:	0e 94 25 11 	call	0x224a	; 0x224a <_ZN12OrangutanLCD8send_cmdEh>
    229a:	08 95       	ret

0000229c <lcd_show_cursor>:
    229c:	0e 94 46 11 	call	0x228c	; 0x228c <_ZN12OrangutanLCD10showCursorEh>
    22a0:	08 95       	ret

000022a2 <_ZN12OrangutanLCD6gotoXYEhh>:
    22a2:	a4 e0       	ldi	r26, 0x04	; 4
    22a4:	b0 e0       	ldi	r27, 0x00	; 0
    22a6:	e7 e5       	ldi	r30, 0x57	; 87
    22a8:	f1 e1       	ldi	r31, 0x11	; 17
    22aa:	0c 94 70 18 	jmp	0x30e0	; 0x30e0 <__prologue_saves__+0x1c>
    22ae:	18 2f       	mov	r17, r24
    22b0:	06 2f       	mov	r16, r22
    22b2:	80 e8       	ldi	r24, 0x80	; 128
    22b4:	89 83       	std	Y+1, r24	; 0x01
    22b6:	80 ec       	ldi	r24, 0xC0	; 192
    22b8:	8a 83       	std	Y+2, r24	; 0x02
    22ba:	84 e9       	ldi	r24, 0x94	; 148
    22bc:	8b 83       	std	Y+3, r24	; 0x03
    22be:	84 ed       	ldi	r24, 0xD4	; 212
    22c0:	8c 83       	std	Y+4, r24	; 0x04
    22c2:	fe 01       	movw	r30, r28
    22c4:	e6 0f       	add	r30, r22
    22c6:	f1 1d       	adc	r31, r1
    22c8:	81 81       	ldd	r24, Z+1	; 0x01
    22ca:	81 0f       	add	r24, r17
    22cc:	0e 94 25 11 	call	0x224a	; 0x224a <_ZN12OrangutanLCD8send_cmdEh>
    22d0:	10 93 93 02 	sts	0x0293, r17
    22d4:	00 93 92 02 	sts	0x0292, r16
    22d8:	24 96       	adiw	r28, 0x04	; 4
    22da:	e4 e0       	ldi	r30, 0x04	; 4
    22dc:	0c 94 8c 18 	jmp	0x3118	; 0x3118 <__epilogue_restores__+0x1c>

000022e0 <lcd_goto_xy>:
    22e0:	0e 94 51 11 	call	0x22a2	; 0x22a2 <_ZN12OrangutanLCD6gotoXYEhh>
    22e4:	08 95       	ret

000022e6 <_ZN12OrangutanLCD5clearEv>:
    22e6:	81 e0       	ldi	r24, 0x01	; 1
    22e8:	0e 94 25 11 	call	0x224a	; 0x224a <_ZN12OrangutanLCD8send_cmdEh>
    22ec:	80 91 90 02 	lds	r24, 0x0290
    22f0:	90 91 91 02 	lds	r25, 0x0291
    22f4:	89 2b       	or	r24, r25
    22f6:	19 f1       	breq	.+70     	; 0x233e <_ZN12OrangutanLCD5clearEv+0x58>
    22f8:	60 e0       	ldi	r22, 0x00	; 0
    22fa:	70 e2       	ldi	r23, 0x20	; 32
    22fc:	08 c0       	rjmp	.+16     	; 0x230e <_ZN12OrangutanLCD5clearEv+0x28>
    22fe:	e0 91 90 02 	lds	r30, 0x0290
    2302:	f0 91 91 02 	lds	r31, 0x0291
    2306:	e4 0f       	add	r30, r20
    2308:	f5 1f       	adc	r31, r21
    230a:	70 83       	st	Z, r23
    230c:	6f 5f       	subi	r22, 0xFF	; 255
    230e:	46 2f       	mov	r20, r22
    2310:	50 e0       	ldi	r21, 0x00	; 0
    2312:	80 91 78 01 	lds	r24, 0x0178
    2316:	90 e0       	ldi	r25, 0x00	; 0
    2318:	01 97       	sbiw	r24, 0x01	; 1
    231a:	20 91 79 01 	lds	r18, 0x0179
    231e:	30 e0       	ldi	r19, 0x00	; 0
    2320:	fc 01       	movw	r30, r24
    2322:	e2 9f       	mul	r30, r18
    2324:	c0 01       	movw	r24, r0
    2326:	e3 9f       	mul	r30, r19
    2328:	90 0d       	add	r25, r0
    232a:	f2 9f       	mul	r31, r18
    232c:	90 0d       	add	r25, r0
    232e:	11 24       	eor	r1, r1
    2330:	48 17       	cp	r20, r24
    2332:	59 07       	cpc	r21, r25
    2334:	24 f3       	brlt	.-56     	; 0x22fe <_ZN12OrangutanLCD5clearEv+0x18>
    2336:	10 92 93 02 	sts	0x0293, r1
    233a:	10 92 92 02 	sts	0x0292, r1
    233e:	08 95       	ret

00002340 <clear>:
    2340:	0e 94 73 11 	call	0x22e6	; 0x22e6 <_ZN12OrangutanLCD5clearEv>
    2344:	08 95       	ret

00002346 <_ZN12OrangutanLCD9send_dataEh>:
    2346:	61 e0       	ldi	r22, 0x01	; 1
    2348:	42 e0       	ldi	r20, 0x02	; 2
    234a:	0e 94 f1 10 	call	0x21e2	; 0x21e2 <_ZN12OrangutanLCD4sendEhhh>
    234e:	08 95       	ret

00002350 <_ZN12OrangutanLCD11printBinaryEh>:
    2350:	0f 93       	push	r16
    2352:	1f 93       	push	r17
    2354:	cf 93       	push	r28
    2356:	df 93       	push	r29
    2358:	00 e0       	ldi	r16, 0x00	; 0
    235a:	10 e8       	ldi	r17, 0x80	; 128
    235c:	c8 2f       	mov	r28, r24
    235e:	d0 e0       	ldi	r29, 0x00	; 0
    2360:	81 2f       	mov	r24, r17
    2362:	90 e0       	ldi	r25, 0x00	; 0
    2364:	8c 23       	and	r24, r28
    2366:	9d 23       	and	r25, r29
    2368:	89 2b       	or	r24, r25
    236a:	11 f0       	breq	.+4      	; 0x2370 <_ZN12OrangutanLCD11printBinaryEh+0x20>
    236c:	81 e3       	ldi	r24, 0x31	; 49
    236e:	01 c0       	rjmp	.+2      	; 0x2372 <_ZN12OrangutanLCD11printBinaryEh+0x22>
    2370:	80 e3       	ldi	r24, 0x30	; 48
    2372:	0e 94 a3 11 	call	0x2346	; 0x2346 <_ZN12OrangutanLCD9send_dataEh>
    2376:	0f 5f       	subi	r16, 0xFF	; 255
    2378:	08 30       	cpi	r16, 0x08	; 8
    237a:	11 f0       	breq	.+4      	; 0x2380 <_ZN12OrangutanLCD11printBinaryEh+0x30>
    237c:	16 95       	lsr	r17
    237e:	f0 cf       	rjmp	.-32     	; 0x2360 <_ZN12OrangutanLCD11printBinaryEh+0x10>
    2380:	df 91       	pop	r29
    2382:	cf 91       	pop	r28
    2384:	1f 91       	pop	r17
    2386:	0f 91       	pop	r16
    2388:	08 95       	ret

0000238a <print_binary>:
    238a:	0e 94 a8 11 	call	0x2350	; 0x2350 <_ZN12OrangutanLCD11printBinaryEh>
    238e:	08 95       	ret

00002390 <_ZN12OrangutanLCD14printHexNibbleEh>:
    2390:	8a 30       	cpi	r24, 0x0A	; 10
    2392:	10 f4       	brcc	.+4      	; 0x2398 <_ZN12OrangutanLCD14printHexNibbleEh+0x8>
    2394:	80 5d       	subi	r24, 0xD0	; 208
    2396:	01 c0       	rjmp	.+2      	; 0x239a <_ZN12OrangutanLCD14printHexNibbleEh+0xa>
    2398:	89 5c       	subi	r24, 0xC9	; 201
    239a:	0e 94 a3 11 	call	0x2346	; 0x2346 <_ZN12OrangutanLCD9send_dataEh>
    239e:	08 95       	ret

000023a0 <_ZN12OrangutanLCD8printHexEh>:
    23a0:	1f 93       	push	r17
    23a2:	18 2f       	mov	r17, r24
    23a4:	82 95       	swap	r24
    23a6:	8f 70       	andi	r24, 0x0F	; 15
    23a8:	0e 94 c8 11 	call	0x2390	; 0x2390 <_ZN12OrangutanLCD14printHexNibbleEh>
    23ac:	81 2f       	mov	r24, r17
    23ae:	8f 70       	andi	r24, 0x0F	; 15
    23b0:	0e 94 c8 11 	call	0x2390	; 0x2390 <_ZN12OrangutanLCD14printHexNibbleEh>
    23b4:	1f 91       	pop	r17
    23b6:	08 95       	ret

000023b8 <_ZN12OrangutanLCD8printHexEj>:
    23b8:	1f 93       	push	r17
    23ba:	18 2f       	mov	r17, r24
    23bc:	89 2f       	mov	r24, r25
    23be:	0e 94 d0 11 	call	0x23a0	; 0x23a0 <_ZN12OrangutanLCD8printHexEh>
    23c2:	81 2f       	mov	r24, r17
    23c4:	0e 94 d0 11 	call	0x23a0	; 0x23a0 <_ZN12OrangutanLCD8printHexEh>
    23c8:	1f 91       	pop	r17
    23ca:	08 95       	ret

000023cc <print_hex>:
    23cc:	0e 94 dc 11 	call	0x23b8	; 0x23b8 <_ZN12OrangutanLCD8printHexEj>
    23d0:	08 95       	ret

000023d2 <print_hex_byte>:
    23d2:	0e 94 d0 11 	call	0x23a0	; 0x23a0 <_ZN12OrangutanLCD8printHexEh>
    23d6:	08 95       	ret

000023d8 <_ZN12OrangutanLCD5printEm>:
    23d8:	6f 92       	push	r6
    23da:	7f 92       	push	r7
    23dc:	8f 92       	push	r8
    23de:	9f 92       	push	r9
    23e0:	af 92       	push	r10
    23e2:	bf 92       	push	r11
    23e4:	cf 92       	push	r12
    23e6:	df 92       	push	r13
    23e8:	ff 92       	push	r15
    23ea:	0f 93       	push	r16
    23ec:	df 93       	push	r29
    23ee:	cf 93       	push	r28
    23f0:	cd b7       	in	r28, 0x3d	; 61
    23f2:	de b7       	in	r29, 0x3e	; 62
    23f4:	2a 97       	sbiw	r28, 0x0a	; 10
    23f6:	0f b6       	in	r0, 0x3f	; 63
    23f8:	f8 94       	cli
    23fa:	de bf       	out	0x3e, r29	; 62
    23fc:	0f be       	out	0x3f, r0	; 63
    23fe:	cd bf       	out	0x3d, r28	; 61
    2400:	5b 01       	movw	r10, r22
    2402:	6c 01       	movw	r12, r24
    2404:	0a e0       	ldi	r16, 0x0A	; 10
    2406:	3e 01       	movw	r6, r28
    2408:	08 94       	sec
    240a:	61 1c       	adc	r6, r1
    240c:	71 1c       	adc	r7, r1
    240e:	fa 2c       	mov	r15, r10
    2410:	c6 01       	movw	r24, r12
    2412:	b5 01       	movw	r22, r10
    2414:	2a e0       	ldi	r18, 0x0A	; 10
    2416:	30 e0       	ldi	r19, 0x00	; 0
    2418:	40 e0       	ldi	r20, 0x00	; 0
    241a:	50 e0       	ldi	r21, 0x00	; 0
    241c:	0e 94 25 18 	call	0x304a	; 0x304a <__udivmodsi4>
    2420:	c9 01       	movw	r24, r18
    2422:	da 01       	movw	r26, r20
    2424:	5c 01       	movw	r10, r24
    2426:	6d 01       	movw	r12, r26
    2428:	01 50       	subi	r16, 0x01	; 1
    242a:	43 01       	movw	r8, r6
    242c:	80 0e       	add	r8, r16
    242e:	91 1c       	adc	r9, r1
    2430:	80 e3       	ldi	r24, 0x30	; 48
    2432:	f8 0e       	add	r15, r24
    2434:	c6 01       	movw	r24, r12
    2436:	b5 01       	movw	r22, r10
    2438:	2a e0       	ldi	r18, 0x0A	; 10
    243a:	30 e0       	ldi	r19, 0x00	; 0
    243c:	40 e0       	ldi	r20, 0x00	; 0
    243e:	50 e0       	ldi	r21, 0x00	; 0
    2440:	0e 94 d3 17 	call	0x2fa6	; 0x2fa6 <__mulsi3>
    2444:	f6 1a       	sub	r15, r22
    2446:	f4 01       	movw	r30, r8
    2448:	f0 82       	st	Z, r15
    244a:	a1 14       	cp	r10, r1
    244c:	b1 04       	cpc	r11, r1
    244e:	c1 04       	cpc	r12, r1
    2450:	d1 04       	cpc	r13, r1
    2452:	e9 f6       	brne	.-70     	; 0x240e <_ZN12OrangutanLCD5printEm+0x36>
    2454:	08 c0       	rjmp	.+16     	; 0x2466 <_ZN12OrangutanLCD5printEm+0x8e>
    2456:	f6 01       	movw	r30, r12
    2458:	e0 0f       	add	r30, r16
    245a:	f1 1d       	adc	r31, r1
    245c:	80 81       	ld	r24, Z
    245e:	0e 94 a3 11 	call	0x2346	; 0x2346 <_ZN12OrangutanLCD9send_dataEh>
    2462:	0f 5f       	subi	r16, 0xFF	; 255
    2464:	04 c0       	rjmp	.+8      	; 0x246e <_ZN12OrangutanLCD5printEm+0x96>
    2466:	6e 01       	movw	r12, r28
    2468:	08 94       	sec
    246a:	c1 1c       	adc	r12, r1
    246c:	d1 1c       	adc	r13, r1
    246e:	0a 30       	cpi	r16, 0x0A	; 10
    2470:	90 f3       	brcs	.-28     	; 0x2456 <_ZN12OrangutanLCD5printEm+0x7e>
    2472:	2a 96       	adiw	r28, 0x0a	; 10
    2474:	0f b6       	in	r0, 0x3f	; 63
    2476:	f8 94       	cli
    2478:	de bf       	out	0x3e, r29	; 62
    247a:	0f be       	out	0x3f, r0	; 63
    247c:	cd bf       	out	0x3d, r28	; 61
    247e:	cf 91       	pop	r28
    2480:	df 91       	pop	r29
    2482:	0f 91       	pop	r16
    2484:	ff 90       	pop	r15
    2486:	df 90       	pop	r13
    2488:	cf 90       	pop	r12
    248a:	bf 90       	pop	r11
    248c:	af 90       	pop	r10
    248e:	9f 90       	pop	r9
    2490:	8f 90       	pop	r8
    2492:	7f 90       	pop	r7
    2494:	6f 90       	pop	r6
    2496:	08 95       	ret

00002498 <print_unsigned_long>:
    2498:	0e 94 ec 11 	call	0x23d8	; 0x23d8 <_ZN12OrangutanLCD5printEm>
    249c:	08 95       	ret

0000249e <_ZN12OrangutanLCD5printEl>:
    249e:	ef 92       	push	r14
    24a0:	ff 92       	push	r15
    24a2:	0f 93       	push	r16
    24a4:	1f 93       	push	r17
    24a6:	7b 01       	movw	r14, r22
    24a8:	8c 01       	movw	r16, r24
    24aa:	97 ff       	sbrs	r25, 7
    24ac:	0b c0       	rjmp	.+22     	; 0x24c4 <_ZN12OrangutanLCD5printEl+0x26>
    24ae:	10 95       	com	r17
    24b0:	00 95       	com	r16
    24b2:	f0 94       	com	r15
    24b4:	e0 94       	com	r14
    24b6:	e1 1c       	adc	r14, r1
    24b8:	f1 1c       	adc	r15, r1
    24ba:	01 1d       	adc	r16, r1
    24bc:	11 1d       	adc	r17, r1
    24be:	8d e2       	ldi	r24, 0x2D	; 45
    24c0:	0e 94 a3 11 	call	0x2346	; 0x2346 <_ZN12OrangutanLCD9send_dataEh>
    24c4:	c8 01       	movw	r24, r16
    24c6:	b7 01       	movw	r22, r14
    24c8:	0e 94 ec 11 	call	0x23d8	; 0x23d8 <_ZN12OrangutanLCD5printEm>
    24cc:	1f 91       	pop	r17
    24ce:	0f 91       	pop	r16
    24d0:	ff 90       	pop	r15
    24d2:	ef 90       	pop	r14
    24d4:	08 95       	ret

000024d6 <print_long>:
    24d6:	0e 94 4f 12 	call	0x249e	; 0x249e <_ZN12OrangutanLCD5printEl>
    24da:	08 95       	ret

000024dc <_ZN12OrangutanLCD21printFromProgramSpaceEPKc>:
    24dc:	cf 93       	push	r28
    24de:	df 93       	push	r29
    24e0:	ec 01       	movw	r28, r24
    24e2:	03 c0       	rjmp	.+6      	; 0x24ea <_ZN12OrangutanLCD21printFromProgramSpaceEPKc+0xe>
    24e4:	0e 94 a3 11 	call	0x2346	; 0x2346 <_ZN12OrangutanLCD9send_dataEh>
    24e8:	21 96       	adiw	r28, 0x01	; 1
    24ea:	fe 01       	movw	r30, r28
    24ec:	84 91       	lpm	r24, Z+
    24ee:	88 23       	and	r24, r24
    24f0:	c9 f7       	brne	.-14     	; 0x24e4 <_ZN12OrangutanLCD21printFromProgramSpaceEPKc+0x8>
    24f2:	df 91       	pop	r29
    24f4:	cf 91       	pop	r28
    24f6:	08 95       	ret

000024f8 <print_from_program_space>:
    24f8:	0e 94 6e 12 	call	0x24dc	; 0x24dc <_ZN12OrangutanLCD21printFromProgramSpaceEPKc>
    24fc:	08 95       	ret

000024fe <_ZN12OrangutanLCD5printEPKc>:
    24fe:	cf 93       	push	r28
    2500:	df 93       	push	r29
    2502:	ec 01       	movw	r28, r24
    2504:	03 c0       	rjmp	.+6      	; 0x250c <_ZN12OrangutanLCD5printEPKc+0xe>
    2506:	21 96       	adiw	r28, 0x01	; 1
    2508:	0e 94 a3 11 	call	0x2346	; 0x2346 <_ZN12OrangutanLCD9send_dataEh>
    250c:	88 81       	ld	r24, Y
    250e:	88 23       	and	r24, r24
    2510:	d1 f7       	brne	.-12     	; 0x2506 <_ZN12OrangutanLCD5printEPKc+0x8>
    2512:	df 91       	pop	r29
    2514:	cf 91       	pop	r28
    2516:	08 95       	ret

00002518 <print>:
    2518:	0e 94 7f 12 	call	0x24fe	; 0x24fe <_ZN12OrangutanLCD5printEPKc>
    251c:	08 95       	ret

0000251e <_ZN12OrangutanLCD5printEc>:
    251e:	0e 94 a3 11 	call	0x2346	; 0x2346 <_ZN12OrangutanLCD9send_dataEh>
    2522:	08 95       	ret

00002524 <print_character>:
    2524:	0e 94 a3 11 	call	0x2346	; 0x2346 <_ZN12OrangutanLCD9send_dataEh>
    2528:	08 95       	ret

0000252a <lcd_putchar>:
    252a:	a0 e0       	ldi	r26, 0x00	; 0
    252c:	b0 e0       	ldi	r27, 0x00	; 0
    252e:	eb e9       	ldi	r30, 0x9B	; 155
    2530:	f2 e1       	ldi	r31, 0x12	; 18
    2532:	0c 94 6c 18 	jmp	0x30d8	; 0x30d8 <__prologue_saves__+0x14>
    2536:	e8 2e       	mov	r14, r24
    2538:	80 91 90 02 	lds	r24, 0x0290
    253c:	90 91 91 02 	lds	r25, 0x0291
    2540:	89 2b       	or	r24, r25
    2542:	09 f4       	brne	.+2      	; 0x2546 <lcd_putchar+0x1c>
    2544:	05 c1       	rjmp	.+522    	; 0x2750 <lcd_putchar+0x226>
    2546:	2a e0       	ldi	r18, 0x0A	; 10
    2548:	e2 16       	cp	r14, r18
    254a:	09 f4       	brne	.+2      	; 0x254e <lcd_putchar+0x24>
    254c:	46 c0       	rjmp	.+140    	; 0x25da <lcd_putchar+0xb0>
    254e:	38 e0       	ldi	r19, 0x08	; 8
    2550:	e3 16       	cp	r14, r19
    2552:	c9 f4       	brne	.+50     	; 0x2586 <lcd_putchar+0x5c>
    2554:	80 91 93 02 	lds	r24, 0x0293
    2558:	81 50       	subi	r24, 0x01	; 1
    255a:	80 93 93 02 	sts	0x0293, r24
    255e:	8f 3f       	cpi	r24, 0xFF	; 255
    2560:	51 f4       	brne	.+20     	; 0x2576 <lcd_putchar+0x4c>
    2562:	80 91 92 02 	lds	r24, 0x0292
    2566:	81 50       	subi	r24, 0x01	; 1
    2568:	80 93 92 02 	sts	0x0292, r24
    256c:	80 91 79 01 	lds	r24, 0x0179
    2570:	81 50       	subi	r24, 0x01	; 1
    2572:	80 93 93 02 	sts	0x0293, r24
    2576:	80 91 92 02 	lds	r24, 0x0292
    257a:	8f 3f       	cpi	r24, 0xFF	; 255
    257c:	09 f0       	breq	.+2      	; 0x2580 <lcd_putchar+0x56>
    257e:	e2 c0       	rjmp	.+452    	; 0x2744 <lcd_putchar+0x21a>
    2580:	10 92 92 02 	sts	0x0292, r1
    2584:	dd c0       	rjmp	.+442    	; 0x2740 <lcd_putchar+0x216>
    2586:	8e 2d       	mov	r24, r14
    2588:	0e 94 a3 11 	call	0x2346	; 0x2346 <_ZN12OrangutanLCD9send_dataEh>
    258c:	20 91 92 02 	lds	r18, 0x0292
    2590:	22 23       	and	r18, r18
    2592:	c9 f0       	breq	.+50     	; 0x25c6 <lcd_putchar+0x9c>
    2594:	30 e0       	ldi	r19, 0x00	; 0
    2596:	21 50       	subi	r18, 0x01	; 1
    2598:	30 40       	sbci	r19, 0x00	; 0
    259a:	80 91 79 01 	lds	r24, 0x0179
    259e:	90 e0       	ldi	r25, 0x00	; 0
    25a0:	ac 01       	movw	r20, r24
    25a2:	24 9f       	mul	r18, r20
    25a4:	c0 01       	movw	r24, r0
    25a6:	25 9f       	mul	r18, r21
    25a8:	90 0d       	add	r25, r0
    25aa:	34 9f       	mul	r19, r20
    25ac:	90 0d       	add	r25, r0
    25ae:	11 24       	eor	r1, r1
    25b0:	20 91 93 02 	lds	r18, 0x0293
    25b4:	e0 91 90 02 	lds	r30, 0x0290
    25b8:	f0 91 91 02 	lds	r31, 0x0291
    25bc:	e8 0f       	add	r30, r24
    25be:	f9 1f       	adc	r31, r25
    25c0:	e2 0f       	add	r30, r18
    25c2:	f1 1d       	adc	r31, r1
    25c4:	e0 82       	st	Z, r14
    25c6:	80 91 93 02 	lds	r24, 0x0293
    25ca:	8f 5f       	subi	r24, 0xFF	; 255
    25cc:	80 93 93 02 	sts	0x0293, r24
    25d0:	90 91 79 01 	lds	r25, 0x0179
    25d4:	89 17       	cp	r24, r25
    25d6:	09 f0       	breq	.+2      	; 0x25da <lcd_putchar+0xb0>
    25d8:	bb c0       	rjmp	.+374    	; 0x2750 <lcd_putchar+0x226>
    25da:	40 91 92 02 	lds	r20, 0x0292
    25de:	24 2f       	mov	r18, r20
    25e0:	30 e0       	ldi	r19, 0x00	; 0
    25e2:	80 91 78 01 	lds	r24, 0x0178
    25e6:	90 e0       	ldi	r25, 0x00	; 0
    25e8:	01 97       	sbiw	r24, 0x01	; 1
    25ea:	28 17       	cp	r18, r24
    25ec:	39 07       	cpc	r19, r25
    25ee:	09 f0       	breq	.+2      	; 0x25f2 <lcd_putchar+0xc8>
    25f0:	a4 c0       	rjmp	.+328    	; 0x273a <lcd_putchar+0x210>
    25f2:	c0 e0       	ldi	r28, 0x00	; 0
    25f4:	d0 e0       	ldi	r29, 0x00	; 0
    25f6:	44 c0       	rjmp	.+136    	; 0x2680 <lcd_putchar+0x156>
    25f8:	80 e0       	ldi	r24, 0x00	; 0
    25fa:	6c 2f       	mov	r22, r28
    25fc:	0e 94 51 11 	call	0x22a2	; 0x22a2 <_ZN12OrangutanLCD6gotoXYEhh>
    2600:	ff 24       	eor	r15, r15
    2602:	6e 01       	movw	r12, r28
    2604:	08 94       	sec
    2606:	c1 1c       	adc	r12, r1
    2608:	d1 1c       	adc	r13, r1
    260a:	35 c0       	rjmp	.+106    	; 0x2676 <lcd_putchar+0x14c>
    260c:	0f 2d       	mov	r16, r15
    260e:	10 e0       	ldi	r17, 0x00	; 0
    2610:	90 e0       	ldi	r25, 0x00	; 0
    2612:	9c 01       	movw	r18, r24
    2614:	c2 9f       	mul	r28, r18
    2616:	c0 01       	movw	r24, r0
    2618:	c3 9f       	mul	r28, r19
    261a:	90 0d       	add	r25, r0
    261c:	d2 9f       	mul	r29, r18
    261e:	90 0d       	add	r25, r0
    2620:	11 24       	eor	r1, r1
    2622:	e0 91 90 02 	lds	r30, 0x0290
    2626:	f0 91 91 02 	lds	r31, 0x0291
    262a:	e0 0f       	add	r30, r16
    262c:	f1 1f       	adc	r31, r17
    262e:	e8 0f       	add	r30, r24
    2630:	f9 1f       	adc	r31, r25
    2632:	80 81       	ld	r24, Z
    2634:	0e 94 a3 11 	call	0x2346	; 0x2346 <_ZN12OrangutanLCD9send_dataEh>
    2638:	e0 91 90 02 	lds	r30, 0x0290
    263c:	f0 91 91 02 	lds	r31, 0x0291
    2640:	80 91 79 01 	lds	r24, 0x0179
    2644:	90 e0       	ldi	r25, 0x00	; 0
    2646:	c8 9f       	mul	r28, r24
    2648:	d0 01       	movw	r26, r0
    264a:	c9 9f       	mul	r28, r25
    264c:	b0 0d       	add	r27, r0
    264e:	d8 9f       	mul	r29, r24
    2650:	b0 0d       	add	r27, r0
    2652:	11 24       	eor	r1, r1
    2654:	e0 0f       	add	r30, r16
    2656:	f1 1f       	adc	r31, r17
    2658:	ae 0f       	add	r26, r30
    265a:	bf 1f       	adc	r27, r31
    265c:	ac 01       	movw	r20, r24
    265e:	c4 9e       	mul	r12, r20
    2660:	c0 01       	movw	r24, r0
    2662:	c5 9e       	mul	r12, r21
    2664:	90 0d       	add	r25, r0
    2666:	d4 9e       	mul	r13, r20
    2668:	90 0d       	add	r25, r0
    266a:	11 24       	eor	r1, r1
    266c:	e8 0f       	add	r30, r24
    266e:	f9 1f       	adc	r31, r25
    2670:	80 81       	ld	r24, Z
    2672:	8c 93       	st	X, r24
    2674:	f3 94       	inc	r15
    2676:	80 91 79 01 	lds	r24, 0x0179
    267a:	f8 16       	cp	r15, r24
    267c:	38 f2       	brcs	.-114    	; 0x260c <lcd_putchar+0xe2>
    267e:	e6 01       	movw	r28, r12
    2680:	60 91 78 01 	lds	r22, 0x0178
    2684:	86 2f       	mov	r24, r22
    2686:	90 e0       	ldi	r25, 0x00	; 0
    2688:	02 97       	sbiw	r24, 0x02	; 2
    268a:	c8 17       	cp	r28, r24
    268c:	d9 07       	cpc	r29, r25
    268e:	0c f4       	brge	.+2      	; 0x2692 <lcd_putchar+0x168>
    2690:	b3 cf       	rjmp	.-154    	; 0x25f8 <lcd_putchar+0xce>
    2692:	62 30       	cpi	r22, 0x02	; 2
    2694:	08 f4       	brcc	.+2      	; 0x2698 <lcd_putchar+0x16e>
    2696:	40 c0       	rjmp	.+128    	; 0x2718 <lcd_putchar+0x1ee>
    2698:	62 50       	subi	r22, 0x02	; 2
    269a:	80 e0       	ldi	r24, 0x00	; 0
    269c:	0e 94 51 11 	call	0x22a2	; 0x22a2 <_ZN12OrangutanLCD6gotoXYEhh>
    26a0:	ff 24       	eor	r15, r15
    26a2:	e0 e2       	ldi	r30, 0x20	; 32
    26a4:	de 2e       	mov	r13, r30
    26a6:	34 c0       	rjmp	.+104    	; 0x2710 <lcd_putchar+0x1e6>
    26a8:	0f 2d       	mov	r16, r15
    26aa:	10 e0       	ldi	r17, 0x00	; 0
    26ac:	80 91 78 01 	lds	r24, 0x0178
    26b0:	90 e0       	ldi	r25, 0x00	; 0
    26b2:	02 97       	sbiw	r24, 0x02	; 2
    26b4:	30 e0       	ldi	r19, 0x00	; 0
    26b6:	ac 01       	movw	r20, r24
    26b8:	42 9f       	mul	r20, r18
    26ba:	c0 01       	movw	r24, r0
    26bc:	43 9f       	mul	r20, r19
    26be:	90 0d       	add	r25, r0
    26c0:	52 9f       	mul	r21, r18
    26c2:	90 0d       	add	r25, r0
    26c4:	11 24       	eor	r1, r1
    26c6:	e0 91 90 02 	lds	r30, 0x0290
    26ca:	f0 91 91 02 	lds	r31, 0x0291
    26ce:	e0 0f       	add	r30, r16
    26d0:	f1 1f       	adc	r31, r17
    26d2:	e8 0f       	add	r30, r24
    26d4:	f9 1f       	adc	r31, r25
    26d6:	80 81       	ld	r24, Z
    26d8:	0e 94 a3 11 	call	0x2346	; 0x2346 <_ZN12OrangutanLCD9send_dataEh>
    26dc:	20 91 78 01 	lds	r18, 0x0178
    26e0:	30 e0       	ldi	r19, 0x00	; 0
    26e2:	22 50       	subi	r18, 0x02	; 2
    26e4:	30 40       	sbci	r19, 0x00	; 0
    26e6:	80 91 79 01 	lds	r24, 0x0179
    26ea:	90 e0       	ldi	r25, 0x00	; 0
    26ec:	ac 01       	movw	r20, r24
    26ee:	24 9f       	mul	r18, r20
    26f0:	c0 01       	movw	r24, r0
    26f2:	25 9f       	mul	r18, r21
    26f4:	90 0d       	add	r25, r0
    26f6:	34 9f       	mul	r19, r20
    26f8:	90 0d       	add	r25, r0
    26fa:	11 24       	eor	r1, r1
    26fc:	e0 91 90 02 	lds	r30, 0x0290
    2700:	f0 91 91 02 	lds	r31, 0x0291
    2704:	e0 0f       	add	r30, r16
    2706:	f1 1f       	adc	r31, r17
    2708:	e8 0f       	add	r30, r24
    270a:	f9 1f       	adc	r31, r25
    270c:	d0 82       	st	Z, r13
    270e:	f3 94       	inc	r15
    2710:	20 91 79 01 	lds	r18, 0x0179
    2714:	f2 16       	cp	r15, r18
    2716:	40 f2       	brcs	.-112    	; 0x26a8 <lcd_putchar+0x17e>
    2718:	60 91 78 01 	lds	r22, 0x0178
    271c:	61 50       	subi	r22, 0x01	; 1
    271e:	80 e0       	ldi	r24, 0x00	; 0
    2720:	0e 94 51 11 	call	0x22a2	; 0x22a2 <_ZN12OrangutanLCD6gotoXYEhh>
    2724:	00 e0       	ldi	r16, 0x00	; 0
    2726:	04 c0       	rjmp	.+8      	; 0x2730 <lcd_putchar+0x206>
    2728:	80 e2       	ldi	r24, 0x20	; 32
    272a:	0e 94 a3 11 	call	0x2346	; 0x2346 <_ZN12OrangutanLCD9send_dataEh>
    272e:	0f 5f       	subi	r16, 0xFF	; 255
    2730:	80 91 79 01 	lds	r24, 0x0179
    2734:	08 17       	cp	r16, r24
    2736:	c0 f3       	brcs	.-16     	; 0x2728 <lcd_putchar+0x1fe>
    2738:	03 c0       	rjmp	.+6      	; 0x2740 <lcd_putchar+0x216>
    273a:	4f 5f       	subi	r20, 0xFF	; 255
    273c:	40 93 92 02 	sts	0x0292, r20
    2740:	10 92 93 02 	sts	0x0293, r1
    2744:	80 91 93 02 	lds	r24, 0x0293
    2748:	60 91 92 02 	lds	r22, 0x0292
    274c:	0e 94 51 11 	call	0x22a2	; 0x22a2 <_ZN12OrangutanLCD6gotoXYEhh>
    2750:	2e 2d       	mov	r18, r14
    2752:	33 27       	eor	r19, r19
    2754:	27 fd       	sbrc	r18, 7
    2756:	30 95       	com	r19
    2758:	c9 01       	movw	r24, r18
    275a:	cd b7       	in	r28, 0x3d	; 61
    275c:	de b7       	in	r29, 0x3e	; 62
    275e:	e8 e0       	ldi	r30, 0x08	; 8
    2760:	0c 94 88 18 	jmp	0x3110	; 0x3110 <__epilogue_restores__+0x14>

00002764 <_ZN12OrangutanLCD19loadCustomCharacterEPKch>:
    2764:	ef 92       	push	r14
    2766:	ff 92       	push	r15
    2768:	0f 93       	push	r16
    276a:	1f 93       	push	r17
    276c:	cf 93       	push	r28
    276e:	df 93       	push	r29
    2770:	7c 01       	movw	r14, r24
    2772:	06 2f       	mov	r16, r22
    2774:	10 e0       	ldi	r17, 0x00	; 0
    2776:	f3 e0       	ldi	r31, 0x03	; 3
    2778:	00 0f       	add	r16, r16
    277a:	11 1f       	adc	r17, r17
    277c:	fa 95       	dec	r31
    277e:	e1 f7       	brne	.-8      	; 0x2778 <_ZN12OrangutanLCD19loadCustomCharacterEPKch+0x14>
    2780:	c0 e0       	ldi	r28, 0x00	; 0
    2782:	d0 e0       	ldi	r29, 0x00	; 0
    2784:	9e 01       	movw	r18, r28
    2786:	20 0f       	add	r18, r16
    2788:	82 2f       	mov	r24, r18
    278a:	80 64       	ori	r24, 0x40	; 64
    278c:	0e 94 25 11 	call	0x224a	; 0x224a <_ZN12OrangutanLCD8send_cmdEh>
    2790:	f7 01       	movw	r30, r14
    2792:	ec 0f       	add	r30, r28
    2794:	fd 1f       	adc	r31, r29
    2796:	e4 91       	lpm	r30, Z+
    2798:	8e 2f       	mov	r24, r30
    279a:	0e 94 a3 11 	call	0x2346	; 0x2346 <_ZN12OrangutanLCD9send_dataEh>
    279e:	21 96       	adiw	r28, 0x01	; 1
    27a0:	c8 30       	cpi	r28, 0x08	; 8
    27a2:	d1 05       	cpc	r29, r1
    27a4:	79 f7       	brne	.-34     	; 0x2784 <_ZN12OrangutanLCD19loadCustomCharacterEPKch+0x20>
    27a6:	cd b7       	in	r28, 0x3d	; 61
    27a8:	de b7       	in	r29, 0x3e	; 62
    27aa:	e6 e0       	ldi	r30, 0x06	; 6
    27ac:	0c 94 8a 18 	jmp	0x3114	; 0x3114 <__epilogue_restores__+0x18>

000027b0 <lcd_load_custom_character>:
    27b0:	0e 94 b2 13 	call	0x2764	; 0x2764 <_ZN12OrangutanLCD19loadCustomCharacterEPKch>
    27b4:	08 95       	ret

000027b6 <_ZN12OrangutanLCD13send_4bit_cmdEh>:
    27b6:	60 e0       	ldi	r22, 0x00	; 0
    27b8:	41 e0       	ldi	r20, 0x01	; 1
    27ba:	0e 94 f1 10 	call	0x21e2	; 0x21e2 <_ZN12OrangutanLCD4sendEhhh>
    27be:	08 95       	ret

000027c0 <_ZN12OrangutanLCD6scrollEhhj>:
    27c0:	0f 93       	push	r16
    27c2:	1f 93       	push	r17
    27c4:	cf 93       	push	r28
    27c6:	df 93       	push	r29
    27c8:	08 2f       	mov	r16, r24
    27ca:	16 2f       	mov	r17, r22
    27cc:	ea 01       	movw	r28, r20
    27ce:	0b c0       	rjmp	.+22     	; 0x27e6 <_ZN12OrangutanLCD6scrollEhhj+0x26>
    27d0:	00 23       	and	r16, r16
    27d2:	11 f4       	brne	.+4      	; 0x27d8 <_ZN12OrangutanLCD6scrollEhhj+0x18>
    27d4:	88 e1       	ldi	r24, 0x18	; 24
    27d6:	01 c0       	rjmp	.+2      	; 0x27da <_ZN12OrangutanLCD6scrollEhhj+0x1a>
    27d8:	8c e1       	ldi	r24, 0x1C	; 28
    27da:	0e 94 25 11 	call	0x224a	; 0x224a <_ZN12OrangutanLCD8send_cmdEh>
    27de:	ce 01       	movw	r24, r28
    27e0:	0e 94 38 17 	call	0x2e70	; 0x2e70 <_ZN13OrangutanTime17delayMillisecondsEj>
    27e4:	11 50       	subi	r17, 0x01	; 1
    27e6:	11 23       	and	r17, r17
    27e8:	99 f7       	brne	.-26     	; 0x27d0 <_ZN12OrangutanLCD6scrollEhhj+0x10>
    27ea:	df 91       	pop	r29
    27ec:	cf 91       	pop	r28
    27ee:	1f 91       	pop	r17
    27f0:	0f 91       	pop	r16
    27f2:	08 95       	ret

000027f4 <lcd_scroll>:
    27f4:	0e 94 e0 13 	call	0x27c0	; 0x27c0 <_ZN12OrangutanLCD6scrollEhhj>
    27f8:	08 95       	ret

000027fa <_ZN16OrangutanDigital9setOutputEhh>:
    27fa:	28 2f       	mov	r18, r24
    27fc:	88 30       	cpi	r24, 0x08	; 8
    27fe:	68 f4       	brcc	.+26     	; 0x281a <_ZN16OrangutanDigital9setOutputEhh+0x20>
    2800:	81 e0       	ldi	r24, 0x01	; 1
    2802:	90 e0       	ldi	r25, 0x00	; 0
    2804:	02 c0       	rjmp	.+4      	; 0x280a <_ZN16OrangutanDigital9setOutputEhh+0x10>
    2806:	88 0f       	add	r24, r24
    2808:	99 1f       	adc	r25, r25
    280a:	2a 95       	dec	r18
    280c:	e2 f7       	brpl	.-8      	; 0x2806 <_ZN16OrangutanDigital9setOutputEhh+0xc>
    280e:	28 2f       	mov	r18, r24
    2810:	aa e2       	ldi	r26, 0x2A	; 42
    2812:	b0 e0       	ldi	r27, 0x00	; 0
    2814:	eb e2       	ldi	r30, 0x2B	; 43
    2816:	f0 e0       	ldi	r31, 0x00	; 0
    2818:	29 c0       	rjmp	.+82     	; 0x286c <_ZN16OrangutanDigital9setOutputEhh+0x72>
    281a:	8e 30       	cpi	r24, 0x0E	; 14
    281c:	80 f4       	brcc	.+32     	; 0x283e <_ZN16OrangutanDigital9setOutputEhh+0x44>
    281e:	30 e0       	ldi	r19, 0x00	; 0
    2820:	28 50       	subi	r18, 0x08	; 8
    2822:	30 40       	sbci	r19, 0x00	; 0
    2824:	81 e0       	ldi	r24, 0x01	; 1
    2826:	90 e0       	ldi	r25, 0x00	; 0
    2828:	02 c0       	rjmp	.+4      	; 0x282e <_ZN16OrangutanDigital9setOutputEhh+0x34>
    282a:	88 0f       	add	r24, r24
    282c:	99 1f       	adc	r25, r25
    282e:	2a 95       	dec	r18
    2830:	e2 f7       	brpl	.-8      	; 0x282a <_ZN16OrangutanDigital9setOutputEhh+0x30>
    2832:	28 2f       	mov	r18, r24
    2834:	a4 e2       	ldi	r26, 0x24	; 36
    2836:	b0 e0       	ldi	r27, 0x00	; 0
    2838:	e5 e2       	ldi	r30, 0x25	; 37
    283a:	f0 e0       	ldi	r31, 0x00	; 0
    283c:	17 c0       	rjmp	.+46     	; 0x286c <_ZN16OrangutanDigital9setOutputEhh+0x72>
    283e:	85 31       	cpi	r24, 0x15	; 21
    2840:	30 f0       	brcs	.+12     	; 0x284e <_ZN16OrangutanDigital9setOutputEhh+0x54>
    2842:	20 e0       	ldi	r18, 0x00	; 0
    2844:	a0 e0       	ldi	r26, 0x00	; 0
    2846:	b0 e0       	ldi	r27, 0x00	; 0
    2848:	e0 e0       	ldi	r30, 0x00	; 0
    284a:	f0 e0       	ldi	r31, 0x00	; 0
    284c:	0f c0       	rjmp	.+30     	; 0x286c <_ZN16OrangutanDigital9setOutputEhh+0x72>
    284e:	30 e0       	ldi	r19, 0x00	; 0
    2850:	2e 50       	subi	r18, 0x0E	; 14
    2852:	30 40       	sbci	r19, 0x00	; 0
    2854:	81 e0       	ldi	r24, 0x01	; 1
    2856:	90 e0       	ldi	r25, 0x00	; 0
    2858:	02 c0       	rjmp	.+4      	; 0x285e <_ZN16OrangutanDigital9setOutputEhh+0x64>
    285a:	88 0f       	add	r24, r24
    285c:	99 1f       	adc	r25, r25
    285e:	2a 95       	dec	r18
    2860:	e2 f7       	brpl	.-8      	; 0x285a <_ZN16OrangutanDigital9setOutputEhh+0x60>
    2862:	28 2f       	mov	r18, r24
    2864:	a7 e2       	ldi	r26, 0x27	; 39
    2866:	b0 e0       	ldi	r27, 0x00	; 0
    2868:	e8 e2       	ldi	r30, 0x28	; 40
    286a:	f0 e0       	ldi	r31, 0x00	; 0
    286c:	6f 3f       	cpi	r22, 0xFF	; 255
    286e:	19 f4       	brne	.+6      	; 0x2876 <_ZN16OrangutanDigital9setOutputEhh+0x7c>
    2870:	80 81       	ld	r24, Z
    2872:	82 27       	eor	r24, r18
    2874:	09 c0       	rjmp	.+18     	; 0x2888 <_ZN16OrangutanDigital9setOutputEhh+0x8e>
    2876:	66 23       	and	r22, r22
    2878:	19 f0       	breq	.+6      	; 0x2880 <_ZN16OrangutanDigital9setOutputEhh+0x86>
    287a:	80 81       	ld	r24, Z
    287c:	82 2b       	or	r24, r18
    287e:	04 c0       	rjmp	.+8      	; 0x2888 <_ZN16OrangutanDigital9setOutputEhh+0x8e>
    2880:	90 81       	ld	r25, Z
    2882:	82 2f       	mov	r24, r18
    2884:	80 95       	com	r24
    2886:	89 23       	and	r24, r25
    2888:	80 83       	st	Z, r24
    288a:	8c 91       	ld	r24, X
    288c:	82 2b       	or	r24, r18
    288e:	8c 93       	st	X, r24
    2890:	08 95       	ret

00002892 <_ZN15OrangutanMotorsC2Ev>:
    2892:	08 95       	ret

00002894 <_ZN15OrangutanMotorsC1Ev>:
    2894:	08 95       	ret

00002896 <_ZN15OrangutanMotors5init2Ev>:
    2896:	e0 eb       	ldi	r30, 0xB0	; 176
    2898:	f0 e0       	ldi	r31, 0x00	; 0
    289a:	83 ef       	ldi	r24, 0xF3	; 243
    289c:	80 83       	st	Z, r24
    289e:	80 81       	ld	r24, Z
    28a0:	84 bd       	out	0x24, r24	; 36
    28a2:	e1 eb       	ldi	r30, 0xB1	; 177
    28a4:	f0 e0       	ldi	r31, 0x00	; 0
    28a6:	82 e0       	ldi	r24, 0x02	; 2
    28a8:	80 83       	st	Z, r24
    28aa:	80 81       	ld	r24, Z
    28ac:	85 bd       	out	0x25, r24	; 37
    28ae:	e4 eb       	ldi	r30, 0xB4	; 180
    28b0:	f0 e0       	ldi	r31, 0x00	; 0
    28b2:	10 82       	st	Z, r1
    28b4:	80 81       	ld	r24, Z
    28b6:	e3 eb       	ldi	r30, 0xB3	; 179
    28b8:	f0 e0       	ldi	r31, 0x00	; 0
    28ba:	80 83       	st	Z, r24
    28bc:	80 81       	ld	r24, Z
    28be:	88 bd       	out	0x28, r24	; 40
    28c0:	88 b5       	in	r24, 0x28	; 40
    28c2:	87 bd       	out	0x27, r24	; 39
    28c4:	86 e0       	ldi	r24, 0x06	; 6
    28c6:	60 e0       	ldi	r22, 0x00	; 0
    28c8:	0e 94 fd 13 	call	0x27fa	; 0x27fa <_ZN16OrangutanDigital9setOutputEhh>
    28cc:	85 e0       	ldi	r24, 0x05	; 5
    28ce:	60 e0       	ldi	r22, 0x00	; 0
    28d0:	0e 94 fd 13 	call	0x27fa	; 0x27fa <_ZN16OrangutanDigital9setOutputEhh>
    28d4:	8b e0       	ldi	r24, 0x0B	; 11
    28d6:	60 e0       	ldi	r22, 0x00	; 0
    28d8:	0e 94 fd 13 	call	0x27fa	; 0x27fa <_ZN16OrangutanDigital9setOutputEhh>
    28dc:	83 e0       	ldi	r24, 0x03	; 3
    28de:	60 e0       	ldi	r22, 0x00	; 0
    28e0:	0e 94 fd 13 	call	0x27fa	; 0x27fa <_ZN16OrangutanDigital9setOutputEhh>
    28e4:	08 95       	ret

000028e6 <_ZN15OrangutanMotors4initEv>:
    28e6:	80 91 99 02 	lds	r24, 0x0299
    28ea:	88 23       	and	r24, r24
    28ec:	29 f4       	brne	.+10     	; 0x28f8 <_ZN15OrangutanMotors4initEv+0x12>
    28ee:	81 e0       	ldi	r24, 0x01	; 1
    28f0:	80 93 99 02 	sts	0x0299, r24
    28f4:	0e 94 4b 14 	call	0x2896	; 0x2896 <_ZN15OrangutanMotors5init2Ev>
    28f8:	08 95       	ret

000028fa <_ZN15OrangutanMotors10setM1SpeedEi>:
    28fa:	cf 93       	push	r28
    28fc:	df 93       	push	r29
    28fe:	ec 01       	movw	r28, r24
    2900:	0e 94 73 14 	call	0x28e6	; 0x28e6 <_ZN15OrangutanMotors4initEv>
    2904:	d7 fd       	sbrc	r29, 7
    2906:	02 c0       	rjmp	.+4      	; 0x290c <_ZN15OrangutanMotors10setM1SpeedEi+0x12>
    2908:	20 e0       	ldi	r18, 0x00	; 0
    290a:	04 c0       	rjmp	.+8      	; 0x2914 <_ZN15OrangutanMotors10setM1SpeedEi+0x1a>
    290c:	d0 95       	com	r29
    290e:	c1 95       	neg	r28
    2910:	df 4f       	sbci	r29, 0xFF	; 255
    2912:	21 e0       	ldi	r18, 0x01	; 1
    2914:	ce 01       	movw	r24, r28
    2916:	cf 3f       	cpi	r28, 0xFF	; 255
    2918:	d1 05       	cpc	r29, r1
    291a:	19 f0       	breq	.+6      	; 0x2922 <_ZN15OrangutanMotors10setM1SpeedEi+0x28>
    291c:	14 f0       	brlt	.+4      	; 0x2922 <_ZN15OrangutanMotors10setM1SpeedEi+0x28>
    291e:	8f ef       	ldi	r24, 0xFF	; 255
    2920:	90 e0       	ldi	r25, 0x00	; 0
    2922:	22 23       	and	r18, r18
    2924:	19 f0       	breq	.+6      	; 0x292c <_ZN15OrangutanMotors10setM1SpeedEi+0x32>
    2926:	18 bc       	out	0x28, r1	; 40
    2928:	87 bd       	out	0x27, r24	; 39
    292a:	02 c0       	rjmp	.+4      	; 0x2930 <_ZN15OrangutanMotors10setM1SpeedEi+0x36>
    292c:	88 bd       	out	0x28, r24	; 40
    292e:	17 bc       	out	0x27, r1	; 39
    2930:	df 91       	pop	r29
    2932:	cf 91       	pop	r28
    2934:	08 95       	ret

00002936 <set_m1_speed>:
    2936:	0e 94 7d 14 	call	0x28fa	; 0x28fa <_ZN15OrangutanMotors10setM1SpeedEi>
    293a:	08 95       	ret

0000293c <_ZN15OrangutanMotors10setM2SpeedEi>:
    293c:	cf 93       	push	r28
    293e:	df 93       	push	r29
    2940:	ec 01       	movw	r28, r24
    2942:	0e 94 73 14 	call	0x28e6	; 0x28e6 <_ZN15OrangutanMotors4initEv>
    2946:	d7 fd       	sbrc	r29, 7
    2948:	02 c0       	rjmp	.+4      	; 0x294e <_ZN15OrangutanMotors10setM2SpeedEi+0x12>
    294a:	20 e0       	ldi	r18, 0x00	; 0
    294c:	04 c0       	rjmp	.+8      	; 0x2956 <_ZN15OrangutanMotors10setM2SpeedEi+0x1a>
    294e:	d0 95       	com	r29
    2950:	c1 95       	neg	r28
    2952:	df 4f       	sbci	r29, 0xFF	; 255
    2954:	21 e0       	ldi	r18, 0x01	; 1
    2956:	ce 01       	movw	r24, r28
    2958:	cf 3f       	cpi	r28, 0xFF	; 255
    295a:	d1 05       	cpc	r29, r1
    295c:	19 f0       	breq	.+6      	; 0x2964 <_ZN15OrangutanMotors10setM2SpeedEi+0x28>
    295e:	14 f0       	brlt	.+4      	; 0x2964 <_ZN15OrangutanMotors10setM2SpeedEi+0x28>
    2960:	8f ef       	ldi	r24, 0xFF	; 255
    2962:	90 e0       	ldi	r25, 0x00	; 0
    2964:	22 23       	and	r18, r18
    2966:	29 f0       	breq	.+10     	; 0x2972 <_ZN15OrangutanMotors10setM2SpeedEi+0x36>
    2968:	10 92 b4 00 	sts	0x00B4, r1
    296c:	80 93 b3 00 	sts	0x00B3, r24
    2970:	04 c0       	rjmp	.+8      	; 0x297a <_ZN15OrangutanMotors10setM2SpeedEi+0x3e>
    2972:	80 93 b4 00 	sts	0x00B4, r24
    2976:	10 92 b3 00 	sts	0x00B3, r1
    297a:	df 91       	pop	r29
    297c:	cf 91       	pop	r28
    297e:	08 95       	ret

00002980 <set_m2_speed>:
    2980:	0e 94 9e 14 	call	0x293c	; 0x293c <_ZN15OrangutanMotors10setM2SpeedEi>
    2984:	08 95       	ret

00002986 <_ZN15OrangutanMotors9setSpeedsEii>:
    2986:	0f 93       	push	r16
    2988:	1f 93       	push	r17
    298a:	8b 01       	movw	r16, r22
    298c:	0e 94 7d 14 	call	0x28fa	; 0x28fa <_ZN15OrangutanMotors10setM1SpeedEi>
    2990:	c8 01       	movw	r24, r16
    2992:	0e 94 9e 14 	call	0x293c	; 0x293c <_ZN15OrangutanMotors10setM2SpeedEi>
    2996:	1f 91       	pop	r17
    2998:	0f 91       	pop	r16
    299a:	08 95       	ret

0000299c <set_motors>:
    299c:	0e 94 c3 14 	call	0x2986	; 0x2986 <_ZN15OrangutanMotors9setSpeedsEii>
    29a0:	08 95       	ret

000029a2 <_ZN20OrangutanPushbuttonsC2Ev>:
    29a2:	08 95       	ret

000029a4 <_ZN20OrangutanPushbuttonsC1Ev>:
    29a4:	08 95       	ret

000029a6 <_ZN20OrangutanPushbuttons4initEv>:
    29a6:	80 91 9a 02 	lds	r24, 0x029A
    29aa:	88 23       	and	r24, r24
    29ac:	91 f4       	brne	.+36     	; 0x29d2 <_ZN20OrangutanPushbuttons4initEv+0x2c>
    29ae:	81 e0       	ldi	r24, 0x01	; 1
    29b0:	80 93 9a 02 	sts	0x029A, r24
    29b4:	84 b1       	in	r24, 0x04	; 4
    29b6:	8d 7c       	andi	r24, 0xCD	; 205
    29b8:	84 b9       	out	0x04, r24	; 4
    29ba:	85 b1       	in	r24, 0x05	; 5
    29bc:	82 63       	ori	r24, 0x32	; 50
    29be:	85 b9       	out	0x05, r24	; 5
    29c0:	85 e0       	ldi	r24, 0x05	; 5
    29c2:	90 e0       	ldi	r25, 0x00	; 0
    29c4:	6f 93       	push	r22
    29c6:	64 e0       	ldi	r22, 0x04	; 4
    29c8:	6a 95       	dec	r22
    29ca:	f1 f7       	brne	.-4      	; 0x29c8 <_ZN20OrangutanPushbuttons4initEv+0x22>
    29cc:	6f 91       	pop	r22
    29ce:	01 97       	sbiw	r24, 0x01	; 1
    29d0:	c9 f7       	brne	.-14     	; 0x29c4 <_ZN20OrangutanPushbuttons4initEv+0x1e>
    29d2:	08 95       	ret

000029d4 <_ZN20OrangutanPushbuttons5init2Ev>:
    29d4:	84 b1       	in	r24, 0x04	; 4
    29d6:	8d 7c       	andi	r24, 0xCD	; 205
    29d8:	84 b9       	out	0x04, r24	; 4
    29da:	85 b1       	in	r24, 0x05	; 5
    29dc:	82 63       	ori	r24, 0x32	; 50
    29de:	85 b9       	out	0x05, r24	; 5
    29e0:	85 e0       	ldi	r24, 0x05	; 5
    29e2:	90 e0       	ldi	r25, 0x00	; 0
    29e4:	6f 93       	push	r22
    29e6:	64 e0       	ldi	r22, 0x04	; 4
    29e8:	6a 95       	dec	r22
    29ea:	f1 f7       	brne	.-4      	; 0x29e8 <_ZN20OrangutanPushbuttons5init2Ev+0x14>
    29ec:	6f 91       	pop	r22
    29ee:	01 97       	sbiw	r24, 0x01	; 1
    29f0:	c9 f7       	brne	.-14     	; 0x29e4 <_ZN20OrangutanPushbuttons5init2Ev+0x10>
    29f2:	08 95       	ret

000029f4 <_ZN20OrangutanPushbuttons9isPressedEh>:
    29f4:	1f 93       	push	r17
    29f6:	18 2f       	mov	r17, r24
    29f8:	0e 94 d3 14 	call	0x29a6	; 0x29a6 <_ZN20OrangutanPushbuttons4initEv>
    29fc:	83 b1       	in	r24, 0x03	; 3
    29fe:	80 95       	com	r24
    2a00:	81 23       	and	r24, r17
    2a02:	1f 91       	pop	r17
    2a04:	08 95       	ret

00002a06 <button_is_pressed>:
    2a06:	0e 94 fa 14 	call	0x29f4	; 0x29f4 <_ZN20OrangutanPushbuttons9isPressedEh>
    2a0a:	08 95       	ret

00002a0c <_ZN20OrangutanPushbuttons25getSingleDebouncedReleaseEh>:
    2a0c:	cf 92       	push	r12
    2a0e:	df 92       	push	r13
    2a10:	ef 92       	push	r14
    2a12:	ff 92       	push	r15
    2a14:	0f 93       	push	r16
    2a16:	1f 93       	push	r17
    2a18:	c8 2e       	mov	r12, r24
    2a1a:	d3 b0       	in	r13, 0x03	; 3
    2a1c:	0e 94 69 17 	call	0x2ed2	; 0x2ed2 <_ZN13OrangutanTime2msEv>
    2a20:	7b 01       	movw	r14, r22
    2a22:	8c 01       	movw	r16, r24
    2a24:	0e 94 d3 14 	call	0x29a6	; 0x29a6 <_ZN20OrangutanPushbuttons4initEv>
    2a28:	80 91 a0 02 	lds	r24, 0x02A0
    2a2c:	81 30       	cpi	r24, 0x01	; 1
    2a2e:	11 f1       	breq	.+68     	; 0x2a74 <_ZN20OrangutanPushbuttons25getSingleDebouncedReleaseEh+0x68>
    2a30:	81 30       	cpi	r24, 0x01	; 1
    2a32:	38 f0       	brcs	.+14     	; 0x2a42 <_ZN20OrangutanPushbuttons25getSingleDebouncedReleaseEh+0x36>
    2a34:	82 30       	cpi	r24, 0x02	; 2
    2a36:	09 f4       	brne	.+2      	; 0x2a3a <_ZN20OrangutanPushbuttons25getSingleDebouncedReleaseEh+0x2e>
    2a38:	44 c0       	rjmp	.+136    	; 0x2ac2 <_ZN20OrangutanPushbuttons25getSingleDebouncedReleaseEh+0xb6>
    2a3a:	83 30       	cpi	r24, 0x03	; 3
    2a3c:	09 f0       	breq	.+2      	; 0x2a40 <_ZN20OrangutanPushbuttons25getSingleDebouncedReleaseEh+0x34>
    2a3e:	8b c0       	rjmp	.+278    	; 0x2b56 <_ZN20OrangutanPushbuttons25getSingleDebouncedReleaseEh+0x14a>
    2a40:	66 c0       	rjmp	.+204    	; 0x2b0e <_ZN20OrangutanPushbuttons25getSingleDebouncedReleaseEh+0x102>
    2a42:	2c 2d       	mov	r18, r12
    2a44:	30 e0       	ldi	r19, 0x00	; 0
    2a46:	8d 2d       	mov	r24, r13
    2a48:	90 e0       	ldi	r25, 0x00	; 0
    2a4a:	80 95       	com	r24
    2a4c:	90 95       	com	r25
    2a4e:	28 23       	and	r18, r24
    2a50:	39 23       	and	r19, r25
    2a52:	23 2b       	or	r18, r19
    2a54:	09 f4       	brne	.+2      	; 0x2a58 <_ZN20OrangutanPushbuttons25getSingleDebouncedReleaseEh+0x4c>
    2a56:	7f c0       	rjmp	.+254    	; 0x2b56 <_ZN20OrangutanPushbuttons25getSingleDebouncedReleaseEh+0x14a>
    2a58:	d0 94       	com	r13
    2a5a:	dc 20       	and	r13, r12
    2a5c:	d0 92 9b 02 	sts	0x029B, r13
    2a60:	e0 92 9c 02 	sts	0x029C, r14
    2a64:	f0 92 9d 02 	sts	0x029D, r15
    2a68:	00 93 9e 02 	sts	0x029E, r16
    2a6c:	10 93 9f 02 	sts	0x029F, r17
    2a70:	81 e0       	ldi	r24, 0x01	; 1
    2a72:	6f c0       	rjmp	.+222    	; 0x2b52 <_ZN20OrangutanPushbuttons25getSingleDebouncedReleaseEh+0x146>
    2a74:	80 91 9c 02 	lds	r24, 0x029C
    2a78:	90 91 9d 02 	lds	r25, 0x029D
    2a7c:	a0 91 9e 02 	lds	r26, 0x029E
    2a80:	b0 91 9f 02 	lds	r27, 0x029F
    2a84:	e8 1a       	sub	r14, r24
    2a86:	f9 0a       	sbc	r15, r25
    2a88:	0a 0b       	sbc	r16, r26
    2a8a:	1b 0b       	sbc	r17, r27
    2a8c:	8f e0       	ldi	r24, 0x0F	; 15
    2a8e:	e8 16       	cp	r14, r24
    2a90:	f1 04       	cpc	r15, r1
    2a92:	01 05       	cpc	r16, r1
    2a94:	11 05       	cpc	r17, r1
    2a96:	08 f4       	brcc	.+2      	; 0x2a9a <_ZN20OrangutanPushbuttons25getSingleDebouncedReleaseEh+0x8e>
    2a98:	5e c0       	rjmp	.+188    	; 0x2b56 <_ZN20OrangutanPushbuttons25getSingleDebouncedReleaseEh+0x14a>
    2a9a:	40 91 9b 02 	lds	r20, 0x029B
    2a9e:	8d 2d       	mov	r24, r13
    2aa0:	90 e0       	ldi	r25, 0x00	; 0
    2aa2:	80 95       	com	r24
    2aa4:	90 95       	com	r25
    2aa6:	24 2f       	mov	r18, r20
    2aa8:	30 e0       	ldi	r19, 0x00	; 0
    2aaa:	82 23       	and	r24, r18
    2aac:	93 23       	and	r25, r19
    2aae:	89 2b       	or	r24, r25
    2ab0:	59 f1       	breq	.+86     	; 0x2b08 <_ZN20OrangutanPushbuttons25getSingleDebouncedReleaseEh+0xfc>
    2ab2:	82 e0       	ldi	r24, 0x02	; 2
    2ab4:	80 93 a0 02 	sts	0x02A0, r24
    2ab8:	d0 94       	com	r13
    2aba:	d4 22       	and	r13, r20
    2abc:	d0 92 9b 02 	sts	0x029B, r13
    2ac0:	4a c0       	rjmp	.+148    	; 0x2b56 <_ZN20OrangutanPushbuttons25getSingleDebouncedReleaseEh+0x14a>
    2ac2:	40 91 9b 02 	lds	r20, 0x029B
    2ac6:	64 2f       	mov	r22, r20
    2ac8:	70 e0       	ldi	r23, 0x00	; 0
    2aca:	2d 2d       	mov	r18, r13
    2acc:	30 e0       	ldi	r19, 0x00	; 0
    2ace:	cb 01       	movw	r24, r22
    2ad0:	82 23       	and	r24, r18
    2ad2:	93 23       	and	r25, r19
    2ad4:	89 2b       	or	r24, r25
    2ad6:	79 f0       	breq	.+30     	; 0x2af6 <_ZN20OrangutanPushbuttons25getSingleDebouncedReleaseEh+0xea>
    2ad8:	83 e0       	ldi	r24, 0x03	; 3
    2ada:	80 93 a0 02 	sts	0x02A0, r24
    2ade:	4d 21       	and	r20, r13
    2ae0:	40 93 9b 02 	sts	0x029B, r20
    2ae4:	e0 92 9c 02 	sts	0x029C, r14
    2ae8:	f0 92 9d 02 	sts	0x029D, r15
    2aec:	00 93 9e 02 	sts	0x029E, r16
    2af0:	10 93 9f 02 	sts	0x029F, r17
    2af4:	30 c0       	rjmp	.+96     	; 0x2b56 <_ZN20OrangutanPushbuttons25getSingleDebouncedReleaseEh+0x14a>
    2af6:	8c 2d       	mov	r24, r12
    2af8:	90 e0       	ldi	r25, 0x00	; 0
    2afa:	20 95       	com	r18
    2afc:	30 95       	com	r19
    2afe:	82 23       	and	r24, r18
    2b00:	93 23       	and	r25, r19
    2b02:	68 17       	cp	r22, r24
    2b04:	79 07       	cpc	r23, r25
    2b06:	39 f1       	breq	.+78     	; 0x2b56 <_ZN20OrangutanPushbuttons25getSingleDebouncedReleaseEh+0x14a>
    2b08:	10 92 a0 02 	sts	0x02A0, r1
    2b0c:	24 c0       	rjmp	.+72     	; 0x2b56 <_ZN20OrangutanPushbuttons25getSingleDebouncedReleaseEh+0x14a>
    2b0e:	80 91 9c 02 	lds	r24, 0x029C
    2b12:	90 91 9d 02 	lds	r25, 0x029D
    2b16:	a0 91 9e 02 	lds	r26, 0x029E
    2b1a:	b0 91 9f 02 	lds	r27, 0x029F
    2b1e:	e8 1a       	sub	r14, r24
    2b20:	f9 0a       	sbc	r15, r25
    2b22:	0a 0b       	sbc	r16, r26
    2b24:	1b 0b       	sbc	r17, r27
    2b26:	8f e0       	ldi	r24, 0x0F	; 15
    2b28:	e8 16       	cp	r14, r24
    2b2a:	f1 04       	cpc	r15, r1
    2b2c:	01 05       	cpc	r16, r1
    2b2e:	11 05       	cpc	r17, r1
    2b30:	90 f0       	brcs	.+36     	; 0x2b56 <_ZN20OrangutanPushbuttons25getSingleDebouncedReleaseEh+0x14a>
    2b32:	40 91 9b 02 	lds	r20, 0x029B
    2b36:	84 2f       	mov	r24, r20
    2b38:	90 e0       	ldi	r25, 0x00	; 0
    2b3a:	2d 2d       	mov	r18, r13
    2b3c:	30 e0       	ldi	r19, 0x00	; 0
    2b3e:	82 23       	and	r24, r18
    2b40:	93 23       	and	r25, r19
    2b42:	89 2b       	or	r24, r25
    2b44:	29 f0       	breq	.+10     	; 0x2b50 <_ZN20OrangutanPushbuttons25getSingleDebouncedReleaseEh+0x144>
    2b46:	10 92 a0 02 	sts	0x02A0, r1
    2b4a:	84 2f       	mov	r24, r20
    2b4c:	8d 21       	and	r24, r13
    2b4e:	04 c0       	rjmp	.+8      	; 0x2b58 <_ZN20OrangutanPushbuttons25getSingleDebouncedReleaseEh+0x14c>
    2b50:	82 e0       	ldi	r24, 0x02	; 2
    2b52:	80 93 a0 02 	sts	0x02A0, r24
    2b56:	80 e0       	ldi	r24, 0x00	; 0
    2b58:	1f 91       	pop	r17
    2b5a:	0f 91       	pop	r16
    2b5c:	ff 90       	pop	r15
    2b5e:	ef 90       	pop	r14
    2b60:	df 90       	pop	r13
    2b62:	cf 90       	pop	r12
    2b64:	08 95       	ret

00002b66 <get_single_debounced_button_release>:
    2b66:	0e 94 06 15 	call	0x2a0c	; 0x2a0c <_ZN20OrangutanPushbuttons25getSingleDebouncedReleaseEh>
    2b6a:	08 95       	ret

00002b6c <_ZN20OrangutanPushbuttons23getSingleDebouncedPressEh>:
    2b6c:	cf 92       	push	r12
    2b6e:	df 92       	push	r13
    2b70:	ef 92       	push	r14
    2b72:	ff 92       	push	r15
    2b74:	0f 93       	push	r16
    2b76:	1f 93       	push	r17
    2b78:	c8 2e       	mov	r12, r24
    2b7a:	d3 b0       	in	r13, 0x03	; 3
    2b7c:	d0 94       	com	r13
    2b7e:	0e 94 69 17 	call	0x2ed2	; 0x2ed2 <_ZN13OrangutanTime2msEv>
    2b82:	7b 01       	movw	r14, r22
    2b84:	8c 01       	movw	r16, r24
    2b86:	0e 94 d3 14 	call	0x29a6	; 0x29a6 <_ZN20OrangutanPushbuttons4initEv>
    2b8a:	80 91 a6 02 	lds	r24, 0x02A6
    2b8e:	81 30       	cpi	r24, 0x01	; 1
    2b90:	11 f1       	breq	.+68     	; 0x2bd6 <_ZN20OrangutanPushbuttons23getSingleDebouncedPressEh+0x6a>
    2b92:	81 30       	cpi	r24, 0x01	; 1
    2b94:	38 f0       	brcs	.+14     	; 0x2ba4 <_ZN20OrangutanPushbuttons23getSingleDebouncedPressEh+0x38>
    2b96:	82 30       	cpi	r24, 0x02	; 2
    2b98:	09 f4       	brne	.+2      	; 0x2b9c <_ZN20OrangutanPushbuttons23getSingleDebouncedPressEh+0x30>
    2b9a:	44 c0       	rjmp	.+136    	; 0x2c24 <_ZN20OrangutanPushbuttons23getSingleDebouncedPressEh+0xb8>
    2b9c:	83 30       	cpi	r24, 0x03	; 3
    2b9e:	09 f0       	breq	.+2      	; 0x2ba2 <_ZN20OrangutanPushbuttons23getSingleDebouncedPressEh+0x36>
    2ba0:	8b c0       	rjmp	.+278    	; 0x2cb8 <_ZN20OrangutanPushbuttons23getSingleDebouncedPressEh+0x14c>
    2ba2:	66 c0       	rjmp	.+204    	; 0x2c70 <_ZN20OrangutanPushbuttons23getSingleDebouncedPressEh+0x104>
    2ba4:	2c 2d       	mov	r18, r12
    2ba6:	30 e0       	ldi	r19, 0x00	; 0
    2ba8:	8d 2d       	mov	r24, r13
    2baa:	90 e0       	ldi	r25, 0x00	; 0
    2bac:	80 95       	com	r24
    2bae:	90 95       	com	r25
    2bb0:	28 23       	and	r18, r24
    2bb2:	39 23       	and	r19, r25
    2bb4:	23 2b       	or	r18, r19
    2bb6:	09 f4       	brne	.+2      	; 0x2bba <_ZN20OrangutanPushbuttons23getSingleDebouncedPressEh+0x4e>
    2bb8:	7f c0       	rjmp	.+254    	; 0x2cb8 <_ZN20OrangutanPushbuttons23getSingleDebouncedPressEh+0x14c>
    2bba:	d0 94       	com	r13
    2bbc:	dc 20       	and	r13, r12
    2bbe:	d0 92 a1 02 	sts	0x02A1, r13
    2bc2:	e0 92 a2 02 	sts	0x02A2, r14
    2bc6:	f0 92 a3 02 	sts	0x02A3, r15
    2bca:	00 93 a4 02 	sts	0x02A4, r16
    2bce:	10 93 a5 02 	sts	0x02A5, r17
    2bd2:	81 e0       	ldi	r24, 0x01	; 1
    2bd4:	6f c0       	rjmp	.+222    	; 0x2cb4 <_ZN20OrangutanPushbuttons23getSingleDebouncedPressEh+0x148>
    2bd6:	80 91 a2 02 	lds	r24, 0x02A2
    2bda:	90 91 a3 02 	lds	r25, 0x02A3
    2bde:	a0 91 a4 02 	lds	r26, 0x02A4
    2be2:	b0 91 a5 02 	lds	r27, 0x02A5
    2be6:	e8 1a       	sub	r14, r24
    2be8:	f9 0a       	sbc	r15, r25
    2bea:	0a 0b       	sbc	r16, r26
    2bec:	1b 0b       	sbc	r17, r27
    2bee:	8f e0       	ldi	r24, 0x0F	; 15
    2bf0:	e8 16       	cp	r14, r24
    2bf2:	f1 04       	cpc	r15, r1
    2bf4:	01 05       	cpc	r16, r1
    2bf6:	11 05       	cpc	r17, r1
    2bf8:	08 f4       	brcc	.+2      	; 0x2bfc <_ZN20OrangutanPushbuttons23getSingleDebouncedPressEh+0x90>
    2bfa:	5e c0       	rjmp	.+188    	; 0x2cb8 <_ZN20OrangutanPushbuttons23getSingleDebouncedPressEh+0x14c>
    2bfc:	40 91 a1 02 	lds	r20, 0x02A1
    2c00:	8d 2d       	mov	r24, r13
    2c02:	90 e0       	ldi	r25, 0x00	; 0
    2c04:	80 95       	com	r24
    2c06:	90 95       	com	r25
    2c08:	24 2f       	mov	r18, r20
    2c0a:	30 e0       	ldi	r19, 0x00	; 0
    2c0c:	82 23       	and	r24, r18
    2c0e:	93 23       	and	r25, r19
    2c10:	89 2b       	or	r24, r25
    2c12:	59 f1       	breq	.+86     	; 0x2c6a <_ZN20OrangutanPushbuttons23getSingleDebouncedPressEh+0xfe>
    2c14:	82 e0       	ldi	r24, 0x02	; 2
    2c16:	80 93 a6 02 	sts	0x02A6, r24
    2c1a:	d0 94       	com	r13
    2c1c:	d4 22       	and	r13, r20
    2c1e:	d0 92 a1 02 	sts	0x02A1, r13
    2c22:	4a c0       	rjmp	.+148    	; 0x2cb8 <_ZN20OrangutanPushbuttons23getSingleDebouncedPressEh+0x14c>
    2c24:	60 91 a1 02 	lds	r22, 0x02A1
    2c28:	2d 2d       	mov	r18, r13
    2c2a:	30 e0       	ldi	r19, 0x00	; 0
    2c2c:	46 2f       	mov	r20, r22
    2c2e:	50 e0       	ldi	r21, 0x00	; 0
    2c30:	c9 01       	movw	r24, r18
    2c32:	84 23       	and	r24, r20
    2c34:	95 23       	and	r25, r21
    2c36:	89 2b       	or	r24, r25
    2c38:	79 f0       	breq	.+30     	; 0x2c58 <_ZN20OrangutanPushbuttons23getSingleDebouncedPressEh+0xec>
    2c3a:	83 e0       	ldi	r24, 0x03	; 3
    2c3c:	80 93 a6 02 	sts	0x02A6, r24
    2c40:	d6 22       	and	r13, r22
    2c42:	d0 92 a1 02 	sts	0x02A1, r13
    2c46:	e0 92 a2 02 	sts	0x02A2, r14
    2c4a:	f0 92 a3 02 	sts	0x02A3, r15
    2c4e:	00 93 a4 02 	sts	0x02A4, r16
    2c52:	10 93 a5 02 	sts	0x02A5, r17
    2c56:	30 c0       	rjmp	.+96     	; 0x2cb8 <_ZN20OrangutanPushbuttons23getSingleDebouncedPressEh+0x14c>
    2c58:	8c 2d       	mov	r24, r12
    2c5a:	90 e0       	ldi	r25, 0x00	; 0
    2c5c:	20 95       	com	r18
    2c5e:	30 95       	com	r19
    2c60:	82 23       	and	r24, r18
    2c62:	93 23       	and	r25, r19
    2c64:	48 17       	cp	r20, r24
    2c66:	59 07       	cpc	r21, r25
    2c68:	39 f1       	breq	.+78     	; 0x2cb8 <_ZN20OrangutanPushbuttons23getSingleDebouncedPressEh+0x14c>
    2c6a:	10 92 a6 02 	sts	0x02A6, r1
    2c6e:	24 c0       	rjmp	.+72     	; 0x2cb8 <_ZN20OrangutanPushbuttons23getSingleDebouncedPressEh+0x14c>
    2c70:	80 91 a2 02 	lds	r24, 0x02A2
    2c74:	90 91 a3 02 	lds	r25, 0x02A3
    2c78:	a0 91 a4 02 	lds	r26, 0x02A4
    2c7c:	b0 91 a5 02 	lds	r27, 0x02A5
    2c80:	e8 1a       	sub	r14, r24
    2c82:	f9 0a       	sbc	r15, r25
    2c84:	0a 0b       	sbc	r16, r26
    2c86:	1b 0b       	sbc	r17, r27
    2c88:	8f e0       	ldi	r24, 0x0F	; 15
    2c8a:	e8 16       	cp	r14, r24
    2c8c:	f1 04       	cpc	r15, r1
    2c8e:	01 05       	cpc	r16, r1
    2c90:	11 05       	cpc	r17, r1
    2c92:	90 f0       	brcs	.+36     	; 0x2cb8 <_ZN20OrangutanPushbuttons23getSingleDebouncedPressEh+0x14c>
    2c94:	40 91 a1 02 	lds	r20, 0x02A1
    2c98:	8d 2d       	mov	r24, r13
    2c9a:	90 e0       	ldi	r25, 0x00	; 0
    2c9c:	24 2f       	mov	r18, r20
    2c9e:	30 e0       	ldi	r19, 0x00	; 0
    2ca0:	82 23       	and	r24, r18
    2ca2:	93 23       	and	r25, r19
    2ca4:	89 2b       	or	r24, r25
    2ca6:	29 f0       	breq	.+10     	; 0x2cb2 <_ZN20OrangutanPushbuttons23getSingleDebouncedPressEh+0x146>
    2ca8:	10 92 a6 02 	sts	0x02A6, r1
    2cac:	8d 2d       	mov	r24, r13
    2cae:	84 23       	and	r24, r20
    2cb0:	04 c0       	rjmp	.+8      	; 0x2cba <_ZN20OrangutanPushbuttons23getSingleDebouncedPressEh+0x14e>
    2cb2:	82 e0       	ldi	r24, 0x02	; 2
    2cb4:	80 93 a6 02 	sts	0x02A6, r24
    2cb8:	80 e0       	ldi	r24, 0x00	; 0
    2cba:	1f 91       	pop	r17
    2cbc:	0f 91       	pop	r16
    2cbe:	ff 90       	pop	r15
    2cc0:	ef 90       	pop	r14
    2cc2:	df 90       	pop	r13
    2cc4:	cf 90       	pop	r12
    2cc6:	08 95       	ret

00002cc8 <get_single_debounced_button_press>:
    2cc8:	0e 94 b6 15 	call	0x2b6c	; 0x2b6c <_ZN20OrangutanPushbuttons23getSingleDebouncedPressEh>
    2ccc:	08 95       	ret

00002cce <_ZN20OrangutanPushbuttons14waitForReleaseEh>:
    2cce:	1f 93       	push	r17
    2cd0:	cf 93       	push	r28
    2cd2:	df 93       	push	r29
    2cd4:	18 2f       	mov	r17, r24
    2cd6:	0e 94 d3 14 	call	0x29a6	; 0x29a6 <_ZN20OrangutanPushbuttons4initEv>
    2cda:	c1 2f       	mov	r28, r17
    2cdc:	d0 e0       	ldi	r29, 0x00	; 0
    2cde:	83 b1       	in	r24, 0x03	; 3
    2ce0:	90 e0       	ldi	r25, 0x00	; 0
    2ce2:	8c 23       	and	r24, r28
    2ce4:	9d 23       	and	r25, r29
    2ce6:	89 2b       	or	r24, r25
    2ce8:	d1 f3       	breq	.-12     	; 0x2cde <_ZN20OrangutanPushbuttons14waitForReleaseEh+0x10>
    2cea:	8a e0       	ldi	r24, 0x0A	; 10
    2cec:	90 e0       	ldi	r25, 0x00	; 0
    2cee:	0e 94 38 17 	call	0x2e70	; 0x2e70 <_ZN13OrangutanTime17delayMillisecondsEj>
    2cf2:	83 b1       	in	r24, 0x03	; 3
    2cf4:	90 e0       	ldi	r25, 0x00	; 0
    2cf6:	8c 23       	and	r24, r28
    2cf8:	9d 23       	and	r25, r29
    2cfa:	89 2b       	or	r24, r25
    2cfc:	81 f3       	breq	.-32     	; 0x2cde <_ZN20OrangutanPushbuttons14waitForReleaseEh+0x10>
    2cfe:	83 b1       	in	r24, 0x03	; 3
    2d00:	81 23       	and	r24, r17
    2d02:	df 91       	pop	r29
    2d04:	cf 91       	pop	r28
    2d06:	1f 91       	pop	r17
    2d08:	08 95       	ret

00002d0a <wait_for_button_release>:
    2d0a:	0e 94 67 16 	call	0x2cce	; 0x2cce <_ZN20OrangutanPushbuttons14waitForReleaseEh>
    2d0e:	08 95       	ret

00002d10 <_ZN20OrangutanPushbuttons12waitForPressEh>:
    2d10:	1f 93       	push	r17
    2d12:	cf 93       	push	r28
    2d14:	df 93       	push	r29
    2d16:	18 2f       	mov	r17, r24
    2d18:	0e 94 d3 14 	call	0x29a6	; 0x29a6 <_ZN20OrangutanPushbuttons4initEv>
    2d1c:	c1 2f       	mov	r28, r17
    2d1e:	d0 e0       	ldi	r29, 0x00	; 0
    2d20:	83 b1       	in	r24, 0x03	; 3
    2d22:	90 e0       	ldi	r25, 0x00	; 0
    2d24:	80 95       	com	r24
    2d26:	90 95       	com	r25
    2d28:	8c 23       	and	r24, r28
    2d2a:	9d 23       	and	r25, r29
    2d2c:	89 2b       	or	r24, r25
    2d2e:	c1 f3       	breq	.-16     	; 0x2d20 <_ZN20OrangutanPushbuttons12waitForPressEh+0x10>
    2d30:	8a e0       	ldi	r24, 0x0A	; 10
    2d32:	90 e0       	ldi	r25, 0x00	; 0
    2d34:	0e 94 38 17 	call	0x2e70	; 0x2e70 <_ZN13OrangutanTime17delayMillisecondsEj>
    2d38:	83 b1       	in	r24, 0x03	; 3
    2d3a:	90 e0       	ldi	r25, 0x00	; 0
    2d3c:	80 95       	com	r24
    2d3e:	90 95       	com	r25
    2d40:	8c 23       	and	r24, r28
    2d42:	9d 23       	and	r25, r29
    2d44:	89 2b       	or	r24, r25
    2d46:	61 f3       	breq	.-40     	; 0x2d20 <_ZN20OrangutanPushbuttons12waitForPressEh+0x10>
    2d48:	83 b1       	in	r24, 0x03	; 3
    2d4a:	80 95       	com	r24
    2d4c:	81 23       	and	r24, r17
    2d4e:	df 91       	pop	r29
    2d50:	cf 91       	pop	r28
    2d52:	1f 91       	pop	r17
    2d54:	08 95       	ret

00002d56 <_ZN20OrangutanPushbuttons13waitForButtonEh>:
    2d56:	1f 93       	push	r17
    2d58:	0e 94 88 16 	call	0x2d10	; 0x2d10 <_ZN20OrangutanPushbuttons12waitForPressEh>
    2d5c:	18 2f       	mov	r17, r24
    2d5e:	0e 94 67 16 	call	0x2cce	; 0x2cce <_ZN20OrangutanPushbuttons14waitForReleaseEh>
    2d62:	81 2f       	mov	r24, r17
    2d64:	1f 91       	pop	r17
    2d66:	08 95       	ret

00002d68 <wait_for_button>:
    2d68:	0e 94 ab 16 	call	0x2d56	; 0x2d56 <_ZN20OrangutanPushbuttons13waitForButtonEh>
    2d6c:	08 95       	ret

00002d6e <wait_for_button_press>:
    2d6e:	0e 94 88 16 	call	0x2d10	; 0x2d10 <_ZN20OrangutanPushbuttons12waitForPressEh>
    2d72:	08 95       	ret

00002d74 <_ZN18OrangutanResourcesC2Ev>:
    2d74:	08 95       	ret

00002d76 <_ZN18OrangutanResourcesC1Ev>:
    2d76:	08 95       	ret

00002d78 <_ZN18OrangutanResources10getFreeRAMEv>:
    2d78:	a2 e0       	ldi	r26, 0x02	; 2
    2d7a:	b0 e0       	ldi	r27, 0x00	; 0
    2d7c:	e2 ec       	ldi	r30, 0xC2	; 194
    2d7e:	f6 e1       	ldi	r31, 0x16	; 22
    2d80:	0c 94 72 18 	jmp	0x30e4	; 0x30e4 <__prologue_saves__+0x20>
    2d84:	20 91 b5 02 	lds	r18, 0x02B5
    2d88:	30 91 b6 02 	lds	r19, 0x02B6
    2d8c:	ce 01       	movw	r24, r28
    2d8e:	01 96       	adiw	r24, 0x01	; 1
    2d90:	21 15       	cp	r18, r1
    2d92:	31 05       	cpc	r19, r1
    2d94:	19 f4       	brne	.+6      	; 0x2d9c <_ZN18OrangutanResources10getFreeRAMEv+0x24>
    2d96:	8f 5b       	subi	r24, 0xBF	; 191
    2d98:	92 40       	sbci	r25, 0x02	; 2
    2d9a:	02 c0       	rjmp	.+4      	; 0x2da0 <_ZN18OrangutanResources10getFreeRAMEv+0x28>
    2d9c:	82 1b       	sub	r24, r18
    2d9e:	93 0b       	sbc	r25, r19
    2da0:	9a 83       	std	Y+2, r25	; 0x02
    2da2:	89 83       	std	Y+1, r24	; 0x01
    2da4:	89 81       	ldd	r24, Y+1	; 0x01
    2da6:	9a 81       	ldd	r25, Y+2	; 0x02
    2da8:	22 96       	adiw	r28, 0x02	; 2
    2daa:	e2 e0       	ldi	r30, 0x02	; 2
    2dac:	0c 94 8e 18 	jmp	0x311c	; 0x311c <__epilogue_restores__+0x20>

00002db0 <get_free_ram>:
    2db0:	0e 94 bc 16 	call	0x2d78	; 0x2d78 <_ZN18OrangutanResources10getFreeRAMEv>
    2db4:	08 95       	ret

00002db6 <__vector_9>:
    2db6:	2f 92       	push	r2
    2db8:	8f 93       	push	r24
    2dba:	9f 93       	push	r25
    2dbc:	2f b6       	in	r2, 0x3f	; 63
    2dbe:	80 91 ab 02 	lds	r24, 0x02AB
    2dc2:	90 91 ac 02 	lds	r25, 0x02AC
    2dc6:	01 96       	adiw	r24, 0x01	; 1
    2dc8:	80 93 ab 02 	sts	0x02AB, r24
    2dcc:	90 93 ac 02 	sts	0x02AC, r25
    2dd0:	90 e0       	ldi	r25, 0x00	; 0
    2dd2:	80 91 ad 02 	lds	r24, 0x02AD
    2dd6:	89 1f       	adc	r24, r25
    2dd8:	80 93 ad 02 	sts	0x02AD, r24
    2ddc:	90 91 b3 02 	lds	r25, 0x02B3
    2de0:	9c 5f       	subi	r25, 0xFC	; 252
    2de2:	90 93 b3 02 	sts	0x02B3, r25
    2de6:	80 91 b2 02 	lds	r24, 0x02B2
    2dea:	80 51       	subi	r24, 0x10	; 16
    2dec:	97 42       	sbci	r25, 0x27	; 39
    2dee:	c0 f0       	brcs	.+48     	; 0x2e20 <end>
    2df0:	90 93 b3 02 	sts	0x02B3, r25
    2df4:	80 93 b2 02 	sts	0x02B2, r24
    2df8:	80 91 ae 02 	lds	r24, 0x02AE
    2dfc:	90 91 af 02 	lds	r25, 0x02AF
    2e00:	01 96       	adiw	r24, 0x01	; 1
    2e02:	80 93 ae 02 	sts	0x02AE, r24
    2e06:	90 93 af 02 	sts	0x02AF, r25
    2e0a:	90 e0       	ldi	r25, 0x00	; 0
    2e0c:	80 91 b0 02 	lds	r24, 0x02B0
    2e10:	89 1f       	adc	r24, r25
    2e12:	80 93 b0 02 	sts	0x02B0, r24
    2e16:	80 91 b1 02 	lds	r24, 0x02B1
    2e1a:	89 1f       	adc	r24, r25
    2e1c:	80 93 b1 02 	sts	0x02B1, r24

00002e20 <end>:
    2e20:	2f be       	out	0x3f, r2	; 63
    2e22:	9f 91       	pop	r25
    2e24:	8f 91       	pop	r24
    2e26:	2f 90       	pop	r2
    2e28:	18 95       	reti

00002e2a <delay_ms>:
    2e2a:	28 ee       	ldi	r18, 0xE8	; 232
    2e2c:	33 e0       	ldi	r19, 0x03	; 3
    2e2e:	09 c0       	rjmp	.+18     	; 0x2e42 <delay_ms+0x18>
    2e30:	f9 01       	movw	r30, r18
    2e32:	6f 93       	push	r22
    2e34:	64 e0       	ldi	r22, 0x04	; 4
    2e36:	6a 95       	dec	r22
    2e38:	f1 f7       	brne	.-4      	; 0x2e36 <delay_ms+0xc>
    2e3a:	6f 91       	pop	r22
    2e3c:	31 97       	sbiw	r30, 0x01	; 1
    2e3e:	c9 f7       	brne	.-14     	; 0x2e32 <delay_ms+0x8>
    2e40:	01 97       	sbiw	r24, 0x01	; 1
    2e42:	00 97       	sbiw	r24, 0x00	; 0
    2e44:	a9 f7       	brne	.-22     	; 0x2e30 <delay_ms+0x6>
    2e46:	08 95       	ret

00002e48 <_ZN13OrangutanTime19ticksToMicrosecondsEm>:
    2e48:	6f 5f       	subi	r22, 0xFF	; 255
    2e4a:	7f 4f       	sbci	r23, 0xFF	; 255
    2e4c:	8f 4f       	sbci	r24, 0xFF	; 255
    2e4e:	9f 4f       	sbci	r25, 0xFF	; 255
    2e50:	66 0f       	add	r22, r22
    2e52:	77 1f       	adc	r23, r23
    2e54:	88 1f       	adc	r24, r24
    2e56:	99 1f       	adc	r25, r25
    2e58:	25 e0       	ldi	r18, 0x05	; 5
    2e5a:	30 e0       	ldi	r19, 0x00	; 0
    2e5c:	40 e0       	ldi	r20, 0x00	; 0
    2e5e:	50 e0       	ldi	r21, 0x00	; 0
    2e60:	0e 94 25 18 	call	0x304a	; 0x304a <__udivmodsi4>
    2e64:	ca 01       	movw	r24, r20
    2e66:	b9 01       	movw	r22, r18
    2e68:	08 95       	ret

00002e6a <ticks_to_microseconds>:
    2e6a:	0e 94 24 17 	call	0x2e48	; 0x2e48 <_ZN13OrangutanTime19ticksToMicrosecondsEm>
    2e6e:	08 95       	ret

00002e70 <_ZN13OrangutanTime17delayMillisecondsEj>:
    2e70:	28 ee       	ldi	r18, 0xE8	; 232
    2e72:	33 e0       	ldi	r19, 0x03	; 3
    2e74:	09 c0       	rjmp	.+18     	; 0x2e88 <_ZN13OrangutanTime17delayMillisecondsEj+0x18>
    2e76:	f9 01       	movw	r30, r18
    2e78:	6f 93       	push	r22
    2e7a:	64 e0       	ldi	r22, 0x04	; 4
    2e7c:	6a 95       	dec	r22
    2e7e:	f1 f7       	brne	.-4      	; 0x2e7c <_ZN13OrangutanTime17delayMillisecondsEj+0xc>
    2e80:	6f 91       	pop	r22
    2e82:	31 97       	sbiw	r30, 0x01	; 1
    2e84:	c9 f7       	brne	.-14     	; 0x2e78 <_ZN13OrangutanTime17delayMillisecondsEj+0x8>
    2e86:	01 97       	sbiw	r24, 0x01	; 1
    2e88:	00 97       	sbiw	r24, 0x00	; 0
    2e8a:	a9 f7       	brne	.-22     	; 0x2e76 <_ZN13OrangutanTime17delayMillisecondsEj+0x6>
    2e8c:	08 95       	ret

00002e8e <_ZN13OrangutanTime5init2Ev>:
    2e8e:	a0 e7       	ldi	r26, 0x70	; 112
    2e90:	b0 e0       	ldi	r27, 0x00	; 0
    2e92:	8c 91       	ld	r24, X
    2e94:	8e 7f       	andi	r24, 0xFE	; 254
    2e96:	8c 93       	st	X, r24
    2e98:	e0 eb       	ldi	r30, 0xB0	; 176
    2e9a:	f0 e0       	ldi	r31, 0x00	; 0
    2e9c:	80 81       	ld	r24, Z
    2e9e:	83 60       	ori	r24, 0x03	; 3
    2ea0:	80 83       	st	Z, r24
    2ea2:	e1 eb       	ldi	r30, 0xB1	; 177
    2ea4:	f0 e0       	ldi	r31, 0x00	; 0
    2ea6:	80 81       	ld	r24, Z
    2ea8:	80 7f       	andi	r24, 0xF0	; 240
    2eaa:	80 83       	st	Z, r24
    2eac:	80 81       	ld	r24, Z
    2eae:	82 60       	ori	r24, 0x02	; 2
    2eb0:	80 83       	st	Z, r24
    2eb2:	b8 9a       	sbi	0x17, 0	; 23
    2eb4:	8c 91       	ld	r24, X
    2eb6:	81 60       	ori	r24, 0x01	; 1
    2eb8:	8c 93       	st	X, r24
    2eba:	78 94       	sei
    2ebc:	08 95       	ret

00002ebe <_ZN13OrangutanTime4initEv>:
    2ebe:	80 91 b4 02 	lds	r24, 0x02B4
    2ec2:	88 23       	and	r24, r24
    2ec4:	29 f4       	brne	.+10     	; 0x2ed0 <_ZN13OrangutanTime4initEv+0x12>
    2ec6:	81 e0       	ldi	r24, 0x01	; 1
    2ec8:	80 93 b4 02 	sts	0x02B4, r24
    2ecc:	0e 94 47 17 	call	0x2e8e	; 0x2e8e <_ZN13OrangutanTime5init2Ev>
    2ed0:	08 95       	ret

00002ed2 <_ZN13OrangutanTime2msEv>:
    2ed2:	0e 94 5f 17 	call	0x2ebe	; 0x2ebe <_ZN13OrangutanTime4initEv>
    2ed6:	e0 e7       	ldi	r30, 0x70	; 112
    2ed8:	f0 e0       	ldi	r31, 0x00	; 0
    2eda:	80 81       	ld	r24, Z
    2edc:	8e 7f       	andi	r24, 0xFE	; 254
    2ede:	80 83       	st	Z, r24
    2ee0:	20 91 ae 02 	lds	r18, 0x02AE
    2ee4:	30 91 af 02 	lds	r19, 0x02AF
    2ee8:	40 91 b0 02 	lds	r20, 0x02B0
    2eec:	50 91 b1 02 	lds	r21, 0x02B1
    2ef0:	80 81       	ld	r24, Z
    2ef2:	81 60       	ori	r24, 0x01	; 1
    2ef4:	80 83       	st	Z, r24
    2ef6:	b9 01       	movw	r22, r18
    2ef8:	ca 01       	movw	r24, r20
    2efa:	08 95       	ret

00002efc <get_ms>:
    2efc:	0e 94 69 17 	call	0x2ed2	; 0x2ed2 <_ZN13OrangutanTime2msEv>
    2f00:	08 95       	ret

00002f02 <_ZN13OrangutanTime5ticksEv>:
    2f02:	0e 94 5f 17 	call	0x2ebe	; 0x2ebe <_ZN13OrangutanTime4initEv>
    2f06:	80 91 70 00 	lds	r24, 0x0070
    2f0a:	8e 7f       	andi	r24, 0xFE	; 254
    2f0c:	80 93 70 00 	sts	0x0070, r24
    2f10:	60 91 b2 00 	lds	r22, 0x00B2
    2f14:	80 91 aa 02 	lds	r24, 0x02AA
    2f18:	90 91 ab 02 	lds	r25, 0x02AB
    2f1c:	a0 91 ac 02 	lds	r26, 0x02AC
    2f20:	b0 91 ad 02 	lds	r27, 0x02AD
    2f24:	b8 99       	sbic	0x17, 0	; 23
    2f26:	05 c0       	rjmp	.+10     	; 0x2f32 <_ZN13OrangutanTime5ticksEv+0x30>
    2f28:	26 2f       	mov	r18, r22
    2f2a:	30 e0       	ldi	r19, 0x00	; 0
    2f2c:	40 e0       	ldi	r20, 0x00	; 0
    2f2e:	50 e0       	ldi	r21, 0x00	; 0
    2f30:	11 c0       	rjmp	.+34     	; 0x2f54 <_ZN13OrangutanTime5ticksEv+0x52>
    2f32:	80 91 b2 00 	lds	r24, 0x00B2
    2f36:	20 91 aa 02 	lds	r18, 0x02AA
    2f3a:	30 91 ab 02 	lds	r19, 0x02AB
    2f3e:	40 91 ac 02 	lds	r20, 0x02AC
    2f42:	50 91 ad 02 	lds	r21, 0x02AD
    2f46:	20 50       	subi	r18, 0x00	; 0
    2f48:	3f 4f       	sbci	r19, 0xFF	; 255
    2f4a:	4f 4f       	sbci	r20, 0xFF	; 255
    2f4c:	5f 4f       	sbci	r21, 0xFF	; 255
    2f4e:	90 e0       	ldi	r25, 0x00	; 0
    2f50:	a0 e0       	ldi	r26, 0x00	; 0
    2f52:	b0 e0       	ldi	r27, 0x00	; 0
    2f54:	28 2b       	or	r18, r24
    2f56:	39 2b       	or	r19, r25
    2f58:	4a 2b       	or	r20, r26
    2f5a:	5b 2b       	or	r21, r27
    2f5c:	80 91 70 00 	lds	r24, 0x0070
    2f60:	81 60       	ori	r24, 0x01	; 1
    2f62:	80 93 70 00 	sts	0x0070, r24
    2f66:	b9 01       	movw	r22, r18
    2f68:	ca 01       	movw	r24, r20
    2f6a:	08 95       	ret

00002f6c <get_ticks>:
    2f6c:	0e 94 81 17 	call	0x2f02	; 0x2f02 <_ZN13OrangutanTime5ticksEv>
    2f70:	08 95       	ret

00002f72 <_ZN13OrangutanTime5resetEv>:
    2f72:	0e 94 5f 17 	call	0x2ebe	; 0x2ebe <_ZN13OrangutanTime4initEv>
    2f76:	e0 e7       	ldi	r30, 0x70	; 112
    2f78:	f0 e0       	ldi	r31, 0x00	; 0
    2f7a:	80 81       	ld	r24, Z
    2f7c:	8e 7f       	andi	r24, 0xFE	; 254
    2f7e:	80 83       	st	Z, r24
    2f80:	10 92 ae 02 	sts	0x02AE, r1
    2f84:	10 92 af 02 	sts	0x02AF, r1
    2f88:	10 92 b0 02 	sts	0x02B0, r1
    2f8c:	10 92 b1 02 	sts	0x02B1, r1
    2f90:	10 92 b3 02 	sts	0x02B3, r1
    2f94:	10 92 b2 02 	sts	0x02B2, r1
    2f98:	80 81       	ld	r24, Z
    2f9a:	81 60       	ori	r24, 0x01	; 1
    2f9c:	80 83       	st	Z, r24
    2f9e:	08 95       	ret

00002fa0 <time_reset>:
    2fa0:	0e 94 b9 17 	call	0x2f72	; 0x2f72 <_ZN13OrangutanTime5resetEv>
    2fa4:	08 95       	ret

00002fa6 <__mulsi3>:
    2fa6:	62 9f       	mul	r22, r18
    2fa8:	d0 01       	movw	r26, r0
    2faa:	73 9f       	mul	r23, r19
    2fac:	f0 01       	movw	r30, r0
    2fae:	82 9f       	mul	r24, r18
    2fb0:	e0 0d       	add	r30, r0
    2fb2:	f1 1d       	adc	r31, r1
    2fb4:	64 9f       	mul	r22, r20
    2fb6:	e0 0d       	add	r30, r0
    2fb8:	f1 1d       	adc	r31, r1
    2fba:	92 9f       	mul	r25, r18
    2fbc:	f0 0d       	add	r31, r0
    2fbe:	83 9f       	mul	r24, r19
    2fc0:	f0 0d       	add	r31, r0
    2fc2:	74 9f       	mul	r23, r20
    2fc4:	f0 0d       	add	r31, r0
    2fc6:	65 9f       	mul	r22, r21
    2fc8:	f0 0d       	add	r31, r0
    2fca:	99 27       	eor	r25, r25
    2fcc:	72 9f       	mul	r23, r18
    2fce:	b0 0d       	add	r27, r0
    2fd0:	e1 1d       	adc	r30, r1
    2fd2:	f9 1f       	adc	r31, r25
    2fd4:	63 9f       	mul	r22, r19
    2fd6:	b0 0d       	add	r27, r0
    2fd8:	e1 1d       	adc	r30, r1
    2fda:	f9 1f       	adc	r31, r25
    2fdc:	bd 01       	movw	r22, r26
    2fde:	cf 01       	movw	r24, r30
    2fe0:	11 24       	eor	r1, r1
    2fe2:	08 95       	ret

00002fe4 <__udivmodqi4>:
    2fe4:	99 1b       	sub	r25, r25
    2fe6:	79 e0       	ldi	r23, 0x09	; 9
    2fe8:	04 c0       	rjmp	.+8      	; 0x2ff2 <__udivmodqi4_ep>

00002fea <__udivmodqi4_loop>:
    2fea:	99 1f       	adc	r25, r25
    2fec:	96 17       	cp	r25, r22
    2fee:	08 f0       	brcs	.+2      	; 0x2ff2 <__udivmodqi4_ep>
    2ff0:	96 1b       	sub	r25, r22

00002ff2 <__udivmodqi4_ep>:
    2ff2:	88 1f       	adc	r24, r24
    2ff4:	7a 95       	dec	r23
    2ff6:	c9 f7       	brne	.-14     	; 0x2fea <__udivmodqi4_loop>
    2ff8:	80 95       	com	r24
    2ffa:	08 95       	ret

00002ffc <__udivmodhi4>:
    2ffc:	aa 1b       	sub	r26, r26
    2ffe:	bb 1b       	sub	r27, r27
    3000:	51 e1       	ldi	r21, 0x11	; 17
    3002:	07 c0       	rjmp	.+14     	; 0x3012 <__udivmodhi4_ep>

00003004 <__udivmodhi4_loop>:
    3004:	aa 1f       	adc	r26, r26
    3006:	bb 1f       	adc	r27, r27
    3008:	a6 17       	cp	r26, r22
    300a:	b7 07       	cpc	r27, r23
    300c:	10 f0       	brcs	.+4      	; 0x3012 <__udivmodhi4_ep>
    300e:	a6 1b       	sub	r26, r22
    3010:	b7 0b       	sbc	r27, r23

00003012 <__udivmodhi4_ep>:
    3012:	88 1f       	adc	r24, r24
    3014:	99 1f       	adc	r25, r25
    3016:	5a 95       	dec	r21
    3018:	a9 f7       	brne	.-22     	; 0x3004 <__udivmodhi4_loop>
    301a:	80 95       	com	r24
    301c:	90 95       	com	r25
    301e:	bc 01       	movw	r22, r24
    3020:	cd 01       	movw	r24, r26
    3022:	08 95       	ret

00003024 <__divmodhi4>:
    3024:	97 fb       	bst	r25, 7
    3026:	09 2e       	mov	r0, r25
    3028:	07 26       	eor	r0, r23
    302a:	0a d0       	rcall	.+20     	; 0x3040 <__divmodhi4_neg1>
    302c:	77 fd       	sbrc	r23, 7
    302e:	04 d0       	rcall	.+8      	; 0x3038 <__divmodhi4_neg2>
    3030:	e5 df       	rcall	.-54     	; 0x2ffc <__udivmodhi4>
    3032:	06 d0       	rcall	.+12     	; 0x3040 <__divmodhi4_neg1>
    3034:	00 20       	and	r0, r0
    3036:	1a f4       	brpl	.+6      	; 0x303e <__divmodhi4_exit>

00003038 <__divmodhi4_neg2>:
    3038:	70 95       	com	r23
    303a:	61 95       	neg	r22
    303c:	7f 4f       	sbci	r23, 0xFF	; 255

0000303e <__divmodhi4_exit>:
    303e:	08 95       	ret

00003040 <__divmodhi4_neg1>:
    3040:	f6 f7       	brtc	.-4      	; 0x303e <__divmodhi4_exit>
    3042:	90 95       	com	r25
    3044:	81 95       	neg	r24
    3046:	9f 4f       	sbci	r25, 0xFF	; 255
    3048:	08 95       	ret

0000304a <__udivmodsi4>:
    304a:	a1 e2       	ldi	r26, 0x21	; 33
    304c:	1a 2e       	mov	r1, r26
    304e:	aa 1b       	sub	r26, r26
    3050:	bb 1b       	sub	r27, r27
    3052:	fd 01       	movw	r30, r26
    3054:	0d c0       	rjmp	.+26     	; 0x3070 <__udivmodsi4_ep>

00003056 <__udivmodsi4_loop>:
    3056:	aa 1f       	adc	r26, r26
    3058:	bb 1f       	adc	r27, r27
    305a:	ee 1f       	adc	r30, r30
    305c:	ff 1f       	adc	r31, r31
    305e:	a2 17       	cp	r26, r18
    3060:	b3 07       	cpc	r27, r19
    3062:	e4 07       	cpc	r30, r20
    3064:	f5 07       	cpc	r31, r21
    3066:	20 f0       	brcs	.+8      	; 0x3070 <__udivmodsi4_ep>
    3068:	a2 1b       	sub	r26, r18
    306a:	b3 0b       	sbc	r27, r19
    306c:	e4 0b       	sbc	r30, r20
    306e:	f5 0b       	sbc	r31, r21

00003070 <__udivmodsi4_ep>:
    3070:	66 1f       	adc	r22, r22
    3072:	77 1f       	adc	r23, r23
    3074:	88 1f       	adc	r24, r24
    3076:	99 1f       	adc	r25, r25
    3078:	1a 94       	dec	r1
    307a:	69 f7       	brne	.-38     	; 0x3056 <__udivmodsi4_loop>
    307c:	60 95       	com	r22
    307e:	70 95       	com	r23
    3080:	80 95       	com	r24
    3082:	90 95       	com	r25
    3084:	9b 01       	movw	r18, r22
    3086:	ac 01       	movw	r20, r24
    3088:	bd 01       	movw	r22, r26
    308a:	cf 01       	movw	r24, r30
    308c:	08 95       	ret

0000308e <__divmodsi4>:
    308e:	97 fb       	bst	r25, 7
    3090:	09 2e       	mov	r0, r25
    3092:	05 26       	eor	r0, r21
    3094:	0e d0       	rcall	.+28     	; 0x30b2 <__divmodsi4_neg1>
    3096:	57 fd       	sbrc	r21, 7
    3098:	04 d0       	rcall	.+8      	; 0x30a2 <__divmodsi4_neg2>
    309a:	d7 df       	rcall	.-82     	; 0x304a <__udivmodsi4>
    309c:	0a d0       	rcall	.+20     	; 0x30b2 <__divmodsi4_neg1>
    309e:	00 1c       	adc	r0, r0
    30a0:	38 f4       	brcc	.+14     	; 0x30b0 <__divmodsi4_exit>

000030a2 <__divmodsi4_neg2>:
    30a2:	50 95       	com	r21
    30a4:	40 95       	com	r20
    30a6:	30 95       	com	r19
    30a8:	21 95       	neg	r18
    30aa:	3f 4f       	sbci	r19, 0xFF	; 255
    30ac:	4f 4f       	sbci	r20, 0xFF	; 255
    30ae:	5f 4f       	sbci	r21, 0xFF	; 255

000030b0 <__divmodsi4_exit>:
    30b0:	08 95       	ret

000030b2 <__divmodsi4_neg1>:
    30b2:	f6 f7       	brtc	.-4      	; 0x30b0 <__divmodsi4_exit>
    30b4:	90 95       	com	r25
    30b6:	80 95       	com	r24
    30b8:	70 95       	com	r23
    30ba:	61 95       	neg	r22
    30bc:	7f 4f       	sbci	r23, 0xFF	; 255
    30be:	8f 4f       	sbci	r24, 0xFF	; 255
    30c0:	9f 4f       	sbci	r25, 0xFF	; 255
    30c2:	08 95       	ret

000030c4 <__prologue_saves__>:
    30c4:	2f 92       	push	r2
    30c6:	3f 92       	push	r3
    30c8:	4f 92       	push	r4
    30ca:	5f 92       	push	r5
    30cc:	6f 92       	push	r6
    30ce:	7f 92       	push	r7
    30d0:	8f 92       	push	r8
    30d2:	9f 92       	push	r9
    30d4:	af 92       	push	r10
    30d6:	bf 92       	push	r11
    30d8:	cf 92       	push	r12
    30da:	df 92       	push	r13
    30dc:	ef 92       	push	r14
    30de:	ff 92       	push	r15
    30e0:	0f 93       	push	r16
    30e2:	1f 93       	push	r17
    30e4:	cf 93       	push	r28
    30e6:	df 93       	push	r29
    30e8:	cd b7       	in	r28, 0x3d	; 61
    30ea:	de b7       	in	r29, 0x3e	; 62
    30ec:	ca 1b       	sub	r28, r26
    30ee:	db 0b       	sbc	r29, r27
    30f0:	0f b6       	in	r0, 0x3f	; 63
    30f2:	f8 94       	cli
    30f4:	de bf       	out	0x3e, r29	; 62
    30f6:	0f be       	out	0x3f, r0	; 63
    30f8:	cd bf       	out	0x3d, r28	; 61
    30fa:	09 94       	ijmp

000030fc <__epilogue_restores__>:
    30fc:	2a 88       	ldd	r2, Y+18	; 0x12
    30fe:	39 88       	ldd	r3, Y+17	; 0x11
    3100:	48 88       	ldd	r4, Y+16	; 0x10
    3102:	5f 84       	ldd	r5, Y+15	; 0x0f
    3104:	6e 84       	ldd	r6, Y+14	; 0x0e
    3106:	7d 84       	ldd	r7, Y+13	; 0x0d
    3108:	8c 84       	ldd	r8, Y+12	; 0x0c
    310a:	9b 84       	ldd	r9, Y+11	; 0x0b
    310c:	aa 84       	ldd	r10, Y+10	; 0x0a
    310e:	b9 84       	ldd	r11, Y+9	; 0x09
    3110:	c8 84       	ldd	r12, Y+8	; 0x08
    3112:	df 80       	ldd	r13, Y+7	; 0x07
    3114:	ee 80       	ldd	r14, Y+6	; 0x06
    3116:	fd 80       	ldd	r15, Y+5	; 0x05
    3118:	0c 81       	ldd	r16, Y+4	; 0x04
    311a:	1b 81       	ldd	r17, Y+3	; 0x03
    311c:	aa 81       	ldd	r26, Y+2	; 0x02
    311e:	b9 81       	ldd	r27, Y+1	; 0x01
    3120:	ce 0f       	add	r28, r30
    3122:	d1 1d       	adc	r29, r1
    3124:	0f b6       	in	r0, 0x3f	; 63
    3126:	f8 94       	cli
    3128:	de bf       	out	0x3e, r29	; 62
    312a:	0f be       	out	0x3f, r0	; 63
    312c:	cd bf       	out	0x3d, r28	; 61
    312e:	ed 01       	movw	r28, r26
    3130:	08 95       	ret

00003132 <__tablejump2__>:
    3132:	ee 0f       	add	r30, r30
    3134:	ff 1f       	adc	r31, r31

00003136 <__tablejump__>:
    3136:	05 90       	lpm	r0, Z+
    3138:	f4 91       	lpm	r31, Z+
    313a:	e0 2d       	mov	r30, r0
    313c:	09 94       	ijmp

0000313e <malloc>:
    313e:	cf 93       	push	r28
    3140:	df 93       	push	r29
    3142:	bc 01       	movw	r22, r24
    3144:	82 30       	cpi	r24, 0x02	; 2
    3146:	91 05       	cpc	r25, r1
    3148:	10 f4       	brcc	.+4      	; 0x314e <malloc+0x10>
    314a:	62 e0       	ldi	r22, 0x02	; 2
    314c:	70 e0       	ldi	r23, 0x00	; 0
    314e:	a0 91 b7 02 	lds	r26, 0x02B7
    3152:	b0 91 b8 02 	lds	r27, 0x02B8
    3156:	ed 01       	movw	r28, r26
    3158:	e0 e0       	ldi	r30, 0x00	; 0
    315a:	f0 e0       	ldi	r31, 0x00	; 0
    315c:	40 e0       	ldi	r20, 0x00	; 0
    315e:	50 e0       	ldi	r21, 0x00	; 0
    3160:	21 c0       	rjmp	.+66     	; 0x31a4 <malloc+0x66>
    3162:	88 81       	ld	r24, Y
    3164:	99 81       	ldd	r25, Y+1	; 0x01
    3166:	86 17       	cp	r24, r22
    3168:	97 07       	cpc	r25, r23
    316a:	69 f4       	brne	.+26     	; 0x3186 <malloc+0x48>
    316c:	8a 81       	ldd	r24, Y+2	; 0x02
    316e:	9b 81       	ldd	r25, Y+3	; 0x03
    3170:	30 97       	sbiw	r30, 0x00	; 0
    3172:	19 f0       	breq	.+6      	; 0x317a <malloc+0x3c>
    3174:	93 83       	std	Z+3, r25	; 0x03
    3176:	82 83       	std	Z+2, r24	; 0x02
    3178:	04 c0       	rjmp	.+8      	; 0x3182 <malloc+0x44>
    317a:	90 93 b8 02 	sts	0x02B8, r25
    317e:	80 93 b7 02 	sts	0x02B7, r24
    3182:	fe 01       	movw	r30, r28
    3184:	34 c0       	rjmp	.+104    	; 0x31ee <malloc+0xb0>
    3186:	68 17       	cp	r22, r24
    3188:	79 07       	cpc	r23, r25
    318a:	38 f4       	brcc	.+14     	; 0x319a <malloc+0x5c>
    318c:	41 15       	cp	r20, r1
    318e:	51 05       	cpc	r21, r1
    3190:	19 f0       	breq	.+6      	; 0x3198 <malloc+0x5a>
    3192:	84 17       	cp	r24, r20
    3194:	95 07       	cpc	r25, r21
    3196:	08 f4       	brcc	.+2      	; 0x319a <malloc+0x5c>
    3198:	ac 01       	movw	r20, r24
    319a:	fe 01       	movw	r30, r28
    319c:	8a 81       	ldd	r24, Y+2	; 0x02
    319e:	9b 81       	ldd	r25, Y+3	; 0x03
    31a0:	9c 01       	movw	r18, r24
    31a2:	e9 01       	movw	r28, r18
    31a4:	20 97       	sbiw	r28, 0x00	; 0
    31a6:	e9 f6       	brne	.-70     	; 0x3162 <malloc+0x24>
    31a8:	41 15       	cp	r20, r1
    31aa:	51 05       	cpc	r21, r1
    31ac:	a9 f1       	breq	.+106    	; 0x3218 <malloc+0xda>
    31ae:	ca 01       	movw	r24, r20
    31b0:	86 1b       	sub	r24, r22
    31b2:	97 0b       	sbc	r25, r23
    31b4:	04 97       	sbiw	r24, 0x04	; 4
    31b6:	08 f4       	brcc	.+2      	; 0x31ba <malloc+0x7c>
    31b8:	ba 01       	movw	r22, r20
    31ba:	e0 e0       	ldi	r30, 0x00	; 0
    31bc:	f0 e0       	ldi	r31, 0x00	; 0
    31be:	2a c0       	rjmp	.+84     	; 0x3214 <malloc+0xd6>
    31c0:	8d 91       	ld	r24, X+
    31c2:	9c 91       	ld	r25, X
    31c4:	11 97       	sbiw	r26, 0x01	; 1
    31c6:	84 17       	cp	r24, r20
    31c8:	95 07       	cpc	r25, r21
    31ca:	f9 f4       	brne	.+62     	; 0x320a <malloc+0xcc>
    31cc:	64 17       	cp	r22, r20
    31ce:	75 07       	cpc	r23, r21
    31d0:	81 f4       	brne	.+32     	; 0x31f2 <malloc+0xb4>
    31d2:	12 96       	adiw	r26, 0x02	; 2
    31d4:	8d 91       	ld	r24, X+
    31d6:	9c 91       	ld	r25, X
    31d8:	13 97       	sbiw	r26, 0x03	; 3
    31da:	30 97       	sbiw	r30, 0x00	; 0
    31dc:	19 f0       	breq	.+6      	; 0x31e4 <malloc+0xa6>
    31de:	93 83       	std	Z+3, r25	; 0x03
    31e0:	82 83       	std	Z+2, r24	; 0x02
    31e2:	04 c0       	rjmp	.+8      	; 0x31ec <malloc+0xae>
    31e4:	90 93 b8 02 	sts	0x02B8, r25
    31e8:	80 93 b7 02 	sts	0x02B7, r24
    31ec:	fd 01       	movw	r30, r26
    31ee:	32 96       	adiw	r30, 0x02	; 2
    31f0:	4f c0       	rjmp	.+158    	; 0x3290 <malloc+0x152>
    31f2:	ca 01       	movw	r24, r20
    31f4:	86 1b       	sub	r24, r22
    31f6:	97 0b       	sbc	r25, r23
    31f8:	fd 01       	movw	r30, r26
    31fa:	e8 0f       	add	r30, r24
    31fc:	f9 1f       	adc	r31, r25
    31fe:	61 93       	st	Z+, r22
    3200:	71 93       	st	Z+, r23
    3202:	02 97       	sbiw	r24, 0x02	; 2
    3204:	8d 93       	st	X+, r24
    3206:	9c 93       	st	X, r25
    3208:	43 c0       	rjmp	.+134    	; 0x3290 <malloc+0x152>
    320a:	fd 01       	movw	r30, r26
    320c:	82 81       	ldd	r24, Z+2	; 0x02
    320e:	93 81       	ldd	r25, Z+3	; 0x03
    3210:	9c 01       	movw	r18, r24
    3212:	d9 01       	movw	r26, r18
    3214:	10 97       	sbiw	r26, 0x00	; 0
    3216:	a1 f6       	brne	.-88     	; 0x31c0 <malloc+0x82>
    3218:	80 91 b5 02 	lds	r24, 0x02B5
    321c:	90 91 b6 02 	lds	r25, 0x02B6
    3220:	89 2b       	or	r24, r25
    3222:	41 f4       	brne	.+16     	; 0x3234 <malloc+0xf6>
    3224:	80 91 85 02 	lds	r24, 0x0285
    3228:	90 91 86 02 	lds	r25, 0x0286
    322c:	90 93 b6 02 	sts	0x02B6, r25
    3230:	80 93 b5 02 	sts	0x02B5, r24
    3234:	40 91 87 02 	lds	r20, 0x0287
    3238:	50 91 88 02 	lds	r21, 0x0288
    323c:	41 15       	cp	r20, r1
    323e:	51 05       	cpc	r21, r1
    3240:	41 f4       	brne	.+16     	; 0x3252 <malloc+0x114>
    3242:	4d b7       	in	r20, 0x3d	; 61
    3244:	5e b7       	in	r21, 0x3e	; 62
    3246:	80 91 83 02 	lds	r24, 0x0283
    324a:	90 91 84 02 	lds	r25, 0x0284
    324e:	48 1b       	sub	r20, r24
    3250:	59 0b       	sbc	r21, r25
    3252:	20 91 b5 02 	lds	r18, 0x02B5
    3256:	30 91 b6 02 	lds	r19, 0x02B6
    325a:	24 17       	cp	r18, r20
    325c:	35 07       	cpc	r19, r21
    325e:	b0 f4       	brcc	.+44     	; 0x328c <malloc+0x14e>
    3260:	ca 01       	movw	r24, r20
    3262:	82 1b       	sub	r24, r18
    3264:	93 0b       	sbc	r25, r19
    3266:	86 17       	cp	r24, r22
    3268:	97 07       	cpc	r25, r23
    326a:	80 f0       	brcs	.+32     	; 0x328c <malloc+0x14e>
    326c:	ab 01       	movw	r20, r22
    326e:	4e 5f       	subi	r20, 0xFE	; 254
    3270:	5f 4f       	sbci	r21, 0xFF	; 255
    3272:	84 17       	cp	r24, r20
    3274:	95 07       	cpc	r25, r21
    3276:	50 f0       	brcs	.+20     	; 0x328c <malloc+0x14e>
    3278:	42 0f       	add	r20, r18
    327a:	53 1f       	adc	r21, r19
    327c:	50 93 b6 02 	sts	0x02B6, r21
    3280:	40 93 b5 02 	sts	0x02B5, r20
    3284:	f9 01       	movw	r30, r18
    3286:	61 93       	st	Z+, r22
    3288:	71 93       	st	Z+, r23
    328a:	02 c0       	rjmp	.+4      	; 0x3290 <malloc+0x152>
    328c:	e0 e0       	ldi	r30, 0x00	; 0
    328e:	f0 e0       	ldi	r31, 0x00	; 0
    3290:	cf 01       	movw	r24, r30
    3292:	df 91       	pop	r29
    3294:	cf 91       	pop	r28
    3296:	08 95       	ret

00003298 <free>:
    3298:	cf 93       	push	r28
    329a:	df 93       	push	r29
    329c:	00 97       	sbiw	r24, 0x00	; 0
    329e:	09 f4       	brne	.+2      	; 0x32a2 <free+0xa>
    32a0:	50 c0       	rjmp	.+160    	; 0x3342 <free+0xaa>
    32a2:	ec 01       	movw	r28, r24
    32a4:	22 97       	sbiw	r28, 0x02	; 2
    32a6:	1b 82       	std	Y+3, r1	; 0x03
    32a8:	1a 82       	std	Y+2, r1	; 0x02
    32aa:	a0 91 b7 02 	lds	r26, 0x02B7
    32ae:	b0 91 b8 02 	lds	r27, 0x02B8
    32b2:	10 97       	sbiw	r26, 0x00	; 0
    32b4:	09 f1       	breq	.+66     	; 0x32f8 <free+0x60>
    32b6:	40 e0       	ldi	r20, 0x00	; 0
    32b8:	50 e0       	ldi	r21, 0x00	; 0
    32ba:	ac 17       	cp	r26, r28
    32bc:	bd 07       	cpc	r27, r29
    32be:	08 f1       	brcs	.+66     	; 0x3302 <free+0x6a>
    32c0:	bb 83       	std	Y+3, r27	; 0x03
    32c2:	aa 83       	std	Y+2, r26	; 0x02
    32c4:	fe 01       	movw	r30, r28
    32c6:	21 91       	ld	r18, Z+
    32c8:	31 91       	ld	r19, Z+
    32ca:	e2 0f       	add	r30, r18
    32cc:	f3 1f       	adc	r31, r19
    32ce:	ae 17       	cp	r26, r30
    32d0:	bf 07       	cpc	r27, r31
    32d2:	79 f4       	brne	.+30     	; 0x32f2 <free+0x5a>
    32d4:	8d 91       	ld	r24, X+
    32d6:	9c 91       	ld	r25, X
    32d8:	11 97       	sbiw	r26, 0x01	; 1
    32da:	28 0f       	add	r18, r24
    32dc:	39 1f       	adc	r19, r25
    32de:	2e 5f       	subi	r18, 0xFE	; 254
    32e0:	3f 4f       	sbci	r19, 0xFF	; 255
    32e2:	39 83       	std	Y+1, r19	; 0x01
    32e4:	28 83       	st	Y, r18
    32e6:	12 96       	adiw	r26, 0x02	; 2
    32e8:	8d 91       	ld	r24, X+
    32ea:	9c 91       	ld	r25, X
    32ec:	13 97       	sbiw	r26, 0x03	; 3
    32ee:	9b 83       	std	Y+3, r25	; 0x03
    32f0:	8a 83       	std	Y+2, r24	; 0x02
    32f2:	41 15       	cp	r20, r1
    32f4:	51 05       	cpc	r21, r1
    32f6:	71 f4       	brne	.+28     	; 0x3314 <free+0x7c>
    32f8:	d0 93 b8 02 	sts	0x02B8, r29
    32fc:	c0 93 b7 02 	sts	0x02B7, r28
    3300:	20 c0       	rjmp	.+64     	; 0x3342 <free+0xaa>
    3302:	12 96       	adiw	r26, 0x02	; 2
    3304:	8d 91       	ld	r24, X+
    3306:	9c 91       	ld	r25, X
    3308:	13 97       	sbiw	r26, 0x03	; 3
    330a:	ad 01       	movw	r20, r26
    330c:	00 97       	sbiw	r24, 0x00	; 0
    330e:	11 f0       	breq	.+4      	; 0x3314 <free+0x7c>
    3310:	dc 01       	movw	r26, r24
    3312:	d3 cf       	rjmp	.-90     	; 0x32ba <free+0x22>
    3314:	fa 01       	movw	r30, r20
    3316:	d3 83       	std	Z+3, r29	; 0x03
    3318:	c2 83       	std	Z+2, r28	; 0x02
    331a:	21 91       	ld	r18, Z+
    331c:	31 91       	ld	r19, Z+
    331e:	e2 0f       	add	r30, r18
    3320:	f3 1f       	adc	r31, r19
    3322:	ce 17       	cp	r28, r30
    3324:	df 07       	cpc	r29, r31
    3326:	69 f4       	brne	.+26     	; 0x3342 <free+0xaa>
    3328:	88 81       	ld	r24, Y
    332a:	99 81       	ldd	r25, Y+1	; 0x01
    332c:	28 0f       	add	r18, r24
    332e:	39 1f       	adc	r19, r25
    3330:	2e 5f       	subi	r18, 0xFE	; 254
    3332:	3f 4f       	sbci	r19, 0xFF	; 255
    3334:	fa 01       	movw	r30, r20
    3336:	31 83       	std	Z+1, r19	; 0x01
    3338:	20 83       	st	Z, r18
    333a:	8a 81       	ldd	r24, Y+2	; 0x02
    333c:	9b 81       	ldd	r25, Y+3	; 0x03
    333e:	93 83       	std	Z+3, r25	; 0x03
    3340:	82 83       	std	Z+2, r24	; 0x02
    3342:	df 91       	pop	r29
    3344:	cf 91       	pop	r28
    3346:	08 95       	ret

00003348 <fdevopen>:
    3348:	0f 93       	push	r16
    334a:	1f 93       	push	r17
    334c:	cf 93       	push	r28
    334e:	df 93       	push	r29
    3350:	8c 01       	movw	r16, r24
    3352:	eb 01       	movw	r28, r22
    3354:	00 97       	sbiw	r24, 0x00	; 0
    3356:	31 f4       	brne	.+12     	; 0x3364 <fdevopen+0x1c>
    3358:	61 15       	cp	r22, r1
    335a:	71 05       	cpc	r23, r1
    335c:	19 f4       	brne	.+6      	; 0x3364 <fdevopen+0x1c>
    335e:	20 e0       	ldi	r18, 0x00	; 0
    3360:	30 e0       	ldi	r19, 0x00	; 0
    3362:	38 c0       	rjmp	.+112    	; 0x33d4 <fdevopen+0x8c>
    3364:	81 e0       	ldi	r24, 0x01	; 1
    3366:	90 e0       	ldi	r25, 0x00	; 0
    3368:	6e e0       	ldi	r22, 0x0E	; 14
    336a:	70 e0       	ldi	r23, 0x00	; 0
    336c:	0e 94 f0 19 	call	0x33e0	; 0x33e0 <calloc>
    3370:	fc 01       	movw	r30, r24
    3372:	9c 01       	movw	r18, r24
    3374:	00 97       	sbiw	r24, 0x00	; 0
    3376:	71 f1       	breq	.+92     	; 0x33d4 <fdevopen+0x8c>
    3378:	80 e8       	ldi	r24, 0x80	; 128
    337a:	83 83       	std	Z+3, r24	; 0x03
    337c:	20 97       	sbiw	r28, 0x00	; 0
    337e:	71 f0       	breq	.+28     	; 0x339c <fdevopen+0x54>
    3380:	d3 87       	std	Z+11, r29	; 0x0b
    3382:	c2 87       	std	Z+10, r28	; 0x0a
    3384:	81 e8       	ldi	r24, 0x81	; 129
    3386:	83 83       	std	Z+3, r24	; 0x03
    3388:	80 91 b9 02 	lds	r24, 0x02B9
    338c:	90 91 ba 02 	lds	r25, 0x02BA
    3390:	89 2b       	or	r24, r25
    3392:	21 f4       	brne	.+8      	; 0x339c <fdevopen+0x54>
    3394:	f0 93 ba 02 	sts	0x02BA, r31
    3398:	e0 93 b9 02 	sts	0x02B9, r30
    339c:	01 15       	cp	r16, r1
    339e:	11 05       	cpc	r17, r1
    33a0:	c9 f0       	breq	.+50     	; 0x33d4 <fdevopen+0x8c>
    33a2:	11 87       	std	Z+9, r17	; 0x09
    33a4:	00 87       	std	Z+8, r16	; 0x08
    33a6:	83 81       	ldd	r24, Z+3	; 0x03
    33a8:	82 60       	ori	r24, 0x02	; 2
    33aa:	83 83       	std	Z+3, r24	; 0x03
    33ac:	80 91 bb 02 	lds	r24, 0x02BB
    33b0:	90 91 bc 02 	lds	r25, 0x02BC
    33b4:	89 2b       	or	r24, r25
    33b6:	71 f4       	brne	.+28     	; 0x33d4 <fdevopen+0x8c>
    33b8:	f0 93 bc 02 	sts	0x02BC, r31
    33bc:	e0 93 bb 02 	sts	0x02BB, r30
    33c0:	80 91 bd 02 	lds	r24, 0x02BD
    33c4:	90 91 be 02 	lds	r25, 0x02BE
    33c8:	89 2b       	or	r24, r25
    33ca:	21 f4       	brne	.+8      	; 0x33d4 <fdevopen+0x8c>
    33cc:	f0 93 be 02 	sts	0x02BE, r31
    33d0:	e0 93 bd 02 	sts	0x02BD, r30
    33d4:	c9 01       	movw	r24, r18
    33d6:	df 91       	pop	r29
    33d8:	cf 91       	pop	r28
    33da:	1f 91       	pop	r17
    33dc:	0f 91       	pop	r16
    33de:	08 95       	ret

000033e0 <calloc>:
    33e0:	0f 93       	push	r16
    33e2:	1f 93       	push	r17
    33e4:	cf 93       	push	r28
    33e6:	df 93       	push	r29
    33e8:	68 9f       	mul	r22, r24
    33ea:	80 01       	movw	r16, r0
    33ec:	69 9f       	mul	r22, r25
    33ee:	10 0d       	add	r17, r0
    33f0:	78 9f       	mul	r23, r24
    33f2:	10 0d       	add	r17, r0
    33f4:	11 24       	eor	r1, r1
    33f6:	c8 01       	movw	r24, r16
    33f8:	0e 94 9f 18 	call	0x313e	; 0x313e <malloc>
    33fc:	ec 01       	movw	r28, r24
    33fe:	00 97       	sbiw	r24, 0x00	; 0
    3400:	29 f0       	breq	.+10     	; 0x340c <calloc+0x2c>
    3402:	60 e0       	ldi	r22, 0x00	; 0
    3404:	70 e0       	ldi	r23, 0x00	; 0
    3406:	a8 01       	movw	r20, r16
    3408:	0e 94 0c 1a 	call	0x3418	; 0x3418 <memset>
    340c:	ce 01       	movw	r24, r28
    340e:	df 91       	pop	r29
    3410:	cf 91       	pop	r28
    3412:	1f 91       	pop	r17
    3414:	0f 91       	pop	r16
    3416:	08 95       	ret

00003418 <memset>:
    3418:	dc 01       	movw	r26, r24
    341a:	01 c0       	rjmp	.+2      	; 0x341e <memset+0x6>
    341c:	6d 93       	st	X+, r22
    341e:	41 50       	subi	r20, 0x01	; 1
    3420:	50 40       	sbci	r21, 0x00	; 0
    3422:	e0 f7       	brcc	.-8      	; 0x341c <memset+0x4>
    3424:	08 95       	ret

00003426 <_exit>:
    3426:	f8 94       	cli

00003428 <__stop_program>:
    3428:	ff cf       	rjmp	.-2      	; 0x3428 <__stop_program>
