
bomb-squad.elf:     file format elf32-avr

Sections:
Idx Name          Size      VMA       LMA       File off  Algn
  0 .data         00000146  00800100  0000302a  000030be  2**0
                  CONTENTS, ALLOC, LOAD, DATA
  1 .text         0000302a  00000000  00000000  00000094  2**1
                  CONTENTS, ALLOC, LOAD, READONLY, CODE
  2 .bss          00000035  00800246  00800246  00003204  2**0
                  ALLOC
  3 .stab         00006bc4  00000000  00000000  00003204  2**2
                  CONTENTS, READONLY, DEBUGGING
  4 .stabstr      00004f3a  00000000  00000000  00009dc8  2**0
                  CONTENTS, READONLY, DEBUGGING
  5 .debug_aranges 00000100  00000000  00000000  0000ed02  2**0
                  CONTENTS, READONLY, DEBUGGING
  6 .debug_pubnames 00000270  00000000  00000000  0000ee02  2**0
                  CONTENTS, READONLY, DEBUGGING
  7 .debug_info   00001983  00000000  00000000  0000f072  2**0
                  CONTENTS, READONLY, DEBUGGING
  8 .debug_abbrev 00000d8d  00000000  00000000  000109f5  2**0
                  CONTENTS, READONLY, DEBUGGING
  9 .debug_line   00000fca  00000000  00000000  00011782  2**0
                  CONTENTS, READONLY, DEBUGGING
 10 .debug_frame  00000210  00000000  00000000  0001274c  2**2
                  CONTENTS, READONLY, DEBUGGING
 11 .debug_str    00000403  00000000  00000000  0001295c  2**0
                  CONTENTS, READONLY, DEBUGGING
 12 .debug_loc    00000868  00000000  00000000  00012d5f  2**0
                  CONTENTS, READONLY, DEBUGGING
 13 .debug_ranges 00000068  00000000  00000000  000135c7  2**0
                  CONTENTS, READONLY, DEBUGGING

Disassembly of section .text:

00000000 <__vectors>:
       0:	0c 94 40 00 	jmp	0x80	; 0x80 <__ctors_end>
       4:	0c 94 5d 00 	jmp	0xba	; 0xba <__bad_interrupt>
       8:	0c 94 5d 00 	jmp	0xba	; 0xba <__bad_interrupt>
       c:	0c 94 5d 00 	jmp	0xba	; 0xba <__bad_interrupt>
      10:	0c 94 5d 00 	jmp	0xba	; 0xba <__bad_interrupt>
      14:	0c 94 5d 00 	jmp	0xba	; 0xba <__bad_interrupt>
      18:	0c 94 5d 00 	jmp	0xba	; 0xba <__bad_interrupt>
      1c:	0c 94 5d 00 	jmp	0xba	; 0xba <__bad_interrupt>
      20:	0c 94 5d 00 	jmp	0xba	; 0xba <__bad_interrupt>
      24:	0c 94 cd 14 	jmp	0x299a	; 0x299a <__vector_9>
      28:	0c 94 5d 00 	jmp	0xba	; 0xba <__bad_interrupt>
      2c:	0c 94 5d 00 	jmp	0xba	; 0xba <__bad_interrupt>
      30:	0c 94 5d 00 	jmp	0xba	; 0xba <__bad_interrupt>
      34:	0c 94 cb 0c 	jmp	0x1996	; 0x1996 <__vector_13>
      38:	0c 94 5d 00 	jmp	0xba	; 0xba <__bad_interrupt>
      3c:	0c 94 5d 00 	jmp	0xba	; 0xba <__bad_interrupt>
      40:	0c 94 5d 00 	jmp	0xba	; 0xba <__bad_interrupt>
      44:	0c 94 5d 00 	jmp	0xba	; 0xba <__bad_interrupt>
      48:	0c 94 5d 00 	jmp	0xba	; 0xba <__bad_interrupt>
      4c:	0c 94 5d 00 	jmp	0xba	; 0xba <__bad_interrupt>
      50:	0c 94 5d 00 	jmp	0xba	; 0xba <__bad_interrupt>
      54:	0c 94 5d 00 	jmp	0xba	; 0xba <__bad_interrupt>
      58:	0c 94 5d 00 	jmp	0xba	; 0xba <__bad_interrupt>
      5c:	0c 94 5d 00 	jmp	0xba	; 0xba <__bad_interrupt>
      60:	0c 94 5d 00 	jmp	0xba	; 0xba <__bad_interrupt>
      64:	0c 94 5d 00 	jmp	0xba	; 0xba <__bad_interrupt>
      68:	ee 09       	sbc	r30, r14
      6a:	f4 09       	sbc	r31, r4
      6c:	f7 09       	sbc	r31, r7
      6e:	fa 09       	sbc	r31, r10
      70:	fd 09       	sbc	r31, r13
      72:	00 0a       	sbc	r0, r16
      74:	03 0a       	sbc	r0, r19
      76:	06 0a       	sbc	r0, r22
      78:	09 0a       	sbc	r0, r25
      7a:	0c 0a       	sbc	r0, r28
      7c:	0f 0a       	sbc	r0, r31
      7e:	12 0a       	sbc	r1, r18

00000080 <__ctors_end>:
      80:	11 24       	eor	r1, r1
      82:	1f be       	out	0x3f, r1	; 63
      84:	cf ef       	ldi	r28, 0xFF	; 255
      86:	d4 e0       	ldi	r29, 0x04	; 4
      88:	de bf       	out	0x3e, r29	; 62
      8a:	cd bf       	out	0x3d, r28	; 61

0000008c <__do_copy_data>:
      8c:	12 e0       	ldi	r17, 0x02	; 2
      8e:	a0 e0       	ldi	r26, 0x00	; 0
      90:	b1 e0       	ldi	r27, 0x01	; 1
      92:	ea e2       	ldi	r30, 0x2A	; 42
      94:	f0 e3       	ldi	r31, 0x30	; 48
      96:	02 c0       	rjmp	.+4      	; 0x9c <.do_copy_data_start>

00000098 <.do_copy_data_loop>:
      98:	05 90       	lpm	r0, Z+
      9a:	0d 92       	st	X+, r0

0000009c <.do_copy_data_start>:
      9c:	a6 34       	cpi	r26, 0x46	; 70
      9e:	b1 07       	cpc	r27, r17
      a0:	d9 f7       	brne	.-10     	; 0x98 <.do_copy_data_loop>

000000a2 <__do_clear_bss>:
      a2:	12 e0       	ldi	r17, 0x02	; 2
      a4:	a6 e4       	ldi	r26, 0x46	; 70
      a6:	b2 e0       	ldi	r27, 0x02	; 2
      a8:	01 c0       	rjmp	.+2      	; 0xac <.do_clear_bss_start>

000000aa <.do_clear_bss_loop>:
      aa:	1d 92       	st	X+, r1

000000ac <.do_clear_bss_start>:
      ac:	ab 37       	cpi	r26, 0x7B	; 123
      ae:	b1 07       	cpc	r27, r17
      b0:	e1 f7       	brne	.-8      	; 0xaa <.do_clear_bss_loop>
      b2:	0e 94 23 02 	call	0x446	; 0x446 <main>
      b6:	0c 94 13 18 	jmp	0x3026	; 0x3026 <_exit>

000000ba <__bad_interrupt>:
      ba:	0c 94 00 00 	jmp	0	; 0x0 <__vectors>

000000be <init_sensors>:
static inline void set_analog_mode(unsigned char mode)
{
	if (mode == MODE_10_BIT)
		ADMUX &= ~(1 << ADLAR);	// right-adjust result (ADC has result)
	else
		ADMUX |= 1 << ADLAR;		// left-adjust result (ADCH has result)	
      be:	ec e7       	ldi	r30, 0x7C	; 124
      c0:	f0 e0       	ldi	r31, 0x00	; 0
      c2:	80 81       	ld	r24, Z
      c4:	80 62       	ori	r24, 0x20	; 32
      c6:	80 83       	st	Z, r24
//Initializes the digital sensors
//MODE_8_BIT => 0=far away, 150=close
void init_sensors()
{
	set_analog_mode(MODE_8_BIT);
	DDRC &= ~(1<< PORTC5);
      c8:	3d 98       	cbi	0x07, 5	; 7
	PORTC &= ~(1<< PORTC5);
      ca:	45 98       	cbi	0x08, 5	; 8
}
      cc:	08 95       	ret

000000ce <turn_left_in_place>:
}

// Turn to the left in place
void turn_left_in_place()
{
	set_motors(-50, 50);
      ce:	8e ec       	ldi	r24, 0xCE	; 206
      d0:	9f ef       	ldi	r25, 0xFF	; 255
      d2:	62 e3       	ldi	r22, 0x32	; 50
      d4:	70 e0       	ldi	r23, 0x00	; 0
      d6:	0e 94 41 12 	call	0x2482	; 0x2482 <set_motors>
}
      da:	08 95       	ret

000000dc <turn_right_in_place>:
}

// Turn to the right in place
void turn_right_in_place()
{
	set_motors(50, -50);
      dc:	82 e3       	ldi	r24, 0x32	; 50
      de:	90 e0       	ldi	r25, 0x00	; 0
      e0:	6e ec       	ldi	r22, 0xCE	; 206
      e2:	7f ef       	ldi	r23, 0xFF	; 255
      e4:	0e 94 41 12 	call	0x2482	; 0x2482 <set_motors>
}
      e8:	08 95       	ret

000000ea <back_up_right>:
}

// Back up slightly to the right
void back_up_right()
{
	set_motors(-90,-50);
      ea:	86 ea       	ldi	r24, 0xA6	; 166
      ec:	9f ef       	ldi	r25, 0xFF	; 255
      ee:	6e ec       	ldi	r22, 0xCE	; 206
      f0:	7f ef       	ldi	r23, 0xFF	; 255
      f2:	0e 94 41 12 	call	0x2482	; 0x2482 <set_motors>
}
      f6:	08 95       	ret

000000f8 <back_up_left>:
}

// Back up slightly to the left
void back_up_left()
{
	set_motors(-50,-90);
      f8:	8e ec       	ldi	r24, 0xCE	; 206
      fa:	9f ef       	ldi	r25, 0xFF	; 255
      fc:	66 ea       	ldi	r22, 0xA6	; 166
      fe:	7f ef       	ldi	r23, 0xFF	; 255
     100:	0e 94 41 12 	call	0x2482	; 0x2482 <set_motors>
}
     104:	08 95       	ret

00000106 <turn_right>:
	set_motors(0,0);
}

//Turn the robot to left
void turn_right(int power, int angle)
{
     106:	af 92       	push	r10
     108:	bf 92       	push	r11
     10a:	cf 92       	push	r12
     10c:	df 92       	push	r13
     10e:	ef 92       	push	r14
     110:	ff 92       	push	r15
     112:	0f 93       	push	r16
     114:	1f 93       	push	r17
     116:	5c 01       	movw	r10, r24
     118:	7b 01       	movw	r14, r22
	int delay = (DELAY_PER_ANGLE_PER_POWER * angle)/power;

	set_motors(power,-power);
     11a:	66 27       	eor	r22, r22
     11c:	77 27       	eor	r23, r23
     11e:	68 1b       	sub	r22, r24
     120:	79 0b       	sbc	r23, r25
     122:	0e 94 41 12 	call	0x2482	; 0x2482 <set_motors>
	delay_ms(delay);
     126:	00 27       	eor	r16, r16
     128:	f7 fc       	sbrc	r15, 7
     12a:	00 95       	com	r16
     12c:	10 2f       	mov	r17, r16
     12e:	c8 01       	movw	r24, r16
     130:	b7 01       	movw	r22, r14
     132:	0e 94 3c 04 	call	0x878	; 0x878 <__floatsisf>
     136:	28 e4       	ldi	r18, 0x48	; 72
     138:	31 ee       	ldi	r19, 0xE1	; 225
     13a:	4a e5       	ldi	r20, 0x5A	; 90
     13c:	53 e4       	ldi	r21, 0x43	; 67
     13e:	0e 94 96 02 	call	0x52c	; 0x52c <__mulsf3>
     142:	7b 01       	movw	r14, r22
     144:	8c 01       	movw	r16, r24
     146:	cc 24       	eor	r12, r12
     148:	b7 fc       	sbrc	r11, 7
     14a:	c0 94       	com	r12
     14c:	dc 2c       	mov	r13, r12
     14e:	c6 01       	movw	r24, r12
     150:	b5 01       	movw	r22, r10
     152:	0e 94 3c 04 	call	0x878	; 0x878 <__floatsisf>
     156:	9b 01       	movw	r18, r22
     158:	ac 01       	movw	r20, r24
     15a:	c8 01       	movw	r24, r16
     15c:	b7 01       	movw	r22, r14
     15e:	0e 94 90 03 	call	0x720	; 0x720 <__divsf3>
     162:	0e 94 9a 04 	call	0x934	; 0x934 <__fixsfsi>
     166:	dc 01       	movw	r26, r24
     168:	cb 01       	movw	r24, r22
     16a:	0e 94 18 15 	call	0x2a30	; 0x2a30 <delay_ms>
	set_motors(0,0);
     16e:	80 e0       	ldi	r24, 0x00	; 0
     170:	90 e0       	ldi	r25, 0x00	; 0
     172:	60 e0       	ldi	r22, 0x00	; 0
     174:	70 e0       	ldi	r23, 0x00	; 0
     176:	0e 94 41 12 	call	0x2482	; 0x2482 <set_motors>
}
     17a:	1f 91       	pop	r17
     17c:	0f 91       	pop	r16
     17e:	ff 90       	pop	r15
     180:	ef 90       	pop	r14
     182:	df 90       	pop	r13
     184:	cf 90       	pop	r12
     186:	bf 90       	pop	r11
     188:	af 90       	pop	r10
     18a:	08 95       	ret

0000018c <turn_left>:
	set_motors(0,0);
}

//Turn the robot to left
void turn_left(int power, int angle)
{
     18c:	af 92       	push	r10
     18e:	bf 92       	push	r11
     190:	cf 92       	push	r12
     192:	df 92       	push	r13
     194:	ef 92       	push	r14
     196:	ff 92       	push	r15
     198:	0f 93       	push	r16
     19a:	1f 93       	push	r17
     19c:	5c 01       	movw	r10, r24
     19e:	7b 01       	movw	r14, r22
	int delay = (DELAY_PER_ANGLE_PER_POWER * angle)/power;

	set_motors(-power,power);
     1a0:	88 27       	eor	r24, r24
     1a2:	99 27       	eor	r25, r25
     1a4:	8a 19       	sub	r24, r10
     1a6:	9b 09       	sbc	r25, r11
     1a8:	b5 01       	movw	r22, r10
     1aa:	0e 94 41 12 	call	0x2482	; 0x2482 <set_motors>
	delay_ms(delay);
     1ae:	00 27       	eor	r16, r16
     1b0:	f7 fc       	sbrc	r15, 7
     1b2:	00 95       	com	r16
     1b4:	10 2f       	mov	r17, r16
     1b6:	c8 01       	movw	r24, r16
     1b8:	b7 01       	movw	r22, r14
     1ba:	0e 94 3c 04 	call	0x878	; 0x878 <__floatsisf>
     1be:	28 e4       	ldi	r18, 0x48	; 72
     1c0:	31 ee       	ldi	r19, 0xE1	; 225
     1c2:	4a e5       	ldi	r20, 0x5A	; 90
     1c4:	53 e4       	ldi	r21, 0x43	; 67
     1c6:	0e 94 96 02 	call	0x52c	; 0x52c <__mulsf3>
     1ca:	7b 01       	movw	r14, r22
     1cc:	8c 01       	movw	r16, r24
     1ce:	cc 24       	eor	r12, r12
     1d0:	b7 fc       	sbrc	r11, 7
     1d2:	c0 94       	com	r12
     1d4:	dc 2c       	mov	r13, r12
     1d6:	c6 01       	movw	r24, r12
     1d8:	b5 01       	movw	r22, r10
     1da:	0e 94 3c 04 	call	0x878	; 0x878 <__floatsisf>
     1de:	9b 01       	movw	r18, r22
     1e0:	ac 01       	movw	r20, r24
     1e2:	c8 01       	movw	r24, r16
     1e4:	b7 01       	movw	r22, r14
     1e6:	0e 94 90 03 	call	0x720	; 0x720 <__divsf3>
     1ea:	0e 94 9a 04 	call	0x934	; 0x934 <__fixsfsi>
     1ee:	dc 01       	movw	r26, r24
     1f0:	cb 01       	movw	r24, r22
     1f2:	0e 94 18 15 	call	0x2a30	; 0x2a30 <delay_ms>
	set_motors(0,0);
     1f6:	80 e0       	ldi	r24, 0x00	; 0
     1f8:	90 e0       	ldi	r25, 0x00	; 0
     1fa:	60 e0       	ldi	r22, 0x00	; 0
     1fc:	70 e0       	ldi	r23, 0x00	; 0
     1fe:	0e 94 41 12 	call	0x2482	; 0x2482 <set_motors>
}
     202:	1f 91       	pop	r17
     204:	0f 91       	pop	r16
     206:	ff 90       	pop	r15
     208:	ef 90       	pop	r14
     20a:	df 90       	pop	r13
     20c:	cf 90       	pop	r12
     20e:	bf 90       	pop	r11
     210:	af 90       	pop	r10
     212:	08 95       	ret

00000214 <halt>:
}

//Stop both motors
void halt()
{
	set_motors(0,0);
     214:	80 e0       	ldi	r24, 0x00	; 0
     216:	90 e0       	ldi	r25, 0x00	; 0
     218:	60 e0       	ldi	r22, 0x00	; 0
     21a:	70 e0       	ldi	r23, 0x00	; 0
     21c:	0e 94 41 12 	call	0x2482	; 0x2482 <set_motors>
}
     220:	08 95       	ret

00000222 <print_num_xy>:
	lcd_goto_xy(row,col);
	print(message);
}

void print_num_xy( int row, int col, long num, int doClear)
{
     222:	af 92       	push	r10
     224:	bf 92       	push	r11
     226:	cf 92       	push	r12
     228:	df 92       	push	r13
     22a:	ef 92       	push	r14
     22c:	ff 92       	push	r15
     22e:	0f 93       	push	r16
     230:	1f 93       	push	r17
     232:	b8 2e       	mov	r11, r24
     234:	a6 2e       	mov	r10, r22
     236:	69 01       	movw	r12, r18
     238:	7a 01       	movw	r14, r20
	if(doClear)
     23a:	01 2b       	or	r16, r17
     23c:	11 f0       	breq	.+4      	; 0x242 <print_num_xy+0x20>
	{
		clear();
     23e:	0e 94 13 0f 	call	0x1e26	; 0x1e26 <clear>
	}
	lcd_goto_xy(row,col);
     242:	8b 2d       	mov	r24, r11
     244:	6a 2d       	mov	r22, r10
     246:	0e 94 e3 0e 	call	0x1dc6	; 0x1dc6 <lcd_goto_xy>
	print_long(num);
     24a:	c7 01       	movw	r24, r14
     24c:	b6 01       	movw	r22, r12
     24e:	0e 94 de 0f 	call	0x1fbc	; 0x1fbc <print_long>
}
     252:	1f 91       	pop	r17
     254:	0f 91       	pop	r16
     256:	ff 90       	pop	r15
     258:	ef 90       	pop	r14
     25a:	df 90       	pop	r13
     25c:	cf 90       	pop	r12
     25e:	bf 90       	pop	r11
     260:	af 90       	pop	r10
     262:	08 95       	ret

00000264 <count_down>:
	return pdata;
}

//Display a countdown for count, increment by one second
void count_down(int count)
{
     264:	ef 92       	push	r14
     266:	ff 92       	push	r15
     268:	0f 93       	push	r16
     26a:	1f 93       	push	r17
     26c:	cf 93       	push	r28
     26e:	df 93       	push	r29
     270:	ec 01       	movw	r28, r24
	int i = 1;
	clear();
     272:	0e 94 13 0f 	call	0x1e26	; 0x1e26 <clear>
     276:	ee 24       	eor	r14, r14
     278:	ff 24       	eor	r15, r15
     27a:	87 01       	movw	r16, r14
     27c:	0e c0       	rjmp	.+28     	; 0x29a <count_down+0x36>
	while(i <= count)
	{
		lcd_goto_xy(0,0);
     27e:	80 e0       	ldi	r24, 0x00	; 0
     280:	60 e0       	ldi	r22, 0x00	; 0
     282:	0e 94 e3 0e 	call	0x1dc6	; 0x1dc6 <lcd_goto_xy>
		print_long(i);
     286:	c8 01       	movw	r24, r16
     288:	b7 01       	movw	r22, r14
     28a:	0e 94 de 0f 	call	0x1fbc	; 0x1fbc <print_long>
		delay_ms(1000);
     28e:	88 ee       	ldi	r24, 0xE8	; 232
     290:	93 e0       	ldi	r25, 0x03	; 3
     292:	0e 94 18 15 	call	0x2a30	; 0x2a30 <delay_ms>
		clear();
     296:	0e 94 13 0f 	call	0x1e26	; 0x1e26 <clear>
     29a:	08 94       	sec
     29c:	e1 1c       	adc	r14, r1
     29e:	f1 1c       	adc	r15, r1
     2a0:	01 1d       	adc	r16, r1
     2a2:	11 1d       	adc	r17, r1
//Display a countdown for count, increment by one second
void count_down(int count)
{
	int i = 1;
	clear();
	while(i <= count)
     2a4:	ce 15       	cp	r28, r14
     2a6:	df 05       	cpc	r29, r15
     2a8:	54 f7       	brge	.-44     	; 0x27e <count_down+0x1a>
		print_long(i);
		delay_ms(1000);
		clear();
		i++;
	}
}
     2aa:	df 91       	pop	r29
     2ac:	cf 91       	pop	r28
     2ae:	1f 91       	pop	r17
     2b0:	0f 91       	pop	r16
     2b2:	ff 90       	pop	r15
     2b4:	ef 90       	pop	r14
     2b6:	08 95       	ret

000002b8 <print_xy>:
{
	return analog_read(SENSOR_5);
}

void print_xy( int row, int col, char *message, int doClear)
{
     2b8:	0f 93       	push	r16
     2ba:	1f 93       	push	r17
     2bc:	cf 93       	push	r28
     2be:	df 93       	push	r29
     2c0:	18 2f       	mov	r17, r24
     2c2:	06 2f       	mov	r16, r22
     2c4:	ea 01       	movw	r28, r20
	if(doClear)
     2c6:	23 2b       	or	r18, r19
     2c8:	11 f0       	breq	.+4      	; 0x2ce <print_xy+0x16>
	{
		clear();
     2ca:	0e 94 13 0f 	call	0x1e26	; 0x1e26 <clear>
	}
	lcd_goto_xy(row,col);
     2ce:	81 2f       	mov	r24, r17
     2d0:	60 2f       	mov	r22, r16
     2d2:	0e 94 e3 0e 	call	0x1dc6	; 0x1dc6 <lcd_goto_xy>
	print(message);
     2d6:	ce 01       	movw	r24, r28
     2d8:	0e 94 ff 0f 	call	0x1ffe	; 0x1ffe <print>
}
     2dc:	df 91       	pop	r29
     2de:	cf 91       	pop	r28
     2e0:	1f 91       	pop	r17
     2e2:	0f 91       	pop	r16
     2e4:	08 95       	ret

000002e6 <read_right_sensor>:
}

//Read right sensor data
int read_right_sensor()
{
	return analog_read(SENSOR_5);
     2e6:	85 e0       	ldi	r24, 0x05	; 5
     2e8:	0e 94 01 07 	call	0xe02	; 0xe02 <analog_read>
}
     2ec:	08 95       	ret

000002ee <read_left_sensor>:
}

//Read left sensor data
int read_left_sensor()
{
	return analog_read(SENSOR_7);
     2ee:	87 e0       	ldi	r24, 0x07	; 7
     2f0:	0e 94 01 07 	call	0xe02	; 0xe02 <analog_read>
}
     2f4:	08 95       	ret

000002f6 <read_forward_sensor>:
}

//Read forward sensor data
int read_forward_sensor()
{
	return analog_read(SENSOR_6);
     2f6:	86 e0       	ldi	r24, 0x06	; 6
     2f8:	0e 94 01 07 	call	0xe02	; 0xe02 <analog_read>
}
     2fc:	08 95       	ret

000002fe <scan_360>:
	set_motors(-50, 50);
}

//Scans 360 degree and reports an array of distance data
int* scan_360(int sensor)
{
     2fe:	ef 92       	push	r14
     300:	ff 92       	push	r15
     302:	0f 93       	push	r16
     304:	1f 93       	push	r17
     306:	df 93       	push	r29
     308:	cf 93       	push	r28
     30a:	cd b7       	in	r28, 0x3d	; 61
     30c:	de b7       	in	r29, 0x3e	; 62
     30e:	e2 97       	sbiw	r28, 0x32	; 50
     310:	0f b6       	in	r0, 0x3f	; 63
     312:	f8 94       	cli
     314:	de bf       	out	0x3e, r29	; 62
     316:	0f be       	out	0x3f, r0	; 63
     318:	cd bf       	out	0x3d, r28	; 61
     31a:	8e 01       	movw	r16, r28
     31c:	0f 5f       	subi	r16, 0xFF	; 255
     31e:	1f 4f       	sbci	r17, 0xFF	; 255
	int i, *pdata, data[25];
	int power = 40;
	
	for(i=0; i<25; i++)
     320:	83 e3       	ldi	r24, 0x33	; 51
     322:	e8 2e       	mov	r14, r24
     324:	f1 2c       	mov	r15, r1
     326:	ec 0e       	add	r14, r28
     328:	fd 1e       	adc	r15, r29
	{
		// rotate LEFT 15 degrees then stop
		int delay = (DELAY_PER_ANGLE_PER_POWER * 15)/power;
		set_motors(-power,power);
     32a:	88 ed       	ldi	r24, 0xD8	; 216
     32c:	9f ef       	ldi	r25, 0xFF	; 255
     32e:	68 e2       	ldi	r22, 0x28	; 40
     330:	70 e0       	ldi	r23, 0x00	; 0
     332:	0e 94 41 12 	call	0x2482	; 0x2482 <set_motors>
		delay_ms(delay);
     336:	82 e5       	ldi	r24, 0x52	; 82
     338:	90 e0       	ldi	r25, 0x00	; 0
     33a:	0e 94 18 15 	call	0x2a30	; 0x2a30 <delay_ms>
		set_motors(0,0);
     33e:	80 e0       	ldi	r24, 0x00	; 0
     340:	90 e0       	ldi	r25, 0x00	; 0
     342:	60 e0       	ldi	r22, 0x00	; 0
     344:	70 e0       	ldi	r23, 0x00	; 0
     346:	0e 94 41 12 	call	0x2482	; 0x2482 <set_motors>
		
		// scan forward and store value
		data[i] = analog_read(SENSOR_6);
     34a:	86 e0       	ldi	r24, 0x06	; 6
     34c:	0e 94 01 07 	call	0xe02	; 0xe02 <analog_read>
     350:	f8 01       	movw	r30, r16
     352:	81 93       	st	Z+, r24
     354:	91 93       	st	Z+, r25
     356:	8f 01       	movw	r16, r30
int* scan_360(int sensor)
{
	int i, *pdata, data[25];
	int power = 40;
	
	for(i=0; i<25; i++)
     358:	ee 15       	cp	r30, r14
     35a:	ff 05       	cpc	r31, r15
     35c:	31 f7       	brne	.-52     	; 0x32a <scan_360+0x2c>
		data[i] = analog_read(SENSOR_6);
	}
	
	pdata = &data[0];
	return pdata;
}
     35e:	ce 01       	movw	r24, r28
     360:	01 96       	adiw	r24, 0x01	; 1
     362:	e2 96       	adiw	r28, 0x32	; 50
     364:	0f b6       	in	r0, 0x3f	; 63
     366:	f8 94       	cli
     368:	de bf       	out	0x3e, r29	; 62
     36a:	0f be       	out	0x3f, r0	; 63
     36c:	cd bf       	out	0x3d, r28	; 61
     36e:	cf 91       	pop	r28
     370:	df 91       	pop	r29
     372:	1f 91       	pop	r17
     374:	0f 91       	pop	r16
     376:	ff 90       	pop	r15
     378:	ef 90       	pop	r14
     37a:	08 95       	ret

0000037c <wait_with_message>:
	PORTC &= ~(1<< PORTC5);
}

//Displayes a message and waits for B button to press
void wait_with_message(char *str)
{
     37c:	0f 93       	push	r16
     37e:	1f 93       	push	r17
     380:	8c 01       	movw	r16, r24
	play("L16 ceg>c");
     382:	80 e0       	ldi	r24, 0x00	; 0
     384:	91 e0       	ldi	r25, 0x01	; 1
     386:	0e 94 c8 0c 	call	0x1990	; 0x1990 <play>

	lcd_goto_xy(0,0);
     38a:	80 e0       	ldi	r24, 0x00	; 0
     38c:	60 e0       	ldi	r22, 0x00	; 0
     38e:	0e 94 e3 0e 	call	0x1dc6	; 0x1dc6 <lcd_goto_xy>
	print(str);
     392:	c8 01       	movw	r24, r16
     394:	0e 94 ff 0f 	call	0x1ffe	; 0x1ffe <print>

	while(!button_is_pressed(BUTTON_B));
     398:	80 e1       	ldi	r24, 0x10	; 16
     39a:	0e 94 46 12 	call	0x248c	; 0x248c <button_is_pressed>
     39e:	88 23       	and	r24, r24
     3a0:	d9 f3       	breq	.-10     	; 0x398 <wait_with_message+0x1c>
	delay_ms(500);
     3a2:	84 ef       	ldi	r24, 0xF4	; 244
     3a4:	91 e0       	ldi	r25, 0x01	; 1
     3a6:	0e 94 18 15 	call	0x2a30	; 0x2a30 <delay_ms>
}
     3aa:	1f 91       	pop	r17
     3ac:	0f 91       	pop	r16
     3ae:	08 95       	ret

000003b0 <get_value_from_user>:

int get_value_from_user(char *msg)
{
     3b0:	0f 93       	push	r16
     3b2:	1f 93       	push	r17
     3b4:	cf 93       	push	r28
     3b6:	df 93       	push	r29
     3b8:	8c 01       	movw	r16, r24
     3ba:	c0 e0       	ldi	r28, 0x00	; 0
     3bc:	d0 e0       	ldi	r29, 0x00	; 0
	int value = 0;
	
	while(1)
	{
		clear();
     3be:	0e 94 13 0f 	call	0x1e26	; 0x1e26 <clear>
		
		// print name
		lcd_goto_xy(0,0);
     3c2:	80 e0       	ldi	r24, 0x00	; 0
     3c4:	60 e0       	ldi	r22, 0x00	; 0
     3c6:	0e 94 e3 0e 	call	0x1dc6	; 0x1dc6 <lcd_goto_xy>
		print(msg);
     3ca:	c8 01       	movw	r24, r16
     3cc:	0e 94 ff 0f 	call	0x1ffe	; 0x1ffe <print>
		print("=?");
     3d0:	8a e0       	ldi	r24, 0x0A	; 10
     3d2:	91 e0       	ldi	r25, 0x01	; 1
     3d4:	0e 94 ff 0f 	call	0x1ffe	; 0x1ffe <print>
		
		// print current value
		lcd_goto_xy(0,1);
     3d8:	80 e0       	ldi	r24, 0x00	; 0
     3da:	61 e0       	ldi	r22, 0x01	; 1
     3dc:	0e 94 e3 0e 	call	0x1dc6	; 0x1dc6 <lcd_goto_xy>
		print_long(value);
     3e0:	be 01       	movw	r22, r28
     3e2:	88 27       	eor	r24, r24
     3e4:	77 fd       	sbrc	r23, 7
     3e6:	80 95       	com	r24
     3e8:	98 2f       	mov	r25, r24
     3ea:	0e 94 de 0f 	call	0x1fbc	; 0x1fbc <print_long>
		lcd_show_cursor(CURSOR_BLINKING);
     3ee:	81 e0       	ldi	r24, 0x01	; 1
     3f0:	0e 94 c1 0e 	call	0x1d82	; 0x1d82 <lcd_show_cursor>
	
		// wait for all buttons to be released, then a press
		while(button_is_pressed(ANY_BUTTON));
     3f4:	82 e3       	ldi	r24, 0x32	; 50
     3f6:	0e 94 46 12 	call	0x248c	; 0x248c <button_is_pressed>
     3fa:	88 23       	and	r24, r24
     3fc:	d9 f7       	brne	.-10     	; 0x3f4 <get_value_from_user+0x44>
		char button = wait_for_button_press(ANY_BUTTON);
     3fe:	82 e3       	ldi	r24, 0x32	; 50
     400:	0e 94 90 14 	call	0x2920	; 0x2920 <wait_for_button_press>

		if(button & BUTTON_A)
     404:	81 ff       	sbrs	r24, 1
     406:	07 c0       	rjmp	.+14     	; 0x416 <get_value_from_user+0x66>
		{
			play("!c32");
     408:	8d e0       	ldi	r24, 0x0D	; 13
     40a:	91 e0       	ldi	r25, 0x01	; 1
     40c:	0e 94 c8 0c 	call	0x1990	; 0x1990 <play>
			value = value - 10;
     410:	2a 97       	sbiw	r28, 0x0a	; 10
		{
			play("!g32");
			value = value + 10;
		}

		if(value < 0)
     412:	aa f6       	brpl	.-86     	; 0x3be <get_value_from_user+0xe>
     414:	d2 cf       	rjmp	.-92     	; 0x3ba <get_value_from_user+0xa>
		if(button & BUTTON_A)
		{
			play("!c32");
			value = value - 10;
		}
		else if(button & BUTTON_B)
     416:	84 ff       	sbrs	r24, 4
     418:	0e c0       	rjmp	.+28     	; 0x436 <get_value_from_user+0x86>
		{
			lcd_hide_cursor();
     41a:	0e 94 b6 0e 	call	0x1d6c	; 0x1d6c <lcd_hide_cursor>
			clear();
     41e:	0e 94 13 0f 	call	0x1e26	; 0x1e26 <clear>
			play("!e32");
     422:	82 e1       	ldi	r24, 0x12	; 18
     424:	91 e0       	ldi	r25, 0x01	; 1
     426:	0e 94 c8 0c 	call	0x1990	; 0x1990 <play>
		if(value < 0)
		{
			value = 0;
		}
	}
}
     42a:	ce 01       	movw	r24, r28
     42c:	df 91       	pop	r29
     42e:	cf 91       	pop	r28
     430:	1f 91       	pop	r17
     432:	0f 91       	pop	r16
     434:	08 95       	ret
			clear();
			play("!e32");

			return value;
		}
		else if(button & BUTTON_C)
     436:	85 ff       	sbrs	r24, 5
     438:	c2 cf       	rjmp	.-124    	; 0x3be <get_value_from_user+0xe>
		{
			play("!g32");
     43a:	87 e1       	ldi	r24, 0x17	; 23
     43c:	91 e0       	ldi	r25, 0x01	; 1
     43e:	0e 94 c8 0c 	call	0x1990	; 0x1990 <play>
			value = value + 10;
     442:	2a 96       	adiw	r28, 0x0a	; 10
     444:	bc cf       	rjmp	.-136    	; 0x3be <get_value_from_user+0xe>

00000446 <main>:
#define TARGET_RANGE_MIN 10
//#define TARGET_RANGE_MAX 115
#define SENSOR_MAX 150

int main()
{
     446:	cf 92       	push	r12
     448:	df 92       	push	r13
     44a:	ef 92       	push	r14
     44c:	ff 92       	push	r15
     44e:	0f 93       	push	r16
     450:	1f 93       	push	r17
     452:	cf 93       	push	r28
     454:	df 93       	push	r29
	// initialize sensors and wait for button press
    init_sensors();
     456:	0e 94 5f 00 	call	0xbe	; 0xbe <init_sensors>
	wait_with_message("Bomb 0.1");
     45a:	8c e1       	ldi	r24, 0x1C	; 28
     45c:	91 e0       	ldi	r25, 0x01	; 1
     45e:	0e 94 be 01 	call	0x37c	; 0x37c <wait_with_message>
		halt();
		while(1);

	}
*/
	int TARGET_RANGE_MAX = get_value_from_user("MAX");
     462:	85 e2       	ldi	r24, 0x25	; 37
     464:	91 e0       	ldi	r25, 0x01	; 1
     466:	0e 94 d8 01 	call	0x3b0	; 0x3b0 <get_value_from_user>
     46a:	ec 01       	movw	r28, r24
	delay_ms(350);
     46c:	8e e5       	ldi	r24, 0x5E	; 94
     46e:	91 e0       	ldi	r25, 0x01	; 1
     470:	0e 94 18 15 	call	0x2a30	; 0x2a30 <delay_ms>
	int previous_success = 0;

    while(1)
    {
		// rotate right 90 degrees
		turn_right(40, 90);
     474:	88 e2       	ldi	r24, 0x28	; 40
     476:	90 e0       	ldi	r25, 0x00	; 0
     478:	6a e5       	ldi	r22, 0x5A	; 90
     47a:	70 e0       	ldi	r23, 0x00	; 0
     47c:	0e 94 83 00 	call	0x106	; 0x106 <turn_right>
}

//Read forward sensor data
int read_forward_sensor()
{
	return analog_read(SENSOR_6);
     480:	86 e0       	ldi	r24, 0x06	; 6
     482:	0e 94 01 07 	call	0xe02	; 0xe02 <analog_read>

		// scan until object detected
		dist = SENSOR_MAX - read_forward_sensor();
     486:	26 e9       	ldi	r18, 0x96	; 150
     488:	30 e0       	ldi	r19, 0x00	; 0
     48a:	28 1b       	sub	r18, r24
     48c:	39 0b       	sbc	r19, r25
			delay_ms(250);
			turn_left(40, 10);
			delay_ms(250);

			// read again
			dist = SENSOR_MAX - read_forward_sensor();
     48e:	96 e9       	ldi	r25, 0x96	; 150
     490:	c9 2e       	mov	r12, r25
     492:	d1 2c       	mov	r13, r1
     494:	1a c0       	rjmp	.+52     	; 0x4ca <main+0x84>

		// scan until object detected
		dist = SENSOR_MAX - read_forward_sensor();
		while(dist > TARGET_RANGE_MAX && !previous_success)
		{
			clear();
     496:	0e 94 13 0f 	call	0x1e26	; 0x1e26 <clear>
			print_long(dist);
     49a:	c8 01       	movw	r24, r16
     49c:	b7 01       	movw	r22, r14
     49e:	0e 94 de 0f 	call	0x1fbc	; 0x1fbc <print_long>
			{
				previous_success = 1;
			}
			
			// rotate some
			delay_ms(250);
     4a2:	8a ef       	ldi	r24, 0xFA	; 250
     4a4:	90 e0       	ldi	r25, 0x00	; 0
     4a6:	0e 94 18 15 	call	0x2a30	; 0x2a30 <delay_ms>
			turn_left(40, 10);
     4aa:	88 e2       	ldi	r24, 0x28	; 40
     4ac:	90 e0       	ldi	r25, 0x00	; 0
     4ae:	6a e0       	ldi	r22, 0x0A	; 10
     4b0:	70 e0       	ldi	r23, 0x00	; 0
     4b2:	0e 94 c6 00 	call	0x18c	; 0x18c <turn_left>
			delay_ms(250);
     4b6:	8a ef       	ldi	r24, 0xFA	; 250
     4b8:	90 e0       	ldi	r25, 0x00	; 0
     4ba:	0e 94 18 15 	call	0x2a30	; 0x2a30 <delay_ms>
     4be:	86 e0       	ldi	r24, 0x06	; 6
     4c0:	0e 94 01 07 	call	0xe02	; 0xe02 <analog_read>

			// read again
			dist = SENSOR_MAX - read_forward_sensor();
     4c4:	96 01       	movw	r18, r12
     4c6:	28 1b       	sub	r18, r24
     4c8:	39 0b       	sbc	r19, r25
     4ca:	79 01       	movw	r14, r18
     4cc:	00 27       	eor	r16, r16
     4ce:	f7 fc       	sbrc	r15, 7
     4d0:	00 95       	com	r16
     4d2:	10 2f       	mov	r17, r16
		// rotate right 90 degrees
		turn_right(40, 90);

		// scan until object detected
		dist = SENSOR_MAX - read_forward_sensor();
		while(dist > TARGET_RANGE_MAX && !previous_success)
     4d4:	c2 17       	cp	r28, r18
     4d6:	d3 07       	cpc	r29, r19
     4d8:	f4 f2       	brlt	.-68     	; 0x496 <main+0x50>
			// read again
			dist = SENSOR_MAX - read_forward_sensor();
		}
		
		// print last value
		clear();
     4da:	0e 94 13 0f 	call	0x1e26	; 0x1e26 <clear>
		print_long(dist);
     4de:	c8 01       	movw	r24, r16
     4e0:	b7 01       	movw	r22, r14
     4e2:	0e 94 de 0f 	call	0x1fbc	; 0x1fbc <print_long>

		// rotate a bit more
		delay_ms(250);
     4e6:	8a ef       	ldi	r24, 0xFA	; 250
     4e8:	90 e0       	ldi	r25, 0x00	; 0
     4ea:	0e 94 18 15 	call	0x2a30	; 0x2a30 <delay_ms>
		turn_left(40, 20);
     4ee:	88 e2       	ldi	r24, 0x28	; 40
     4f0:	90 e0       	ldi	r25, 0x00	; 0
     4f2:	64 e1       	ldi	r22, 0x14	; 20
     4f4:	70 e0       	ldi	r23, 0x00	; 0
     4f6:	0e 94 c6 00 	call	0x18c	; 0x18c <turn_left>
		delay_ms(250);
     4fa:	8a ef       	ldi	r24, 0xFA	; 250
     4fc:	90 e0       	ldi	r25, 0x00	; 0
     4fe:	0e 94 18 15 	call	0x2a30	; 0x2a30 <delay_ms>
		
		// dash forward
		delay_ms(1000);
     502:	88 ee       	ldi	r24, 0xE8	; 232
     504:	93 e0       	ldi	r25, 0x03	; 3
     506:	0e 94 18 15 	call	0x2a30	; 0x2a30 <delay_ms>
		set_motors(80,80);
     50a:	80 e5       	ldi	r24, 0x50	; 80
     50c:	90 e0       	ldi	r25, 0x00	; 0
     50e:	60 e5       	ldi	r22, 0x50	; 80
     510:	70 e0       	ldi	r23, 0x00	; 0
     512:	0e 94 41 12 	call	0x2482	; 0x2482 <set_motors>
		delay_ms(1500);
     516:	8c ed       	ldi	r24, 0xDC	; 220
     518:	95 e0       	ldi	r25, 0x05	; 5
     51a:	0e 94 18 15 	call	0x2a30	; 0x2a30 <delay_ms>
}

//Stop both motors
void halt()
{
	set_motors(0,0);
     51e:	80 e0       	ldi	r24, 0x00	; 0
     520:	90 e0       	ldi	r25, 0x00	; 0
     522:	60 e0       	ldi	r22, 0x00	; 0
     524:	70 e0       	ldi	r23, 0x00	; 0
     526:	0e 94 41 12 	call	0x2482	; 0x2482 <set_motors>
     52a:	ff cf       	rjmp	.-2      	; 0x52a <__stack+0x2b>

0000052c <__mulsf3>:
     52c:	a0 e2       	ldi	r26, 0x20	; 32
     52e:	b0 e0       	ldi	r27, 0x00	; 0
     530:	ec e9       	ldi	r30, 0x9C	; 156
     532:	f2 e0       	ldi	r31, 0x02	; 2
     534:	0c 94 62 16 	jmp	0x2cc4	; 0x2cc4 <__prologue_saves__>
     538:	69 83       	std	Y+1, r22	; 0x01
     53a:	7a 83       	std	Y+2, r23	; 0x02
     53c:	8b 83       	std	Y+3, r24	; 0x03
     53e:	9c 83       	std	Y+4, r25	; 0x04
     540:	2d 83       	std	Y+5, r18	; 0x05
     542:	3e 83       	std	Y+6, r19	; 0x06
     544:	4f 83       	std	Y+7, r20	; 0x07
     546:	58 87       	std	Y+8, r21	; 0x08
     548:	ce 01       	movw	r24, r28
     54a:	01 96       	adiw	r24, 0x01	; 1
     54c:	be 01       	movw	r22, r28
     54e:	67 5f       	subi	r22, 0xF7	; 247
     550:	7f 4f       	sbci	r23, 0xFF	; 255
     552:	0e 94 12 06 	call	0xc24	; 0xc24 <__unpack_f>
     556:	ce 01       	movw	r24, r28
     558:	05 96       	adiw	r24, 0x05	; 5
     55a:	be 01       	movw	r22, r28
     55c:	6f 5e       	subi	r22, 0xEF	; 239
     55e:	7f 4f       	sbci	r23, 0xFF	; 255
     560:	0e 94 12 06 	call	0xc24	; 0xc24 <__unpack_f>
     564:	99 85       	ldd	r25, Y+9	; 0x09
     566:	92 30       	cpi	r25, 0x02	; 2
     568:	88 f0       	brcs	.+34     	; 0x58c <__mulsf3+0x60>
     56a:	89 89       	ldd	r24, Y+17	; 0x11
     56c:	82 30       	cpi	r24, 0x02	; 2
     56e:	c8 f0       	brcs	.+50     	; 0x5a2 <__mulsf3+0x76>
     570:	94 30       	cpi	r25, 0x04	; 4
     572:	19 f4       	brne	.+6      	; 0x57a <__mulsf3+0x4e>
     574:	82 30       	cpi	r24, 0x02	; 2
     576:	51 f4       	brne	.+20     	; 0x58c <__mulsf3+0x60>
     578:	04 c0       	rjmp	.+8      	; 0x582 <__mulsf3+0x56>
     57a:	84 30       	cpi	r24, 0x04	; 4
     57c:	29 f4       	brne	.+10     	; 0x588 <__mulsf3+0x5c>
     57e:	92 30       	cpi	r25, 0x02	; 2
     580:	81 f4       	brne	.+32     	; 0x5a2 <__mulsf3+0x76>
     582:	87 e3       	ldi	r24, 0x37	; 55
     584:	91 e0       	ldi	r25, 0x01	; 1
     586:	c6 c0       	rjmp	.+396    	; 0x714 <__mulsf3+0x1e8>
     588:	92 30       	cpi	r25, 0x02	; 2
     58a:	49 f4       	brne	.+18     	; 0x59e <__mulsf3+0x72>
     58c:	20 e0       	ldi	r18, 0x00	; 0
     58e:	9a 85       	ldd	r25, Y+10	; 0x0a
     590:	8a 89       	ldd	r24, Y+18	; 0x12
     592:	98 13       	cpse	r25, r24
     594:	21 e0       	ldi	r18, 0x01	; 1
     596:	2a 87       	std	Y+10, r18	; 0x0a
     598:	ce 01       	movw	r24, r28
     59a:	09 96       	adiw	r24, 0x09	; 9
     59c:	bb c0       	rjmp	.+374    	; 0x714 <__mulsf3+0x1e8>
     59e:	82 30       	cpi	r24, 0x02	; 2
     5a0:	49 f4       	brne	.+18     	; 0x5b4 <__mulsf3+0x88>
     5a2:	20 e0       	ldi	r18, 0x00	; 0
     5a4:	9a 85       	ldd	r25, Y+10	; 0x0a
     5a6:	8a 89       	ldd	r24, Y+18	; 0x12
     5a8:	98 13       	cpse	r25, r24
     5aa:	21 e0       	ldi	r18, 0x01	; 1
     5ac:	2a 8b       	std	Y+18, r18	; 0x12
     5ae:	ce 01       	movw	r24, r28
     5b0:	41 96       	adiw	r24, 0x11	; 17
     5b2:	b0 c0       	rjmp	.+352    	; 0x714 <__mulsf3+0x1e8>
     5b4:	2d 84       	ldd	r2, Y+13	; 0x0d
     5b6:	3e 84       	ldd	r3, Y+14	; 0x0e
     5b8:	4f 84       	ldd	r4, Y+15	; 0x0f
     5ba:	58 88       	ldd	r5, Y+16	; 0x10
     5bc:	6d 88       	ldd	r6, Y+21	; 0x15
     5be:	7e 88       	ldd	r7, Y+22	; 0x16
     5c0:	8f 88       	ldd	r8, Y+23	; 0x17
     5c2:	98 8c       	ldd	r9, Y+24	; 0x18
     5c4:	ee 24       	eor	r14, r14
     5c6:	ff 24       	eor	r15, r15
     5c8:	87 01       	movw	r16, r14
     5ca:	aa 24       	eor	r10, r10
     5cc:	bb 24       	eor	r11, r11
     5ce:	65 01       	movw	r12, r10
     5d0:	40 e0       	ldi	r20, 0x00	; 0
     5d2:	50 e0       	ldi	r21, 0x00	; 0
     5d4:	60 e0       	ldi	r22, 0x00	; 0
     5d6:	70 e0       	ldi	r23, 0x00	; 0
     5d8:	e0 e0       	ldi	r30, 0x00	; 0
     5da:	f0 e0       	ldi	r31, 0x00	; 0
     5dc:	c1 01       	movw	r24, r2
     5de:	81 70       	andi	r24, 0x01	; 1
     5e0:	90 70       	andi	r25, 0x00	; 0
     5e2:	89 2b       	or	r24, r25
     5e4:	e9 f0       	breq	.+58     	; 0x620 <__mulsf3+0xf4>
     5e6:	e6 0c       	add	r14, r6
     5e8:	f7 1c       	adc	r15, r7
     5ea:	08 1d       	adc	r16, r8
     5ec:	19 1d       	adc	r17, r9
     5ee:	9a 01       	movw	r18, r20
     5f0:	ab 01       	movw	r20, r22
     5f2:	2a 0d       	add	r18, r10
     5f4:	3b 1d       	adc	r19, r11
     5f6:	4c 1d       	adc	r20, r12
     5f8:	5d 1d       	adc	r21, r13
     5fa:	80 e0       	ldi	r24, 0x00	; 0
     5fc:	90 e0       	ldi	r25, 0x00	; 0
     5fe:	a0 e0       	ldi	r26, 0x00	; 0
     600:	b0 e0       	ldi	r27, 0x00	; 0
     602:	e6 14       	cp	r14, r6
     604:	f7 04       	cpc	r15, r7
     606:	08 05       	cpc	r16, r8
     608:	19 05       	cpc	r17, r9
     60a:	20 f4       	brcc	.+8      	; 0x614 <__mulsf3+0xe8>
     60c:	81 e0       	ldi	r24, 0x01	; 1
     60e:	90 e0       	ldi	r25, 0x00	; 0
     610:	a0 e0       	ldi	r26, 0x00	; 0
     612:	b0 e0       	ldi	r27, 0x00	; 0
     614:	ba 01       	movw	r22, r20
     616:	a9 01       	movw	r20, r18
     618:	48 0f       	add	r20, r24
     61a:	59 1f       	adc	r21, r25
     61c:	6a 1f       	adc	r22, r26
     61e:	7b 1f       	adc	r23, r27
     620:	aa 0c       	add	r10, r10
     622:	bb 1c       	adc	r11, r11
     624:	cc 1c       	adc	r12, r12
     626:	dd 1c       	adc	r13, r13
     628:	97 fe       	sbrs	r9, 7
     62a:	08 c0       	rjmp	.+16     	; 0x63c <__mulsf3+0x110>
     62c:	81 e0       	ldi	r24, 0x01	; 1
     62e:	90 e0       	ldi	r25, 0x00	; 0
     630:	a0 e0       	ldi	r26, 0x00	; 0
     632:	b0 e0       	ldi	r27, 0x00	; 0
     634:	a8 2a       	or	r10, r24
     636:	b9 2a       	or	r11, r25
     638:	ca 2a       	or	r12, r26
     63a:	db 2a       	or	r13, r27
     63c:	31 96       	adiw	r30, 0x01	; 1
     63e:	e0 32       	cpi	r30, 0x20	; 32
     640:	f1 05       	cpc	r31, r1
     642:	49 f0       	breq	.+18     	; 0x656 <__mulsf3+0x12a>
     644:	66 0c       	add	r6, r6
     646:	77 1c       	adc	r7, r7
     648:	88 1c       	adc	r8, r8
     64a:	99 1c       	adc	r9, r9
     64c:	56 94       	lsr	r5
     64e:	47 94       	ror	r4
     650:	37 94       	ror	r3
     652:	27 94       	ror	r2
     654:	c3 cf       	rjmp	.-122    	; 0x5dc <__mulsf3+0xb0>
     656:	fa 85       	ldd	r31, Y+10	; 0x0a
     658:	ea 89       	ldd	r30, Y+18	; 0x12
     65a:	2b 89       	ldd	r18, Y+19	; 0x13
     65c:	3c 89       	ldd	r19, Y+20	; 0x14
     65e:	8b 85       	ldd	r24, Y+11	; 0x0b
     660:	9c 85       	ldd	r25, Y+12	; 0x0c
     662:	28 0f       	add	r18, r24
     664:	39 1f       	adc	r19, r25
     666:	2e 5f       	subi	r18, 0xFE	; 254
     668:	3f 4f       	sbci	r19, 0xFF	; 255
     66a:	17 c0       	rjmp	.+46     	; 0x69a <__mulsf3+0x16e>
     66c:	ca 01       	movw	r24, r20
     66e:	81 70       	andi	r24, 0x01	; 1
     670:	90 70       	andi	r25, 0x00	; 0
     672:	89 2b       	or	r24, r25
     674:	61 f0       	breq	.+24     	; 0x68e <__mulsf3+0x162>
     676:	16 95       	lsr	r17
     678:	07 95       	ror	r16
     67a:	f7 94       	ror	r15
     67c:	e7 94       	ror	r14
     67e:	80 e0       	ldi	r24, 0x00	; 0
     680:	90 e0       	ldi	r25, 0x00	; 0
     682:	a0 e0       	ldi	r26, 0x00	; 0
     684:	b0 e8       	ldi	r27, 0x80	; 128
     686:	e8 2a       	or	r14, r24
     688:	f9 2a       	or	r15, r25
     68a:	0a 2b       	or	r16, r26
     68c:	1b 2b       	or	r17, r27
     68e:	76 95       	lsr	r23
     690:	67 95       	ror	r22
     692:	57 95       	ror	r21
     694:	47 95       	ror	r20
     696:	2f 5f       	subi	r18, 0xFF	; 255
     698:	3f 4f       	sbci	r19, 0xFF	; 255
     69a:	77 fd       	sbrc	r23, 7
     69c:	e7 cf       	rjmp	.-50     	; 0x66c <__mulsf3+0x140>
     69e:	0c c0       	rjmp	.+24     	; 0x6b8 <__mulsf3+0x18c>
     6a0:	44 0f       	add	r20, r20
     6a2:	55 1f       	adc	r21, r21
     6a4:	66 1f       	adc	r22, r22
     6a6:	77 1f       	adc	r23, r23
     6a8:	17 fd       	sbrc	r17, 7
     6aa:	41 60       	ori	r20, 0x01	; 1
     6ac:	ee 0c       	add	r14, r14
     6ae:	ff 1c       	adc	r15, r15
     6b0:	00 1f       	adc	r16, r16
     6b2:	11 1f       	adc	r17, r17
     6b4:	21 50       	subi	r18, 0x01	; 1
     6b6:	30 40       	sbci	r19, 0x00	; 0
     6b8:	40 30       	cpi	r20, 0x00	; 0
     6ba:	90 e0       	ldi	r25, 0x00	; 0
     6bc:	59 07       	cpc	r21, r25
     6be:	90 e0       	ldi	r25, 0x00	; 0
     6c0:	69 07       	cpc	r22, r25
     6c2:	90 e4       	ldi	r25, 0x40	; 64
     6c4:	79 07       	cpc	r23, r25
     6c6:	60 f3       	brcs	.-40     	; 0x6a0 <__mulsf3+0x174>
     6c8:	2b 8f       	std	Y+27, r18	; 0x1b
     6ca:	3c 8f       	std	Y+28, r19	; 0x1c
     6cc:	db 01       	movw	r26, r22
     6ce:	ca 01       	movw	r24, r20
     6d0:	8f 77       	andi	r24, 0x7F	; 127
     6d2:	90 70       	andi	r25, 0x00	; 0
     6d4:	a0 70       	andi	r26, 0x00	; 0
     6d6:	b0 70       	andi	r27, 0x00	; 0
     6d8:	80 34       	cpi	r24, 0x40	; 64
     6da:	91 05       	cpc	r25, r1
     6dc:	a1 05       	cpc	r26, r1
     6de:	b1 05       	cpc	r27, r1
     6e0:	61 f4       	brne	.+24     	; 0x6fa <__mulsf3+0x1ce>
     6e2:	47 fd       	sbrc	r20, 7
     6e4:	0a c0       	rjmp	.+20     	; 0x6fa <__mulsf3+0x1ce>
     6e6:	e1 14       	cp	r14, r1
     6e8:	f1 04       	cpc	r15, r1
     6ea:	01 05       	cpc	r16, r1
     6ec:	11 05       	cpc	r17, r1
     6ee:	29 f0       	breq	.+10     	; 0x6fa <__mulsf3+0x1ce>
     6f0:	40 5c       	subi	r20, 0xC0	; 192
     6f2:	5f 4f       	sbci	r21, 0xFF	; 255
     6f4:	6f 4f       	sbci	r22, 0xFF	; 255
     6f6:	7f 4f       	sbci	r23, 0xFF	; 255
     6f8:	40 78       	andi	r20, 0x80	; 128
     6fa:	1a 8e       	std	Y+26, r1	; 0x1a
     6fc:	fe 17       	cp	r31, r30
     6fe:	11 f0       	breq	.+4      	; 0x704 <__mulsf3+0x1d8>
     700:	81 e0       	ldi	r24, 0x01	; 1
     702:	8a 8f       	std	Y+26, r24	; 0x1a
     704:	4d 8f       	std	Y+29, r20	; 0x1d
     706:	5e 8f       	std	Y+30, r21	; 0x1e
     708:	6f 8f       	std	Y+31, r22	; 0x1f
     70a:	78 a3       	std	Y+32, r23	; 0x20
     70c:	83 e0       	ldi	r24, 0x03	; 3
     70e:	89 8f       	std	Y+25, r24	; 0x19
     710:	ce 01       	movw	r24, r28
     712:	49 96       	adiw	r24, 0x19	; 25
     714:	0e 94 3d 05 	call	0xa7a	; 0xa7a <__pack_f>
     718:	a0 96       	adiw	r28, 0x20	; 32
     71a:	e2 e1       	ldi	r30, 0x12	; 18
     71c:	0c 94 7e 16 	jmp	0x2cfc	; 0x2cfc <__epilogue_restores__>

00000720 <__divsf3>:
     720:	a8 e1       	ldi	r26, 0x18	; 24
     722:	b0 e0       	ldi	r27, 0x00	; 0
     724:	e6 e9       	ldi	r30, 0x96	; 150
     726:	f3 e0       	ldi	r31, 0x03	; 3
     728:	0c 94 6a 16 	jmp	0x2cd4	; 0x2cd4 <__prologue_saves__+0x10>
     72c:	69 83       	std	Y+1, r22	; 0x01
     72e:	7a 83       	std	Y+2, r23	; 0x02
     730:	8b 83       	std	Y+3, r24	; 0x03
     732:	9c 83       	std	Y+4, r25	; 0x04
     734:	2d 83       	std	Y+5, r18	; 0x05
     736:	3e 83       	std	Y+6, r19	; 0x06
     738:	4f 83       	std	Y+7, r20	; 0x07
     73a:	58 87       	std	Y+8, r21	; 0x08
     73c:	b9 e0       	ldi	r27, 0x09	; 9
     73e:	eb 2e       	mov	r14, r27
     740:	f1 2c       	mov	r15, r1
     742:	ec 0e       	add	r14, r28
     744:	fd 1e       	adc	r15, r29
     746:	ce 01       	movw	r24, r28
     748:	01 96       	adiw	r24, 0x01	; 1
     74a:	b7 01       	movw	r22, r14
     74c:	0e 94 12 06 	call	0xc24	; 0xc24 <__unpack_f>
     750:	8e 01       	movw	r16, r28
     752:	0f 5e       	subi	r16, 0xEF	; 239
     754:	1f 4f       	sbci	r17, 0xFF	; 255
     756:	ce 01       	movw	r24, r28
     758:	05 96       	adiw	r24, 0x05	; 5
     75a:	b8 01       	movw	r22, r16
     75c:	0e 94 12 06 	call	0xc24	; 0xc24 <__unpack_f>
     760:	29 85       	ldd	r18, Y+9	; 0x09
     762:	22 30       	cpi	r18, 0x02	; 2
     764:	08 f4       	brcc	.+2      	; 0x768 <__divsf3+0x48>
     766:	7e c0       	rjmp	.+252    	; 0x864 <__divsf3+0x144>
     768:	39 89       	ldd	r19, Y+17	; 0x11
     76a:	32 30       	cpi	r19, 0x02	; 2
     76c:	10 f4       	brcc	.+4      	; 0x772 <__divsf3+0x52>
     76e:	b8 01       	movw	r22, r16
     770:	7c c0       	rjmp	.+248    	; 0x86a <__divsf3+0x14a>
     772:	8a 85       	ldd	r24, Y+10	; 0x0a
     774:	9a 89       	ldd	r25, Y+18	; 0x12
     776:	89 27       	eor	r24, r25
     778:	8a 87       	std	Y+10, r24	; 0x0a
     77a:	24 30       	cpi	r18, 0x04	; 4
     77c:	11 f0       	breq	.+4      	; 0x782 <__divsf3+0x62>
     77e:	22 30       	cpi	r18, 0x02	; 2
     780:	31 f4       	brne	.+12     	; 0x78e <__divsf3+0x6e>
     782:	23 17       	cp	r18, r19
     784:	09 f0       	breq	.+2      	; 0x788 <__divsf3+0x68>
     786:	6e c0       	rjmp	.+220    	; 0x864 <__divsf3+0x144>
     788:	67 e3       	ldi	r22, 0x37	; 55
     78a:	71 e0       	ldi	r23, 0x01	; 1
     78c:	6e c0       	rjmp	.+220    	; 0x86a <__divsf3+0x14a>
     78e:	34 30       	cpi	r19, 0x04	; 4
     790:	39 f4       	brne	.+14     	; 0x7a0 <__divsf3+0x80>
     792:	1d 86       	std	Y+13, r1	; 0x0d
     794:	1e 86       	std	Y+14, r1	; 0x0e
     796:	1f 86       	std	Y+15, r1	; 0x0f
     798:	18 8a       	std	Y+16, r1	; 0x10
     79a:	1c 86       	std	Y+12, r1	; 0x0c
     79c:	1b 86       	std	Y+11, r1	; 0x0b
     79e:	04 c0       	rjmp	.+8      	; 0x7a8 <__divsf3+0x88>
     7a0:	32 30       	cpi	r19, 0x02	; 2
     7a2:	21 f4       	brne	.+8      	; 0x7ac <__divsf3+0x8c>
     7a4:	84 e0       	ldi	r24, 0x04	; 4
     7a6:	89 87       	std	Y+9, r24	; 0x09
     7a8:	b7 01       	movw	r22, r14
     7aa:	5f c0       	rjmp	.+190    	; 0x86a <__divsf3+0x14a>
     7ac:	2b 85       	ldd	r18, Y+11	; 0x0b
     7ae:	3c 85       	ldd	r19, Y+12	; 0x0c
     7b0:	8b 89       	ldd	r24, Y+19	; 0x13
     7b2:	9c 89       	ldd	r25, Y+20	; 0x14
     7b4:	28 1b       	sub	r18, r24
     7b6:	39 0b       	sbc	r19, r25
     7b8:	3c 87       	std	Y+12, r19	; 0x0c
     7ba:	2b 87       	std	Y+11, r18	; 0x0b
     7bc:	ed 84       	ldd	r14, Y+13	; 0x0d
     7be:	fe 84       	ldd	r15, Y+14	; 0x0e
     7c0:	0f 85       	ldd	r16, Y+15	; 0x0f
     7c2:	18 89       	ldd	r17, Y+16	; 0x10
     7c4:	ad 88       	ldd	r10, Y+21	; 0x15
     7c6:	be 88       	ldd	r11, Y+22	; 0x16
     7c8:	cf 88       	ldd	r12, Y+23	; 0x17
     7ca:	d8 8c       	ldd	r13, Y+24	; 0x18
     7cc:	ea 14       	cp	r14, r10
     7ce:	fb 04       	cpc	r15, r11
     7d0:	0c 05       	cpc	r16, r12
     7d2:	1d 05       	cpc	r17, r13
     7d4:	40 f4       	brcc	.+16     	; 0x7e6 <__divsf3+0xc6>
     7d6:	ee 0c       	add	r14, r14
     7d8:	ff 1c       	adc	r15, r15
     7da:	00 1f       	adc	r16, r16
     7dc:	11 1f       	adc	r17, r17
     7de:	21 50       	subi	r18, 0x01	; 1
     7e0:	30 40       	sbci	r19, 0x00	; 0
     7e2:	3c 87       	std	Y+12, r19	; 0x0c
     7e4:	2b 87       	std	Y+11, r18	; 0x0b
     7e6:	20 e0       	ldi	r18, 0x00	; 0
     7e8:	30 e0       	ldi	r19, 0x00	; 0
     7ea:	40 e0       	ldi	r20, 0x00	; 0
     7ec:	50 e0       	ldi	r21, 0x00	; 0
     7ee:	80 e0       	ldi	r24, 0x00	; 0
     7f0:	90 e0       	ldi	r25, 0x00	; 0
     7f2:	a0 e0       	ldi	r26, 0x00	; 0
     7f4:	b0 e4       	ldi	r27, 0x40	; 64
     7f6:	60 e0       	ldi	r22, 0x00	; 0
     7f8:	70 e0       	ldi	r23, 0x00	; 0
     7fa:	ea 14       	cp	r14, r10
     7fc:	fb 04       	cpc	r15, r11
     7fe:	0c 05       	cpc	r16, r12
     800:	1d 05       	cpc	r17, r13
     802:	40 f0       	brcs	.+16     	; 0x814 <__divsf3+0xf4>
     804:	28 2b       	or	r18, r24
     806:	39 2b       	or	r19, r25
     808:	4a 2b       	or	r20, r26
     80a:	5b 2b       	or	r21, r27
     80c:	ea 18       	sub	r14, r10
     80e:	fb 08       	sbc	r15, r11
     810:	0c 09       	sbc	r16, r12
     812:	1d 09       	sbc	r17, r13
     814:	b6 95       	lsr	r27
     816:	a7 95       	ror	r26
     818:	97 95       	ror	r25
     81a:	87 95       	ror	r24
     81c:	ee 0c       	add	r14, r14
     81e:	ff 1c       	adc	r15, r15
     820:	00 1f       	adc	r16, r16
     822:	11 1f       	adc	r17, r17
     824:	6f 5f       	subi	r22, 0xFF	; 255
     826:	7f 4f       	sbci	r23, 0xFF	; 255
     828:	6f 31       	cpi	r22, 0x1F	; 31
     82a:	71 05       	cpc	r23, r1
     82c:	31 f7       	brne	.-52     	; 0x7fa <__divsf3+0xda>
     82e:	da 01       	movw	r26, r20
     830:	c9 01       	movw	r24, r18
     832:	8f 77       	andi	r24, 0x7F	; 127
     834:	90 70       	andi	r25, 0x00	; 0
     836:	a0 70       	andi	r26, 0x00	; 0
     838:	b0 70       	andi	r27, 0x00	; 0
     83a:	80 34       	cpi	r24, 0x40	; 64
     83c:	91 05       	cpc	r25, r1
     83e:	a1 05       	cpc	r26, r1
     840:	b1 05       	cpc	r27, r1
     842:	61 f4       	brne	.+24     	; 0x85c <__divsf3+0x13c>
     844:	27 fd       	sbrc	r18, 7
     846:	0a c0       	rjmp	.+20     	; 0x85c <__divsf3+0x13c>
     848:	e1 14       	cp	r14, r1
     84a:	f1 04       	cpc	r15, r1
     84c:	01 05       	cpc	r16, r1
     84e:	11 05       	cpc	r17, r1
     850:	29 f0       	breq	.+10     	; 0x85c <__divsf3+0x13c>
     852:	20 5c       	subi	r18, 0xC0	; 192
     854:	3f 4f       	sbci	r19, 0xFF	; 255
     856:	4f 4f       	sbci	r20, 0xFF	; 255
     858:	5f 4f       	sbci	r21, 0xFF	; 255
     85a:	20 78       	andi	r18, 0x80	; 128
     85c:	2d 87       	std	Y+13, r18	; 0x0d
     85e:	3e 87       	std	Y+14, r19	; 0x0e
     860:	4f 87       	std	Y+15, r20	; 0x0f
     862:	58 8b       	std	Y+16, r21	; 0x10
     864:	be 01       	movw	r22, r28
     866:	67 5f       	subi	r22, 0xF7	; 247
     868:	7f 4f       	sbci	r23, 0xFF	; 255
     86a:	cb 01       	movw	r24, r22
     86c:	0e 94 3d 05 	call	0xa7a	; 0xa7a <__pack_f>
     870:	68 96       	adiw	r28, 0x18	; 24
     872:	ea e0       	ldi	r30, 0x0A	; 10
     874:	0c 94 86 16 	jmp	0x2d0c	; 0x2d0c <__epilogue_restores__+0x10>

00000878 <__floatsisf>:
     878:	a8 e0       	ldi	r26, 0x08	; 8
     87a:	b0 e0       	ldi	r27, 0x00	; 0
     87c:	e2 e4       	ldi	r30, 0x42	; 66
     87e:	f4 e0       	ldi	r31, 0x04	; 4
     880:	0c 94 6b 16 	jmp	0x2cd6	; 0x2cd6 <__prologue_saves__+0x12>
     884:	9b 01       	movw	r18, r22
     886:	ac 01       	movw	r20, r24
     888:	83 e0       	ldi	r24, 0x03	; 3
     88a:	89 83       	std	Y+1, r24	; 0x01
     88c:	da 01       	movw	r26, r20
     88e:	c9 01       	movw	r24, r18
     890:	88 27       	eor	r24, r24
     892:	b7 fd       	sbrc	r27, 7
     894:	83 95       	inc	r24
     896:	99 27       	eor	r25, r25
     898:	aa 27       	eor	r26, r26
     89a:	bb 27       	eor	r27, r27
     89c:	b8 2e       	mov	r11, r24
     89e:	21 15       	cp	r18, r1
     8a0:	31 05       	cpc	r19, r1
     8a2:	41 05       	cpc	r20, r1
     8a4:	51 05       	cpc	r21, r1
     8a6:	19 f4       	brne	.+6      	; 0x8ae <__floatsisf+0x36>
     8a8:	82 e0       	ldi	r24, 0x02	; 2
     8aa:	89 83       	std	Y+1, r24	; 0x01
     8ac:	3a c0       	rjmp	.+116    	; 0x922 <__floatsisf+0xaa>
     8ae:	88 23       	and	r24, r24
     8b0:	a9 f0       	breq	.+42     	; 0x8dc <__floatsisf+0x64>
     8b2:	20 30       	cpi	r18, 0x00	; 0
     8b4:	80 e0       	ldi	r24, 0x00	; 0
     8b6:	38 07       	cpc	r19, r24
     8b8:	80 e0       	ldi	r24, 0x00	; 0
     8ba:	48 07       	cpc	r20, r24
     8bc:	80 e8       	ldi	r24, 0x80	; 128
     8be:	58 07       	cpc	r21, r24
     8c0:	29 f4       	brne	.+10     	; 0x8cc <__floatsisf+0x54>
     8c2:	60 e0       	ldi	r22, 0x00	; 0
     8c4:	70 e0       	ldi	r23, 0x00	; 0
     8c6:	80 e0       	ldi	r24, 0x00	; 0
     8c8:	9f ec       	ldi	r25, 0xCF	; 207
     8ca:	30 c0       	rjmp	.+96     	; 0x92c <__floatsisf+0xb4>
     8cc:	ee 24       	eor	r14, r14
     8ce:	ff 24       	eor	r15, r15
     8d0:	87 01       	movw	r16, r14
     8d2:	e2 1a       	sub	r14, r18
     8d4:	f3 0a       	sbc	r15, r19
     8d6:	04 0b       	sbc	r16, r20
     8d8:	15 0b       	sbc	r17, r21
     8da:	02 c0       	rjmp	.+4      	; 0x8e0 <__floatsisf+0x68>
     8dc:	79 01       	movw	r14, r18
     8de:	8a 01       	movw	r16, r20
     8e0:	8e e1       	ldi	r24, 0x1E	; 30
     8e2:	c8 2e       	mov	r12, r24
     8e4:	d1 2c       	mov	r13, r1
     8e6:	dc 82       	std	Y+4, r13	; 0x04
     8e8:	cb 82       	std	Y+3, r12	; 0x03
     8ea:	ed 82       	std	Y+5, r14	; 0x05
     8ec:	fe 82       	std	Y+6, r15	; 0x06
     8ee:	0f 83       	std	Y+7, r16	; 0x07
     8f0:	18 87       	std	Y+8, r17	; 0x08
     8f2:	c8 01       	movw	r24, r16
     8f4:	b7 01       	movw	r22, r14
     8f6:	0e 94 ee 04 	call	0x9dc	; 0x9dc <__clzsi2>
     8fa:	01 97       	sbiw	r24, 0x01	; 1
     8fc:	18 16       	cp	r1, r24
     8fe:	19 06       	cpc	r1, r25
     900:	84 f4       	brge	.+32     	; 0x922 <__floatsisf+0xaa>
     902:	08 2e       	mov	r0, r24
     904:	04 c0       	rjmp	.+8      	; 0x90e <__floatsisf+0x96>
     906:	ee 0c       	add	r14, r14
     908:	ff 1c       	adc	r15, r15
     90a:	00 1f       	adc	r16, r16
     90c:	11 1f       	adc	r17, r17
     90e:	0a 94       	dec	r0
     910:	d2 f7       	brpl	.-12     	; 0x906 <__floatsisf+0x8e>
     912:	ed 82       	std	Y+5, r14	; 0x05
     914:	fe 82       	std	Y+6, r15	; 0x06
     916:	0f 83       	std	Y+7, r16	; 0x07
     918:	18 87       	std	Y+8, r17	; 0x08
     91a:	c8 1a       	sub	r12, r24
     91c:	d9 0a       	sbc	r13, r25
     91e:	dc 82       	std	Y+4, r13	; 0x04
     920:	cb 82       	std	Y+3, r12	; 0x03
     922:	ba 82       	std	Y+2, r11	; 0x02
     924:	ce 01       	movw	r24, r28
     926:	01 96       	adiw	r24, 0x01	; 1
     928:	0e 94 3d 05 	call	0xa7a	; 0xa7a <__pack_f>
     92c:	28 96       	adiw	r28, 0x08	; 8
     92e:	e9 e0       	ldi	r30, 0x09	; 9
     930:	0c 94 87 16 	jmp	0x2d0e	; 0x2d0e <__epilogue_restores__+0x12>

00000934 <__fixsfsi>:
     934:	ac e0       	ldi	r26, 0x0C	; 12
     936:	b0 e0       	ldi	r27, 0x00	; 0
     938:	e0 ea       	ldi	r30, 0xA0	; 160
     93a:	f4 e0       	ldi	r31, 0x04	; 4
     93c:	0c 94 72 16 	jmp	0x2ce4	; 0x2ce4 <__prologue_saves__+0x20>
     940:	69 83       	std	Y+1, r22	; 0x01
     942:	7a 83       	std	Y+2, r23	; 0x02
     944:	8b 83       	std	Y+3, r24	; 0x03
     946:	9c 83       	std	Y+4, r25	; 0x04
     948:	ce 01       	movw	r24, r28
     94a:	01 96       	adiw	r24, 0x01	; 1
     94c:	be 01       	movw	r22, r28
     94e:	6b 5f       	subi	r22, 0xFB	; 251
     950:	7f 4f       	sbci	r23, 0xFF	; 255
     952:	0e 94 12 06 	call	0xc24	; 0xc24 <__unpack_f>
     956:	8d 81       	ldd	r24, Y+5	; 0x05
     958:	82 30       	cpi	r24, 0x02	; 2
     95a:	61 f1       	breq	.+88     	; 0x9b4 <__fixsfsi+0x80>
     95c:	82 30       	cpi	r24, 0x02	; 2
     95e:	50 f1       	brcs	.+84     	; 0x9b4 <__fixsfsi+0x80>
     960:	84 30       	cpi	r24, 0x04	; 4
     962:	21 f4       	brne	.+8      	; 0x96c <__fixsfsi+0x38>
     964:	8e 81       	ldd	r24, Y+6	; 0x06
     966:	88 23       	and	r24, r24
     968:	51 f1       	breq	.+84     	; 0x9be <__fixsfsi+0x8a>
     96a:	2e c0       	rjmp	.+92     	; 0x9c8 <__fixsfsi+0x94>
     96c:	2f 81       	ldd	r18, Y+7	; 0x07
     96e:	38 85       	ldd	r19, Y+8	; 0x08
     970:	37 fd       	sbrc	r19, 7
     972:	20 c0       	rjmp	.+64     	; 0x9b4 <__fixsfsi+0x80>
     974:	6e 81       	ldd	r22, Y+6	; 0x06
     976:	2f 31       	cpi	r18, 0x1F	; 31
     978:	31 05       	cpc	r19, r1
     97a:	1c f0       	brlt	.+6      	; 0x982 <__fixsfsi+0x4e>
     97c:	66 23       	and	r22, r22
     97e:	f9 f0       	breq	.+62     	; 0x9be <__fixsfsi+0x8a>
     980:	23 c0       	rjmp	.+70     	; 0x9c8 <__fixsfsi+0x94>
     982:	8e e1       	ldi	r24, 0x1E	; 30
     984:	90 e0       	ldi	r25, 0x00	; 0
     986:	82 1b       	sub	r24, r18
     988:	93 0b       	sbc	r25, r19
     98a:	29 85       	ldd	r18, Y+9	; 0x09
     98c:	3a 85       	ldd	r19, Y+10	; 0x0a
     98e:	4b 85       	ldd	r20, Y+11	; 0x0b
     990:	5c 85       	ldd	r21, Y+12	; 0x0c
     992:	04 c0       	rjmp	.+8      	; 0x99c <__fixsfsi+0x68>
     994:	56 95       	lsr	r21
     996:	47 95       	ror	r20
     998:	37 95       	ror	r19
     99a:	27 95       	ror	r18
     99c:	8a 95       	dec	r24
     99e:	d2 f7       	brpl	.-12     	; 0x994 <__fixsfsi+0x60>
     9a0:	66 23       	and	r22, r22
     9a2:	b1 f0       	breq	.+44     	; 0x9d0 <__fixsfsi+0x9c>
     9a4:	50 95       	com	r21
     9a6:	40 95       	com	r20
     9a8:	30 95       	com	r19
     9aa:	21 95       	neg	r18
     9ac:	3f 4f       	sbci	r19, 0xFF	; 255
     9ae:	4f 4f       	sbci	r20, 0xFF	; 255
     9b0:	5f 4f       	sbci	r21, 0xFF	; 255
     9b2:	0e c0       	rjmp	.+28     	; 0x9d0 <__fixsfsi+0x9c>
     9b4:	20 e0       	ldi	r18, 0x00	; 0
     9b6:	30 e0       	ldi	r19, 0x00	; 0
     9b8:	40 e0       	ldi	r20, 0x00	; 0
     9ba:	50 e0       	ldi	r21, 0x00	; 0
     9bc:	09 c0       	rjmp	.+18     	; 0x9d0 <__fixsfsi+0x9c>
     9be:	2f ef       	ldi	r18, 0xFF	; 255
     9c0:	3f ef       	ldi	r19, 0xFF	; 255
     9c2:	4f ef       	ldi	r20, 0xFF	; 255
     9c4:	5f e7       	ldi	r21, 0x7F	; 127
     9c6:	04 c0       	rjmp	.+8      	; 0x9d0 <__fixsfsi+0x9c>
     9c8:	20 e0       	ldi	r18, 0x00	; 0
     9ca:	30 e0       	ldi	r19, 0x00	; 0
     9cc:	40 e0       	ldi	r20, 0x00	; 0
     9ce:	50 e8       	ldi	r21, 0x80	; 128
     9d0:	b9 01       	movw	r22, r18
     9d2:	ca 01       	movw	r24, r20
     9d4:	2c 96       	adiw	r28, 0x0c	; 12
     9d6:	e2 e0       	ldi	r30, 0x02	; 2
     9d8:	0c 94 8e 16 	jmp	0x2d1c	; 0x2d1c <__epilogue_restores__+0x20>

000009dc <__clzsi2>:
     9dc:	ef 92       	push	r14
     9de:	ff 92       	push	r15
     9e0:	0f 93       	push	r16
     9e2:	1f 93       	push	r17
     9e4:	7b 01       	movw	r14, r22
     9e6:	8c 01       	movw	r16, r24
     9e8:	80 e0       	ldi	r24, 0x00	; 0
     9ea:	e8 16       	cp	r14, r24
     9ec:	80 e0       	ldi	r24, 0x00	; 0
     9ee:	f8 06       	cpc	r15, r24
     9f0:	81 e0       	ldi	r24, 0x01	; 1
     9f2:	08 07       	cpc	r16, r24
     9f4:	80 e0       	ldi	r24, 0x00	; 0
     9f6:	18 07       	cpc	r17, r24
     9f8:	88 f4       	brcc	.+34     	; 0xa1c <__clzsi2+0x40>
     9fa:	8f ef       	ldi	r24, 0xFF	; 255
     9fc:	e8 16       	cp	r14, r24
     9fe:	f1 04       	cpc	r15, r1
     a00:	01 05       	cpc	r16, r1
     a02:	11 05       	cpc	r17, r1
     a04:	31 f0       	breq	.+12     	; 0xa12 <__clzsi2+0x36>
     a06:	28 f0       	brcs	.+10     	; 0xa12 <__clzsi2+0x36>
     a08:	88 e0       	ldi	r24, 0x08	; 8
     a0a:	90 e0       	ldi	r25, 0x00	; 0
     a0c:	a0 e0       	ldi	r26, 0x00	; 0
     a0e:	b0 e0       	ldi	r27, 0x00	; 0
     a10:	17 c0       	rjmp	.+46     	; 0xa40 <__clzsi2+0x64>
     a12:	80 e0       	ldi	r24, 0x00	; 0
     a14:	90 e0       	ldi	r25, 0x00	; 0
     a16:	a0 e0       	ldi	r26, 0x00	; 0
     a18:	b0 e0       	ldi	r27, 0x00	; 0
     a1a:	12 c0       	rjmp	.+36     	; 0xa40 <__clzsi2+0x64>
     a1c:	80 e0       	ldi	r24, 0x00	; 0
     a1e:	e8 16       	cp	r14, r24
     a20:	80 e0       	ldi	r24, 0x00	; 0
     a22:	f8 06       	cpc	r15, r24
     a24:	80 e0       	ldi	r24, 0x00	; 0
     a26:	08 07       	cpc	r16, r24
     a28:	81 e0       	ldi	r24, 0x01	; 1
     a2a:	18 07       	cpc	r17, r24
     a2c:	28 f0       	brcs	.+10     	; 0xa38 <__clzsi2+0x5c>
     a2e:	88 e1       	ldi	r24, 0x18	; 24
     a30:	90 e0       	ldi	r25, 0x00	; 0
     a32:	a0 e0       	ldi	r26, 0x00	; 0
     a34:	b0 e0       	ldi	r27, 0x00	; 0
     a36:	04 c0       	rjmp	.+8      	; 0xa40 <__clzsi2+0x64>
     a38:	80 e1       	ldi	r24, 0x10	; 16
     a3a:	90 e0       	ldi	r25, 0x00	; 0
     a3c:	a0 e0       	ldi	r26, 0x00	; 0
     a3e:	b0 e0       	ldi	r27, 0x00	; 0
     a40:	20 e2       	ldi	r18, 0x20	; 32
     a42:	30 e0       	ldi	r19, 0x00	; 0
     a44:	40 e0       	ldi	r20, 0x00	; 0
     a46:	50 e0       	ldi	r21, 0x00	; 0
     a48:	28 1b       	sub	r18, r24
     a4a:	39 0b       	sbc	r19, r25
     a4c:	4a 0b       	sbc	r20, r26
     a4e:	5b 0b       	sbc	r21, r27
     a50:	04 c0       	rjmp	.+8      	; 0xa5a <__clzsi2+0x7e>
     a52:	16 95       	lsr	r17
     a54:	07 95       	ror	r16
     a56:	f7 94       	ror	r15
     a58:	e7 94       	ror	r14
     a5a:	8a 95       	dec	r24
     a5c:	d2 f7       	brpl	.-12     	; 0xa52 <__clzsi2+0x76>
     a5e:	f7 01       	movw	r30, r14
     a60:	e1 5c       	subi	r30, 0xC1	; 193
     a62:	fe 4f       	sbci	r31, 0xFE	; 254
     a64:	80 81       	ld	r24, Z
     a66:	28 1b       	sub	r18, r24
     a68:	31 09       	sbc	r19, r1
     a6a:	41 09       	sbc	r20, r1
     a6c:	51 09       	sbc	r21, r1
     a6e:	c9 01       	movw	r24, r18
     a70:	1f 91       	pop	r17
     a72:	0f 91       	pop	r16
     a74:	ff 90       	pop	r15
     a76:	ef 90       	pop	r14
     a78:	08 95       	ret

00000a7a <__pack_f>:
     a7a:	df 92       	push	r13
     a7c:	ef 92       	push	r14
     a7e:	ff 92       	push	r15
     a80:	0f 93       	push	r16
     a82:	1f 93       	push	r17
     a84:	fc 01       	movw	r30, r24
     a86:	e4 80       	ldd	r14, Z+4	; 0x04
     a88:	f5 80       	ldd	r15, Z+5	; 0x05
     a8a:	06 81       	ldd	r16, Z+6	; 0x06
     a8c:	17 81       	ldd	r17, Z+7	; 0x07
     a8e:	d1 80       	ldd	r13, Z+1	; 0x01
     a90:	80 81       	ld	r24, Z
     a92:	82 30       	cpi	r24, 0x02	; 2
     a94:	48 f4       	brcc	.+18     	; 0xaa8 <__pack_f+0x2e>
     a96:	80 e0       	ldi	r24, 0x00	; 0
     a98:	90 e0       	ldi	r25, 0x00	; 0
     a9a:	a0 e1       	ldi	r26, 0x10	; 16
     a9c:	b0 e0       	ldi	r27, 0x00	; 0
     a9e:	e8 2a       	or	r14, r24
     aa0:	f9 2a       	or	r15, r25
     aa2:	0a 2b       	or	r16, r26
     aa4:	1b 2b       	or	r17, r27
     aa6:	a5 c0       	rjmp	.+330    	; 0xbf2 <__pack_f+0x178>
     aa8:	84 30       	cpi	r24, 0x04	; 4
     aaa:	09 f4       	brne	.+2      	; 0xaae <__pack_f+0x34>
     aac:	9f c0       	rjmp	.+318    	; 0xbec <__pack_f+0x172>
     aae:	82 30       	cpi	r24, 0x02	; 2
     ab0:	21 f4       	brne	.+8      	; 0xaba <__pack_f+0x40>
     ab2:	ee 24       	eor	r14, r14
     ab4:	ff 24       	eor	r15, r15
     ab6:	87 01       	movw	r16, r14
     ab8:	05 c0       	rjmp	.+10     	; 0xac4 <__pack_f+0x4a>
     aba:	e1 14       	cp	r14, r1
     abc:	f1 04       	cpc	r15, r1
     abe:	01 05       	cpc	r16, r1
     ac0:	11 05       	cpc	r17, r1
     ac2:	19 f4       	brne	.+6      	; 0xaca <__pack_f+0x50>
     ac4:	e0 e0       	ldi	r30, 0x00	; 0
     ac6:	f0 e0       	ldi	r31, 0x00	; 0
     ac8:	96 c0       	rjmp	.+300    	; 0xbf6 <__pack_f+0x17c>
     aca:	62 81       	ldd	r22, Z+2	; 0x02
     acc:	73 81       	ldd	r23, Z+3	; 0x03
     ace:	9f ef       	ldi	r25, 0xFF	; 255
     ad0:	62 38       	cpi	r22, 0x82	; 130
     ad2:	79 07       	cpc	r23, r25
     ad4:	0c f0       	brlt	.+2      	; 0xad8 <__pack_f+0x5e>
     ad6:	5b c0       	rjmp	.+182    	; 0xb8e <__pack_f+0x114>
     ad8:	22 e8       	ldi	r18, 0x82	; 130
     ada:	3f ef       	ldi	r19, 0xFF	; 255
     adc:	26 1b       	sub	r18, r22
     ade:	37 0b       	sbc	r19, r23
     ae0:	2a 31       	cpi	r18, 0x1A	; 26
     ae2:	31 05       	cpc	r19, r1
     ae4:	2c f0       	brlt	.+10     	; 0xaf0 <__pack_f+0x76>
     ae6:	20 e0       	ldi	r18, 0x00	; 0
     ae8:	30 e0       	ldi	r19, 0x00	; 0
     aea:	40 e0       	ldi	r20, 0x00	; 0
     aec:	50 e0       	ldi	r21, 0x00	; 0
     aee:	2a c0       	rjmp	.+84     	; 0xb44 <__pack_f+0xca>
     af0:	b8 01       	movw	r22, r16
     af2:	a7 01       	movw	r20, r14
     af4:	02 2e       	mov	r0, r18
     af6:	04 c0       	rjmp	.+8      	; 0xb00 <__pack_f+0x86>
     af8:	76 95       	lsr	r23
     afa:	67 95       	ror	r22
     afc:	57 95       	ror	r21
     afe:	47 95       	ror	r20
     b00:	0a 94       	dec	r0
     b02:	d2 f7       	brpl	.-12     	; 0xaf8 <__pack_f+0x7e>
     b04:	81 e0       	ldi	r24, 0x01	; 1
     b06:	90 e0       	ldi	r25, 0x00	; 0
     b08:	a0 e0       	ldi	r26, 0x00	; 0
     b0a:	b0 e0       	ldi	r27, 0x00	; 0
     b0c:	04 c0       	rjmp	.+8      	; 0xb16 <__pack_f+0x9c>
     b0e:	88 0f       	add	r24, r24
     b10:	99 1f       	adc	r25, r25
     b12:	aa 1f       	adc	r26, r26
     b14:	bb 1f       	adc	r27, r27
     b16:	2a 95       	dec	r18
     b18:	d2 f7       	brpl	.-12     	; 0xb0e <__pack_f+0x94>
     b1a:	01 97       	sbiw	r24, 0x01	; 1
     b1c:	a1 09       	sbc	r26, r1
     b1e:	b1 09       	sbc	r27, r1
     b20:	8e 21       	and	r24, r14
     b22:	9f 21       	and	r25, r15
     b24:	a0 23       	and	r26, r16
     b26:	b1 23       	and	r27, r17
     b28:	00 97       	sbiw	r24, 0x00	; 0
     b2a:	a1 05       	cpc	r26, r1
     b2c:	b1 05       	cpc	r27, r1
     b2e:	21 f0       	breq	.+8      	; 0xb38 <__pack_f+0xbe>
     b30:	81 e0       	ldi	r24, 0x01	; 1
     b32:	90 e0       	ldi	r25, 0x00	; 0
     b34:	a0 e0       	ldi	r26, 0x00	; 0
     b36:	b0 e0       	ldi	r27, 0x00	; 0
     b38:	9a 01       	movw	r18, r20
     b3a:	ab 01       	movw	r20, r22
     b3c:	28 2b       	or	r18, r24
     b3e:	39 2b       	or	r19, r25
     b40:	4a 2b       	or	r20, r26
     b42:	5b 2b       	or	r21, r27
     b44:	da 01       	movw	r26, r20
     b46:	c9 01       	movw	r24, r18
     b48:	8f 77       	andi	r24, 0x7F	; 127
     b4a:	90 70       	andi	r25, 0x00	; 0
     b4c:	a0 70       	andi	r26, 0x00	; 0
     b4e:	b0 70       	andi	r27, 0x00	; 0
     b50:	80 34       	cpi	r24, 0x40	; 64
     b52:	91 05       	cpc	r25, r1
     b54:	a1 05       	cpc	r26, r1
     b56:	b1 05       	cpc	r27, r1
     b58:	39 f4       	brne	.+14     	; 0xb68 <__pack_f+0xee>
     b5a:	27 ff       	sbrs	r18, 7
     b5c:	09 c0       	rjmp	.+18     	; 0xb70 <__pack_f+0xf6>
     b5e:	20 5c       	subi	r18, 0xC0	; 192
     b60:	3f 4f       	sbci	r19, 0xFF	; 255
     b62:	4f 4f       	sbci	r20, 0xFF	; 255
     b64:	5f 4f       	sbci	r21, 0xFF	; 255
     b66:	04 c0       	rjmp	.+8      	; 0xb70 <__pack_f+0xf6>
     b68:	21 5c       	subi	r18, 0xC1	; 193
     b6a:	3f 4f       	sbci	r19, 0xFF	; 255
     b6c:	4f 4f       	sbci	r20, 0xFF	; 255
     b6e:	5f 4f       	sbci	r21, 0xFF	; 255
     b70:	e0 e0       	ldi	r30, 0x00	; 0
     b72:	f0 e0       	ldi	r31, 0x00	; 0
     b74:	20 30       	cpi	r18, 0x00	; 0
     b76:	a0 e0       	ldi	r26, 0x00	; 0
     b78:	3a 07       	cpc	r19, r26
     b7a:	a0 e0       	ldi	r26, 0x00	; 0
     b7c:	4a 07       	cpc	r20, r26
     b7e:	a0 e4       	ldi	r26, 0x40	; 64
     b80:	5a 07       	cpc	r21, r26
     b82:	10 f0       	brcs	.+4      	; 0xb88 <__pack_f+0x10e>
     b84:	e1 e0       	ldi	r30, 0x01	; 1
     b86:	f0 e0       	ldi	r31, 0x00	; 0
     b88:	79 01       	movw	r14, r18
     b8a:	8a 01       	movw	r16, r20
     b8c:	27 c0       	rjmp	.+78     	; 0xbdc <__pack_f+0x162>
     b8e:	60 38       	cpi	r22, 0x80	; 128
     b90:	71 05       	cpc	r23, r1
     b92:	64 f5       	brge	.+88     	; 0xbec <__pack_f+0x172>
     b94:	fb 01       	movw	r30, r22
     b96:	e1 58       	subi	r30, 0x81	; 129
     b98:	ff 4f       	sbci	r31, 0xFF	; 255
     b9a:	d8 01       	movw	r26, r16
     b9c:	c7 01       	movw	r24, r14
     b9e:	8f 77       	andi	r24, 0x7F	; 127
     ba0:	90 70       	andi	r25, 0x00	; 0
     ba2:	a0 70       	andi	r26, 0x00	; 0
     ba4:	b0 70       	andi	r27, 0x00	; 0
     ba6:	80 34       	cpi	r24, 0x40	; 64
     ba8:	91 05       	cpc	r25, r1
     baa:	a1 05       	cpc	r26, r1
     bac:	b1 05       	cpc	r27, r1
     bae:	39 f4       	brne	.+14     	; 0xbbe <__pack_f+0x144>
     bb0:	e7 fe       	sbrs	r14, 7
     bb2:	0d c0       	rjmp	.+26     	; 0xbce <__pack_f+0x154>
     bb4:	80 e4       	ldi	r24, 0x40	; 64
     bb6:	90 e0       	ldi	r25, 0x00	; 0
     bb8:	a0 e0       	ldi	r26, 0x00	; 0
     bba:	b0 e0       	ldi	r27, 0x00	; 0
     bbc:	04 c0       	rjmp	.+8      	; 0xbc6 <__pack_f+0x14c>
     bbe:	8f e3       	ldi	r24, 0x3F	; 63
     bc0:	90 e0       	ldi	r25, 0x00	; 0
     bc2:	a0 e0       	ldi	r26, 0x00	; 0
     bc4:	b0 e0       	ldi	r27, 0x00	; 0
     bc6:	e8 0e       	add	r14, r24
     bc8:	f9 1e       	adc	r15, r25
     bca:	0a 1f       	adc	r16, r26
     bcc:	1b 1f       	adc	r17, r27
     bce:	17 ff       	sbrs	r17, 7
     bd0:	05 c0       	rjmp	.+10     	; 0xbdc <__pack_f+0x162>
     bd2:	16 95       	lsr	r17
     bd4:	07 95       	ror	r16
     bd6:	f7 94       	ror	r15
     bd8:	e7 94       	ror	r14
     bda:	31 96       	adiw	r30, 0x01	; 1
     bdc:	87 e0       	ldi	r24, 0x07	; 7
     bde:	16 95       	lsr	r17
     be0:	07 95       	ror	r16
     be2:	f7 94       	ror	r15
     be4:	e7 94       	ror	r14
     be6:	8a 95       	dec	r24
     be8:	d1 f7       	brne	.-12     	; 0xbde <__pack_f+0x164>
     bea:	05 c0       	rjmp	.+10     	; 0xbf6 <__pack_f+0x17c>
     bec:	ee 24       	eor	r14, r14
     bee:	ff 24       	eor	r15, r15
     bf0:	87 01       	movw	r16, r14
     bf2:	ef ef       	ldi	r30, 0xFF	; 255
     bf4:	f0 e0       	ldi	r31, 0x00	; 0
     bf6:	6e 2f       	mov	r22, r30
     bf8:	67 95       	ror	r22
     bfa:	66 27       	eor	r22, r22
     bfc:	67 95       	ror	r22
     bfe:	90 2f       	mov	r25, r16
     c00:	9f 77       	andi	r25, 0x7F	; 127
     c02:	d7 94       	ror	r13
     c04:	dd 24       	eor	r13, r13
     c06:	d7 94       	ror	r13
     c08:	8e 2f       	mov	r24, r30
     c0a:	86 95       	lsr	r24
     c0c:	49 2f       	mov	r20, r25
     c0e:	46 2b       	or	r20, r22
     c10:	58 2f       	mov	r21, r24
     c12:	5d 29       	or	r21, r13
     c14:	b7 01       	movw	r22, r14
     c16:	ca 01       	movw	r24, r20
     c18:	1f 91       	pop	r17
     c1a:	0f 91       	pop	r16
     c1c:	ff 90       	pop	r15
     c1e:	ef 90       	pop	r14
     c20:	df 90       	pop	r13
     c22:	08 95       	ret

00000c24 <__unpack_f>:
     c24:	fc 01       	movw	r30, r24
     c26:	db 01       	movw	r26, r22
     c28:	40 81       	ld	r20, Z
     c2a:	51 81       	ldd	r21, Z+1	; 0x01
     c2c:	22 81       	ldd	r18, Z+2	; 0x02
     c2e:	62 2f       	mov	r22, r18
     c30:	6f 77       	andi	r22, 0x7F	; 127
     c32:	70 e0       	ldi	r23, 0x00	; 0
     c34:	22 1f       	adc	r18, r18
     c36:	22 27       	eor	r18, r18
     c38:	22 1f       	adc	r18, r18
     c3a:	93 81       	ldd	r25, Z+3	; 0x03
     c3c:	89 2f       	mov	r24, r25
     c3e:	88 0f       	add	r24, r24
     c40:	82 2b       	or	r24, r18
     c42:	28 2f       	mov	r18, r24
     c44:	30 e0       	ldi	r19, 0x00	; 0
     c46:	99 1f       	adc	r25, r25
     c48:	99 27       	eor	r25, r25
     c4a:	99 1f       	adc	r25, r25
     c4c:	11 96       	adiw	r26, 0x01	; 1
     c4e:	9c 93       	st	X, r25
     c50:	11 97       	sbiw	r26, 0x01	; 1
     c52:	21 15       	cp	r18, r1
     c54:	31 05       	cpc	r19, r1
     c56:	a9 f5       	brne	.+106    	; 0xcc2 <__unpack_f+0x9e>
     c58:	41 15       	cp	r20, r1
     c5a:	51 05       	cpc	r21, r1
     c5c:	61 05       	cpc	r22, r1
     c5e:	71 05       	cpc	r23, r1
     c60:	11 f4       	brne	.+4      	; 0xc66 <__unpack_f+0x42>
     c62:	82 e0       	ldi	r24, 0x02	; 2
     c64:	37 c0       	rjmp	.+110    	; 0xcd4 <__unpack_f+0xb0>
     c66:	82 e8       	ldi	r24, 0x82	; 130
     c68:	9f ef       	ldi	r25, 0xFF	; 255
     c6a:	13 96       	adiw	r26, 0x03	; 3
     c6c:	9c 93       	st	X, r25
     c6e:	8e 93       	st	-X, r24
     c70:	12 97       	sbiw	r26, 0x02	; 2
     c72:	9a 01       	movw	r18, r20
     c74:	ab 01       	movw	r20, r22
     c76:	67 e0       	ldi	r22, 0x07	; 7
     c78:	22 0f       	add	r18, r18
     c7a:	33 1f       	adc	r19, r19
     c7c:	44 1f       	adc	r20, r20
     c7e:	55 1f       	adc	r21, r21
     c80:	6a 95       	dec	r22
     c82:	d1 f7       	brne	.-12     	; 0xc78 <__unpack_f+0x54>
     c84:	83 e0       	ldi	r24, 0x03	; 3
     c86:	8c 93       	st	X, r24
     c88:	0d c0       	rjmp	.+26     	; 0xca4 <__unpack_f+0x80>
     c8a:	22 0f       	add	r18, r18
     c8c:	33 1f       	adc	r19, r19
     c8e:	44 1f       	adc	r20, r20
     c90:	55 1f       	adc	r21, r21
     c92:	12 96       	adiw	r26, 0x02	; 2
     c94:	8d 91       	ld	r24, X+
     c96:	9c 91       	ld	r25, X
     c98:	13 97       	sbiw	r26, 0x03	; 3
     c9a:	01 97       	sbiw	r24, 0x01	; 1
     c9c:	13 96       	adiw	r26, 0x03	; 3
     c9e:	9c 93       	st	X, r25
     ca0:	8e 93       	st	-X, r24
     ca2:	12 97       	sbiw	r26, 0x02	; 2
     ca4:	20 30       	cpi	r18, 0x00	; 0
     ca6:	80 e0       	ldi	r24, 0x00	; 0
     ca8:	38 07       	cpc	r19, r24
     caa:	80 e0       	ldi	r24, 0x00	; 0
     cac:	48 07       	cpc	r20, r24
     cae:	80 e4       	ldi	r24, 0x40	; 64
     cb0:	58 07       	cpc	r21, r24
     cb2:	58 f3       	brcs	.-42     	; 0xc8a <__unpack_f+0x66>
     cb4:	14 96       	adiw	r26, 0x04	; 4
     cb6:	2d 93       	st	X+, r18
     cb8:	3d 93       	st	X+, r19
     cba:	4d 93       	st	X+, r20
     cbc:	5c 93       	st	X, r21
     cbe:	17 97       	sbiw	r26, 0x07	; 7
     cc0:	08 95       	ret
     cc2:	2f 3f       	cpi	r18, 0xFF	; 255
     cc4:	31 05       	cpc	r19, r1
     cc6:	79 f4       	brne	.+30     	; 0xce6 <__unpack_f+0xc2>
     cc8:	41 15       	cp	r20, r1
     cca:	51 05       	cpc	r21, r1
     ccc:	61 05       	cpc	r22, r1
     cce:	71 05       	cpc	r23, r1
     cd0:	19 f4       	brne	.+6      	; 0xcd8 <__unpack_f+0xb4>
     cd2:	84 e0       	ldi	r24, 0x04	; 4
     cd4:	8c 93       	st	X, r24
     cd6:	08 95       	ret
     cd8:	64 ff       	sbrs	r22, 4
     cda:	03 c0       	rjmp	.+6      	; 0xce2 <__unpack_f+0xbe>
     cdc:	81 e0       	ldi	r24, 0x01	; 1
     cde:	8c 93       	st	X, r24
     ce0:	12 c0       	rjmp	.+36     	; 0xd06 <__unpack_f+0xe2>
     ce2:	1c 92       	st	X, r1
     ce4:	10 c0       	rjmp	.+32     	; 0xd06 <__unpack_f+0xe2>
     ce6:	2f 57       	subi	r18, 0x7F	; 127
     ce8:	30 40       	sbci	r19, 0x00	; 0
     cea:	13 96       	adiw	r26, 0x03	; 3
     cec:	3c 93       	st	X, r19
     cee:	2e 93       	st	-X, r18
     cf0:	12 97       	sbiw	r26, 0x02	; 2
     cf2:	83 e0       	ldi	r24, 0x03	; 3
     cf4:	8c 93       	st	X, r24
     cf6:	87 e0       	ldi	r24, 0x07	; 7
     cf8:	44 0f       	add	r20, r20
     cfa:	55 1f       	adc	r21, r21
     cfc:	66 1f       	adc	r22, r22
     cfe:	77 1f       	adc	r23, r23
     d00:	8a 95       	dec	r24
     d02:	d1 f7       	brne	.-12     	; 0xcf8 <__unpack_f+0xd4>
     d04:	70 64       	ori	r23, 0x40	; 64
     d06:	14 96       	adiw	r26, 0x04	; 4
     d08:	4d 93       	st	X+, r20
     d0a:	5d 93       	st	X+, r21
     d0c:	6d 93       	st	X+, r22
     d0e:	7c 93       	st	X, r23
     d10:	17 97       	sbiw	r26, 0x07	; 7
     d12:	08 95       	ret

00000d14 <start_analog_conversion>:
     d14:	98 2f       	mov	r25, r24
     d16:	80 32       	cpi	r24, 0x20	; 32
     d18:	78 f4       	brcc	.+30     	; 0xd38 <start_analog_conversion+0x24>
     d1a:	87 e8       	ldi	r24, 0x87	; 135
     d1c:	80 93 7a 00 	sts	0x007A, r24
     d20:	80 91 7c 00 	lds	r24, 0x007C
     d24:	80 64       	ori	r24, 0x40	; 64
     d26:	80 76       	andi	r24, 0x60	; 96
     d28:	89 2b       	or	r24, r25
     d2a:	80 93 7c 00 	sts	0x007C, r24
     d2e:	80 91 7a 00 	lds	r24, 0x007A
     d32:	80 64       	ori	r24, 0x40	; 64
     d34:	80 93 7a 00 	sts	0x007A, r24
     d38:	08 95       	ret

00000d3a <analog_conversion_result>:
     d3a:	80 91 7c 00 	lds	r24, 0x007C
     d3e:	85 ff       	sbrs	r24, 5
     d40:	05 c0       	rjmp	.+10     	; 0xd4c <analog_conversion_result+0x12>
     d42:	80 91 79 00 	lds	r24, 0x0079
     d46:	28 2f       	mov	r18, r24
     d48:	30 e0       	ldi	r19, 0x00	; 0
     d4a:	04 c0       	rjmp	.+8      	; 0xd54 <analog_conversion_result+0x1a>
     d4c:	20 91 78 00 	lds	r18, 0x0078
     d50:	30 91 79 00 	lds	r19, 0x0079
     d54:	c9 01       	movw	r24, r18
     d56:	08 95       	ret

00000d58 <set_millivolt_calibration>:
     d58:	90 93 2a 01 	sts	0x012A, r25
     d5c:	80 93 29 01 	sts	0x0129, r24
     d60:	08 95       	ret

00000d62 <_ZN15OrangutanAnalogC2Ev>:
     d62:	08 95       	ret

00000d64 <_ZN15OrangutanAnalogC1Ev>:
     d64:	08 95       	ret

00000d66 <_ZN15OrangutanAnalog16conversionResultEv>:
     d66:	80 91 7c 00 	lds	r24, 0x007C
     d6a:	85 ff       	sbrs	r24, 5
     d6c:	05 c0       	rjmp	.+10     	; 0xd78 <_ZN15OrangutanAnalog16conversionResultEv+0x12>
     d6e:	80 91 79 00 	lds	r24, 0x0079
     d72:	28 2f       	mov	r18, r24
     d74:	30 e0       	ldi	r19, 0x00	; 0
     d76:	04 c0       	rjmp	.+8      	; 0xd80 <_ZN15OrangutanAnalog16conversionResultEv+0x1a>
     d78:	20 91 78 00 	lds	r18, 0x0078
     d7c:	30 91 79 00 	lds	r19, 0x0079
     d80:	c9 01       	movw	r24, r18
     d82:	08 95       	ret

00000d84 <_ZN15OrangutanAnalog15startConversionEhh>:
     d84:	28 2f       	mov	r18, r24
     d86:	80 32       	cpi	r24, 0x20	; 32
     d88:	b0 f4       	brcc	.+44     	; 0xdb6 <_ZN15OrangutanAnalog15startConversionEhh+0x32>
     d8a:	87 e8       	ldi	r24, 0x87	; 135
     d8c:	80 93 7a 00 	sts	0x007A, r24
     d90:	80 91 7c 00 	lds	r24, 0x007C
     d94:	98 2f       	mov	r25, r24
     d96:	90 64       	ori	r25, 0x40	; 64
     d98:	66 23       	and	r22, r22
     d9a:	11 f0       	breq	.+4      	; 0xda0 <_ZN15OrangutanAnalog15startConversionEhh+0x1c>
     d9c:	80 6c       	ori	r24, 0xC0	; 192
     d9e:	02 c0       	rjmp	.+4      	; 0xda4 <_ZN15OrangutanAnalog15startConversionEhh+0x20>
     da0:	89 2f       	mov	r24, r25
     da2:	8f 77       	andi	r24, 0x7F	; 127
     da4:	80 7e       	andi	r24, 0xE0	; 224
     da6:	82 2b       	or	r24, r18
     da8:	80 93 7c 00 	sts	0x007C, r24
     dac:	80 91 7a 00 	lds	r24, 0x007A
     db0:	80 64       	ori	r24, 0x40	; 64
     db2:	80 93 7a 00 	sts	0x007A, r24
     db6:	08 95       	ret

00000db8 <_ZN15OrangutanAnalog4readEh>:
     db8:	98 2f       	mov	r25, r24
     dba:	80 32       	cpi	r24, 0x20	; 32
     dbc:	78 f4       	brcc	.+30     	; 0xddc <_ZN15OrangutanAnalog4readEh+0x24>
     dbe:	87 e8       	ldi	r24, 0x87	; 135
     dc0:	80 93 7a 00 	sts	0x007A, r24
     dc4:	80 91 7c 00 	lds	r24, 0x007C
     dc8:	80 64       	ori	r24, 0x40	; 64
     dca:	80 76       	andi	r24, 0x60	; 96
     dcc:	89 2b       	or	r24, r25
     dce:	80 93 7c 00 	sts	0x007C, r24
     dd2:	80 91 7a 00 	lds	r24, 0x007A
     dd6:	80 64       	ori	r24, 0x40	; 64
     dd8:	80 93 7a 00 	sts	0x007A, r24
     ddc:	80 91 7a 00 	lds	r24, 0x007A
     de0:	86 fd       	sbrc	r24, 6
     de2:	fc cf       	rjmp	.-8      	; 0xddc <_ZN15OrangutanAnalog4readEh+0x24>
     de4:	80 91 7c 00 	lds	r24, 0x007C
     de8:	85 ff       	sbrs	r24, 5
     dea:	05 c0       	rjmp	.+10     	; 0xdf6 <_ZN15OrangutanAnalog4readEh+0x3e>
     dec:	80 91 79 00 	lds	r24, 0x0079
     df0:	28 2f       	mov	r18, r24
     df2:	30 e0       	ldi	r19, 0x00	; 0
     df4:	04 c0       	rjmp	.+8      	; 0xdfe <_ZN15OrangutanAnalog4readEh+0x46>
     df6:	20 91 78 00 	lds	r18, 0x0078
     dfa:	30 91 79 00 	lds	r19, 0x0079
     dfe:	c9 01       	movw	r24, r18
     e00:	08 95       	ret

00000e02 <analog_read>:
     e02:	0e 94 dc 06 	call	0xdb8	; 0xdb8 <_ZN15OrangutanAnalog4readEh>
     e06:	08 95       	ret

00000e08 <_ZN15OrangutanAnalog11readAverageEhj>:
     e08:	ef 92       	push	r14
     e0a:	ff 92       	push	r15
     e0c:	0f 93       	push	r16
     e0e:	1f 93       	push	r17
     e10:	98 2f       	mov	r25, r24
     e12:	80 32       	cpi	r24, 0x20	; 32
     e14:	78 f4       	brcc	.+30     	; 0xe34 <_ZN15OrangutanAnalog11readAverageEhj+0x2c>
     e16:	87 e8       	ldi	r24, 0x87	; 135
     e18:	80 93 7a 00 	sts	0x007A, r24
     e1c:	80 91 7c 00 	lds	r24, 0x007C
     e20:	80 64       	ori	r24, 0x40	; 64
     e22:	80 76       	andi	r24, 0x60	; 96
     e24:	89 2b       	or	r24, r25
     e26:	80 93 7c 00 	sts	0x007C, r24
     e2a:	80 91 7a 00 	lds	r24, 0x007A
     e2e:	80 64       	ori	r24, 0x40	; 64
     e30:	80 93 7a 00 	sts	0x007A, r24
     e34:	80 91 7a 00 	lds	r24, 0x007A
     e38:	86 fd       	sbrc	r24, 6
     e3a:	fc cf       	rjmp	.-8      	; 0xe34 <_ZN15OrangutanAnalog11readAverageEhj+0x2c>
     e3c:	fb 01       	movw	r30, r22
     e3e:	ee 24       	eor	r14, r14
     e40:	ff 24       	eor	r15, r15
     e42:	87 01       	movw	r16, r14
     e44:	80 91 7a 00 	lds	r24, 0x007A
     e48:	80 64       	ori	r24, 0x40	; 64
     e4a:	80 93 7a 00 	sts	0x007A, r24
     e4e:	80 91 7a 00 	lds	r24, 0x007A
     e52:	86 fd       	sbrc	r24, 6
     e54:	fc cf       	rjmp	.-8      	; 0xe4e <_ZN15OrangutanAnalog11readAverageEhj+0x46>
     e56:	80 91 7c 00 	lds	r24, 0x007C
     e5a:	85 ff       	sbrs	r24, 5
     e5c:	04 c0       	rjmp	.+8      	; 0xe66 <_ZN15OrangutanAnalog11readAverageEhj+0x5e>
     e5e:	80 91 79 00 	lds	r24, 0x0079
     e62:	90 e0       	ldi	r25, 0x00	; 0
     e64:	04 c0       	rjmp	.+8      	; 0xe6e <_ZN15OrangutanAnalog11readAverageEhj+0x66>
     e66:	80 91 78 00 	lds	r24, 0x0078
     e6a:	90 91 79 00 	lds	r25, 0x0079
     e6e:	a0 e0       	ldi	r26, 0x00	; 0
     e70:	b0 e0       	ldi	r27, 0x00	; 0
     e72:	e8 0e       	add	r14, r24
     e74:	f9 1e       	adc	r15, r25
     e76:	0a 1f       	adc	r16, r26
     e78:	1b 1f       	adc	r17, r27
     e7a:	31 97       	sbiw	r30, 0x01	; 1
     e7c:	19 f7       	brne	.-58     	; 0xe44 <_ZN15OrangutanAnalog11readAverageEhj+0x3c>
     e7e:	cb 01       	movw	r24, r22
     e80:	96 95       	lsr	r25
     e82:	87 95       	ror	r24
     e84:	60 34       	cpi	r22, 0x40	; 64
     e86:	71 05       	cpc	r23, r1
     e88:	38 f4       	brcc	.+14     	; 0xe98 <_ZN15OrangutanAnalog11readAverageEhj+0x90>
     e8a:	8e 0d       	add	r24, r14
     e8c:	9f 1d       	adc	r25, r15
     e8e:	70 e0       	ldi	r23, 0x00	; 0
     e90:	0e 94 fe 15 	call	0x2bfc	; 0x2bfc <__udivmodhi4>
     e94:	9b 01       	movw	r18, r22
     e96:	0d c0       	rjmp	.+26     	; 0xeb2 <_ZN15OrangutanAnalog11readAverageEhj+0xaa>
     e98:	a0 e0       	ldi	r26, 0x00	; 0
     e9a:	b0 e0       	ldi	r27, 0x00	; 0
     e9c:	e8 0e       	add	r14, r24
     e9e:	f9 1e       	adc	r15, r25
     ea0:	0a 1f       	adc	r16, r26
     ea2:	1b 1f       	adc	r17, r27
     ea4:	9b 01       	movw	r18, r22
     ea6:	40 e0       	ldi	r20, 0x00	; 0
     ea8:	50 e0       	ldi	r21, 0x00	; 0
     eaa:	c8 01       	movw	r24, r16
     eac:	b7 01       	movw	r22, r14
     eae:	0e 94 25 16 	call	0x2c4a	; 0x2c4a <__udivmodsi4>
     eb2:	c9 01       	movw	r24, r18
     eb4:	1f 91       	pop	r17
     eb6:	0f 91       	pop	r16
     eb8:	ff 90       	pop	r15
     eba:	ef 90       	pop	r14
     ebc:	08 95       	ret

00000ebe <read_trimpot>:
     ebe:	87 e0       	ldi	r24, 0x07	; 7
     ec0:	64 e1       	ldi	r22, 0x14	; 20
     ec2:	70 e0       	ldi	r23, 0x00	; 0
     ec4:	0e 94 04 07 	call	0xe08	; 0xe08 <_ZN15OrangutanAnalog11readAverageEhj>
     ec8:	08 95       	ret

00000eca <analog_read_average>:
     eca:	0e 94 04 07 	call	0xe08	; 0xe08 <_ZN15OrangutanAnalog11readAverageEhj>
     ece:	08 95       	ret

00000ed0 <_ZN15OrangutanAnalog23setMillivoltCalibrationEj>:
     ed0:	90 93 2a 01 	sts	0x012A, r25
     ed4:	80 93 29 01 	sts	0x0129, r24
     ed8:	08 95       	ret

00000eda <_ZN15OrangutanAnalog17readVCCMillivoltsEv>:
     eda:	1f 93       	push	r17
     edc:	10 91 7c 00 	lds	r17, 0x007C
     ee0:	80 91 7c 00 	lds	r24, 0x007C
     ee4:	8f 7d       	andi	r24, 0xDF	; 223
     ee6:	80 93 7c 00 	sts	0x007C, r24
     eea:	8e e1       	ldi	r24, 0x1E	; 30
     eec:	64 e1       	ldi	r22, 0x14	; 20
     eee:	70 e0       	ldi	r23, 0x00	; 0
     ef0:	0e 94 04 07 	call	0xe08	; 0xe08 <_ZN15OrangutanAnalog11readAverageEhj>
     ef4:	8e e1       	ldi	r24, 0x1E	; 30
     ef6:	64 e1       	ldi	r22, 0x14	; 20
     ef8:	70 e0       	ldi	r23, 0x00	; 0
     efa:	0e 94 04 07 	call	0xe08	; 0xe08 <_ZN15OrangutanAnalog11readAverageEhj>
     efe:	9c 01       	movw	r18, r24
     f00:	15 fd       	sbrc	r17, 5
     f02:	04 c0       	rjmp	.+8      	; 0xf0c <_ZN15OrangutanAnalog17readVCCMillivoltsEv+0x32>
     f04:	80 91 7c 00 	lds	r24, 0x007C
     f08:	8f 7d       	andi	r24, 0xDF	; 223
     f0a:	03 c0       	rjmp	.+6      	; 0xf12 <_ZN15OrangutanAnalog17readVCCMillivoltsEv+0x38>
     f0c:	80 91 7c 00 	lds	r24, 0x007C
     f10:	80 62       	ori	r24, 0x20	; 32
     f12:	80 93 7c 00 	sts	0x007C, r24
     f16:	b9 01       	movw	r22, r18
     f18:	76 95       	lsr	r23
     f1a:	67 95       	ror	r22
     f1c:	80 e0       	ldi	r24, 0x00	; 0
     f1e:	90 e0       	ldi	r25, 0x00	; 0
     f20:	6c 54       	subi	r22, 0x4C	; 76
     f22:	74 4d       	sbci	r23, 0xD4	; 212
     f24:	8e 4e       	sbci	r24, 0xEE	; 238
     f26:	9f 4f       	sbci	r25, 0xFF	; 255
     f28:	40 e0       	ldi	r20, 0x00	; 0
     f2a:	50 e0       	ldi	r21, 0x00	; 0
     f2c:	0e 94 25 16 	call	0x2c4a	; 0x2c4a <__udivmodsi4>
     f30:	c9 01       	movw	r24, r18
     f32:	1f 91       	pop	r17
     f34:	08 95       	ret

00000f36 <read_vcc_millivolts>:
     f36:	0e 94 6d 07 	call	0xeda	; 0xeda <_ZN15OrangutanAnalog17readVCCMillivoltsEv>
     f3a:	08 95       	ret

00000f3c <_ZN15OrangutanAnalog12toMillivoltsEj>:
     f3c:	a0 e0       	ldi	r26, 0x00	; 0
     f3e:	b0 e0       	ldi	r27, 0x00	; 0
     f40:	20 91 29 01 	lds	r18, 0x0129
     f44:	30 91 2a 01 	lds	r19, 0x012A
     f48:	40 e0       	ldi	r20, 0x00	; 0
     f4a:	50 e0       	ldi	r21, 0x00	; 0
     f4c:	bc 01       	movw	r22, r24
     f4e:	cd 01       	movw	r24, r26
     f50:	0e 94 d3 15 	call	0x2ba6	; 0x2ba6 <__mulsi3>
     f54:	9b 01       	movw	r18, r22
     f56:	ac 01       	movw	r20, r24
     f58:	80 91 7c 00 	lds	r24, 0x007C
     f5c:	85 ff       	sbrs	r24, 5
     f5e:	0b c0       	rjmp	.+22     	; 0xf76 <_ZN15OrangutanAnalog12toMillivoltsEj+0x3a>
     f60:	b9 01       	movw	r22, r18
     f62:	ca 01       	movw	r24, r20
     f64:	61 58       	subi	r22, 0x81	; 129
     f66:	7f 4f       	sbci	r23, 0xFF	; 255
     f68:	8f 4f       	sbci	r24, 0xFF	; 255
     f6a:	9f 4f       	sbci	r25, 0xFF	; 255
     f6c:	2f ef       	ldi	r18, 0xFF	; 255
     f6e:	30 e0       	ldi	r19, 0x00	; 0
     f70:	40 e0       	ldi	r20, 0x00	; 0
     f72:	50 e0       	ldi	r21, 0x00	; 0
     f74:	0a c0       	rjmp	.+20     	; 0xf8a <_ZN15OrangutanAnalog12toMillivoltsEj+0x4e>
     f76:	b9 01       	movw	r22, r18
     f78:	ca 01       	movw	r24, r20
     f7a:	61 50       	subi	r22, 0x01	; 1
     f7c:	7e 4f       	sbci	r23, 0xFE	; 254
     f7e:	8f 4f       	sbci	r24, 0xFF	; 255
     f80:	9f 4f       	sbci	r25, 0xFF	; 255
     f82:	2f ef       	ldi	r18, 0xFF	; 255
     f84:	33 e0       	ldi	r19, 0x03	; 3
     f86:	40 e0       	ldi	r20, 0x00	; 0
     f88:	50 e0       	ldi	r21, 0x00	; 0
     f8a:	0e 94 25 16 	call	0x2c4a	; 0x2c4a <__udivmodsi4>
     f8e:	c9 01       	movw	r24, r18
     f90:	08 95       	ret

00000f92 <_ZN15OrangutanAnalog21readAverageMillivoltsEhj>:
     f92:	0e 94 04 07 	call	0xe08	; 0xe08 <_ZN15OrangutanAnalog11readAverageEhj>
     f96:	0e 94 9e 07 	call	0xf3c	; 0xf3c <_ZN15OrangutanAnalog12toMillivoltsEj>
     f9a:	08 95       	ret

00000f9c <analog_read_average_millivolts>:
     f9c:	0e 94 c9 07 	call	0xf92	; 0xf92 <_ZN15OrangutanAnalog21readAverageMillivoltsEhj>
     fa0:	08 95       	ret

00000fa2 <_ZN15OrangutanAnalog26conversionResultMillivoltsEv>:
     fa2:	80 91 7c 00 	lds	r24, 0x007C
     fa6:	85 ff       	sbrs	r24, 5
     fa8:	06 c0       	rjmp	.+12     	; 0xfb6 <_ZN15OrangutanAnalog26conversionResultMillivoltsEv+0x14>
     faa:	80 91 79 00 	lds	r24, 0x0079
     fae:	90 e0       	ldi	r25, 0x00	; 0
     fb0:	0e 94 9e 07 	call	0xf3c	; 0xf3c <_ZN15OrangutanAnalog12toMillivoltsEj>
     fb4:	08 95       	ret
     fb6:	80 91 78 00 	lds	r24, 0x0078
     fba:	90 91 79 00 	lds	r25, 0x0079
     fbe:	0e 94 9e 07 	call	0xf3c	; 0xf3c <_ZN15OrangutanAnalog12toMillivoltsEj>
     fc2:	08 95       	ret

00000fc4 <_ZN15OrangutanAnalog14readMillivoltsEh>:
     fc4:	98 2f       	mov	r25, r24
     fc6:	80 32       	cpi	r24, 0x20	; 32
     fc8:	78 f4       	brcc	.+30     	; 0xfe8 <_ZN15OrangutanAnalog14readMillivoltsEh+0x24>
     fca:	87 e8       	ldi	r24, 0x87	; 135
     fcc:	80 93 7a 00 	sts	0x007A, r24
     fd0:	80 91 7c 00 	lds	r24, 0x007C
     fd4:	80 64       	ori	r24, 0x40	; 64
     fd6:	80 76       	andi	r24, 0x60	; 96
     fd8:	89 2b       	or	r24, r25
     fda:	80 93 7c 00 	sts	0x007C, r24
     fde:	80 91 7a 00 	lds	r24, 0x007A
     fe2:	80 64       	ori	r24, 0x40	; 64
     fe4:	80 93 7a 00 	sts	0x007A, r24
     fe8:	80 91 7a 00 	lds	r24, 0x007A
     fec:	86 fd       	sbrc	r24, 6
     fee:	fc cf       	rjmp	.-8      	; 0xfe8 <_ZN15OrangutanAnalog14readMillivoltsEh+0x24>
     ff0:	0e 94 d1 07 	call	0xfa2	; 0xfa2 <_ZN15OrangutanAnalog26conversionResultMillivoltsEv>
     ff4:	08 95       	ret

00000ff6 <analog_read_millivolts>:
     ff6:	0e 94 e2 07 	call	0xfc4	; 0xfc4 <_ZN15OrangutanAnalog14readMillivoltsEh>
     ffa:	08 95       	ret

00000ffc <analog_conversion_result_millivolts>:
     ffc:	0e 94 d1 07 	call	0xfa2	; 0xfa2 <_ZN15OrangutanAnalog26conversionResultMillivoltsEv>
    1000:	08 95       	ret

00001002 <read_trimpot_millivolts>:
    1002:	87 e0       	ldi	r24, 0x07	; 7
    1004:	64 e1       	ldi	r22, 0x14	; 20
    1006:	70 e0       	ldi	r23, 0x00	; 0
    1008:	0e 94 04 07 	call	0xe08	; 0xe08 <_ZN15OrangutanAnalog11readAverageEhj>
    100c:	0e 94 9e 07 	call	0xf3c	; 0xf3c <_ZN15OrangutanAnalog12toMillivoltsEj>
    1010:	08 95       	ret

00001012 <to_millivolts>:
    1012:	0e 94 9e 07 	call	0xf3c	; 0xf3c <_ZN15OrangutanAnalog12toMillivoltsEj>
    1016:	08 95       	ret

00001018 <_ZN15OrangutanAnalog16readTemperatureFEv>:
    1018:	1f 93       	push	r17
    101a:	10 91 7c 00 	lds	r17, 0x007C
    101e:	80 91 7c 00 	lds	r24, 0x007C
    1022:	8f 7d       	andi	r24, 0xDF	; 223
    1024:	80 93 7c 00 	sts	0x007C, r24
    1028:	86 e0       	ldi	r24, 0x06	; 6
    102a:	64 e1       	ldi	r22, 0x14	; 20
    102c:	70 e0       	ldi	r23, 0x00	; 0
    102e:	0e 94 c9 07 	call	0xf92	; 0xf92 <_ZN15OrangutanAnalog21readAverageMillivoltsEhj>
    1032:	9c 01       	movw	r18, r24
    1034:	15 fd       	sbrc	r17, 5
    1036:	04 c0       	rjmp	.+8      	; 0x1040 <_ZN15OrangutanAnalog16readTemperatureFEv+0x28>
    1038:	80 91 7c 00 	lds	r24, 0x007C
    103c:	8f 7d       	andi	r24, 0xDF	; 223
    103e:	03 c0       	rjmp	.+6      	; 0x1046 <_ZN15OrangutanAnalog16readTemperatureFEv+0x2e>
    1040:	80 91 7c 00 	lds	r24, 0x007C
    1044:	80 62       	ori	r24, 0x20	; 32
    1046:	80 93 7c 00 	sts	0x007C, r24
    104a:	c9 01       	movw	r24, r18
    104c:	88 0f       	add	r24, r24
    104e:	99 1f       	adc	r25, r25
    1050:	82 0f       	add	r24, r18
    1052:	93 1f       	adc	r25, r19
    1054:	88 0f       	add	r24, r24
    1056:	99 1f       	adc	r25, r25
    1058:	88 0f       	add	r24, r24
    105a:	99 1f       	adc	r25, r25
    105c:	8a 57       	subi	r24, 0x7A	; 122
    105e:	92 40       	sbci	r25, 0x02	; 2
    1060:	6d e0       	ldi	r22, 0x0D	; 13
    1062:	70 e0       	ldi	r23, 0x00	; 0
    1064:	0e 94 12 16 	call	0x2c24	; 0x2c24 <__divmodhi4>
    1068:	cb 01       	movw	r24, r22
    106a:	1f 91       	pop	r17
    106c:	08 95       	ret

0000106e <read_temperature_f>:
    106e:	0e 94 0c 08 	call	0x1018	; 0x1018 <_ZN15OrangutanAnalog16readTemperatureFEv>
    1072:	08 95       	ret

00001074 <_ZN15OrangutanAnalog16readTemperatureCEv>:
    1074:	1f 93       	push	r17
    1076:	10 91 7c 00 	lds	r17, 0x007C
    107a:	80 91 7c 00 	lds	r24, 0x007C
    107e:	8f 7d       	andi	r24, 0xDF	; 223
    1080:	80 93 7c 00 	sts	0x007C, r24
    1084:	86 e0       	ldi	r24, 0x06	; 6
    1086:	64 e1       	ldi	r22, 0x14	; 20
    1088:	70 e0       	ldi	r23, 0x00	; 0
    108a:	0e 94 c9 07 	call	0xf92	; 0xf92 <_ZN15OrangutanAnalog21readAverageMillivoltsEhj>
    108e:	9c 01       	movw	r18, r24
    1090:	15 fd       	sbrc	r17, 5
    1092:	04 c0       	rjmp	.+8      	; 0x109c <_ZN15OrangutanAnalog16readTemperatureCEv+0x28>
    1094:	80 91 7c 00 	lds	r24, 0x007C
    1098:	8f 7d       	andi	r24, 0xDF	; 223
    109a:	03 c0       	rjmp	.+6      	; 0x10a2 <_ZN15OrangutanAnalog16readTemperatureCEv+0x2e>
    109c:	80 91 7c 00 	lds	r24, 0x007C
    10a0:	80 62       	ori	r24, 0x20	; 32
    10a2:	80 93 7c 00 	sts	0x007C, r24
    10a6:	84 e1       	ldi	r24, 0x14	; 20
    10a8:	90 e0       	ldi	r25, 0x00	; 0
    10aa:	ac 01       	movw	r20, r24
    10ac:	24 9f       	mul	r18, r20
    10ae:	c0 01       	movw	r24, r0
    10b0:	25 9f       	mul	r18, r21
    10b2:	90 0d       	add	r25, r0
    10b4:	34 9f       	mul	r19, r20
    10b6:	90 0d       	add	r25, r0
    10b8:	11 24       	eor	r1, r1
    10ba:	8e 52       	subi	r24, 0x2E	; 46
    10bc:	9f 41       	sbci	r25, 0x1F	; 31
    10be:	67 e2       	ldi	r22, 0x27	; 39
    10c0:	70 e0       	ldi	r23, 0x00	; 0
    10c2:	0e 94 12 16 	call	0x2c24	; 0x2c24 <__divmodhi4>
    10c6:	cb 01       	movw	r24, r22
    10c8:	1f 91       	pop	r17
    10ca:	08 95       	ret

000010cc <read_temperature_c>:
    10cc:	0e 94 3a 08 	call	0x1074	; 0x1074 <_ZN15OrangutanAnalog16readTemperatureCEv>
    10d0:	08 95       	ret

000010d2 <_ZN15OrangutanAnalog25readBatteryMillivolts_3piEv>:
    10d2:	1f 93       	push	r17
    10d4:	10 91 7c 00 	lds	r17, 0x007C
    10d8:	80 91 7c 00 	lds	r24, 0x007C
    10dc:	8f 7d       	andi	r24, 0xDF	; 223
    10de:	80 93 7c 00 	sts	0x007C, r24
    10e2:	86 e0       	ldi	r24, 0x06	; 6
    10e4:	6a e0       	ldi	r22, 0x0A	; 10
    10e6:	70 e0       	ldi	r23, 0x00	; 0
    10e8:	0e 94 c9 07 	call	0xf92	; 0xf92 <_ZN15OrangutanAnalog21readAverageMillivoltsEhj>
    10ec:	ac 01       	movw	r20, r24
    10ee:	15 fd       	sbrc	r17, 5
    10f0:	04 c0       	rjmp	.+8      	; 0x10fa <_ZN15OrangutanAnalog25readBatteryMillivolts_3piEv+0x28>
    10f2:	80 91 7c 00 	lds	r24, 0x007C
    10f6:	8f 7d       	andi	r24, 0xDF	; 223
    10f8:	03 c0       	rjmp	.+6      	; 0x1100 <_ZN15OrangutanAnalog25readBatteryMillivolts_3piEv+0x2e>
    10fa:	80 91 7c 00 	lds	r24, 0x007C
    10fe:	80 62       	ori	r24, 0x20	; 32
    1100:	80 93 7c 00 	sts	0x007C, r24
    1104:	9a 01       	movw	r18, r20
    1106:	22 0f       	add	r18, r18
    1108:	33 1f       	adc	r19, r19
    110a:	24 0f       	add	r18, r20
    110c:	35 1f       	adc	r19, r21
    110e:	2f 5f       	subi	r18, 0xFF	; 255
    1110:	3f 4f       	sbci	r19, 0xFF	; 255
    1112:	36 95       	lsr	r19
    1114:	27 95       	ror	r18
    1116:	c9 01       	movw	r24, r18
    1118:	1f 91       	pop	r17
    111a:	08 95       	ret

0000111c <read_battery_millivolts_3pi>:
    111c:	0e 94 69 08 	call	0x10d2	; 0x10d2 <_ZN15OrangutanAnalog25readBatteryMillivolts_3piEv>
    1120:	08 95       	ret

00001122 <_ZN15OrangutanAnalog24readBatteryMillivolts_SVEv>:
    1122:	1f 93       	push	r17
    1124:	10 91 7c 00 	lds	r17, 0x007C
    1128:	80 91 7c 00 	lds	r24, 0x007C
    112c:	8f 7d       	andi	r24, 0xDF	; 223
    112e:	80 93 7c 00 	sts	0x007C, r24
    1132:	86 e0       	ldi	r24, 0x06	; 6
    1134:	6a e0       	ldi	r22, 0x0A	; 10
    1136:	70 e0       	ldi	r23, 0x00	; 0
    1138:	0e 94 c9 07 	call	0xf92	; 0xf92 <_ZN15OrangutanAnalog21readAverageMillivoltsEhj>
    113c:	ac 01       	movw	r20, r24
    113e:	15 fd       	sbrc	r17, 5
    1140:	04 c0       	rjmp	.+8      	; 0x114a <_ZN15OrangutanAnalog24readBatteryMillivolts_SVEv+0x28>
    1142:	80 91 7c 00 	lds	r24, 0x007C
    1146:	8f 7d       	andi	r24, 0xDF	; 223
    1148:	03 c0       	rjmp	.+6      	; 0x1150 <_ZN15OrangutanAnalog24readBatteryMillivolts_SVEv+0x2e>
    114a:	80 91 7c 00 	lds	r24, 0x007C
    114e:	80 62       	ori	r24, 0x20	; 32
    1150:	80 93 7c 00 	sts	0x007C, r24
    1154:	9a 01       	movw	r18, r20
    1156:	22 0f       	add	r18, r18
    1158:	33 1f       	adc	r19, r19
    115a:	24 0f       	add	r18, r20
    115c:	35 1f       	adc	r19, r21
    115e:	c9 01       	movw	r24, r18
    1160:	1f 91       	pop	r17
    1162:	08 95       	ret

00001164 <read_battery_millivolts_sv168>:
    1164:	0e 94 91 08 	call	0x1122	; 0x1122 <_ZN15OrangutanAnalog24readBatteryMillivolts_SVEv>
    1168:	08 95       	ret

0000116a <read_battery_millivolts_sv>:
    116a:	0e 94 91 08 	call	0x1122	; 0x1122 <_ZN15OrangutanAnalog24readBatteryMillivolts_SVEv>
    116e:	08 95       	ret

00001170 <_ZN15OrangutanBuzzerC2Ev>:
    1170:	08 95       	ret

00001172 <_ZN15OrangutanBuzzerC1Ev>:
    1172:	08 95       	ret

00001174 <is_playing>:
    1174:	80 91 36 01 	lds	r24, 0x0136
    1178:	88 23       	and	r24, r24
    117a:	39 f0       	breq	.+14     	; 0x118a <is_playing+0x16>
    117c:	20 e0       	ldi	r18, 0x00	; 0
    117e:	80 91 64 02 	lds	r24, 0x0264
    1182:	90 91 65 02 	lds	r25, 0x0265
    1186:	89 2b       	or	r24, r25
    1188:	09 f0       	breq	.+2      	; 0x118c <is_playing+0x18>
    118a:	21 e0       	ldi	r18, 0x01	; 1
    118c:	82 2f       	mov	r24, r18
    118e:	08 95       	ret

00001190 <stop_playing>:
    1190:	10 92 6f 00 	sts	0x006F, r1
    1194:	e1 e8       	ldi	r30, 0x81	; 129
    1196:	f0 e0       	ldi	r31, 0x00	; 0
    1198:	80 81       	ld	r24, Z
    119a:	88 7f       	andi	r24, 0xF8	; 248
    119c:	81 60       	ori	r24, 0x01	; 1
    119e:	80 83       	st	Z, r24
    11a0:	80 e1       	ldi	r24, 0x10	; 16
    11a2:	97 e2       	ldi	r25, 0x27	; 39
    11a4:	90 93 89 00 	sts	0x0089, r25
    11a8:	80 93 88 00 	sts	0x0088, r24
    11ac:	10 92 8b 00 	sts	0x008B, r1
    11b0:	10 92 8a 00 	sts	0x008A, r1
    11b4:	81 e0       	ldi	r24, 0x01	; 1
    11b6:	80 93 36 01 	sts	0x0136, r24
    11ba:	10 92 65 02 	sts	0x0265, r1
    11be:	10 92 64 02 	sts	0x0264, r1
    11c2:	08 95       	ret

000011c4 <_ZN15OrangutanBuzzer5init2Ev>:
    11c4:	10 92 6f 00 	sts	0x006F, r1
    11c8:	83 e2       	ldi	r24, 0x23	; 35
    11ca:	80 93 80 00 	sts	0x0080, r24
    11ce:	81 e1       	ldi	r24, 0x11	; 17
    11d0:	80 93 81 00 	sts	0x0081, r24
    11d4:	10 92 82 00 	sts	0x0082, r1
    11d8:	80 e1       	ldi	r24, 0x10	; 16
    11da:	97 e2       	ldi	r25, 0x27	; 39
    11dc:	90 93 89 00 	sts	0x0089, r25
    11e0:	80 93 88 00 	sts	0x0088, r24
    11e4:	10 92 8b 00 	sts	0x008B, r1
    11e8:	10 92 8a 00 	sts	0x008A, r1
    11ec:	22 9a       	sbi	0x04, 2	; 4
    11ee:	78 94       	sei
    11f0:	08 95       	ret

000011f2 <_ZN15OrangutanBuzzer13playFrequencyEjjh>:
    11f2:	a0 e0       	ldi	r26, 0x00	; 0
    11f4:	b0 e0       	ldi	r27, 0x00	; 0
    11f6:	ef ef       	ldi	r30, 0xFF	; 255
    11f8:	f8 e0       	ldi	r31, 0x08	; 8
    11fa:	0c 94 6a 16 	jmp	0x2cd4	; 0x2cd4 <__prologue_saves__+0x10>
    11fe:	fc 01       	movw	r30, r24
    1200:	5b 01       	movw	r10, r22
    1202:	c4 2e       	mov	r12, r20
    1204:	80 91 63 02 	lds	r24, 0x0263
    1208:	88 23       	and	r24, r24
    120a:	c9 f4       	brne	.+50     	; 0x123e <_ZN15OrangutanBuzzer13playFrequencyEjjh+0x4c>
    120c:	81 e0       	ldi	r24, 0x01	; 1
    120e:	80 93 63 02 	sts	0x0263, r24
    1212:	10 92 6f 00 	sts	0x006F, r1
    1216:	83 e2       	ldi	r24, 0x23	; 35
    1218:	80 93 80 00 	sts	0x0080, r24
    121c:	81 e1       	ldi	r24, 0x11	; 17
    121e:	80 93 81 00 	sts	0x0081, r24
    1222:	10 92 82 00 	sts	0x0082, r1
    1226:	80 e1       	ldi	r24, 0x10	; 16
    1228:	97 e2       	ldi	r25, 0x27	; 39
    122a:	90 93 89 00 	sts	0x0089, r25
    122e:	80 93 88 00 	sts	0x0088, r24
    1232:	10 92 8b 00 	sts	0x008B, r1
    1236:	10 92 8a 00 	sts	0x008A, r1
    123a:	22 9a       	sbi	0x04, 2	; 4
    123c:	78 94       	sei
    123e:	10 92 36 01 	sts	0x0136, r1
    1242:	f7 fd       	sbrc	r31, 7
    1244:	03 c0       	rjmp	.+6      	; 0x124c <_ZN15OrangutanBuzzer13playFrequencyEjjh+0x5a>
    1246:	dd 24       	eor	r13, r13
    1248:	d3 94       	inc	r13
    124a:	03 c0       	rjmp	.+6      	; 0x1252 <_ZN15OrangutanBuzzer13playFrequencyEjjh+0x60>
    124c:	ff 77       	andi	r31, 0x7F	; 127
    124e:	2a e0       	ldi	r18, 0x0A	; 10
    1250:	d2 2e       	mov	r13, r18
    1252:	80 91 81 00 	lds	r24, 0x0081
    1256:	08 2f       	mov	r16, r24
    1258:	10 e0       	ldi	r17, 0x00	; 0
    125a:	08 7f       	andi	r16, 0xF8	; 248
    125c:	10 70       	andi	r17, 0x00	; 0
    125e:	88 ec       	ldi	r24, 0xC8	; 200
    1260:	d8 9e       	mul	r13, r24
    1262:	c0 01       	movw	r24, r0
    1264:	11 24       	eor	r1, r1
    1266:	8e 17       	cp	r24, r30
    1268:	9f 07       	cpc	r25, r31
    126a:	c0 f4       	brcc	.+48     	; 0x129c <_ZN15OrangutanBuzzer13playFrequencyEjjh+0xaa>
    126c:	ef 01       	movw	r28, r30
    126e:	87 e2       	ldi	r24, 0x27	; 39
    1270:	e1 31       	cpi	r30, 0x11	; 17
    1272:	f8 07       	cpc	r31, r24
    1274:	10 f0       	brcs	.+4      	; 0x127a <_ZN15OrangutanBuzzer13playFrequencyEjjh+0x88>
    1276:	c0 e1       	ldi	r28, 0x10	; 16
    1278:	d7 e2       	ldi	r29, 0x27	; 39
    127a:	be 01       	movw	r22, r28
    127c:	76 95       	lsr	r23
    127e:	67 95       	ror	r22
    1280:	80 e0       	ldi	r24, 0x00	; 0
    1282:	90 e0       	ldi	r25, 0x00	; 0
    1284:	60 58       	subi	r22, 0x80	; 128
    1286:	79 46       	sbci	r23, 0x69	; 105
    1288:	87 46       	sbci	r24, 0x67	; 103
    128a:	9f 4f       	sbci	r25, 0xFF	; 255
    128c:	9e 01       	movw	r18, r28
    128e:	40 e0       	ldi	r20, 0x00	; 0
    1290:	50 e0       	ldi	r21, 0x00	; 0
    1292:	0e 94 25 16 	call	0x2c4a	; 0x2c4a <__udivmodsi4>
    1296:	79 01       	movw	r14, r18
    1298:	01 60       	ori	r16, 0x01	; 1
    129a:	24 c0       	rjmp	.+72     	; 0x12e4 <_ZN15OrangutanBuzzer13playFrequencyEjjh+0xf2>
    129c:	88 e2       	ldi	r24, 0x28	; 40
    129e:	d8 9e       	mul	r13, r24
    12a0:	80 2d       	mov	r24, r0
    12a2:	11 24       	eor	r1, r1
    12a4:	c8 2f       	mov	r28, r24
    12a6:	d0 e0       	ldi	r29, 0x00	; 0
    12a8:	ce 17       	cp	r28, r30
    12aa:	df 07       	cpc	r29, r31
    12ac:	08 f4       	brcc	.+2      	; 0x12b0 <_ZN15OrangutanBuzzer13playFrequencyEjjh+0xbe>
    12ae:	ef 01       	movw	r28, r30
    12b0:	be 01       	movw	r22, r28
    12b2:	76 95       	lsr	r23
    12b4:	67 95       	ror	r22
    12b6:	9e 01       	movw	r18, r28
    12b8:	40 e0       	ldi	r20, 0x00	; 0
    12ba:	50 e0       	ldi	r21, 0x00	; 0
    12bc:	8a e0       	ldi	r24, 0x0A	; 10
    12be:	d8 16       	cp	r13, r24
    12c0:	39 f4       	brne	.+14     	; 0x12d0 <_ZN15OrangutanBuzzer13playFrequencyEjjh+0xde>
    12c2:	80 e0       	ldi	r24, 0x00	; 0
    12c4:	90 e0       	ldi	r25, 0x00	; 0
    12c6:	60 5e       	subi	r22, 0xE0	; 224
    12c8:	73 44       	sbci	r23, 0x43	; 67
    12ca:	81 44       	sbci	r24, 0x41	; 65
    12cc:	9f 4f       	sbci	r25, 0xFF	; 255
    12ce:	06 c0       	rjmp	.+12     	; 0x12dc <_ZN15OrangutanBuzzer13playFrequencyEjjh+0xea>
    12d0:	80 e0       	ldi	r24, 0x00	; 0
    12d2:	90 e0       	ldi	r25, 0x00	; 0
    12d4:	60 53       	subi	r22, 0x30	; 48
    12d6:	7d 4e       	sbci	r23, 0xED	; 237
    12d8:	8c 4e       	sbci	r24, 0xEC	; 236
    12da:	9f 4f       	sbci	r25, 0xFF	; 255
    12dc:	0e 94 25 16 	call	0x2c4a	; 0x2c4a <__udivmodsi4>
    12e0:	79 01       	movw	r14, r18
    12e2:	02 60       	ori	r16, 0x02	; 2
    12e4:	8a e0       	ldi	r24, 0x0A	; 10
    12e6:	d8 16       	cp	r13, r24
    12e8:	39 f4       	brne	.+14     	; 0x12f8 <_ZN15OrangutanBuzzer13playFrequencyEjjh+0x106>
    12ea:	ce 01       	movw	r24, r28
    12ec:	05 96       	adiw	r24, 0x05	; 5
    12ee:	6a e0       	ldi	r22, 0x0A	; 10
    12f0:	70 e0       	ldi	r23, 0x00	; 0
    12f2:	0e 94 fe 15 	call	0x2bfc	; 0x2bfc <__udivmodhi4>
    12f6:	eb 01       	movw	r28, r22
    12f8:	83 e0       	ldi	r24, 0x03	; 3
    12fa:	c8 3e       	cpi	r28, 0xE8	; 232
    12fc:	d8 07       	cpc	r29, r24
    12fe:	11 f4       	brne	.+4      	; 0x1304 <_ZN15OrangutanBuzzer13playFrequencyEjjh+0x112>
    1300:	b5 01       	movw	r22, r10
    1302:	0f c0       	rjmp	.+30     	; 0x1322 <_ZN15OrangutanBuzzer13playFrequencyEjjh+0x130>
    1304:	be 01       	movw	r22, r28
    1306:	80 e0       	ldi	r24, 0x00	; 0
    1308:	90 e0       	ldi	r25, 0x00	; 0
    130a:	95 01       	movw	r18, r10
    130c:	40 e0       	ldi	r20, 0x00	; 0
    130e:	50 e0       	ldi	r21, 0x00	; 0
    1310:	0e 94 d3 15 	call	0x2ba6	; 0x2ba6 <__mulsi3>
    1314:	28 ee       	ldi	r18, 0xE8	; 232
    1316:	33 e0       	ldi	r19, 0x03	; 3
    1318:	40 e0       	ldi	r20, 0x00	; 0
    131a:	50 e0       	ldi	r21, 0x00	; 0
    131c:	0e 94 47 16 	call	0x2c8e	; 0x2c8e <__divmodsi4>
    1320:	b9 01       	movw	r22, r18
    1322:	10 92 6f 00 	sts	0x006F, r1
    1326:	00 93 81 00 	sts	0x0081, r16
    132a:	f0 92 89 00 	sts	0x0089, r15
    132e:	e0 92 88 00 	sts	0x0088, r14
    1332:	e0 91 88 00 	lds	r30, 0x0088
    1336:	f0 91 89 00 	lds	r31, 0x0089
    133a:	ac 2d       	mov	r26, r12
    133c:	a0 31       	cpi	r26, 0x10	; 16
    133e:	08 f0       	brcs	.+2      	; 0x1342 <_ZN15OrangutanBuzzer13playFrequencyEjjh+0x150>
    1340:	af e0       	ldi	r26, 0x0F	; 15
    1342:	80 e1       	ldi	r24, 0x10	; 16
    1344:	90 e0       	ldi	r25, 0x00	; 0
    1346:	8a 1b       	sub	r24, r26
    1348:	91 09       	sbc	r25, r1
    134a:	02 c0       	rjmp	.+4      	; 0x1350 <_ZN15OrangutanBuzzer13playFrequencyEjjh+0x15e>
    134c:	f6 95       	lsr	r31
    134e:	e7 95       	ror	r30
    1350:	8a 95       	dec	r24
    1352:	e2 f7       	brpl	.-8      	; 0x134c <_ZN15OrangutanBuzzer13playFrequencyEjjh+0x15a>
    1354:	f0 93 8b 00 	sts	0x008B, r31
    1358:	e0 93 8a 00 	sts	0x008A, r30
    135c:	70 93 4b 02 	sts	0x024B, r23
    1360:	60 93 4a 02 	sts	0x024A, r22
    1364:	86 b3       	in	r24, 0x16	; 22
    1366:	8f ef       	ldi	r24, 0xFF	; 255
    1368:	86 bb       	out	0x16, r24	; 22
    136a:	81 e0       	ldi	r24, 0x01	; 1
    136c:	80 93 6f 00 	sts	0x006F, r24
    1370:	cd b7       	in	r28, 0x3d	; 61
    1372:	de b7       	in	r29, 0x3e	; 62
    1374:	ea e0       	ldi	r30, 0x0A	; 10
    1376:	0c 94 86 16 	jmp	0x2d0c	; 0x2d0c <__epilogue_restores__+0x10>

0000137a <play_frequency>:
    137a:	0e 94 f9 08 	call	0x11f2	; 0x11f2 <_ZN15OrangutanBuzzer13playFrequencyEjjh>
    137e:	08 95       	ret

00001380 <_ZN15OrangutanBuzzer8playNoteEhjh>:
    1380:	cf 93       	push	r28
    1382:	df 93       	push	r29
    1384:	eb 01       	movw	r28, r22
    1386:	8f 3f       	cpi	r24, 0xFF	; 255
    1388:	11 f0       	breq	.+4      	; 0x138e <_ZN15OrangutanBuzzer8playNoteEhjh+0xe>
    138a:	44 23       	and	r20, r20
    138c:	29 f4       	brne	.+10     	; 0x1398 <_ZN15OrangutanBuzzer8playNoteEhjh+0x18>
    138e:	88 ee       	ldi	r24, 0xE8	; 232
    1390:	93 e0       	ldi	r25, 0x03	; 3
    1392:	be 01       	movw	r22, r28
    1394:	40 e0       	ldi	r20, 0x00	; 0
    1396:	67 c0       	rjmp	.+206    	; 0x1466 <_ZN15OrangutanBuzzer8playNoteEhjh+0xe6>
    1398:	81 31       	cpi	r24, 0x11	; 17
    139a:	10 f4       	brcc	.+4      	; 0x13a0 <_ZN15OrangutanBuzzer8playNoteEhjh+0x20>
    139c:	20 e0       	ldi	r18, 0x00	; 0
    139e:	05 c0       	rjmp	.+10     	; 0x13aa <_ZN15OrangutanBuzzer8playNoteEhjh+0x2a>
    13a0:	28 2f       	mov	r18, r24
    13a2:	20 51       	subi	r18, 0x10	; 16
    13a4:	20 36       	cpi	r18, 0x60	; 96
    13a6:	08 f0       	brcs	.+2      	; 0x13aa <_ZN15OrangutanBuzzer8playNoteEhjh+0x2a>
    13a8:	2f e5       	ldi	r18, 0x5F	; 95
    13aa:	82 2f       	mov	r24, r18
    13ac:	6c e0       	ldi	r22, 0x0C	; 12
    13ae:	0e 94 f2 15 	call	0x2be4	; 0x2be4 <__udivmodqi4>
    13b2:	38 2f       	mov	r19, r24
    13b4:	68 2f       	mov	r22, r24
    13b6:	70 e0       	ldi	r23, 0x00	; 0
    13b8:	84 ef       	ldi	r24, 0xF4	; 244
    13ba:	9f ef       	ldi	r25, 0xFF	; 255
    13bc:	68 9f       	mul	r22, r24
    13be:	f0 01       	movw	r30, r0
    13c0:	69 9f       	mul	r22, r25
    13c2:	f0 0d       	add	r31, r0
    13c4:	78 9f       	mul	r23, r24
    13c6:	f0 0d       	add	r31, r0
    13c8:	11 24       	eor	r1, r1
    13ca:	e2 0f       	add	r30, r18
    13cc:	f1 1d       	adc	r31, r1
    13ce:	ec 30       	cpi	r30, 0x0C	; 12
    13d0:	f1 05       	cpc	r31, r1
    13d2:	38 f4       	brcc	.+14     	; 0x13e2 <_ZN15OrangutanBuzzer8playNoteEhjh+0x62>
    13d4:	ec 5c       	subi	r30, 0xCC	; 204
    13d6:	ff 4f       	sbci	r31, 0xFF	; 255
    13d8:	0c 94 99 16 	jmp	0x2d32	; 0x2d32 <__tablejump2__>
    13dc:	8c e9       	ldi	r24, 0x9C	; 156
    13de:	91 e0       	ldi	r25, 0x01	; 1
    13e0:	23 c0       	rjmp	.+70     	; 0x1428 <_ZN15OrangutanBuzzer8playNoteEhjh+0xa8>
    13e2:	80 e0       	ldi	r24, 0x00	; 0
    13e4:	90 e0       	ldi	r25, 0x00	; 0
    13e6:	20 c0       	rjmp	.+64     	; 0x1428 <_ZN15OrangutanBuzzer8playNoteEhjh+0xa8>
    13e8:	85 eb       	ldi	r24, 0xB5	; 181
    13ea:	91 e0       	ldi	r25, 0x01	; 1
    13ec:	1d c0       	rjmp	.+58     	; 0x1428 <_ZN15OrangutanBuzzer8playNoteEhjh+0xa8>
    13ee:	8f ec       	ldi	r24, 0xCF	; 207
    13f0:	91 e0       	ldi	r25, 0x01	; 1
    13f2:	1a c0       	rjmp	.+52     	; 0x1428 <_ZN15OrangutanBuzzer8playNoteEhjh+0xa8>
    13f4:	8a ee       	ldi	r24, 0xEA	; 234
    13f6:	91 e0       	ldi	r25, 0x01	; 1
    13f8:	17 c0       	rjmp	.+46     	; 0x1428 <_ZN15OrangutanBuzzer8playNoteEhjh+0xa8>
    13fa:	87 e0       	ldi	r24, 0x07	; 7
    13fc:	92 e0       	ldi	r25, 0x02	; 2
    13fe:	14 c0       	rjmp	.+40     	; 0x1428 <_ZN15OrangutanBuzzer8playNoteEhjh+0xa8>
    1400:	86 e2       	ldi	r24, 0x26	; 38
    1402:	92 e0       	ldi	r25, 0x02	; 2
    1404:	11 c0       	rjmp	.+34     	; 0x1428 <_ZN15OrangutanBuzzer8playNoteEhjh+0xa8>
    1406:	87 e4       	ldi	r24, 0x47	; 71
    1408:	92 e0       	ldi	r25, 0x02	; 2
    140a:	0e c0       	rjmp	.+28     	; 0x1428 <_ZN15OrangutanBuzzer8playNoteEhjh+0xa8>
    140c:	89 e6       	ldi	r24, 0x69	; 105
    140e:	92 e0       	ldi	r25, 0x02	; 2
    1410:	0b c0       	rjmp	.+22     	; 0x1428 <_ZN15OrangutanBuzzer8playNoteEhjh+0xa8>
    1412:	8e e8       	ldi	r24, 0x8E	; 142
    1414:	92 e0       	ldi	r25, 0x02	; 2
    1416:	08 c0       	rjmp	.+16     	; 0x1428 <_ZN15OrangutanBuzzer8playNoteEhjh+0xa8>
    1418:	85 eb       	ldi	r24, 0xB5	; 181
    141a:	92 e0       	ldi	r25, 0x02	; 2
    141c:	05 c0       	rjmp	.+10     	; 0x1428 <_ZN15OrangutanBuzzer8playNoteEhjh+0xa8>
    141e:	8e ed       	ldi	r24, 0xDE	; 222
    1420:	92 e0       	ldi	r25, 0x02	; 2
    1422:	02 c0       	rjmp	.+4      	; 0x1428 <_ZN15OrangutanBuzzer8playNoteEhjh+0xa8>
    1424:	8a e0       	ldi	r24, 0x0A	; 10
    1426:	93 e0       	ldi	r25, 0x03	; 3
    1428:	37 30       	cpi	r19, 0x07	; 7
    142a:	71 f0       	breq	.+28     	; 0x1448 <_ZN15OrangutanBuzzer8playNoteEhjh+0xc8>
    142c:	02 c0       	rjmp	.+4      	; 0x1432 <_ZN15OrangutanBuzzer8playNoteEhjh+0xb2>
    142e:	88 0f       	add	r24, r24
    1430:	99 1f       	adc	r25, r25
    1432:	6a 95       	dec	r22
    1434:	e2 f7       	brpl	.-8      	; 0x142e <_ZN15OrangutanBuzzer8playNoteEhjh+0xae>
    1436:	32 30       	cpi	r19, 0x02	; 2
    1438:	20 f0       	brcs	.+8      	; 0x1442 <_ZN15OrangutanBuzzer8playNoteEhjh+0xc2>
    143a:	05 96       	adiw	r24, 0x05	; 5
    143c:	6a e0       	ldi	r22, 0x0A	; 10
    143e:	70 e0       	ldi	r23, 0x00	; 0
    1440:	0b c0       	rjmp	.+22     	; 0x1458 <_ZN15OrangutanBuzzer8playNoteEhjh+0xd8>
    1442:	80 50       	subi	r24, 0x00	; 0
    1444:	90 48       	sbci	r25, 0x80	; 128
    1446:	0b c0       	rjmp	.+22     	; 0x145e <_ZN15OrangutanBuzzer8playNoteEhjh+0xde>
    1448:	36 e0       	ldi	r19, 0x06	; 6
    144a:	88 0f       	add	r24, r24
    144c:	99 1f       	adc	r25, r25
    144e:	3a 95       	dec	r19
    1450:	e1 f7       	brne	.-8      	; 0x144a <_ZN15OrangutanBuzzer8playNoteEhjh+0xca>
    1452:	02 96       	adiw	r24, 0x02	; 2
    1454:	65 e0       	ldi	r22, 0x05	; 5
    1456:	70 e0       	ldi	r23, 0x00	; 0
    1458:	0e 94 fe 15 	call	0x2bfc	; 0x2bfc <__udivmodhi4>
    145c:	cb 01       	movw	r24, r22
    145e:	40 31       	cpi	r20, 0x10	; 16
    1460:	08 f0       	brcs	.+2      	; 0x1464 <_ZN15OrangutanBuzzer8playNoteEhjh+0xe4>
    1462:	4f e0       	ldi	r20, 0x0F	; 15
    1464:	be 01       	movw	r22, r28
    1466:	0e 94 f9 08 	call	0x11f2	; 0x11f2 <_ZN15OrangutanBuzzer13playFrequencyEjjh>
    146a:	df 91       	pop	r29
    146c:	cf 91       	pop	r28
    146e:	08 95       	ret

00001470 <play_note>:
    1470:	0e 94 c0 09 	call	0x1380	; 0x1380 <_ZN15OrangutanBuzzer8playNoteEhjh>
    1474:	08 95       	ret

00001476 <_ZN15OrangutanBuzzer9isPlayingEv>:
    1476:	80 91 36 01 	lds	r24, 0x0136
    147a:	88 23       	and	r24, r24
    147c:	39 f0       	breq	.+14     	; 0x148c <_ZN15OrangutanBuzzer9isPlayingEv+0x16>
    147e:	20 e0       	ldi	r18, 0x00	; 0
    1480:	80 91 64 02 	lds	r24, 0x0264
    1484:	90 91 65 02 	lds	r25, 0x0265
    1488:	89 2b       	or	r24, r25
    148a:	09 f0       	breq	.+2      	; 0x148e <_ZN15OrangutanBuzzer9isPlayingEv+0x18>
    148c:	21 e0       	ldi	r18, 0x01	; 1
    148e:	82 2f       	mov	r24, r18
    1490:	08 95       	ret

00001492 <_ZN15OrangutanBuzzer11stopPlayingEv>:
    1492:	10 92 6f 00 	sts	0x006F, r1
    1496:	e1 e8       	ldi	r30, 0x81	; 129
    1498:	f0 e0       	ldi	r31, 0x00	; 0
    149a:	80 81       	ld	r24, Z
    149c:	88 7f       	andi	r24, 0xF8	; 248
    149e:	81 60       	ori	r24, 0x01	; 1
    14a0:	80 83       	st	Z, r24
    14a2:	80 e1       	ldi	r24, 0x10	; 16
    14a4:	97 e2       	ldi	r25, 0x27	; 39
    14a6:	90 93 89 00 	sts	0x0089, r25
    14aa:	80 93 88 00 	sts	0x0088, r24
    14ae:	10 92 8b 00 	sts	0x008B, r1
    14b2:	10 92 8a 00 	sts	0x008A, r1
    14b6:	81 e0       	ldi	r24, 0x01	; 1
    14b8:	80 93 36 01 	sts	0x0136, r24
    14bc:	10 92 65 02 	sts	0x0265, r1
    14c0:	10 92 64 02 	sts	0x0264, r1
    14c4:	08 95       	ret

000014c6 <_ZL16currentCharacterv>:
    14c6:	30 91 48 02 	lds	r19, 0x0248
    14ca:	e0 91 64 02 	lds	r30, 0x0264
    14ce:	f0 91 65 02 	lds	r31, 0x0265
    14d2:	33 23       	and	r19, r19
    14d4:	11 f0       	breq	.+4      	; 0x14da <_ZL16currentCharacterv+0x14>
    14d6:	24 91       	lpm	r18, Z+
    14d8:	01 c0       	rjmp	.+2      	; 0x14dc <_ZL16currentCharacterv+0x16>
    14da:	20 81       	ld	r18, Z
    14dc:	82 2f       	mov	r24, r18
    14de:	81 54       	subi	r24, 0x41	; 65
    14e0:	8a 31       	cpi	r24, 0x1A	; 26
    14e2:	08 f4       	brcc	.+2      	; 0x14e6 <_ZL16currentCharacterv+0x20>
    14e4:	20 5e       	subi	r18, 0xE0	; 224
    14e6:	20 32       	cpi	r18, 0x20	; 32
    14e8:	59 f4       	brne	.+22     	; 0x1500 <_ZL16currentCharacterv+0x3a>
    14ea:	80 91 64 02 	lds	r24, 0x0264
    14ee:	90 91 65 02 	lds	r25, 0x0265
    14f2:	01 96       	adiw	r24, 0x01	; 1
    14f4:	90 93 65 02 	sts	0x0265, r25
    14f8:	80 93 64 02 	sts	0x0264, r24
    14fc:	01 97       	sbiw	r24, 0x01	; 1
    14fe:	29 f7       	brne	.-54     	; 0x14ca <_ZL16currentCharacterv+0x4>
    1500:	82 2f       	mov	r24, r18
    1502:	08 95       	ret

00001504 <_ZL9getNumberv>:
    1504:	cf 93       	push	r28
    1506:	df 93       	push	r29
    1508:	0e 94 63 0a 	call	0x14c6	; 0x14c6 <_ZL16currentCharacterv>
    150c:	28 2f       	mov	r18, r24
    150e:	c0 e0       	ldi	r28, 0x00	; 0
    1510:	d0 e0       	ldi	r29, 0x00	; 0
    1512:	1d c0       	rjmp	.+58     	; 0x154e <_ZL9getNumberv+0x4a>
    1514:	ce 01       	movw	r24, r28
    1516:	53 e0       	ldi	r21, 0x03	; 3
    1518:	88 0f       	add	r24, r24
    151a:	99 1f       	adc	r25, r25
    151c:	5a 95       	dec	r21
    151e:	e1 f7       	brne	.-8      	; 0x1518 <_ZL9getNumberv+0x14>
    1520:	cc 0f       	add	r28, r28
    1522:	dd 1f       	adc	r29, r29
    1524:	c8 0f       	add	r28, r24
    1526:	d9 1f       	adc	r29, r25
    1528:	82 2f       	mov	r24, r18
    152a:	99 27       	eor	r25, r25
    152c:	87 fd       	sbrc	r24, 7
    152e:	90 95       	com	r25
    1530:	c8 0f       	add	r28, r24
    1532:	d9 1f       	adc	r29, r25
    1534:	e0 97       	sbiw	r28, 0x30	; 48
    1536:	80 91 64 02 	lds	r24, 0x0264
    153a:	90 91 65 02 	lds	r25, 0x0265
    153e:	01 96       	adiw	r24, 0x01	; 1
    1540:	90 93 65 02 	sts	0x0265, r25
    1544:	80 93 64 02 	sts	0x0264, r24
    1548:	0e 94 63 0a 	call	0x14c6	; 0x14c6 <_ZL16currentCharacterv>
    154c:	28 2f       	mov	r18, r24
    154e:	82 2f       	mov	r24, r18
    1550:	80 53       	subi	r24, 0x30	; 48
    1552:	8a 30       	cpi	r24, 0x0A	; 10
    1554:	f8 f2       	brcs	.-66     	; 0x1514 <_ZL9getNumberv+0x10>
    1556:	ce 01       	movw	r24, r28
    1558:	df 91       	pop	r29
    155a:	cf 91       	pop	r28
    155c:	08 95       	ret

0000155e <_ZL8nextNotev>:
    155e:	a0 e0       	ldi	r26, 0x00	; 0
    1560:	b0 e0       	ldi	r27, 0x00	; 0
    1562:	e5 eb       	ldi	r30, 0xB5	; 181
    1564:	fa e0       	ldi	r31, 0x0A	; 10
    1566:	0c 94 68 16 	jmp	0x2cd0	; 0x2cd0 <__prologue_saves__+0xc>
    156a:	80 90 2b 01 	lds	r8, 0x012B
    156e:	b0 90 46 02 	lds	r11, 0x0246
    1572:	bb 20       	and	r11, r11
    1574:	21 f0       	breq	.+8      	; 0x157e <_ZL8nextNotev+0x20>
    1576:	60 91 47 02 	lds	r22, 0x0247
    157a:	66 23       	and	r22, r22
    157c:	99 f4       	brne	.+38     	; 0x15a4 <_ZL8nextNotev+0x46>
    157e:	a0 90 47 02 	lds	r10, 0x0247
    1582:	00 91 30 01 	lds	r16, 0x0130
    1586:	10 91 31 01 	lds	r17, 0x0131
    158a:	e0 90 2c 01 	lds	r14, 0x012C
    158e:	f0 90 2d 01 	lds	r15, 0x012D
    1592:	c0 91 2e 01 	lds	r28, 0x012E
    1596:	d0 91 2f 01 	lds	r29, 0x012F
    159a:	c0 90 32 01 	lds	r12, 0x0132
    159e:	d0 90 33 01 	lds	r13, 0x0133
    15a2:	08 c1       	rjmp	.+528    	; 0x17b4 <_ZL8nextNotev+0x256>
    15a4:	8f ef       	ldi	r24, 0xFF	; 255
    15a6:	70 e0       	ldi	r23, 0x00	; 0
    15a8:	40 e0       	ldi	r20, 0x00	; 0
    15aa:	0e 94 c0 09 	call	0x1380	; 0x1380 <_ZN15OrangutanBuzzer8playNoteEhjh>
    15ae:	10 92 47 02 	sts	0x0247, r1
    15b2:	cb c1       	rjmp	.+918    	; 0x194a <_ZL8nextNotev+0x3ec>
    15b4:	94 e0       	ldi	r25, 0x04	; 4
    15b6:	89 2e       	mov	r8, r25
    15b8:	bb 24       	eor	r11, r11
    15ba:	04 ef       	ldi	r16, 0xF4	; 244
    15bc:	11 e0       	ldi	r17, 0x01	; 1
    15be:	84 e0       	ldi	r24, 0x04	; 4
    15c0:	e8 2e       	mov	r14, r24
    15c2:	f1 2c       	mov	r15, r1
    15c4:	c0 ed       	ldi	r28, 0xD0	; 208
    15c6:	d7 e0       	ldi	r29, 0x07	; 7
    15c8:	b4 e0       	ldi	r27, 0x04	; 4
    15ca:	9b 2e       	mov	r9, r27
    15cc:	af e0       	ldi	r26, 0x0F	; 15
    15ce:	ca 2e       	mov	r12, r26
    15d0:	d1 2c       	mov	r13, r1
    15d2:	0e 94 63 0a 	call	0x14c6	; 0x14c6 <_ZL16currentCharacterv>
    15d6:	28 2f       	mov	r18, r24
    15d8:	80 91 64 02 	lds	r24, 0x0264
    15dc:	90 91 65 02 	lds	r25, 0x0265
    15e0:	01 96       	adiw	r24, 0x01	; 1
    15e2:	90 93 65 02 	sts	0x0265, r25
    15e6:	80 93 64 02 	sts	0x0264, r24
    15ea:	26 36       	cpi	r18, 0x66	; 102
    15ec:	09 f4       	brne	.+2      	; 0x15f0 <_ZL8nextNotev+0x92>
    15ee:	98 c0       	rjmp	.+304    	; 0x1720 <_ZL8nextNotev+0x1c2>
    15f0:	27 36       	cpi	r18, 0x67	; 103
    15f2:	cc f4       	brge	.+50     	; 0x1626 <_ZL8nextNotev+0xc8>
    15f4:	22 36       	cpi	r18, 0x62	; 98
    15f6:	a1 f1       	breq	.+104    	; 0x1660 <_ZL8nextNotev+0x102>
    15f8:	23 36       	cpi	r18, 0x63	; 99
    15fa:	74 f4       	brge	.+28     	; 0x1618 <_ZL8nextNotev+0xba>
    15fc:	2e 33       	cpi	r18, 0x3E	; 62
    15fe:	61 f1       	breq	.+88     	; 0x1658 <_ZL8nextNotev+0xfa>
    1600:	2f 33       	cpi	r18, 0x3F	; 63
    1602:	34 f4       	brge	.+12     	; 0x1610 <_ZL8nextNotev+0xb2>
    1604:	21 32       	cpi	r18, 0x21	; 33
    1606:	b1 f2       	breq	.-84     	; 0x15b4 <_ZL8nextNotev+0x56>
    1608:	2c 33       	cpi	r18, 0x3C	; 60
    160a:	09 f0       	breq	.+2      	; 0x160e <_ZL8nextNotev+0xb0>
    160c:	0b c1       	rjmp	.+534    	; 0x1824 <_ZL8nextNotev+0x2c6>
    160e:	26 c0       	rjmp	.+76     	; 0x165c <_ZL8nextNotev+0xfe>
    1610:	21 36       	cpi	r18, 0x61	; 97
    1612:	09 f0       	breq	.+2      	; 0x1616 <_ZL8nextNotev+0xb8>
    1614:	07 c1       	rjmp	.+526    	; 0x1824 <_ZL8nextNotev+0x2c6>
    1616:	21 c1       	rjmp	.+578    	; 0x185a <_ZL8nextNotev+0x2fc>
    1618:	24 36       	cpi	r18, 0x64	; 100
    161a:	09 f4       	brne	.+2      	; 0x161e <_ZL8nextNotev+0xc0>
    161c:	51 c0       	rjmp	.+162    	; 0x16c0 <_ZL8nextNotev+0x162>
    161e:	25 36       	cpi	r18, 0x65	; 101
    1620:	0c f0       	brlt	.+2      	; 0x1624 <_ZL8nextNotev+0xc6>
    1622:	66 c0       	rjmp	.+204    	; 0x16f0 <_ZL8nextNotev+0x192>
    1624:	35 c0       	rjmp	.+106    	; 0x1690 <_ZL8nextNotev+0x132>
    1626:	2f 36       	cpi	r18, 0x6F	; 111
    1628:	09 f4       	brne	.+2      	; 0x162c <_ZL8nextNotev+0xce>
    162a:	c1 c0       	rjmp	.+386    	; 0x17ae <_ZL8nextNotev+0x250>
    162c:	20 37       	cpi	r18, 0x70	; 112
    162e:	54 f4       	brge	.+20     	; 0x1644 <_ZL8nextNotev+0xe6>
    1630:	2c 36       	cpi	r18, 0x6C	; 108
    1632:	09 f4       	brne	.+2      	; 0x1636 <_ZL8nextNotev+0xd8>
    1634:	a5 c0       	rjmp	.+330    	; 0x1780 <_ZL8nextNotev+0x222>
    1636:	2d 36       	cpi	r18, 0x6D	; 109
    1638:	09 f4       	brne	.+2      	; 0x163c <_ZL8nextNotev+0xde>
    163a:	a6 c0       	rjmp	.+332    	; 0x1788 <_ZL8nextNotev+0x22a>
    163c:	27 36       	cpi	r18, 0x67	; 103
    163e:	09 f0       	breq	.+2      	; 0x1642 <_ZL8nextNotev+0xe4>
    1640:	f1 c0       	rjmp	.+482    	; 0x1824 <_ZL8nextNotev+0x2c6>
    1642:	86 c0       	rjmp	.+268    	; 0x1750 <_ZL8nextNotev+0x1f2>
    1644:	24 37       	cpi	r18, 0x74	; 116
    1646:	09 f4       	brne	.+2      	; 0x164a <_ZL8nextNotev+0xec>
    1648:	d1 c0       	rjmp	.+418    	; 0x17ec <_ZL8nextNotev+0x28e>
    164a:	26 37       	cpi	r18, 0x76	; 118
    164c:	09 f4       	brne	.+2      	; 0x1650 <_ZL8nextNotev+0xf2>
    164e:	e6 c0       	rjmp	.+460    	; 0x181c <_ZL8nextNotev+0x2be>
    1650:	22 37       	cpi	r18, 0x72	; 114
    1652:	09 f0       	breq	.+2      	; 0x1656 <_ZL8nextNotev+0xf8>
    1654:	e7 c0       	rjmp	.+462    	; 0x1824 <_ZL8nextNotev+0x2c6>
    1656:	b0 c0       	rjmp	.+352    	; 0x17b8 <_ZL8nextNotev+0x25a>
    1658:	83 94       	inc	r8
    165a:	bb cf       	rjmp	.-138    	; 0x15d2 <_ZL8nextNotev+0x74>
    165c:	8a 94       	dec	r8
    165e:	b9 cf       	rjmp	.-142    	; 0x15d2 <_ZL8nextNotev+0x74>
    1660:	a0 92 47 02 	sts	0x0247, r10
    1664:	b0 92 46 02 	sts	0x0246, r11
    1668:	10 93 31 01 	sts	0x0131, r17
    166c:	00 93 30 01 	sts	0x0130, r16
    1670:	f0 92 2d 01 	sts	0x012D, r15
    1674:	e0 92 2c 01 	sts	0x012C, r14
    1678:	d0 93 2f 01 	sts	0x012F, r29
    167c:	c0 93 2e 01 	sts	0x012E, r28
    1680:	90 92 2b 01 	sts	0x012B, r9
    1684:	d0 92 33 01 	sts	0x0133, r13
    1688:	c0 92 32 01 	sts	0x0132, r12
    168c:	2b e0       	ldi	r18, 0x0B	; 11
    168e:	fc c0       	rjmp	.+504    	; 0x1888 <_ZL8nextNotev+0x32a>
    1690:	a0 92 47 02 	sts	0x0247, r10
    1694:	b0 92 46 02 	sts	0x0246, r11
    1698:	10 93 31 01 	sts	0x0131, r17
    169c:	00 93 30 01 	sts	0x0130, r16
    16a0:	f0 92 2d 01 	sts	0x012D, r15
    16a4:	e0 92 2c 01 	sts	0x012C, r14
    16a8:	d0 93 2f 01 	sts	0x012F, r29
    16ac:	c0 93 2e 01 	sts	0x012E, r28
    16b0:	90 92 2b 01 	sts	0x012B, r9
    16b4:	d0 92 33 01 	sts	0x0133, r13
    16b8:	c0 92 32 01 	sts	0x0132, r12
    16bc:	20 e0       	ldi	r18, 0x00	; 0
    16be:	e4 c0       	rjmp	.+456    	; 0x1888 <_ZL8nextNotev+0x32a>
    16c0:	a0 92 47 02 	sts	0x0247, r10
    16c4:	b0 92 46 02 	sts	0x0246, r11
    16c8:	10 93 31 01 	sts	0x0131, r17
    16cc:	00 93 30 01 	sts	0x0130, r16
    16d0:	f0 92 2d 01 	sts	0x012D, r15
    16d4:	e0 92 2c 01 	sts	0x012C, r14
    16d8:	d0 93 2f 01 	sts	0x012F, r29
    16dc:	c0 93 2e 01 	sts	0x012E, r28
    16e0:	90 92 2b 01 	sts	0x012B, r9
    16e4:	d0 92 33 01 	sts	0x0133, r13
    16e8:	c0 92 32 01 	sts	0x0132, r12
    16ec:	22 e0       	ldi	r18, 0x02	; 2
    16ee:	cc c0       	rjmp	.+408    	; 0x1888 <_ZL8nextNotev+0x32a>
    16f0:	a0 92 47 02 	sts	0x0247, r10
    16f4:	b0 92 46 02 	sts	0x0246, r11
    16f8:	10 93 31 01 	sts	0x0131, r17
    16fc:	00 93 30 01 	sts	0x0130, r16
    1700:	f0 92 2d 01 	sts	0x012D, r15
    1704:	e0 92 2c 01 	sts	0x012C, r14
    1708:	d0 93 2f 01 	sts	0x012F, r29
    170c:	c0 93 2e 01 	sts	0x012E, r28
    1710:	90 92 2b 01 	sts	0x012B, r9
    1714:	d0 92 33 01 	sts	0x0133, r13
    1718:	c0 92 32 01 	sts	0x0132, r12
    171c:	24 e0       	ldi	r18, 0x04	; 4
    171e:	b4 c0       	rjmp	.+360    	; 0x1888 <_ZL8nextNotev+0x32a>
    1720:	a0 92 47 02 	sts	0x0247, r10
    1724:	b0 92 46 02 	sts	0x0246, r11
    1728:	10 93 31 01 	sts	0x0131, r17
    172c:	00 93 30 01 	sts	0x0130, r16
    1730:	f0 92 2d 01 	sts	0x012D, r15
    1734:	e0 92 2c 01 	sts	0x012C, r14
    1738:	d0 93 2f 01 	sts	0x012F, r29
    173c:	c0 93 2e 01 	sts	0x012E, r28
    1740:	90 92 2b 01 	sts	0x012B, r9
    1744:	d0 92 33 01 	sts	0x0133, r13
    1748:	c0 92 32 01 	sts	0x0132, r12
    174c:	25 e0       	ldi	r18, 0x05	; 5
    174e:	9c c0       	rjmp	.+312    	; 0x1888 <_ZL8nextNotev+0x32a>
    1750:	a0 92 47 02 	sts	0x0247, r10
    1754:	b0 92 46 02 	sts	0x0246, r11
    1758:	10 93 31 01 	sts	0x0131, r17
    175c:	00 93 30 01 	sts	0x0130, r16
    1760:	f0 92 2d 01 	sts	0x012D, r15
    1764:	e0 92 2c 01 	sts	0x012C, r14
    1768:	d0 93 2f 01 	sts	0x012F, r29
    176c:	c0 93 2e 01 	sts	0x012E, r28
    1770:	90 92 2b 01 	sts	0x012B, r9
    1774:	d0 92 33 01 	sts	0x0133, r13
    1778:	c0 92 32 01 	sts	0x0132, r12
    177c:	27 e0       	ldi	r18, 0x07	; 7
    177e:	84 c0       	rjmp	.+264    	; 0x1888 <_ZL8nextNotev+0x32a>
    1780:	0e 94 82 0a 	call	0x1504	; 0x1504 <_ZL9getNumberv>
    1784:	7c 01       	movw	r14, r24
    1786:	44 c0       	rjmp	.+136    	; 0x1810 <_ZL8nextNotev+0x2b2>
    1788:	0e 94 63 0a 	call	0x14c6	; 0x14c6 <_ZL16currentCharacterv>
    178c:	8c 36       	cpi	r24, 0x6C	; 108
    178e:	11 f4       	brne	.+4      	; 0x1794 <_ZL8nextNotev+0x236>
    1790:	bb 24       	eor	r11, r11
    1792:	03 c0       	rjmp	.+6      	; 0x179a <_ZL8nextNotev+0x23c>
    1794:	aa 24       	eor	r10, r10
    1796:	bb 24       	eor	r11, r11
    1798:	b3 94       	inc	r11
    179a:	80 91 64 02 	lds	r24, 0x0264
    179e:	90 91 65 02 	lds	r25, 0x0265
    17a2:	01 96       	adiw	r24, 0x01	; 1
    17a4:	90 93 65 02 	sts	0x0265, r25
    17a8:	80 93 64 02 	sts	0x0264, r24
    17ac:	12 cf       	rjmp	.-476    	; 0x15d2 <_ZL8nextNotev+0x74>
    17ae:	0e 94 82 0a 	call	0x1504	; 0x1504 <_ZL9getNumberv>
    17b2:	88 2e       	mov	r8, r24
    17b4:	98 2c       	mov	r9, r8
    17b6:	0d cf       	rjmp	.-486    	; 0x15d2 <_ZL8nextNotev+0x74>
    17b8:	a0 92 47 02 	sts	0x0247, r10
    17bc:	b0 92 46 02 	sts	0x0246, r11
    17c0:	10 93 31 01 	sts	0x0131, r17
    17c4:	00 93 30 01 	sts	0x0130, r16
    17c8:	f0 92 2d 01 	sts	0x012D, r15
    17cc:	e0 92 2c 01 	sts	0x012C, r14
    17d0:	d0 93 2f 01 	sts	0x012F, r29
    17d4:	c0 93 2e 01 	sts	0x012E, r28
    17d8:	90 92 2b 01 	sts	0x012B, r9
    17dc:	d0 92 33 01 	sts	0x0133, r13
    17e0:	c0 92 32 01 	sts	0x0132, r12
    17e4:	20 e0       	ldi	r18, 0x00	; 0
    17e6:	ff 24       	eor	r15, r15
    17e8:	f3 94       	inc	r15
    17ea:	4f c0       	rjmp	.+158    	; 0x188a <_ZL8nextNotev+0x32c>
    17ec:	0e 94 82 0a 	call	0x1504	; 0x1504 <_ZL9getNumberv>
    17f0:	bc 01       	movw	r22, r24
    17f2:	80 ec       	ldi	r24, 0xC0	; 192
    17f4:	9d e5       	ldi	r25, 0x5D	; 93
    17f6:	0e 94 fe 15 	call	0x2bfc	; 0x2bfc <__udivmodhi4>
    17fa:	cb 01       	movw	r24, r22
    17fc:	eb 01       	movw	r28, r22
    17fe:	f3 e0       	ldi	r31, 0x03	; 3
    1800:	cc 0f       	add	r28, r28
    1802:	dd 1f       	adc	r29, r29
    1804:	fa 95       	dec	r31
    1806:	e1 f7       	brne	.-8      	; 0x1800 <_ZL8nextNotev+0x2a2>
    1808:	88 0f       	add	r24, r24
    180a:	99 1f       	adc	r25, r25
    180c:	c8 0f       	add	r28, r24
    180e:	d9 1f       	adc	r29, r25
    1810:	ce 01       	movw	r24, r28
    1812:	b7 01       	movw	r22, r14
    1814:	0e 94 fe 15 	call	0x2bfc	; 0x2bfc <__udivmodhi4>
    1818:	8b 01       	movw	r16, r22
    181a:	db ce       	rjmp	.-586    	; 0x15d2 <_ZL8nextNotev+0x74>
    181c:	0e 94 82 0a 	call	0x1504	; 0x1504 <_ZL9getNumberv>
    1820:	6c 01       	movw	r12, r24
    1822:	d7 ce       	rjmp	.-594    	; 0x15d2 <_ZL8nextNotev+0x74>
    1824:	a0 92 47 02 	sts	0x0247, r10
    1828:	b0 92 46 02 	sts	0x0246, r11
    182c:	10 93 31 01 	sts	0x0131, r17
    1830:	00 93 30 01 	sts	0x0130, r16
    1834:	f0 92 2d 01 	sts	0x012D, r15
    1838:	e0 92 2c 01 	sts	0x012C, r14
    183c:	d0 93 2f 01 	sts	0x012F, r29
    1840:	c0 93 2e 01 	sts	0x012E, r28
    1844:	90 92 2b 01 	sts	0x012B, r9
    1848:	d0 92 33 01 	sts	0x0133, r13
    184c:	c0 92 32 01 	sts	0x0132, r12
    1850:	10 92 65 02 	sts	0x0265, r1
    1854:	10 92 64 02 	sts	0x0264, r1
    1858:	78 c0       	rjmp	.+240    	; 0x194a <_ZL8nextNotev+0x3ec>
    185a:	a0 92 47 02 	sts	0x0247, r10
    185e:	b0 92 46 02 	sts	0x0246, r11
    1862:	10 93 31 01 	sts	0x0131, r17
    1866:	00 93 30 01 	sts	0x0130, r16
    186a:	f0 92 2d 01 	sts	0x012D, r15
    186e:	e0 92 2c 01 	sts	0x012C, r14
    1872:	d0 93 2f 01 	sts	0x012F, r29
    1876:	c0 93 2e 01 	sts	0x012E, r28
    187a:	90 92 2b 01 	sts	0x012B, r9
    187e:	d0 92 33 01 	sts	0x0133, r13
    1882:	c0 92 32 01 	sts	0x0132, r12
    1886:	29 e0       	ldi	r18, 0x09	; 9
    1888:	ff 24       	eor	r15, r15
    188a:	8c e0       	ldi	r24, 0x0C	; 12
    188c:	88 9e       	mul	r8, r24
    188e:	c0 01       	movw	r24, r0
    1890:	11 24       	eor	r1, r1
    1892:	e2 2e       	mov	r14, r18
    1894:	e8 0e       	add	r14, r24
    1896:	0a c0       	rjmp	.+20     	; 0x18ac <_ZL8nextNotev+0x34e>
    1898:	80 91 64 02 	lds	r24, 0x0264
    189c:	90 91 65 02 	lds	r25, 0x0265
    18a0:	01 96       	adiw	r24, 0x01	; 1
    18a2:	90 93 65 02 	sts	0x0265, r25
    18a6:	80 93 64 02 	sts	0x0264, r24
    18aa:	e3 94       	inc	r14
    18ac:	0e 94 63 0a 	call	0x14c6	; 0x14c6 <_ZL16currentCharacterv>
    18b0:	8b 32       	cpi	r24, 0x2B	; 43
    18b2:	91 f3       	breq	.-28     	; 0x1898 <_ZL8nextNotev+0x33a>
    18b4:	83 32       	cpi	r24, 0x23	; 35
    18b6:	81 f3       	breq	.-32     	; 0x1898 <_ZL8nextNotev+0x33a>
    18b8:	0c c0       	rjmp	.+24     	; 0x18d2 <_ZL8nextNotev+0x374>
    18ba:	80 91 64 02 	lds	r24, 0x0264
    18be:	90 91 65 02 	lds	r25, 0x0265
    18c2:	01 96       	adiw	r24, 0x01	; 1
    18c4:	90 93 65 02 	sts	0x0265, r25
    18c8:	80 93 64 02 	sts	0x0264, r24
    18cc:	ea 94       	dec	r14
    18ce:	0e 94 63 0a 	call	0x14c6	; 0x14c6 <_ZL16currentCharacterv>
    18d2:	8d 32       	cpi	r24, 0x2D	; 45
    18d4:	91 f3       	breq	.-28     	; 0x18ba <_ZL8nextNotev+0x35c>
    18d6:	c0 91 30 01 	lds	r28, 0x0130
    18da:	d0 91 31 01 	lds	r29, 0x0131
    18de:	81 53       	subi	r24, 0x31	; 49
    18e0:	88 30       	cpi	r24, 0x08	; 8
    18e2:	58 f4       	brcc	.+22     	; 0x18fa <_ZL8nextNotev+0x39c>
    18e4:	00 91 2e 01 	lds	r16, 0x012E
    18e8:	10 91 2f 01 	lds	r17, 0x012F
    18ec:	0e 94 82 0a 	call	0x1504	; 0x1504 <_ZL9getNumberv>
    18f0:	bc 01       	movw	r22, r24
    18f2:	c8 01       	movw	r24, r16
    18f4:	0e 94 fe 15 	call	0x2bfc	; 0x2bfc <__udivmodhi4>
    18f8:	eb 01       	movw	r28, r22
    18fa:	8e 01       	movw	r16, r28
    18fc:	0b c0       	rjmp	.+22     	; 0x1914 <_ZL8nextNotev+0x3b6>
    18fe:	80 91 64 02 	lds	r24, 0x0264
    1902:	90 91 65 02 	lds	r25, 0x0265
    1906:	01 96       	adiw	r24, 0x01	; 1
    1908:	90 93 65 02 	sts	0x0265, r25
    190c:	80 93 64 02 	sts	0x0264, r24
    1910:	c0 0f       	add	r28, r16
    1912:	d1 1f       	adc	r29, r17
    1914:	16 95       	lsr	r17
    1916:	07 95       	ror	r16
    1918:	0e 94 63 0a 	call	0x14c6	; 0x14c6 <_ZL16currentCharacterv>
    191c:	8e 32       	cpi	r24, 0x2E	; 46
    191e:	79 f3       	breq	.-34     	; 0x18fe <_ZL8nextNotev+0x3a0>
    1920:	80 91 46 02 	lds	r24, 0x0246
    1924:	88 23       	and	r24, r24
    1926:	39 f0       	breq	.+14     	; 0x1936 <_ZL8nextNotev+0x3d8>
    1928:	ce 01       	movw	r24, r28
    192a:	96 95       	lsr	r25
    192c:	87 95       	ror	r24
    192e:	80 93 47 02 	sts	0x0247, r24
    1932:	c8 1b       	sub	r28, r24
    1934:	d1 09       	sbc	r29, r1
    1936:	ff 20       	and	r15, r15
    1938:	11 f0       	breq	.+4      	; 0x193e <_ZL8nextNotev+0x3e0>
    193a:	ee 24       	eor	r14, r14
    193c:	ea 94       	dec	r14
    193e:	8e 2d       	mov	r24, r14
    1940:	be 01       	movw	r22, r28
    1942:	40 91 32 01 	lds	r20, 0x0132
    1946:	0e 94 c0 09 	call	0x1380	; 0x1380 <_ZN15OrangutanBuzzer8playNoteEhjh>
    194a:	cd b7       	in	r28, 0x3d	; 61
    194c:	de b7       	in	r29, 0x3e	; 62
    194e:	ec e0       	ldi	r30, 0x0C	; 12
    1950:	0c 94 84 16 	jmp	0x2d08	; 0x2d08 <__epilogue_restores__+0xc>

00001954 <_ZN15OrangutanBuzzer20playFromProgramSpaceEPKc>:
    1954:	10 92 6f 00 	sts	0x006F, r1
    1958:	90 93 65 02 	sts	0x0265, r25
    195c:	80 93 64 02 	sts	0x0264, r24
    1960:	81 e0       	ldi	r24, 0x01	; 1
    1962:	80 93 48 02 	sts	0x0248, r24
    1966:	10 92 47 02 	sts	0x0247, r1
    196a:	0e 94 af 0a 	call	0x155e	; 0x155e <_ZL8nextNotev>
    196e:	08 95       	ret

00001970 <play_from_program_space>:
    1970:	0e 94 aa 0c 	call	0x1954	; 0x1954 <_ZN15OrangutanBuzzer20playFromProgramSpaceEPKc>
    1974:	08 95       	ret

00001976 <_ZN15OrangutanBuzzer4playEPKc>:
    1976:	10 92 6f 00 	sts	0x006F, r1
    197a:	90 93 65 02 	sts	0x0265, r25
    197e:	80 93 64 02 	sts	0x0264, r24
    1982:	10 92 48 02 	sts	0x0248, r1
    1986:	10 92 47 02 	sts	0x0247, r1
    198a:	0e 94 af 0a 	call	0x155e	; 0x155e <_ZL8nextNotev>
    198e:	08 95       	ret

00001990 <play>:
    1990:	0e 94 bb 0c 	call	0x1976	; 0x1976 <_ZN15OrangutanBuzzer4playEPKc>
    1994:	08 95       	ret

00001996 <__vector_13>:
    1996:	1f 92       	push	r1
    1998:	0f 92       	push	r0
    199a:	0f b6       	in	r0, 0x3f	; 63
    199c:	0f 92       	push	r0
    199e:	11 24       	eor	r1, r1
    19a0:	2f 93       	push	r18
    19a2:	3f 93       	push	r19
    19a4:	4f 93       	push	r20
    19a6:	5f 93       	push	r21
    19a8:	6f 93       	push	r22
    19aa:	7f 93       	push	r23
    19ac:	8f 93       	push	r24
    19ae:	9f 93       	push	r25
    19b0:	af 93       	push	r26
    19b2:	bf 93       	push	r27
    19b4:	ef 93       	push	r30
    19b6:	ff 93       	push	r31
    19b8:	80 91 4a 02 	lds	r24, 0x024A
    19bc:	90 91 4b 02 	lds	r25, 0x024B
    19c0:	01 97       	sbiw	r24, 0x01	; 1
    19c2:	90 93 4b 02 	sts	0x024B, r25
    19c6:	80 93 4a 02 	sts	0x024A, r24
    19ca:	01 96       	adiw	r24, 0x01	; 1
    19cc:	11 f5       	brne	.+68     	; 0x1a12 <__vector_13+0x7c>
    19ce:	10 92 6f 00 	sts	0x006F, r1
    19d2:	78 94       	sei
    19d4:	80 91 81 00 	lds	r24, 0x0081
    19d8:	88 7f       	andi	r24, 0xF8	; 248
    19da:	81 60       	ori	r24, 0x01	; 1
    19dc:	80 93 81 00 	sts	0x0081, r24
    19e0:	80 e1       	ldi	r24, 0x10	; 16
    19e2:	97 e2       	ldi	r25, 0x27	; 39
    19e4:	90 93 89 00 	sts	0x0089, r25
    19e8:	80 93 88 00 	sts	0x0088, r24
    19ec:	10 92 8b 00 	sts	0x008B, r1
    19f0:	10 92 8a 00 	sts	0x008A, r1
    19f4:	81 e0       	ldi	r24, 0x01	; 1
    19f6:	80 93 36 01 	sts	0x0136, r24
    19fa:	80 91 64 02 	lds	r24, 0x0264
    19fe:	90 91 65 02 	lds	r25, 0x0265
    1a02:	89 2b       	or	r24, r25
    1a04:	31 f0       	breq	.+12     	; 0x1a12 <__vector_13+0x7c>
    1a06:	80 91 49 02 	lds	r24, 0x0249
    1a0a:	88 23       	and	r24, r24
    1a0c:	11 f4       	brne	.+4      	; 0x1a12 <__vector_13+0x7c>
    1a0e:	0e 94 af 0a 	call	0x155e	; 0x155e <_ZL8nextNotev>
    1a12:	ff 91       	pop	r31
    1a14:	ef 91       	pop	r30
    1a16:	bf 91       	pop	r27
    1a18:	af 91       	pop	r26
    1a1a:	9f 91       	pop	r25
    1a1c:	8f 91       	pop	r24
    1a1e:	7f 91       	pop	r23
    1a20:	6f 91       	pop	r22
    1a22:	5f 91       	pop	r21
    1a24:	4f 91       	pop	r20
    1a26:	3f 91       	pop	r19
    1a28:	2f 91       	pop	r18
    1a2a:	0f 90       	pop	r0
    1a2c:	0f be       	out	0x3f, r0	; 63
    1a2e:	0f 90       	pop	r0
    1a30:	1f 90       	pop	r1
    1a32:	18 95       	reti

00001a34 <_ZN15OrangutanBuzzer9playCheckEv>:
    1a34:	10 92 6f 00 	sts	0x006F, r1
    1a38:	80 91 36 01 	lds	r24, 0x0136
    1a3c:	88 23       	and	r24, r24
    1a3e:	41 f0       	breq	.+16     	; 0x1a50 <_ZN15OrangutanBuzzer9playCheckEv+0x1c>
    1a40:	80 91 64 02 	lds	r24, 0x0264
    1a44:	90 91 65 02 	lds	r25, 0x0265
    1a48:	89 2b       	or	r24, r25
    1a4a:	11 f0       	breq	.+4      	; 0x1a50 <_ZN15OrangutanBuzzer9playCheckEv+0x1c>
    1a4c:	0e 94 af 0a 	call	0x155e	; 0x155e <_ZL8nextNotev>
    1a50:	81 e0       	ldi	r24, 0x01	; 1
    1a52:	80 93 6f 00 	sts	0x006F, r24
    1a56:	20 e0       	ldi	r18, 0x00	; 0
    1a58:	80 91 64 02 	lds	r24, 0x0264
    1a5c:	90 91 65 02 	lds	r25, 0x0265
    1a60:	89 2b       	or	r24, r25
    1a62:	09 f0       	breq	.+2      	; 0x1a66 <_ZN15OrangutanBuzzer9playCheckEv+0x32>
    1a64:	21 e0       	ldi	r18, 0x01	; 1
    1a66:	82 2f       	mov	r24, r18
    1a68:	08 95       	ret

00001a6a <_ZN15OrangutanBuzzer8playModeEh>:
    1a6a:	80 93 49 02 	sts	0x0249, r24
    1a6e:	88 23       	and	r24, r24
    1a70:	11 f4       	brne	.+4      	; 0x1a76 <_ZN15OrangutanBuzzer8playModeEh+0xc>
    1a72:	0e 94 1a 0d 	call	0x1a34	; 0x1a34 <_ZN15OrangutanBuzzer9playCheckEv>
    1a76:	08 95       	ret

00001a78 <play_mode>:
    1a78:	0e 94 35 0d 	call	0x1a6a	; 0x1a6a <_ZN15OrangutanBuzzer8playModeEh>
    1a7c:	08 95       	ret

00001a7e <play_check>:
    1a7e:	0e 94 1a 0d 	call	0x1a34	; 0x1a34 <_ZN15OrangutanBuzzer9playCheckEv>
    1a82:	08 95       	ret

00001a84 <_ZN12OrangutanLCDC2Ev>:
    1a84:	08 95       	ret

00001a86 <_ZN12OrangutanLCDC1Ev>:
    1a86:	08 95       	ret

00001a88 <void_getchar>:
    1a88:	80 e0       	ldi	r24, 0x00	; 0
    1a8a:	90 e0       	ldi	r25, 0x00	; 0
    1a8c:	08 95       	ret

00001a8e <_ZN12OrangutanLCD8busyWaitEv>:
    1a8e:	ef 92       	push	r14
    1a90:	ff 92       	push	r15
    1a92:	0f 93       	push	r16
    1a94:	1f 93       	push	r17
    1a96:	6a b1       	in	r22, 0x0a	; 10
    1a98:	57 98       	cbi	0x0a, 7	; 10
    1a9a:	5a 98       	cbi	0x0b, 2	; 11
    1a9c:	28 9a       	sbi	0x05, 0	; 5
    1a9e:	e0 90 50 02 	lds	r14, 0x0250
    1aa2:	f0 90 51 02 	lds	r15, 0x0251
    1aa6:	00 91 52 02 	lds	r16, 0x0252
    1aaa:	10 91 53 02 	lds	r17, 0x0253
    1aae:	20 e0       	ldi	r18, 0x00	; 0
    1ab0:	30 e0       	ldi	r19, 0x00	; 0
    1ab2:	41 e0       	ldi	r20, 0x01	; 1
    1ab4:	50 e0       	ldi	r21, 0x00	; 0
    1ab6:	ca 01       	movw	r24, r20
    1ab8:	6f 93       	push	r22
    1aba:	64 e0       	ldi	r22, 0x04	; 4
    1abc:	6a 95       	dec	r22
    1abe:	f1 f7       	brne	.-4      	; 0x1abc <_ZN12OrangutanLCD8busyWaitEv+0x2e>
    1ac0:	6f 91       	pop	r22
    1ac2:	01 97       	sbiw	r24, 0x01	; 1
    1ac4:	c9 f7       	brne	.-14     	; 0x1ab8 <_ZN12OrangutanLCD8busyWaitEv+0x2a>
    1ac6:	5c 9a       	sbi	0x0b, 4	; 11
    1ac8:	ca 01       	movw	r24, r20
    1aca:	6f 93       	push	r22
    1acc:	64 e0       	ldi	r22, 0x04	; 4
    1ace:	6a 95       	dec	r22
    1ad0:	f1 f7       	brne	.-4      	; 0x1ace <_ZN12OrangutanLCD8busyWaitEv+0x40>
    1ad2:	6f 91       	pop	r22
    1ad4:	01 97       	sbiw	r24, 0x01	; 1
    1ad6:	c9 f7       	brne	.-14     	; 0x1aca <_ZN12OrangutanLCD8busyWaitEv+0x3c>
    1ad8:	89 b1       	in	r24, 0x09	; 9
    1ada:	5c 98       	cbi	0x0b, 4	; 11
    1adc:	fa 01       	movw	r30, r20
    1ade:	6f 93       	push	r22
    1ae0:	64 e0       	ldi	r22, 0x04	; 4
    1ae2:	6a 95       	dec	r22
    1ae4:	f1 f7       	brne	.-4      	; 0x1ae2 <_ZN12OrangutanLCD8busyWaitEv+0x54>
    1ae6:	6f 91       	pop	r22
    1ae8:	31 97       	sbiw	r30, 0x01	; 1
    1aea:	c9 f7       	brne	.-14     	; 0x1ade <_ZN12OrangutanLCD8busyWaitEv+0x50>
    1aec:	5c 9a       	sbi	0x0b, 4	; 11
    1aee:	fa 01       	movw	r30, r20
    1af0:	6f 93       	push	r22
    1af2:	64 e0       	ldi	r22, 0x04	; 4
    1af4:	6a 95       	dec	r22
    1af6:	f1 f7       	brne	.-4      	; 0x1af4 <_ZN12OrangutanLCD8busyWaitEv+0x66>
    1af8:	6f 91       	pop	r22
    1afa:	31 97       	sbiw	r30, 0x01	; 1
    1afc:	c9 f7       	brne	.-14     	; 0x1af0 <_ZN12OrangutanLCD8busyWaitEv+0x62>
    1afe:	5c 98       	cbi	0x0b, 4	; 11
    1b00:	87 ff       	sbrs	r24, 7
    1b02:	0b c0       	rjmp	.+22     	; 0x1b1a <_ZN12OrangutanLCD8busyWaitEv+0x8c>
    1b04:	2c 5f       	subi	r18, 0xFC	; 252
    1b06:	3f 4f       	sbci	r19, 0xFF	; 255
    1b08:	c9 01       	movw	r24, r18
    1b0a:	a0 e0       	ldi	r26, 0x00	; 0
    1b0c:	b0 e0       	ldi	r27, 0x00	; 0
    1b0e:	8e 15       	cp	r24, r14
    1b10:	9f 05       	cpc	r25, r15
    1b12:	a0 07       	cpc	r26, r16
    1b14:	b1 07       	cpc	r27, r17
    1b16:	08 f4       	brcc	.+2      	; 0x1b1a <_ZN12OrangutanLCD8busyWaitEv+0x8c>
    1b18:	ce cf       	rjmp	.-100    	; 0x1ab6 <_ZN12OrangutanLCD8busyWaitEv+0x28>
    1b1a:	6a b9       	out	0x0a, r22	; 10
    1b1c:	1f 91       	pop	r17
    1b1e:	0f 91       	pop	r16
    1b20:	ff 90       	pop	r15
    1b22:	ef 90       	pop	r14
    1b24:	08 95       	ret

00001b26 <_ZN12OrangutanLCD8sendDataEh>:
    1b26:	65 b1       	in	r22, 0x05	; 5
    1b28:	90 e0       	ldi	r25, 0x00	; 0
    1b2a:	ac 01       	movw	r20, r24
    1b2c:	41 70       	andi	r20, 0x01	; 1
    1b2e:	50 70       	andi	r21, 0x00	; 0
    1b30:	44 0f       	add	r20, r20
    1b32:	55 1f       	adc	r21, r21
    1b34:	9c 01       	movw	r18, r24
    1b36:	26 70       	andi	r18, 0x06	; 6
    1b38:	30 70       	andi	r19, 0x00	; 0
    1b3a:	53 e0       	ldi	r21, 0x03	; 3
    1b3c:	22 0f       	add	r18, r18
    1b3e:	33 1f       	adc	r19, r19
    1b40:	5a 95       	dec	r21
    1b42:	e1 f7       	brne	.-8      	; 0x1b3c <_ZN12OrangutanLCD8sendDataEh+0x16>
    1b44:	42 2b       	or	r20, r18
    1b46:	6d 7c       	andi	r22, 0xCD	; 205
    1b48:	46 2b       	or	r20, r22
    1b4a:	45 b9       	out	0x05, r20	; 5
    1b4c:	2b b1       	in	r18, 0x0b	; 11
    1b4e:	88 70       	andi	r24, 0x08	; 8
    1b50:	90 70       	andi	r25, 0x00	; 0
    1b52:	34 e0       	ldi	r19, 0x04	; 4
    1b54:	88 0f       	add	r24, r24
    1b56:	99 1f       	adc	r25, r25
    1b58:	3a 95       	dec	r19
    1b5a:	e1 f7       	brne	.-8      	; 0x1b54 <_ZN12OrangutanLCD8sendDataEh+0x2e>
    1b5c:	2f 77       	andi	r18, 0x7F	; 127
    1b5e:	28 2b       	or	r18, r24
    1b60:	2b b9       	out	0x0b, r18	; 11
    1b62:	5c 9a       	sbi	0x0b, 4	; 11
    1b64:	81 e0       	ldi	r24, 0x01	; 1
    1b66:	90 e0       	ldi	r25, 0x00	; 0
    1b68:	fc 01       	movw	r30, r24
    1b6a:	6f 93       	push	r22
    1b6c:	64 e0       	ldi	r22, 0x04	; 4
    1b6e:	6a 95       	dec	r22
    1b70:	f1 f7       	brne	.-4      	; 0x1b6e <_ZN12OrangutanLCD8sendDataEh+0x48>
    1b72:	6f 91       	pop	r22
    1b74:	31 97       	sbiw	r30, 0x01	; 1
    1b76:	c9 f7       	brne	.-14     	; 0x1b6a <_ZN12OrangutanLCD8sendDataEh+0x44>
    1b78:	5c 98       	cbi	0x0b, 4	; 11
    1b7a:	6f 93       	push	r22
    1b7c:	64 e0       	ldi	r22, 0x04	; 4
    1b7e:	6a 95       	dec	r22
    1b80:	f1 f7       	brne	.-4      	; 0x1b7e <_ZN12OrangutanLCD8sendDataEh+0x58>
    1b82:	6f 91       	pop	r22
    1b84:	01 97       	sbiw	r24, 0x01	; 1
    1b86:	c9 f7       	brne	.-14     	; 0x1b7a <_ZN12OrangutanLCD8sendDataEh+0x54>
    1b88:	08 95       	ret

00001b8a <_ZN12OrangutanLCD10initPrintfEv>:
    1b8a:	80 91 4c 02 	lds	r24, 0x024C
    1b8e:	90 91 4d 02 	lds	r25, 0x024D
    1b92:	00 97       	sbiw	r24, 0x00	; 0
    1b94:	11 f0       	breq	.+4      	; 0x1b9a <_ZN12OrangutanLCD10initPrintfEv+0x10>
    1b96:	0e 94 4c 17 	call	0x2e98	; 0x2e98 <free>
    1b9a:	80 91 34 01 	lds	r24, 0x0134
    1b9e:	90 e0       	ldi	r25, 0x00	; 0
    1ba0:	01 97       	sbiw	r24, 0x01	; 1
    1ba2:	20 91 35 01 	lds	r18, 0x0135
    1ba6:	30 e0       	ldi	r19, 0x00	; 0
    1ba8:	ac 01       	movw	r20, r24
    1baa:	42 9f       	mul	r20, r18
    1bac:	c0 01       	movw	r24, r0
    1bae:	43 9f       	mul	r20, r19
    1bb0:	90 0d       	add	r25, r0
    1bb2:	52 9f       	mul	r21, r18
    1bb4:	90 0d       	add	r25, r0
    1bb6:	11 24       	eor	r1, r1
    1bb8:	0e 94 9f 16 	call	0x2d3e	; 0x2d3e <malloc>
    1bbc:	90 93 4d 02 	sts	0x024D, r25
    1bc0:	80 93 4c 02 	sts	0x024C, r24
    1bc4:	00 97       	sbiw	r24, 0x00	; 0
    1bc6:	29 f1       	breq	.+74     	; 0x1c12 <_ZN12OrangutanLCD10initPrintfEv+0x88>
    1bc8:	60 e0       	ldi	r22, 0x00	; 0
    1bca:	70 e2       	ldi	r23, 0x20	; 32
    1bcc:	08 c0       	rjmp	.+16     	; 0x1bde <_ZN12OrangutanLCD10initPrintfEv+0x54>
    1bce:	e0 91 4c 02 	lds	r30, 0x024C
    1bd2:	f0 91 4d 02 	lds	r31, 0x024D
    1bd6:	e4 0f       	add	r30, r20
    1bd8:	f5 1f       	adc	r31, r21
    1bda:	70 83       	st	Z, r23
    1bdc:	6f 5f       	subi	r22, 0xFF	; 255
    1bde:	46 2f       	mov	r20, r22
    1be0:	50 e0       	ldi	r21, 0x00	; 0
    1be2:	80 91 34 01 	lds	r24, 0x0134
    1be6:	90 e0       	ldi	r25, 0x00	; 0
    1be8:	01 97       	sbiw	r24, 0x01	; 1
    1bea:	20 91 35 01 	lds	r18, 0x0135
    1bee:	30 e0       	ldi	r19, 0x00	; 0
    1bf0:	fc 01       	movw	r30, r24
    1bf2:	e2 9f       	mul	r30, r18
    1bf4:	c0 01       	movw	r24, r0
    1bf6:	e3 9f       	mul	r30, r19
    1bf8:	90 0d       	add	r25, r0
    1bfa:	f2 9f       	mul	r31, r18
    1bfc:	90 0d       	add	r25, r0
    1bfe:	11 24       	eor	r1, r1
    1c00:	48 17       	cp	r20, r24
    1c02:	59 07       	cpc	r21, r25
    1c04:	24 f3       	brlt	.-56     	; 0x1bce <_ZN12OrangutanLCD10initPrintfEv+0x44>
    1c06:	88 e0       	ldi	r24, 0x08	; 8
    1c08:	90 e1       	ldi	r25, 0x10	; 16
    1c0a:	64 e4       	ldi	r22, 0x44	; 68
    1c0c:	7d e0       	ldi	r23, 0x0D	; 13
    1c0e:	0e 94 a4 17 	call	0x2f48	; 0x2f48 <fdevopen>
    1c12:	08 95       	ret

00001c14 <_ZN12OrangutanLCD10initPrintfEhh>:
    1c14:	80 93 35 01 	sts	0x0135, r24
    1c18:	60 93 34 01 	sts	0x0134, r22
    1c1c:	0e 94 c5 0d 	call	0x1b8a	; 0x1b8a <_ZN12OrangutanLCD10initPrintfEv>
    1c20:	08 95       	ret

00001c22 <lcd_init_printf_with_dimensions>:
    1c22:	80 93 35 01 	sts	0x0135, r24
    1c26:	60 93 34 01 	sts	0x0134, r22
    1c2a:	0e 94 c5 0d 	call	0x1b8a	; 0x1b8a <_ZN12OrangutanLCD10initPrintfEv>
    1c2e:	08 95       	ret

00001c30 <lcd_init_printf>:
    1c30:	0e 94 c5 0d 	call	0x1b8a	; 0x1b8a <_ZN12OrangutanLCD10initPrintfEv>
    1c34:	08 95       	ret

00001c36 <_ZN12OrangutanLCD5init2Ev>:
    1c36:	80 e1       	ldi	r24, 0x10	; 16
    1c38:	97 e2       	ldi	r25, 0x27	; 39
    1c3a:	a0 e0       	ldi	r26, 0x00	; 0
    1c3c:	b0 e0       	ldi	r27, 0x00	; 0
    1c3e:	80 93 50 02 	sts	0x0250, r24
    1c42:	90 93 51 02 	sts	0x0251, r25
    1c46:	a0 93 52 02 	sts	0x0252, r26
    1c4a:	b0 93 53 02 	sts	0x0253, r27
    1c4e:	52 9a       	sbi	0x0a, 2	; 10
    1c50:	20 9a       	sbi	0x04, 0	; 4
    1c52:	54 9a       	sbi	0x0a, 4	; 10
    1c54:	8e e1       	ldi	r24, 0x1E	; 30
    1c56:	90 e0       	ldi	r25, 0x00	; 0
    1c58:	0e 94 38 15 	call	0x2a70	; 0x2a70 <_ZN13OrangutanTime17delayMillisecondsEj>
    1c5c:	83 e0       	ldi	r24, 0x03	; 3
    1c5e:	0e 94 4e 11 	call	0x229c	; 0x229c <_ZN12OrangutanLCD13send_4bit_cmdEh>
    1c62:	86 e0       	ldi	r24, 0x06	; 6
    1c64:	90 e0       	ldi	r25, 0x00	; 0
    1c66:	0e 94 38 15 	call	0x2a70	; 0x2a70 <_ZN13OrangutanTime17delayMillisecondsEj>
    1c6a:	83 e0       	ldi	r24, 0x03	; 3
    1c6c:	0e 94 4e 11 	call	0x229c	; 0x229c <_ZN12OrangutanLCD13send_4bit_cmdEh>
    1c70:	82 e0       	ldi	r24, 0x02	; 2
    1c72:	90 e0       	ldi	r25, 0x00	; 0
    1c74:	0e 94 38 15 	call	0x2a70	; 0x2a70 <_ZN13OrangutanTime17delayMillisecondsEj>
    1c78:	83 e0       	ldi	r24, 0x03	; 3
    1c7a:	0e 94 4e 11 	call	0x229c	; 0x229c <_ZN12OrangutanLCD13send_4bit_cmdEh>
    1c7e:	82 e0       	ldi	r24, 0x02	; 2
    1c80:	90 e0       	ldi	r25, 0x00	; 0
    1c82:	0e 94 38 15 	call	0x2a70	; 0x2a70 <_ZN13OrangutanTime17delayMillisecondsEj>
    1c86:	82 e0       	ldi	r24, 0x02	; 2
    1c88:	0e 94 4e 11 	call	0x229c	; 0x229c <_ZN12OrangutanLCD13send_4bit_cmdEh>
    1c8c:	82 e0       	ldi	r24, 0x02	; 2
    1c8e:	90 e0       	ldi	r25, 0x00	; 0
    1c90:	0e 94 38 15 	call	0x2a70	; 0x2a70 <_ZN13OrangutanTime17delayMillisecondsEj>
    1c94:	88 e2       	ldi	r24, 0x28	; 40
    1c96:	0e 94 98 0e 	call	0x1d30	; 0x1d30 <_ZN12OrangutanLCD8send_cmdEh>
    1c9a:	88 e0       	ldi	r24, 0x08	; 8
    1c9c:	0e 94 98 0e 	call	0x1d30	; 0x1d30 <_ZN12OrangutanLCD8send_cmdEh>
    1ca0:	81 e0       	ldi	r24, 0x01	; 1
    1ca2:	0e 94 98 0e 	call	0x1d30	; 0x1d30 <_ZN12OrangutanLCD8send_cmdEh>
    1ca6:	86 e0       	ldi	r24, 0x06	; 6
    1ca8:	0e 94 98 0e 	call	0x1d30	; 0x1d30 <_ZN12OrangutanLCD8send_cmdEh>
    1cac:	8c e0       	ldi	r24, 0x0C	; 12
    1cae:	0e 94 98 0e 	call	0x1d30	; 0x1d30 <_ZN12OrangutanLCD8send_cmdEh>
    1cb2:	08 95       	ret

00001cb4 <_ZN12OrangutanLCD4initEv>:
    1cb4:	80 91 54 02 	lds	r24, 0x0254
    1cb8:	88 23       	and	r24, r24
    1cba:	29 f4       	brne	.+10     	; 0x1cc6 <_ZN12OrangutanLCD4initEv+0x12>
    1cbc:	81 e0       	ldi	r24, 0x01	; 1
    1cbe:	80 93 54 02 	sts	0x0254, r24
    1cc2:	0e 94 1b 0e 	call	0x1c36	; 0x1c36 <_ZN12OrangutanLCD5init2Ev>
    1cc6:	08 95       	ret

00001cc8 <_ZN12OrangutanLCD4sendEhhh>:
    1cc8:	bf 92       	push	r11
    1cca:	cf 92       	push	r12
    1ccc:	df 92       	push	r13
    1cce:	ef 92       	push	r14
    1cd0:	ff 92       	push	r15
    1cd2:	0f 93       	push	r16
    1cd4:	1f 93       	push	r17
    1cd6:	08 2f       	mov	r16, r24
    1cd8:	16 2f       	mov	r17, r22
    1cda:	f4 2e       	mov	r15, r20
    1cdc:	0e 94 5a 0e 	call	0x1cb4	; 0x1cb4 <_ZN12OrangutanLCD4initEv>
    1ce0:	0e 94 47 0d 	call	0x1a8e	; 0x1a8e <_ZN12OrangutanLCD8busyWaitEv>
    1ce4:	b4 b0       	in	r11, 0x04	; 4
    1ce6:	c5 b0       	in	r12, 0x05	; 5
    1ce8:	da b0       	in	r13, 0x0a	; 10
    1cea:	eb b0       	in	r14, 0x0b	; 11
    1cec:	28 98       	cbi	0x05, 0	; 5
    1cee:	11 23       	and	r17, r17
    1cf0:	11 f0       	breq	.+4      	; 0x1cf6 <_ZN12OrangutanLCD4sendEhhh+0x2e>
    1cf2:	5a 9a       	sbi	0x0b, 2	; 11
    1cf4:	01 c0       	rjmp	.+2      	; 0x1cf8 <_ZN12OrangutanLCD4sendEhhh+0x30>
    1cf6:	5a 98       	cbi	0x0b, 2	; 11
    1cf8:	84 b1       	in	r24, 0x04	; 4
    1cfa:	82 63       	ori	r24, 0x32	; 50
    1cfc:	84 b9       	out	0x04, r24	; 4
    1cfe:	57 9a       	sbi	0x0a, 7	; 10
    1d00:	81 e0       	ldi	r24, 0x01	; 1
    1d02:	f8 16       	cp	r15, r24
    1d04:	29 f0       	breq	.+10     	; 0x1d10 <_ZN12OrangutanLCD4sendEhhh+0x48>
    1d06:	80 2f       	mov	r24, r16
    1d08:	82 95       	swap	r24
    1d0a:	8f 70       	andi	r24, 0x0F	; 15
    1d0c:	0e 94 93 0d 	call	0x1b26	; 0x1b26 <_ZN12OrangutanLCD8sendDataEh>
    1d10:	80 2f       	mov	r24, r16
    1d12:	8f 70       	andi	r24, 0x0F	; 15
    1d14:	0e 94 93 0d 	call	0x1b26	; 0x1b26 <_ZN12OrangutanLCD8sendDataEh>
    1d18:	da b8       	out	0x0a, r13	; 10
    1d1a:	eb b8       	out	0x0b, r14	; 11
    1d1c:	b4 b8       	out	0x04, r11	; 4
    1d1e:	c5 b8       	out	0x05, r12	; 5
    1d20:	1f 91       	pop	r17
    1d22:	0f 91       	pop	r16
    1d24:	ff 90       	pop	r15
    1d26:	ef 90       	pop	r14
    1d28:	df 90       	pop	r13
    1d2a:	cf 90       	pop	r12
    1d2c:	bf 90       	pop	r11
    1d2e:	08 95       	ret

00001d30 <_ZN12OrangutanLCD8send_cmdEh>:
    1d30:	60 e0       	ldi	r22, 0x00	; 0
    1d32:	42 e0       	ldi	r20, 0x02	; 2
    1d34:	0e 94 64 0e 	call	0x1cc8	; 0x1cc8 <_ZN12OrangutanLCD4sendEhhh>
    1d38:	08 95       	ret

00001d3a <_ZN12OrangutanLCD10moveCursorEhh>:
    1d3a:	0f 93       	push	r16
    1d3c:	1f 93       	push	r17
    1d3e:	08 2f       	mov	r16, r24
    1d40:	16 2f       	mov	r17, r22
    1d42:	08 c0       	rjmp	.+16     	; 0x1d54 <_ZN12OrangutanLCD10moveCursorEhh+0x1a>
    1d44:	00 23       	and	r16, r16
    1d46:	11 f4       	brne	.+4      	; 0x1d4c <_ZN12OrangutanLCD10moveCursorEhh+0x12>
    1d48:	80 e1       	ldi	r24, 0x10	; 16
    1d4a:	01 c0       	rjmp	.+2      	; 0x1d4e <_ZN12OrangutanLCD10moveCursorEhh+0x14>
    1d4c:	84 e1       	ldi	r24, 0x14	; 20
    1d4e:	0e 94 98 0e 	call	0x1d30	; 0x1d30 <_ZN12OrangutanLCD8send_cmdEh>
    1d52:	11 50       	subi	r17, 0x01	; 1
    1d54:	11 23       	and	r17, r17
    1d56:	b1 f7       	brne	.-20     	; 0x1d44 <_ZN12OrangutanLCD10moveCursorEhh+0xa>
    1d58:	1f 91       	pop	r17
    1d5a:	0f 91       	pop	r16
    1d5c:	08 95       	ret

00001d5e <lcd_move_cursor>:
    1d5e:	0e 94 9d 0e 	call	0x1d3a	; 0x1d3a <_ZN12OrangutanLCD10moveCursorEhh>
    1d62:	08 95       	ret

00001d64 <_ZN12OrangutanLCD10hideCursorEv>:
    1d64:	8c e0       	ldi	r24, 0x0C	; 12
    1d66:	0e 94 98 0e 	call	0x1d30	; 0x1d30 <_ZN12OrangutanLCD8send_cmdEh>
    1d6a:	08 95       	ret

00001d6c <lcd_hide_cursor>:
    1d6c:	0e 94 b2 0e 	call	0x1d64	; 0x1d64 <_ZN12OrangutanLCD10hideCursorEv>
    1d70:	08 95       	ret

00001d72 <_ZN12OrangutanLCD10showCursorEh>:
    1d72:	81 30       	cpi	r24, 0x01	; 1
    1d74:	11 f4       	brne	.+4      	; 0x1d7a <_ZN12OrangutanLCD10showCursorEh+0x8>
    1d76:	8f e0       	ldi	r24, 0x0F	; 15
    1d78:	01 c0       	rjmp	.+2      	; 0x1d7c <_ZN12OrangutanLCD10showCursorEh+0xa>
    1d7a:	8e e0       	ldi	r24, 0x0E	; 14
    1d7c:	0e 94 98 0e 	call	0x1d30	; 0x1d30 <_ZN12OrangutanLCD8send_cmdEh>
    1d80:	08 95       	ret

00001d82 <lcd_show_cursor>:
    1d82:	0e 94 b9 0e 	call	0x1d72	; 0x1d72 <_ZN12OrangutanLCD10showCursorEh>
    1d86:	08 95       	ret

00001d88 <_ZN12OrangutanLCD6gotoXYEhh>:
    1d88:	a4 e0       	ldi	r26, 0x04	; 4
    1d8a:	b0 e0       	ldi	r27, 0x00	; 0
    1d8c:	ea ec       	ldi	r30, 0xCA	; 202
    1d8e:	fe e0       	ldi	r31, 0x0E	; 14
    1d90:	0c 94 70 16 	jmp	0x2ce0	; 0x2ce0 <__prologue_saves__+0x1c>
    1d94:	18 2f       	mov	r17, r24
    1d96:	06 2f       	mov	r16, r22
    1d98:	80 e8       	ldi	r24, 0x80	; 128
    1d9a:	89 83       	std	Y+1, r24	; 0x01
    1d9c:	80 ec       	ldi	r24, 0xC0	; 192
    1d9e:	8a 83       	std	Y+2, r24	; 0x02
    1da0:	84 e9       	ldi	r24, 0x94	; 148
    1da2:	8b 83       	std	Y+3, r24	; 0x03
    1da4:	84 ed       	ldi	r24, 0xD4	; 212
    1da6:	8c 83       	std	Y+4, r24	; 0x04
    1da8:	fe 01       	movw	r30, r28
    1daa:	e6 0f       	add	r30, r22
    1dac:	f1 1d       	adc	r31, r1
    1dae:	81 81       	ldd	r24, Z+1	; 0x01
    1db0:	81 0f       	add	r24, r17
    1db2:	0e 94 98 0e 	call	0x1d30	; 0x1d30 <_ZN12OrangutanLCD8send_cmdEh>
    1db6:	10 93 4f 02 	sts	0x024F, r17
    1dba:	00 93 4e 02 	sts	0x024E, r16
    1dbe:	24 96       	adiw	r28, 0x04	; 4
    1dc0:	e4 e0       	ldi	r30, 0x04	; 4
    1dc2:	0c 94 8c 16 	jmp	0x2d18	; 0x2d18 <__epilogue_restores__+0x1c>

00001dc6 <lcd_goto_xy>:
    1dc6:	0e 94 c4 0e 	call	0x1d88	; 0x1d88 <_ZN12OrangutanLCD6gotoXYEhh>
    1dca:	08 95       	ret

00001dcc <_ZN12OrangutanLCD5clearEv>:
    1dcc:	81 e0       	ldi	r24, 0x01	; 1
    1dce:	0e 94 98 0e 	call	0x1d30	; 0x1d30 <_ZN12OrangutanLCD8send_cmdEh>
    1dd2:	80 91 4c 02 	lds	r24, 0x024C
    1dd6:	90 91 4d 02 	lds	r25, 0x024D
    1dda:	89 2b       	or	r24, r25
    1ddc:	19 f1       	breq	.+70     	; 0x1e24 <_ZN12OrangutanLCD5clearEv+0x58>
    1dde:	60 e0       	ldi	r22, 0x00	; 0
    1de0:	70 e2       	ldi	r23, 0x20	; 32
    1de2:	08 c0       	rjmp	.+16     	; 0x1df4 <_ZN12OrangutanLCD5clearEv+0x28>
    1de4:	e0 91 4c 02 	lds	r30, 0x024C
    1de8:	f0 91 4d 02 	lds	r31, 0x024D
    1dec:	e4 0f       	add	r30, r20
    1dee:	f5 1f       	adc	r31, r21
    1df0:	70 83       	st	Z, r23
    1df2:	6f 5f       	subi	r22, 0xFF	; 255
    1df4:	46 2f       	mov	r20, r22
    1df6:	50 e0       	ldi	r21, 0x00	; 0
    1df8:	80 91 34 01 	lds	r24, 0x0134
    1dfc:	90 e0       	ldi	r25, 0x00	; 0
    1dfe:	01 97       	sbiw	r24, 0x01	; 1
    1e00:	20 91 35 01 	lds	r18, 0x0135
    1e04:	30 e0       	ldi	r19, 0x00	; 0
    1e06:	fc 01       	movw	r30, r24
    1e08:	e2 9f       	mul	r30, r18
    1e0a:	c0 01       	movw	r24, r0
    1e0c:	e3 9f       	mul	r30, r19
    1e0e:	90 0d       	add	r25, r0
    1e10:	f2 9f       	mul	r31, r18
    1e12:	90 0d       	add	r25, r0
    1e14:	11 24       	eor	r1, r1
    1e16:	48 17       	cp	r20, r24
    1e18:	59 07       	cpc	r21, r25
    1e1a:	24 f3       	brlt	.-56     	; 0x1de4 <_ZN12OrangutanLCD5clearEv+0x18>
    1e1c:	10 92 4f 02 	sts	0x024F, r1
    1e20:	10 92 4e 02 	sts	0x024E, r1
    1e24:	08 95       	ret

00001e26 <clear>:
    1e26:	0e 94 e6 0e 	call	0x1dcc	; 0x1dcc <_ZN12OrangutanLCD5clearEv>
    1e2a:	08 95       	ret

00001e2c <_ZN12OrangutanLCD9send_dataEh>:
    1e2c:	61 e0       	ldi	r22, 0x01	; 1
    1e2e:	42 e0       	ldi	r20, 0x02	; 2
    1e30:	0e 94 64 0e 	call	0x1cc8	; 0x1cc8 <_ZN12OrangutanLCD4sendEhhh>
    1e34:	08 95       	ret

00001e36 <_ZN12OrangutanLCD11printBinaryEh>:
    1e36:	0f 93       	push	r16
    1e38:	1f 93       	push	r17
    1e3a:	cf 93       	push	r28
    1e3c:	df 93       	push	r29
    1e3e:	00 e0       	ldi	r16, 0x00	; 0
    1e40:	10 e8       	ldi	r17, 0x80	; 128
    1e42:	c8 2f       	mov	r28, r24
    1e44:	d0 e0       	ldi	r29, 0x00	; 0
    1e46:	81 2f       	mov	r24, r17
    1e48:	90 e0       	ldi	r25, 0x00	; 0
    1e4a:	8c 23       	and	r24, r28
    1e4c:	9d 23       	and	r25, r29
    1e4e:	89 2b       	or	r24, r25
    1e50:	11 f0       	breq	.+4      	; 0x1e56 <_ZN12OrangutanLCD11printBinaryEh+0x20>
    1e52:	81 e3       	ldi	r24, 0x31	; 49
    1e54:	01 c0       	rjmp	.+2      	; 0x1e58 <_ZN12OrangutanLCD11printBinaryEh+0x22>
    1e56:	80 e3       	ldi	r24, 0x30	; 48
    1e58:	0e 94 16 0f 	call	0x1e2c	; 0x1e2c <_ZN12OrangutanLCD9send_dataEh>
    1e5c:	0f 5f       	subi	r16, 0xFF	; 255
    1e5e:	08 30       	cpi	r16, 0x08	; 8
    1e60:	11 f0       	breq	.+4      	; 0x1e66 <_ZN12OrangutanLCD11printBinaryEh+0x30>
    1e62:	16 95       	lsr	r17
    1e64:	f0 cf       	rjmp	.-32     	; 0x1e46 <_ZN12OrangutanLCD11printBinaryEh+0x10>
    1e66:	df 91       	pop	r29
    1e68:	cf 91       	pop	r28
    1e6a:	1f 91       	pop	r17
    1e6c:	0f 91       	pop	r16
    1e6e:	08 95       	ret

00001e70 <print_binary>:
    1e70:	0e 94 1b 0f 	call	0x1e36	; 0x1e36 <_ZN12OrangutanLCD11printBinaryEh>
    1e74:	08 95       	ret

00001e76 <_ZN12OrangutanLCD14printHexNibbleEh>:
    1e76:	8a 30       	cpi	r24, 0x0A	; 10
    1e78:	10 f4       	brcc	.+4      	; 0x1e7e <_ZN12OrangutanLCD14printHexNibbleEh+0x8>
    1e7a:	80 5d       	subi	r24, 0xD0	; 208
    1e7c:	01 c0       	rjmp	.+2      	; 0x1e80 <_ZN12OrangutanLCD14printHexNibbleEh+0xa>
    1e7e:	89 5c       	subi	r24, 0xC9	; 201
    1e80:	0e 94 16 0f 	call	0x1e2c	; 0x1e2c <_ZN12OrangutanLCD9send_dataEh>
    1e84:	08 95       	ret

00001e86 <_ZN12OrangutanLCD8printHexEh>:
    1e86:	1f 93       	push	r17
    1e88:	18 2f       	mov	r17, r24
    1e8a:	82 95       	swap	r24
    1e8c:	8f 70       	andi	r24, 0x0F	; 15
    1e8e:	0e 94 3b 0f 	call	0x1e76	; 0x1e76 <_ZN12OrangutanLCD14printHexNibbleEh>
    1e92:	81 2f       	mov	r24, r17
    1e94:	8f 70       	andi	r24, 0x0F	; 15
    1e96:	0e 94 3b 0f 	call	0x1e76	; 0x1e76 <_ZN12OrangutanLCD14printHexNibbleEh>
    1e9a:	1f 91       	pop	r17
    1e9c:	08 95       	ret

00001e9e <_ZN12OrangutanLCD8printHexEj>:
    1e9e:	1f 93       	push	r17
    1ea0:	18 2f       	mov	r17, r24
    1ea2:	89 2f       	mov	r24, r25
    1ea4:	0e 94 43 0f 	call	0x1e86	; 0x1e86 <_ZN12OrangutanLCD8printHexEh>
    1ea8:	81 2f       	mov	r24, r17
    1eaa:	0e 94 43 0f 	call	0x1e86	; 0x1e86 <_ZN12OrangutanLCD8printHexEh>
    1eae:	1f 91       	pop	r17
    1eb0:	08 95       	ret

00001eb2 <print_hex>:
    1eb2:	0e 94 4f 0f 	call	0x1e9e	; 0x1e9e <_ZN12OrangutanLCD8printHexEj>
    1eb6:	08 95       	ret

00001eb8 <print_hex_byte>:
    1eb8:	0e 94 43 0f 	call	0x1e86	; 0x1e86 <_ZN12OrangutanLCD8printHexEh>
    1ebc:	08 95       	ret

00001ebe <_ZN12OrangutanLCD5printEm>:
    1ebe:	6f 92       	push	r6
    1ec0:	7f 92       	push	r7
    1ec2:	8f 92       	push	r8
    1ec4:	9f 92       	push	r9
    1ec6:	af 92       	push	r10
    1ec8:	bf 92       	push	r11
    1eca:	cf 92       	push	r12
    1ecc:	df 92       	push	r13
    1ece:	ff 92       	push	r15
    1ed0:	0f 93       	push	r16
    1ed2:	df 93       	push	r29
    1ed4:	cf 93       	push	r28
    1ed6:	cd b7       	in	r28, 0x3d	; 61
    1ed8:	de b7       	in	r29, 0x3e	; 62
    1eda:	2a 97       	sbiw	r28, 0x0a	; 10
    1edc:	0f b6       	in	r0, 0x3f	; 63
    1ede:	f8 94       	cli
    1ee0:	de bf       	out	0x3e, r29	; 62
    1ee2:	0f be       	out	0x3f, r0	; 63
    1ee4:	cd bf       	out	0x3d, r28	; 61
    1ee6:	5b 01       	movw	r10, r22
    1ee8:	6c 01       	movw	r12, r24
    1eea:	0a e0       	ldi	r16, 0x0A	; 10
    1eec:	3e 01       	movw	r6, r28
    1eee:	08 94       	sec
    1ef0:	61 1c       	adc	r6, r1
    1ef2:	71 1c       	adc	r7, r1
    1ef4:	fa 2c       	mov	r15, r10
    1ef6:	c6 01       	movw	r24, r12
    1ef8:	b5 01       	movw	r22, r10
    1efa:	2a e0       	ldi	r18, 0x0A	; 10
    1efc:	30 e0       	ldi	r19, 0x00	; 0
    1efe:	40 e0       	ldi	r20, 0x00	; 0
    1f00:	50 e0       	ldi	r21, 0x00	; 0
    1f02:	0e 94 25 16 	call	0x2c4a	; 0x2c4a <__udivmodsi4>
    1f06:	c9 01       	movw	r24, r18
    1f08:	da 01       	movw	r26, r20
    1f0a:	5c 01       	movw	r10, r24
    1f0c:	6d 01       	movw	r12, r26
    1f0e:	01 50       	subi	r16, 0x01	; 1
    1f10:	43 01       	movw	r8, r6
    1f12:	80 0e       	add	r8, r16
    1f14:	91 1c       	adc	r9, r1
    1f16:	80 e3       	ldi	r24, 0x30	; 48
    1f18:	f8 0e       	add	r15, r24
    1f1a:	c6 01       	movw	r24, r12
    1f1c:	b5 01       	movw	r22, r10
    1f1e:	2a e0       	ldi	r18, 0x0A	; 10
    1f20:	30 e0       	ldi	r19, 0x00	; 0
    1f22:	40 e0       	ldi	r20, 0x00	; 0
    1f24:	50 e0       	ldi	r21, 0x00	; 0
    1f26:	0e 94 d3 15 	call	0x2ba6	; 0x2ba6 <__mulsi3>
    1f2a:	f6 1a       	sub	r15, r22
    1f2c:	f4 01       	movw	r30, r8
    1f2e:	f0 82       	st	Z, r15
    1f30:	a1 14       	cp	r10, r1
    1f32:	b1 04       	cpc	r11, r1
    1f34:	c1 04       	cpc	r12, r1
    1f36:	d1 04       	cpc	r13, r1
    1f38:	e9 f6       	brne	.-70     	; 0x1ef4 <_ZN12OrangutanLCD5printEm+0x36>
    1f3a:	08 c0       	rjmp	.+16     	; 0x1f4c <_ZN12OrangutanLCD5printEm+0x8e>
    1f3c:	f6 01       	movw	r30, r12
    1f3e:	e0 0f       	add	r30, r16
    1f40:	f1 1d       	adc	r31, r1
    1f42:	80 81       	ld	r24, Z
    1f44:	0e 94 16 0f 	call	0x1e2c	; 0x1e2c <_ZN12OrangutanLCD9send_dataEh>
    1f48:	0f 5f       	subi	r16, 0xFF	; 255
    1f4a:	04 c0       	rjmp	.+8      	; 0x1f54 <_ZN12OrangutanLCD5printEm+0x96>
    1f4c:	6e 01       	movw	r12, r28
    1f4e:	08 94       	sec
    1f50:	c1 1c       	adc	r12, r1
    1f52:	d1 1c       	adc	r13, r1
    1f54:	0a 30       	cpi	r16, 0x0A	; 10
    1f56:	90 f3       	brcs	.-28     	; 0x1f3c <_ZN12OrangutanLCD5printEm+0x7e>
    1f58:	2a 96       	adiw	r28, 0x0a	; 10
    1f5a:	0f b6       	in	r0, 0x3f	; 63
    1f5c:	f8 94       	cli
    1f5e:	de bf       	out	0x3e, r29	; 62
    1f60:	0f be       	out	0x3f, r0	; 63
    1f62:	cd bf       	out	0x3d, r28	; 61
    1f64:	cf 91       	pop	r28
    1f66:	df 91       	pop	r29
    1f68:	0f 91       	pop	r16
    1f6a:	ff 90       	pop	r15
    1f6c:	df 90       	pop	r13
    1f6e:	cf 90       	pop	r12
    1f70:	bf 90       	pop	r11
    1f72:	af 90       	pop	r10
    1f74:	9f 90       	pop	r9
    1f76:	8f 90       	pop	r8
    1f78:	7f 90       	pop	r7
    1f7a:	6f 90       	pop	r6
    1f7c:	08 95       	ret

00001f7e <print_unsigned_long>:
    1f7e:	0e 94 5f 0f 	call	0x1ebe	; 0x1ebe <_ZN12OrangutanLCD5printEm>
    1f82:	08 95       	ret

00001f84 <_ZN12OrangutanLCD5printEl>:
    1f84:	ef 92       	push	r14
    1f86:	ff 92       	push	r15
    1f88:	0f 93       	push	r16
    1f8a:	1f 93       	push	r17
    1f8c:	7b 01       	movw	r14, r22
    1f8e:	8c 01       	movw	r16, r24
    1f90:	97 ff       	sbrs	r25, 7
    1f92:	0b c0       	rjmp	.+22     	; 0x1faa <_ZN12OrangutanLCD5printEl+0x26>
    1f94:	10 95       	com	r17
    1f96:	00 95       	com	r16
    1f98:	f0 94       	com	r15
    1f9a:	e0 94       	com	r14
    1f9c:	e1 1c       	adc	r14, r1
    1f9e:	f1 1c       	adc	r15, r1
    1fa0:	01 1d       	adc	r16, r1
    1fa2:	11 1d       	adc	r17, r1
    1fa4:	8d e2       	ldi	r24, 0x2D	; 45
    1fa6:	0e 94 16 0f 	call	0x1e2c	; 0x1e2c <_ZN12OrangutanLCD9send_dataEh>
    1faa:	c8 01       	movw	r24, r16
    1fac:	b7 01       	movw	r22, r14
    1fae:	0e 94 5f 0f 	call	0x1ebe	; 0x1ebe <_ZN12OrangutanLCD5printEm>
    1fb2:	1f 91       	pop	r17
    1fb4:	0f 91       	pop	r16
    1fb6:	ff 90       	pop	r15
    1fb8:	ef 90       	pop	r14
    1fba:	08 95       	ret

00001fbc <print_long>:
    1fbc:	0e 94 c2 0f 	call	0x1f84	; 0x1f84 <_ZN12OrangutanLCD5printEl>
    1fc0:	08 95       	ret

00001fc2 <_ZN12OrangutanLCD21printFromProgramSpaceEPKc>:
    1fc2:	cf 93       	push	r28
    1fc4:	df 93       	push	r29
    1fc6:	ec 01       	movw	r28, r24
    1fc8:	03 c0       	rjmp	.+6      	; 0x1fd0 <_ZN12OrangutanLCD21printFromProgramSpaceEPKc+0xe>
    1fca:	0e 94 16 0f 	call	0x1e2c	; 0x1e2c <_ZN12OrangutanLCD9send_dataEh>
    1fce:	21 96       	adiw	r28, 0x01	; 1
    1fd0:	fe 01       	movw	r30, r28
    1fd2:	84 91       	lpm	r24, Z+
    1fd4:	88 23       	and	r24, r24
    1fd6:	c9 f7       	brne	.-14     	; 0x1fca <_ZN12OrangutanLCD21printFromProgramSpaceEPKc+0x8>
    1fd8:	df 91       	pop	r29
    1fda:	cf 91       	pop	r28
    1fdc:	08 95       	ret

00001fde <print_from_program_space>:
    1fde:	0e 94 e1 0f 	call	0x1fc2	; 0x1fc2 <_ZN12OrangutanLCD21printFromProgramSpaceEPKc>
    1fe2:	08 95       	ret

00001fe4 <_ZN12OrangutanLCD5printEPKc>:
    1fe4:	cf 93       	push	r28
    1fe6:	df 93       	push	r29
    1fe8:	ec 01       	movw	r28, r24
    1fea:	03 c0       	rjmp	.+6      	; 0x1ff2 <_ZN12OrangutanLCD5printEPKc+0xe>
    1fec:	21 96       	adiw	r28, 0x01	; 1
    1fee:	0e 94 16 0f 	call	0x1e2c	; 0x1e2c <_ZN12OrangutanLCD9send_dataEh>
    1ff2:	88 81       	ld	r24, Y
    1ff4:	88 23       	and	r24, r24
    1ff6:	d1 f7       	brne	.-12     	; 0x1fec <_ZN12OrangutanLCD5printEPKc+0x8>
    1ff8:	df 91       	pop	r29
    1ffa:	cf 91       	pop	r28
    1ffc:	08 95       	ret

00001ffe <print>:
    1ffe:	0e 94 f2 0f 	call	0x1fe4	; 0x1fe4 <_ZN12OrangutanLCD5printEPKc>
    2002:	08 95       	ret

00002004 <_ZN12OrangutanLCD5printEc>:
    2004:	0e 94 16 0f 	call	0x1e2c	; 0x1e2c <_ZN12OrangutanLCD9send_dataEh>
    2008:	08 95       	ret

0000200a <print_character>:
    200a:	0e 94 16 0f 	call	0x1e2c	; 0x1e2c <_ZN12OrangutanLCD9send_dataEh>
    200e:	08 95       	ret

00002010 <lcd_putchar>:
    2010:	a0 e0       	ldi	r26, 0x00	; 0
    2012:	b0 e0       	ldi	r27, 0x00	; 0
    2014:	ee e0       	ldi	r30, 0x0E	; 14
    2016:	f0 e1       	ldi	r31, 0x10	; 16
    2018:	0c 94 6c 16 	jmp	0x2cd8	; 0x2cd8 <__prologue_saves__+0x14>
    201c:	e8 2e       	mov	r14, r24
    201e:	80 91 4c 02 	lds	r24, 0x024C
    2022:	90 91 4d 02 	lds	r25, 0x024D
    2026:	89 2b       	or	r24, r25
    2028:	09 f4       	brne	.+2      	; 0x202c <lcd_putchar+0x1c>
    202a:	05 c1       	rjmp	.+522    	; 0x2236 <lcd_putchar+0x226>
    202c:	2a e0       	ldi	r18, 0x0A	; 10
    202e:	e2 16       	cp	r14, r18
    2030:	09 f4       	brne	.+2      	; 0x2034 <lcd_putchar+0x24>
    2032:	46 c0       	rjmp	.+140    	; 0x20c0 <lcd_putchar+0xb0>
    2034:	38 e0       	ldi	r19, 0x08	; 8
    2036:	e3 16       	cp	r14, r19
    2038:	c9 f4       	brne	.+50     	; 0x206c <lcd_putchar+0x5c>
    203a:	80 91 4f 02 	lds	r24, 0x024F
    203e:	81 50       	subi	r24, 0x01	; 1
    2040:	80 93 4f 02 	sts	0x024F, r24
    2044:	8f 3f       	cpi	r24, 0xFF	; 255
    2046:	51 f4       	brne	.+20     	; 0x205c <lcd_putchar+0x4c>
    2048:	80 91 4e 02 	lds	r24, 0x024E
    204c:	81 50       	subi	r24, 0x01	; 1
    204e:	80 93 4e 02 	sts	0x024E, r24
    2052:	80 91 35 01 	lds	r24, 0x0135
    2056:	81 50       	subi	r24, 0x01	; 1
    2058:	80 93 4f 02 	sts	0x024F, r24
    205c:	80 91 4e 02 	lds	r24, 0x024E
    2060:	8f 3f       	cpi	r24, 0xFF	; 255
    2062:	09 f0       	breq	.+2      	; 0x2066 <lcd_putchar+0x56>
    2064:	e2 c0       	rjmp	.+452    	; 0x222a <lcd_putchar+0x21a>
    2066:	10 92 4e 02 	sts	0x024E, r1
    206a:	dd c0       	rjmp	.+442    	; 0x2226 <lcd_putchar+0x216>
    206c:	8e 2d       	mov	r24, r14
    206e:	0e 94 16 0f 	call	0x1e2c	; 0x1e2c <_ZN12OrangutanLCD9send_dataEh>
    2072:	20 91 4e 02 	lds	r18, 0x024E
    2076:	22 23       	and	r18, r18
    2078:	c9 f0       	breq	.+50     	; 0x20ac <lcd_putchar+0x9c>
    207a:	30 e0       	ldi	r19, 0x00	; 0
    207c:	21 50       	subi	r18, 0x01	; 1
    207e:	30 40       	sbci	r19, 0x00	; 0
    2080:	80 91 35 01 	lds	r24, 0x0135
    2084:	90 e0       	ldi	r25, 0x00	; 0
    2086:	ac 01       	movw	r20, r24
    2088:	24 9f       	mul	r18, r20
    208a:	c0 01       	movw	r24, r0
    208c:	25 9f       	mul	r18, r21
    208e:	90 0d       	add	r25, r0
    2090:	34 9f       	mul	r19, r20
    2092:	90 0d       	add	r25, r0
    2094:	11 24       	eor	r1, r1
    2096:	20 91 4f 02 	lds	r18, 0x024F
    209a:	e0 91 4c 02 	lds	r30, 0x024C
    209e:	f0 91 4d 02 	lds	r31, 0x024D
    20a2:	e8 0f       	add	r30, r24
    20a4:	f9 1f       	adc	r31, r25
    20a6:	e2 0f       	add	r30, r18
    20a8:	f1 1d       	adc	r31, r1
    20aa:	e0 82       	st	Z, r14
    20ac:	80 91 4f 02 	lds	r24, 0x024F
    20b0:	8f 5f       	subi	r24, 0xFF	; 255
    20b2:	80 93 4f 02 	sts	0x024F, r24
    20b6:	90 91 35 01 	lds	r25, 0x0135
    20ba:	89 17       	cp	r24, r25
    20bc:	09 f0       	breq	.+2      	; 0x20c0 <lcd_putchar+0xb0>
    20be:	bb c0       	rjmp	.+374    	; 0x2236 <lcd_putchar+0x226>
    20c0:	40 91 4e 02 	lds	r20, 0x024E
    20c4:	24 2f       	mov	r18, r20
    20c6:	30 e0       	ldi	r19, 0x00	; 0
    20c8:	80 91 34 01 	lds	r24, 0x0134
    20cc:	90 e0       	ldi	r25, 0x00	; 0
    20ce:	01 97       	sbiw	r24, 0x01	; 1
    20d0:	28 17       	cp	r18, r24
    20d2:	39 07       	cpc	r19, r25
    20d4:	09 f0       	breq	.+2      	; 0x20d8 <lcd_putchar+0xc8>
    20d6:	a4 c0       	rjmp	.+328    	; 0x2220 <lcd_putchar+0x210>
    20d8:	c0 e0       	ldi	r28, 0x00	; 0
    20da:	d0 e0       	ldi	r29, 0x00	; 0
    20dc:	44 c0       	rjmp	.+136    	; 0x2166 <lcd_putchar+0x156>
    20de:	80 e0       	ldi	r24, 0x00	; 0
    20e0:	6c 2f       	mov	r22, r28
    20e2:	0e 94 c4 0e 	call	0x1d88	; 0x1d88 <_ZN12OrangutanLCD6gotoXYEhh>
    20e6:	ff 24       	eor	r15, r15
    20e8:	6e 01       	movw	r12, r28
    20ea:	08 94       	sec
    20ec:	c1 1c       	adc	r12, r1
    20ee:	d1 1c       	adc	r13, r1
    20f0:	35 c0       	rjmp	.+106    	; 0x215c <lcd_putchar+0x14c>
    20f2:	0f 2d       	mov	r16, r15
    20f4:	10 e0       	ldi	r17, 0x00	; 0
    20f6:	90 e0       	ldi	r25, 0x00	; 0
    20f8:	9c 01       	movw	r18, r24
    20fa:	c2 9f       	mul	r28, r18
    20fc:	c0 01       	movw	r24, r0
    20fe:	c3 9f       	mul	r28, r19
    2100:	90 0d       	add	r25, r0
    2102:	d2 9f       	mul	r29, r18
    2104:	90 0d       	add	r25, r0
    2106:	11 24       	eor	r1, r1
    2108:	e0 91 4c 02 	lds	r30, 0x024C
    210c:	f0 91 4d 02 	lds	r31, 0x024D
    2110:	e0 0f       	add	r30, r16
    2112:	f1 1f       	adc	r31, r17
    2114:	e8 0f       	add	r30, r24
    2116:	f9 1f       	adc	r31, r25
    2118:	80 81       	ld	r24, Z
    211a:	0e 94 16 0f 	call	0x1e2c	; 0x1e2c <_ZN12OrangutanLCD9send_dataEh>
    211e:	e0 91 4c 02 	lds	r30, 0x024C
    2122:	f0 91 4d 02 	lds	r31, 0x024D
    2126:	80 91 35 01 	lds	r24, 0x0135
    212a:	90 e0       	ldi	r25, 0x00	; 0
    212c:	c8 9f       	mul	r28, r24
    212e:	d0 01       	movw	r26, r0
    2130:	c9 9f       	mul	r28, r25
    2132:	b0 0d       	add	r27, r0
    2134:	d8 9f       	mul	r29, r24
    2136:	b0 0d       	add	r27, r0
    2138:	11 24       	eor	r1, r1
    213a:	e0 0f       	add	r30, r16
    213c:	f1 1f       	adc	r31, r17
    213e:	ae 0f       	add	r26, r30
    2140:	bf 1f       	adc	r27, r31
    2142:	ac 01       	movw	r20, r24
    2144:	c4 9e       	mul	r12, r20
    2146:	c0 01       	movw	r24, r0
    2148:	c5 9e       	mul	r12, r21
    214a:	90 0d       	add	r25, r0
    214c:	d4 9e       	mul	r13, r20
    214e:	90 0d       	add	r25, r0
    2150:	11 24       	eor	r1, r1
    2152:	e8 0f       	add	r30, r24
    2154:	f9 1f       	adc	r31, r25
    2156:	80 81       	ld	r24, Z
    2158:	8c 93       	st	X, r24
    215a:	f3 94       	inc	r15
    215c:	80 91 35 01 	lds	r24, 0x0135
    2160:	f8 16       	cp	r15, r24
    2162:	38 f2       	brcs	.-114    	; 0x20f2 <lcd_putchar+0xe2>
    2164:	e6 01       	movw	r28, r12
    2166:	60 91 34 01 	lds	r22, 0x0134
    216a:	86 2f       	mov	r24, r22
    216c:	90 e0       	ldi	r25, 0x00	; 0
    216e:	02 97       	sbiw	r24, 0x02	; 2
    2170:	c8 17       	cp	r28, r24
    2172:	d9 07       	cpc	r29, r25
    2174:	0c f4       	brge	.+2      	; 0x2178 <lcd_putchar+0x168>
    2176:	b3 cf       	rjmp	.-154    	; 0x20de <lcd_putchar+0xce>
    2178:	62 30       	cpi	r22, 0x02	; 2
    217a:	08 f4       	brcc	.+2      	; 0x217e <lcd_putchar+0x16e>
    217c:	40 c0       	rjmp	.+128    	; 0x21fe <lcd_putchar+0x1ee>
    217e:	62 50       	subi	r22, 0x02	; 2
    2180:	80 e0       	ldi	r24, 0x00	; 0
    2182:	0e 94 c4 0e 	call	0x1d88	; 0x1d88 <_ZN12OrangutanLCD6gotoXYEhh>
    2186:	ff 24       	eor	r15, r15
    2188:	e0 e2       	ldi	r30, 0x20	; 32
    218a:	de 2e       	mov	r13, r30
    218c:	34 c0       	rjmp	.+104    	; 0x21f6 <lcd_putchar+0x1e6>
    218e:	0f 2d       	mov	r16, r15
    2190:	10 e0       	ldi	r17, 0x00	; 0
    2192:	80 91 34 01 	lds	r24, 0x0134
    2196:	90 e0       	ldi	r25, 0x00	; 0
    2198:	02 97       	sbiw	r24, 0x02	; 2
    219a:	30 e0       	ldi	r19, 0x00	; 0
    219c:	ac 01       	movw	r20, r24
    219e:	42 9f       	mul	r20, r18
    21a0:	c0 01       	movw	r24, r0
    21a2:	43 9f       	mul	r20, r19
    21a4:	90 0d       	add	r25, r0
    21a6:	52 9f       	mul	r21, r18
    21a8:	90 0d       	add	r25, r0
    21aa:	11 24       	eor	r1, r1
    21ac:	e0 91 4c 02 	lds	r30, 0x024C
    21b0:	f0 91 4d 02 	lds	r31, 0x024D
    21b4:	e0 0f       	add	r30, r16
    21b6:	f1 1f       	adc	r31, r17
    21b8:	e8 0f       	add	r30, r24
    21ba:	f9 1f       	adc	r31, r25
    21bc:	80 81       	ld	r24, Z
    21be:	0e 94 16 0f 	call	0x1e2c	; 0x1e2c <_ZN12OrangutanLCD9send_dataEh>
    21c2:	20 91 34 01 	lds	r18, 0x0134
    21c6:	30 e0       	ldi	r19, 0x00	; 0
    21c8:	22 50       	subi	r18, 0x02	; 2
    21ca:	30 40       	sbci	r19, 0x00	; 0
    21cc:	80 91 35 01 	lds	r24, 0x0135
    21d0:	90 e0       	ldi	r25, 0x00	; 0
    21d2:	ac 01       	movw	r20, r24
    21d4:	24 9f       	mul	r18, r20
    21d6:	c0 01       	movw	r24, r0
    21d8:	25 9f       	mul	r18, r21
    21da:	90 0d       	add	r25, r0
    21dc:	34 9f       	mul	r19, r20
    21de:	90 0d       	add	r25, r0
    21e0:	11 24       	eor	r1, r1
    21e2:	e0 91 4c 02 	lds	r30, 0x024C
    21e6:	f0 91 4d 02 	lds	r31, 0x024D
    21ea:	e0 0f       	add	r30, r16
    21ec:	f1 1f       	adc	r31, r17
    21ee:	e8 0f       	add	r30, r24
    21f0:	f9 1f       	adc	r31, r25
    21f2:	d0 82       	st	Z, r13
    21f4:	f3 94       	inc	r15
    21f6:	20 91 35 01 	lds	r18, 0x0135
    21fa:	f2 16       	cp	r15, r18
    21fc:	40 f2       	brcs	.-112    	; 0x218e <lcd_putchar+0x17e>
    21fe:	60 91 34 01 	lds	r22, 0x0134
    2202:	61 50       	subi	r22, 0x01	; 1
    2204:	80 e0       	ldi	r24, 0x00	; 0
    2206:	0e 94 c4 0e 	call	0x1d88	; 0x1d88 <_ZN12OrangutanLCD6gotoXYEhh>
    220a:	00 e0       	ldi	r16, 0x00	; 0
    220c:	04 c0       	rjmp	.+8      	; 0x2216 <lcd_putchar+0x206>
    220e:	80 e2       	ldi	r24, 0x20	; 32
    2210:	0e 94 16 0f 	call	0x1e2c	; 0x1e2c <_ZN12OrangutanLCD9send_dataEh>
    2214:	0f 5f       	subi	r16, 0xFF	; 255
    2216:	80 91 35 01 	lds	r24, 0x0135
    221a:	08 17       	cp	r16, r24
    221c:	c0 f3       	brcs	.-16     	; 0x220e <lcd_putchar+0x1fe>
    221e:	03 c0       	rjmp	.+6      	; 0x2226 <lcd_putchar+0x216>
    2220:	4f 5f       	subi	r20, 0xFF	; 255
    2222:	40 93 4e 02 	sts	0x024E, r20
    2226:	10 92 4f 02 	sts	0x024F, r1
    222a:	80 91 4f 02 	lds	r24, 0x024F
    222e:	60 91 4e 02 	lds	r22, 0x024E
    2232:	0e 94 c4 0e 	call	0x1d88	; 0x1d88 <_ZN12OrangutanLCD6gotoXYEhh>
    2236:	2e 2d       	mov	r18, r14
    2238:	33 27       	eor	r19, r19
    223a:	27 fd       	sbrc	r18, 7
    223c:	30 95       	com	r19
    223e:	c9 01       	movw	r24, r18
    2240:	cd b7       	in	r28, 0x3d	; 61
    2242:	de b7       	in	r29, 0x3e	; 62
    2244:	e8 e0       	ldi	r30, 0x08	; 8
    2246:	0c 94 88 16 	jmp	0x2d10	; 0x2d10 <__epilogue_restores__+0x14>

0000224a <_ZN12OrangutanLCD19loadCustomCharacterEPKch>:
    224a:	ef 92       	push	r14
    224c:	ff 92       	push	r15
    224e:	0f 93       	push	r16
    2250:	1f 93       	push	r17
    2252:	cf 93       	push	r28
    2254:	df 93       	push	r29
    2256:	7c 01       	movw	r14, r24
    2258:	06 2f       	mov	r16, r22
    225a:	10 e0       	ldi	r17, 0x00	; 0
    225c:	f3 e0       	ldi	r31, 0x03	; 3
    225e:	00 0f       	add	r16, r16
    2260:	11 1f       	adc	r17, r17
    2262:	fa 95       	dec	r31
    2264:	e1 f7       	brne	.-8      	; 0x225e <_ZN12OrangutanLCD19loadCustomCharacterEPKch+0x14>
    2266:	c0 e0       	ldi	r28, 0x00	; 0
    2268:	d0 e0       	ldi	r29, 0x00	; 0
    226a:	9e 01       	movw	r18, r28
    226c:	20 0f       	add	r18, r16
    226e:	82 2f       	mov	r24, r18
    2270:	80 64       	ori	r24, 0x40	; 64
    2272:	0e 94 98 0e 	call	0x1d30	; 0x1d30 <_ZN12OrangutanLCD8send_cmdEh>
    2276:	f7 01       	movw	r30, r14
    2278:	ec 0f       	add	r30, r28
    227a:	fd 1f       	adc	r31, r29
    227c:	e4 91       	lpm	r30, Z+
    227e:	8e 2f       	mov	r24, r30
    2280:	0e 94 16 0f 	call	0x1e2c	; 0x1e2c <_ZN12OrangutanLCD9send_dataEh>
    2284:	21 96       	adiw	r28, 0x01	; 1
    2286:	c8 30       	cpi	r28, 0x08	; 8
    2288:	d1 05       	cpc	r29, r1
    228a:	79 f7       	brne	.-34     	; 0x226a <_ZN12OrangutanLCD19loadCustomCharacterEPKch+0x20>
    228c:	cd b7       	in	r28, 0x3d	; 61
    228e:	de b7       	in	r29, 0x3e	; 62
    2290:	e6 e0       	ldi	r30, 0x06	; 6
    2292:	0c 94 8a 16 	jmp	0x2d14	; 0x2d14 <__epilogue_restores__+0x18>

00002296 <lcd_load_custom_character>:
    2296:	0e 94 25 11 	call	0x224a	; 0x224a <_ZN12OrangutanLCD19loadCustomCharacterEPKch>
    229a:	08 95       	ret

0000229c <_ZN12OrangutanLCD13send_4bit_cmdEh>:
    229c:	60 e0       	ldi	r22, 0x00	; 0
    229e:	41 e0       	ldi	r20, 0x01	; 1
    22a0:	0e 94 64 0e 	call	0x1cc8	; 0x1cc8 <_ZN12OrangutanLCD4sendEhhh>
    22a4:	08 95       	ret

000022a6 <_ZN12OrangutanLCD6scrollEhhj>:
    22a6:	0f 93       	push	r16
    22a8:	1f 93       	push	r17
    22aa:	cf 93       	push	r28
    22ac:	df 93       	push	r29
    22ae:	08 2f       	mov	r16, r24
    22b0:	16 2f       	mov	r17, r22
    22b2:	ea 01       	movw	r28, r20
    22b4:	0b c0       	rjmp	.+22     	; 0x22cc <_ZN12OrangutanLCD6scrollEhhj+0x26>
    22b6:	00 23       	and	r16, r16
    22b8:	11 f4       	brne	.+4      	; 0x22be <_ZN12OrangutanLCD6scrollEhhj+0x18>
    22ba:	88 e1       	ldi	r24, 0x18	; 24
    22bc:	01 c0       	rjmp	.+2      	; 0x22c0 <_ZN12OrangutanLCD6scrollEhhj+0x1a>
    22be:	8c e1       	ldi	r24, 0x1C	; 28
    22c0:	0e 94 98 0e 	call	0x1d30	; 0x1d30 <_ZN12OrangutanLCD8send_cmdEh>
    22c4:	ce 01       	movw	r24, r28
    22c6:	0e 94 38 15 	call	0x2a70	; 0x2a70 <_ZN13OrangutanTime17delayMillisecondsEj>
    22ca:	11 50       	subi	r17, 0x01	; 1
    22cc:	11 23       	and	r17, r17
    22ce:	99 f7       	brne	.-26     	; 0x22b6 <_ZN12OrangutanLCD6scrollEhhj+0x10>
    22d0:	df 91       	pop	r29
    22d2:	cf 91       	pop	r28
    22d4:	1f 91       	pop	r17
    22d6:	0f 91       	pop	r16
    22d8:	08 95       	ret

000022da <lcd_scroll>:
    22da:	0e 94 53 11 	call	0x22a6	; 0x22a6 <_ZN12OrangutanLCD6scrollEhhj>
    22de:	08 95       	ret

000022e0 <_ZN16OrangutanDigital9setOutputEhh>:
    22e0:	28 2f       	mov	r18, r24
    22e2:	88 30       	cpi	r24, 0x08	; 8
    22e4:	68 f4       	brcc	.+26     	; 0x2300 <_ZN16OrangutanDigital9setOutputEhh+0x20>
    22e6:	81 e0       	ldi	r24, 0x01	; 1
    22e8:	90 e0       	ldi	r25, 0x00	; 0
    22ea:	02 c0       	rjmp	.+4      	; 0x22f0 <_ZN16OrangutanDigital9setOutputEhh+0x10>
    22ec:	88 0f       	add	r24, r24
    22ee:	99 1f       	adc	r25, r25
    22f0:	2a 95       	dec	r18
    22f2:	e2 f7       	brpl	.-8      	; 0x22ec <_ZN16OrangutanDigital9setOutputEhh+0xc>
    22f4:	28 2f       	mov	r18, r24
    22f6:	aa e2       	ldi	r26, 0x2A	; 42
    22f8:	b0 e0       	ldi	r27, 0x00	; 0
    22fa:	eb e2       	ldi	r30, 0x2B	; 43
    22fc:	f0 e0       	ldi	r31, 0x00	; 0
    22fe:	29 c0       	rjmp	.+82     	; 0x2352 <_ZN16OrangutanDigital9setOutputEhh+0x72>
    2300:	8e 30       	cpi	r24, 0x0E	; 14
    2302:	80 f4       	brcc	.+32     	; 0x2324 <_ZN16OrangutanDigital9setOutputEhh+0x44>
    2304:	30 e0       	ldi	r19, 0x00	; 0
    2306:	28 50       	subi	r18, 0x08	; 8
    2308:	30 40       	sbci	r19, 0x00	; 0
    230a:	81 e0       	ldi	r24, 0x01	; 1
    230c:	90 e0       	ldi	r25, 0x00	; 0
    230e:	02 c0       	rjmp	.+4      	; 0x2314 <_ZN16OrangutanDigital9setOutputEhh+0x34>
    2310:	88 0f       	add	r24, r24
    2312:	99 1f       	adc	r25, r25
    2314:	2a 95       	dec	r18
    2316:	e2 f7       	brpl	.-8      	; 0x2310 <_ZN16OrangutanDigital9setOutputEhh+0x30>
    2318:	28 2f       	mov	r18, r24
    231a:	a4 e2       	ldi	r26, 0x24	; 36
    231c:	b0 e0       	ldi	r27, 0x00	; 0
    231e:	e5 e2       	ldi	r30, 0x25	; 37
    2320:	f0 e0       	ldi	r31, 0x00	; 0
    2322:	17 c0       	rjmp	.+46     	; 0x2352 <_ZN16OrangutanDigital9setOutputEhh+0x72>
    2324:	85 31       	cpi	r24, 0x15	; 21
    2326:	30 f0       	brcs	.+12     	; 0x2334 <_ZN16OrangutanDigital9setOutputEhh+0x54>
    2328:	20 e0       	ldi	r18, 0x00	; 0
    232a:	a0 e0       	ldi	r26, 0x00	; 0
    232c:	b0 e0       	ldi	r27, 0x00	; 0
    232e:	e0 e0       	ldi	r30, 0x00	; 0
    2330:	f0 e0       	ldi	r31, 0x00	; 0
    2332:	0f c0       	rjmp	.+30     	; 0x2352 <_ZN16OrangutanDigital9setOutputEhh+0x72>
    2334:	30 e0       	ldi	r19, 0x00	; 0
    2336:	2e 50       	subi	r18, 0x0E	; 14
    2338:	30 40       	sbci	r19, 0x00	; 0
    233a:	81 e0       	ldi	r24, 0x01	; 1
    233c:	90 e0       	ldi	r25, 0x00	; 0
    233e:	02 c0       	rjmp	.+4      	; 0x2344 <_ZN16OrangutanDigital9setOutputEhh+0x64>
    2340:	88 0f       	add	r24, r24
    2342:	99 1f       	adc	r25, r25
    2344:	2a 95       	dec	r18
    2346:	e2 f7       	brpl	.-8      	; 0x2340 <_ZN16OrangutanDigital9setOutputEhh+0x60>
    2348:	28 2f       	mov	r18, r24
    234a:	a7 e2       	ldi	r26, 0x27	; 39
    234c:	b0 e0       	ldi	r27, 0x00	; 0
    234e:	e8 e2       	ldi	r30, 0x28	; 40
    2350:	f0 e0       	ldi	r31, 0x00	; 0
    2352:	6f 3f       	cpi	r22, 0xFF	; 255
    2354:	19 f4       	brne	.+6      	; 0x235c <_ZN16OrangutanDigital9setOutputEhh+0x7c>
    2356:	80 81       	ld	r24, Z
    2358:	82 27       	eor	r24, r18
    235a:	09 c0       	rjmp	.+18     	; 0x236e <_ZN16OrangutanDigital9setOutputEhh+0x8e>
    235c:	66 23       	and	r22, r22
    235e:	19 f0       	breq	.+6      	; 0x2366 <_ZN16OrangutanDigital9setOutputEhh+0x86>
    2360:	80 81       	ld	r24, Z
    2362:	82 2b       	or	r24, r18
    2364:	04 c0       	rjmp	.+8      	; 0x236e <_ZN16OrangutanDigital9setOutputEhh+0x8e>
    2366:	90 81       	ld	r25, Z
    2368:	82 2f       	mov	r24, r18
    236a:	80 95       	com	r24
    236c:	89 23       	and	r24, r25
    236e:	80 83       	st	Z, r24
    2370:	8c 91       	ld	r24, X
    2372:	82 2b       	or	r24, r18
    2374:	8c 93       	st	X, r24
    2376:	08 95       	ret

00002378 <_ZN15OrangutanMotorsC2Ev>:
    2378:	08 95       	ret

0000237a <_ZN15OrangutanMotorsC1Ev>:
    237a:	08 95       	ret

0000237c <_ZN15OrangutanMotors5init2Ev>:
    237c:	e0 eb       	ldi	r30, 0xB0	; 176
    237e:	f0 e0       	ldi	r31, 0x00	; 0
    2380:	83 ef       	ldi	r24, 0xF3	; 243
    2382:	80 83       	st	Z, r24
    2384:	80 81       	ld	r24, Z
    2386:	84 bd       	out	0x24, r24	; 36
    2388:	e1 eb       	ldi	r30, 0xB1	; 177
    238a:	f0 e0       	ldi	r31, 0x00	; 0
    238c:	82 e0       	ldi	r24, 0x02	; 2
    238e:	80 83       	st	Z, r24
    2390:	80 81       	ld	r24, Z
    2392:	85 bd       	out	0x25, r24	; 37
    2394:	e4 eb       	ldi	r30, 0xB4	; 180
    2396:	f0 e0       	ldi	r31, 0x00	; 0
    2398:	10 82       	st	Z, r1
    239a:	80 81       	ld	r24, Z
    239c:	e3 eb       	ldi	r30, 0xB3	; 179
    239e:	f0 e0       	ldi	r31, 0x00	; 0
    23a0:	80 83       	st	Z, r24
    23a2:	80 81       	ld	r24, Z
    23a4:	88 bd       	out	0x28, r24	; 40
    23a6:	88 b5       	in	r24, 0x28	; 40
    23a8:	87 bd       	out	0x27, r24	; 39
    23aa:	86 e0       	ldi	r24, 0x06	; 6
    23ac:	60 e0       	ldi	r22, 0x00	; 0
    23ae:	0e 94 70 11 	call	0x22e0	; 0x22e0 <_ZN16OrangutanDigital9setOutputEhh>
    23b2:	85 e0       	ldi	r24, 0x05	; 5
    23b4:	60 e0       	ldi	r22, 0x00	; 0
    23b6:	0e 94 70 11 	call	0x22e0	; 0x22e0 <_ZN16OrangutanDigital9setOutputEhh>
    23ba:	8b e0       	ldi	r24, 0x0B	; 11
    23bc:	60 e0       	ldi	r22, 0x00	; 0
    23be:	0e 94 70 11 	call	0x22e0	; 0x22e0 <_ZN16OrangutanDigital9setOutputEhh>
    23c2:	83 e0       	ldi	r24, 0x03	; 3
    23c4:	60 e0       	ldi	r22, 0x00	; 0
    23c6:	0e 94 70 11 	call	0x22e0	; 0x22e0 <_ZN16OrangutanDigital9setOutputEhh>
    23ca:	08 95       	ret

000023cc <_ZN15OrangutanMotors4initEv>:
    23cc:	80 91 55 02 	lds	r24, 0x0255
    23d0:	88 23       	and	r24, r24
    23d2:	29 f4       	brne	.+10     	; 0x23de <_ZN15OrangutanMotors4initEv+0x12>
    23d4:	81 e0       	ldi	r24, 0x01	; 1
    23d6:	80 93 55 02 	sts	0x0255, r24
    23da:	0e 94 be 11 	call	0x237c	; 0x237c <_ZN15OrangutanMotors5init2Ev>
    23de:	08 95       	ret

000023e0 <_ZN15OrangutanMotors10setM1SpeedEi>:
    23e0:	cf 93       	push	r28
    23e2:	df 93       	push	r29
    23e4:	ec 01       	movw	r28, r24
    23e6:	0e 94 e6 11 	call	0x23cc	; 0x23cc <_ZN15OrangutanMotors4initEv>
    23ea:	d7 fd       	sbrc	r29, 7
    23ec:	02 c0       	rjmp	.+4      	; 0x23f2 <_ZN15OrangutanMotors10setM1SpeedEi+0x12>
    23ee:	20 e0       	ldi	r18, 0x00	; 0
    23f0:	04 c0       	rjmp	.+8      	; 0x23fa <_ZN15OrangutanMotors10setM1SpeedEi+0x1a>
    23f2:	d0 95       	com	r29
    23f4:	c1 95       	neg	r28
    23f6:	df 4f       	sbci	r29, 0xFF	; 255
    23f8:	21 e0       	ldi	r18, 0x01	; 1
    23fa:	ce 01       	movw	r24, r28
    23fc:	cf 3f       	cpi	r28, 0xFF	; 255
    23fe:	d1 05       	cpc	r29, r1
    2400:	19 f0       	breq	.+6      	; 0x2408 <_ZN15OrangutanMotors10setM1SpeedEi+0x28>
    2402:	14 f0       	brlt	.+4      	; 0x2408 <_ZN15OrangutanMotors10setM1SpeedEi+0x28>
    2404:	8f ef       	ldi	r24, 0xFF	; 255
    2406:	90 e0       	ldi	r25, 0x00	; 0
    2408:	22 23       	and	r18, r18
    240a:	19 f0       	breq	.+6      	; 0x2412 <_ZN15OrangutanMotors10setM1SpeedEi+0x32>
    240c:	18 bc       	out	0x28, r1	; 40
    240e:	87 bd       	out	0x27, r24	; 39
    2410:	02 c0       	rjmp	.+4      	; 0x2416 <_ZN15OrangutanMotors10setM1SpeedEi+0x36>
    2412:	88 bd       	out	0x28, r24	; 40
    2414:	17 bc       	out	0x27, r1	; 39
    2416:	df 91       	pop	r29
    2418:	cf 91       	pop	r28
    241a:	08 95       	ret

0000241c <set_m1_speed>:
    241c:	0e 94 f0 11 	call	0x23e0	; 0x23e0 <_ZN15OrangutanMotors10setM1SpeedEi>
    2420:	08 95       	ret

00002422 <_ZN15OrangutanMotors10setM2SpeedEi>:
    2422:	cf 93       	push	r28
    2424:	df 93       	push	r29
    2426:	ec 01       	movw	r28, r24
    2428:	0e 94 e6 11 	call	0x23cc	; 0x23cc <_ZN15OrangutanMotors4initEv>
    242c:	d7 fd       	sbrc	r29, 7
    242e:	02 c0       	rjmp	.+4      	; 0x2434 <_ZN15OrangutanMotors10setM2SpeedEi+0x12>
    2430:	20 e0       	ldi	r18, 0x00	; 0
    2432:	04 c0       	rjmp	.+8      	; 0x243c <_ZN15OrangutanMotors10setM2SpeedEi+0x1a>
    2434:	d0 95       	com	r29
    2436:	c1 95       	neg	r28
    2438:	df 4f       	sbci	r29, 0xFF	; 255
    243a:	21 e0       	ldi	r18, 0x01	; 1
    243c:	ce 01       	movw	r24, r28
    243e:	cf 3f       	cpi	r28, 0xFF	; 255
    2440:	d1 05       	cpc	r29, r1
    2442:	19 f0       	breq	.+6      	; 0x244a <_ZN15OrangutanMotors10setM2SpeedEi+0x28>
    2444:	14 f0       	brlt	.+4      	; 0x244a <_ZN15OrangutanMotors10setM2SpeedEi+0x28>
    2446:	8f ef       	ldi	r24, 0xFF	; 255
    2448:	90 e0       	ldi	r25, 0x00	; 0
    244a:	22 23       	and	r18, r18
    244c:	29 f0       	breq	.+10     	; 0x2458 <_ZN15OrangutanMotors10setM2SpeedEi+0x36>
    244e:	10 92 b4 00 	sts	0x00B4, r1
    2452:	80 93 b3 00 	sts	0x00B3, r24
    2456:	04 c0       	rjmp	.+8      	; 0x2460 <_ZN15OrangutanMotors10setM2SpeedEi+0x3e>
    2458:	80 93 b4 00 	sts	0x00B4, r24
    245c:	10 92 b3 00 	sts	0x00B3, r1
    2460:	df 91       	pop	r29
    2462:	cf 91       	pop	r28
    2464:	08 95       	ret

00002466 <set_m2_speed>:
    2466:	0e 94 11 12 	call	0x2422	; 0x2422 <_ZN15OrangutanMotors10setM2SpeedEi>
    246a:	08 95       	ret

0000246c <_ZN15OrangutanMotors9setSpeedsEii>:
    246c:	0f 93       	push	r16
    246e:	1f 93       	push	r17
    2470:	8b 01       	movw	r16, r22
    2472:	0e 94 f0 11 	call	0x23e0	; 0x23e0 <_ZN15OrangutanMotors10setM1SpeedEi>
    2476:	c8 01       	movw	r24, r16
    2478:	0e 94 11 12 	call	0x2422	; 0x2422 <_ZN15OrangutanMotors10setM2SpeedEi>
    247c:	1f 91       	pop	r17
    247e:	0f 91       	pop	r16
    2480:	08 95       	ret

00002482 <set_motors>:
    2482:	0e 94 36 12 	call	0x246c	; 0x246c <_ZN15OrangutanMotors9setSpeedsEii>
    2486:	08 95       	ret

00002488 <_ZN20OrangutanPushbuttonsC2Ev>:
    2488:	08 95       	ret

0000248a <_ZN20OrangutanPushbuttonsC1Ev>:
    248a:	08 95       	ret

0000248c <button_is_pressed>:
    248c:	28 2f       	mov	r18, r24
    248e:	80 91 56 02 	lds	r24, 0x0256
    2492:	88 23       	and	r24, r24
    2494:	91 f4       	brne	.+36     	; 0x24ba <button_is_pressed+0x2e>
    2496:	81 e0       	ldi	r24, 0x01	; 1
    2498:	80 93 56 02 	sts	0x0256, r24
    249c:	84 b1       	in	r24, 0x04	; 4
    249e:	8d 7c       	andi	r24, 0xCD	; 205
    24a0:	84 b9       	out	0x04, r24	; 4
    24a2:	85 b1       	in	r24, 0x05	; 5
    24a4:	82 63       	ori	r24, 0x32	; 50
    24a6:	85 b9       	out	0x05, r24	; 5
    24a8:	85 e0       	ldi	r24, 0x05	; 5
    24aa:	90 e0       	ldi	r25, 0x00	; 0
    24ac:	6f 93       	push	r22
    24ae:	64 e0       	ldi	r22, 0x04	; 4
    24b0:	6a 95       	dec	r22
    24b2:	f1 f7       	brne	.-4      	; 0x24b0 <button_is_pressed+0x24>
    24b4:	6f 91       	pop	r22
    24b6:	01 97       	sbiw	r24, 0x01	; 1
    24b8:	c9 f7       	brne	.-14     	; 0x24ac <button_is_pressed+0x20>
    24ba:	83 b1       	in	r24, 0x03	; 3
    24bc:	80 95       	com	r24
    24be:	82 23       	and	r24, r18
    24c0:	08 95       	ret

000024c2 <_ZN20OrangutanPushbuttons4initEv>:
    24c2:	80 91 56 02 	lds	r24, 0x0256
    24c6:	88 23       	and	r24, r24
    24c8:	91 f4       	brne	.+36     	; 0x24ee <_ZN20OrangutanPushbuttons4initEv+0x2c>
    24ca:	81 e0       	ldi	r24, 0x01	; 1
    24cc:	80 93 56 02 	sts	0x0256, r24
    24d0:	84 b1       	in	r24, 0x04	; 4
    24d2:	8d 7c       	andi	r24, 0xCD	; 205
    24d4:	84 b9       	out	0x04, r24	; 4
    24d6:	85 b1       	in	r24, 0x05	; 5
    24d8:	82 63       	ori	r24, 0x32	; 50
    24da:	85 b9       	out	0x05, r24	; 5
    24dc:	85 e0       	ldi	r24, 0x05	; 5
    24de:	90 e0       	ldi	r25, 0x00	; 0
    24e0:	6f 93       	push	r22
    24e2:	64 e0       	ldi	r22, 0x04	; 4
    24e4:	6a 95       	dec	r22
    24e6:	f1 f7       	brne	.-4      	; 0x24e4 <_ZN20OrangutanPushbuttons4initEv+0x22>
    24e8:	6f 91       	pop	r22
    24ea:	01 97       	sbiw	r24, 0x01	; 1
    24ec:	c9 f7       	brne	.-14     	; 0x24e0 <_ZN20OrangutanPushbuttons4initEv+0x1e>
    24ee:	08 95       	ret

000024f0 <_ZN20OrangutanPushbuttons5init2Ev>:
    24f0:	84 b1       	in	r24, 0x04	; 4
    24f2:	8d 7c       	andi	r24, 0xCD	; 205
    24f4:	84 b9       	out	0x04, r24	; 4
    24f6:	85 b1       	in	r24, 0x05	; 5
    24f8:	82 63       	ori	r24, 0x32	; 50
    24fa:	85 b9       	out	0x05, r24	; 5
    24fc:	85 e0       	ldi	r24, 0x05	; 5
    24fe:	90 e0       	ldi	r25, 0x00	; 0
    2500:	6f 93       	push	r22
    2502:	64 e0       	ldi	r22, 0x04	; 4
    2504:	6a 95       	dec	r22
    2506:	f1 f7       	brne	.-4      	; 0x2504 <_ZN20OrangutanPushbuttons5init2Ev+0x14>
    2508:	6f 91       	pop	r22
    250a:	01 97       	sbiw	r24, 0x01	; 1
    250c:	c9 f7       	brne	.-14     	; 0x2500 <_ZN20OrangutanPushbuttons5init2Ev+0x10>
    250e:	08 95       	ret

00002510 <_ZN20OrangutanPushbuttons9isPressedEh>:
    2510:	28 2f       	mov	r18, r24
    2512:	80 91 56 02 	lds	r24, 0x0256
    2516:	88 23       	and	r24, r24
    2518:	91 f4       	brne	.+36     	; 0x253e <_ZN20OrangutanPushbuttons9isPressedEh+0x2e>
    251a:	81 e0       	ldi	r24, 0x01	; 1
    251c:	80 93 56 02 	sts	0x0256, r24
    2520:	84 b1       	in	r24, 0x04	; 4
    2522:	8d 7c       	andi	r24, 0xCD	; 205
    2524:	84 b9       	out	0x04, r24	; 4
    2526:	85 b1       	in	r24, 0x05	; 5
    2528:	82 63       	ori	r24, 0x32	; 50
    252a:	85 b9       	out	0x05, r24	; 5
    252c:	85 e0       	ldi	r24, 0x05	; 5
    252e:	90 e0       	ldi	r25, 0x00	; 0
    2530:	6f 93       	push	r22
    2532:	64 e0       	ldi	r22, 0x04	; 4
    2534:	6a 95       	dec	r22
    2536:	f1 f7       	brne	.-4      	; 0x2534 <_ZN20OrangutanPushbuttons9isPressedEh+0x24>
    2538:	6f 91       	pop	r22
    253a:	01 97       	sbiw	r24, 0x01	; 1
    253c:	c9 f7       	brne	.-14     	; 0x2530 <_ZN20OrangutanPushbuttons9isPressedEh+0x20>
    253e:	83 b1       	in	r24, 0x03	; 3
    2540:	80 95       	com	r24
    2542:	82 23       	and	r24, r18
    2544:	08 95       	ret

00002546 <_ZN20OrangutanPushbuttons25getSingleDebouncedReleaseEh>:
    2546:	0f 93       	push	r16
    2548:	1f 93       	push	r17
    254a:	08 2f       	mov	r16, r24
    254c:	13 b1       	in	r17, 0x03	; 3
    254e:	0e 94 69 15 	call	0x2ad2	; 0x2ad2 <_ZN13OrangutanTime2msEv>
    2552:	ab 01       	movw	r20, r22
    2554:	bc 01       	movw	r22, r24
    2556:	80 91 56 02 	lds	r24, 0x0256
    255a:	88 23       	and	r24, r24
    255c:	91 f4       	brne	.+36     	; 0x2582 <_ZN20OrangutanPushbuttons25getSingleDebouncedReleaseEh+0x3c>
    255e:	81 e0       	ldi	r24, 0x01	; 1
    2560:	80 93 56 02 	sts	0x0256, r24
    2564:	84 b1       	in	r24, 0x04	; 4
    2566:	8d 7c       	andi	r24, 0xCD	; 205
    2568:	84 b9       	out	0x04, r24	; 4
    256a:	85 b1       	in	r24, 0x05	; 5
    256c:	82 63       	ori	r24, 0x32	; 50
    256e:	85 b9       	out	0x05, r24	; 5
    2570:	85 e0       	ldi	r24, 0x05	; 5
    2572:	90 e0       	ldi	r25, 0x00	; 0
    2574:	6f 93       	push	r22
    2576:	64 e0       	ldi	r22, 0x04	; 4
    2578:	6a 95       	dec	r22
    257a:	f1 f7       	brne	.-4      	; 0x2578 <_ZN20OrangutanPushbuttons25getSingleDebouncedReleaseEh+0x32>
    257c:	6f 91       	pop	r22
    257e:	01 97       	sbiw	r24, 0x01	; 1
    2580:	c9 f7       	brne	.-14     	; 0x2574 <_ZN20OrangutanPushbuttons25getSingleDebouncedReleaseEh+0x2e>
    2582:	80 91 5c 02 	lds	r24, 0x025C
    2586:	81 30       	cpi	r24, 0x01	; 1
    2588:	11 f1       	breq	.+68     	; 0x25ce <_ZN20OrangutanPushbuttons25getSingleDebouncedReleaseEh+0x88>
    258a:	81 30       	cpi	r24, 0x01	; 1
    258c:	38 f0       	brcs	.+14     	; 0x259c <_ZN20OrangutanPushbuttons25getSingleDebouncedReleaseEh+0x56>
    258e:	82 30       	cpi	r24, 0x02	; 2
    2590:	09 f4       	brne	.+2      	; 0x2594 <_ZN20OrangutanPushbuttons25getSingleDebouncedReleaseEh+0x4e>
    2592:	43 c0       	rjmp	.+134    	; 0x261a <_ZN20OrangutanPushbuttons25getSingleDebouncedReleaseEh+0xd4>
    2594:	83 30       	cpi	r24, 0x03	; 3
    2596:	09 f0       	breq	.+2      	; 0x259a <_ZN20OrangutanPushbuttons25getSingleDebouncedReleaseEh+0x54>
    2598:	89 c0       	rjmp	.+274    	; 0x26ac <_ZN20OrangutanPushbuttons25getSingleDebouncedReleaseEh+0x166>
    259a:	65 c0       	rjmp	.+202    	; 0x2666 <_ZN20OrangutanPushbuttons25getSingleDebouncedReleaseEh+0x120>
    259c:	20 2f       	mov	r18, r16
    259e:	30 e0       	ldi	r19, 0x00	; 0
    25a0:	81 2f       	mov	r24, r17
    25a2:	90 e0       	ldi	r25, 0x00	; 0
    25a4:	80 95       	com	r24
    25a6:	90 95       	com	r25
    25a8:	28 23       	and	r18, r24
    25aa:	39 23       	and	r19, r25
    25ac:	23 2b       	or	r18, r19
    25ae:	09 f4       	brne	.+2      	; 0x25b2 <_ZN20OrangutanPushbuttons25getSingleDebouncedReleaseEh+0x6c>
    25b0:	7d c0       	rjmp	.+250    	; 0x26ac <_ZN20OrangutanPushbuttons25getSingleDebouncedReleaseEh+0x166>
    25b2:	10 95       	com	r17
    25b4:	10 23       	and	r17, r16
    25b6:	10 93 57 02 	sts	0x0257, r17
    25ba:	40 93 58 02 	sts	0x0258, r20
    25be:	50 93 59 02 	sts	0x0259, r21
    25c2:	60 93 5a 02 	sts	0x025A, r22
    25c6:	70 93 5b 02 	sts	0x025B, r23
    25ca:	81 e0       	ldi	r24, 0x01	; 1
    25cc:	6d c0       	rjmp	.+218    	; 0x26a8 <_ZN20OrangutanPushbuttons25getSingleDebouncedReleaseEh+0x162>
    25ce:	80 91 58 02 	lds	r24, 0x0258
    25d2:	90 91 59 02 	lds	r25, 0x0259
    25d6:	a0 91 5a 02 	lds	r26, 0x025A
    25da:	b0 91 5b 02 	lds	r27, 0x025B
    25de:	48 1b       	sub	r20, r24
    25e0:	59 0b       	sbc	r21, r25
    25e2:	6a 0b       	sbc	r22, r26
    25e4:	7b 0b       	sbc	r23, r27
    25e6:	4f 30       	cpi	r20, 0x0F	; 15
    25e8:	51 05       	cpc	r21, r1
    25ea:	61 05       	cpc	r22, r1
    25ec:	71 05       	cpc	r23, r1
    25ee:	08 f4       	brcc	.+2      	; 0x25f2 <_ZN20OrangutanPushbuttons25getSingleDebouncedReleaseEh+0xac>
    25f0:	5d c0       	rjmp	.+186    	; 0x26ac <_ZN20OrangutanPushbuttons25getSingleDebouncedReleaseEh+0x166>
    25f2:	40 91 57 02 	lds	r20, 0x0257
    25f6:	81 2f       	mov	r24, r17
    25f8:	90 e0       	ldi	r25, 0x00	; 0
    25fa:	80 95       	com	r24
    25fc:	90 95       	com	r25
    25fe:	24 2f       	mov	r18, r20
    2600:	30 e0       	ldi	r19, 0x00	; 0
    2602:	82 23       	and	r24, r18
    2604:	93 23       	and	r25, r19
    2606:	89 2b       	or	r24, r25
    2608:	59 f1       	breq	.+86     	; 0x2660 <_ZN20OrangutanPushbuttons25getSingleDebouncedReleaseEh+0x11a>
    260a:	82 e0       	ldi	r24, 0x02	; 2
    260c:	80 93 5c 02 	sts	0x025C, r24
    2610:	10 95       	com	r17
    2612:	14 23       	and	r17, r20
    2614:	10 93 57 02 	sts	0x0257, r17
    2618:	49 c0       	rjmp	.+146    	; 0x26ac <_ZN20OrangutanPushbuttons25getSingleDebouncedReleaseEh+0x166>
    261a:	e0 91 57 02 	lds	r30, 0x0257
    261e:	ae 2f       	mov	r26, r30
    2620:	b0 e0       	ldi	r27, 0x00	; 0
    2622:	21 2f       	mov	r18, r17
    2624:	30 e0       	ldi	r19, 0x00	; 0
    2626:	cd 01       	movw	r24, r26
    2628:	82 23       	and	r24, r18
    262a:	93 23       	and	r25, r19
    262c:	89 2b       	or	r24, r25
    262e:	79 f0       	breq	.+30     	; 0x264e <_ZN20OrangutanPushbuttons25getSingleDebouncedReleaseEh+0x108>
    2630:	83 e0       	ldi	r24, 0x03	; 3
    2632:	80 93 5c 02 	sts	0x025C, r24
    2636:	e1 23       	and	r30, r17
    2638:	e0 93 57 02 	sts	0x0257, r30
    263c:	40 93 58 02 	sts	0x0258, r20
    2640:	50 93 59 02 	sts	0x0259, r21
    2644:	60 93 5a 02 	sts	0x025A, r22
    2648:	70 93 5b 02 	sts	0x025B, r23
    264c:	2f c0       	rjmp	.+94     	; 0x26ac <_ZN20OrangutanPushbuttons25getSingleDebouncedReleaseEh+0x166>
    264e:	80 2f       	mov	r24, r16
    2650:	90 e0       	ldi	r25, 0x00	; 0
    2652:	20 95       	com	r18
    2654:	30 95       	com	r19
    2656:	82 23       	and	r24, r18
    2658:	93 23       	and	r25, r19
    265a:	a8 17       	cp	r26, r24
    265c:	b9 07       	cpc	r27, r25
    265e:	31 f1       	breq	.+76     	; 0x26ac <_ZN20OrangutanPushbuttons25getSingleDebouncedReleaseEh+0x166>
    2660:	10 92 5c 02 	sts	0x025C, r1
    2664:	23 c0       	rjmp	.+70     	; 0x26ac <_ZN20OrangutanPushbuttons25getSingleDebouncedReleaseEh+0x166>
    2666:	80 91 58 02 	lds	r24, 0x0258
    266a:	90 91 59 02 	lds	r25, 0x0259
    266e:	a0 91 5a 02 	lds	r26, 0x025A
    2672:	b0 91 5b 02 	lds	r27, 0x025B
    2676:	48 1b       	sub	r20, r24
    2678:	59 0b       	sbc	r21, r25
    267a:	6a 0b       	sbc	r22, r26
    267c:	7b 0b       	sbc	r23, r27
    267e:	4f 30       	cpi	r20, 0x0F	; 15
    2680:	51 05       	cpc	r21, r1
    2682:	61 05       	cpc	r22, r1
    2684:	71 05       	cpc	r23, r1
    2686:	90 f0       	brcs	.+36     	; 0x26ac <_ZN20OrangutanPushbuttons25getSingleDebouncedReleaseEh+0x166>
    2688:	40 91 57 02 	lds	r20, 0x0257
    268c:	84 2f       	mov	r24, r20
    268e:	90 e0       	ldi	r25, 0x00	; 0
    2690:	21 2f       	mov	r18, r17
    2692:	30 e0       	ldi	r19, 0x00	; 0
    2694:	82 23       	and	r24, r18
    2696:	93 23       	and	r25, r19
    2698:	89 2b       	or	r24, r25
    269a:	29 f0       	breq	.+10     	; 0x26a6 <_ZN20OrangutanPushbuttons25getSingleDebouncedReleaseEh+0x160>
    269c:	10 92 5c 02 	sts	0x025C, r1
    26a0:	84 2f       	mov	r24, r20
    26a2:	81 23       	and	r24, r17
    26a4:	04 c0       	rjmp	.+8      	; 0x26ae <_ZN20OrangutanPushbuttons25getSingleDebouncedReleaseEh+0x168>
    26a6:	82 e0       	ldi	r24, 0x02	; 2
    26a8:	80 93 5c 02 	sts	0x025C, r24
    26ac:	80 e0       	ldi	r24, 0x00	; 0
    26ae:	1f 91       	pop	r17
    26b0:	0f 91       	pop	r16
    26b2:	08 95       	ret

000026b4 <get_single_debounced_button_release>:
    26b4:	0e 94 a3 12 	call	0x2546	; 0x2546 <_ZN20OrangutanPushbuttons25getSingleDebouncedReleaseEh>
    26b8:	08 95       	ret

000026ba <_ZN20OrangutanPushbuttons23getSingleDebouncedPressEh>:
    26ba:	0f 93       	push	r16
    26bc:	1f 93       	push	r17
    26be:	08 2f       	mov	r16, r24
    26c0:	13 b1       	in	r17, 0x03	; 3
    26c2:	10 95       	com	r17
    26c4:	0e 94 69 15 	call	0x2ad2	; 0x2ad2 <_ZN13OrangutanTime2msEv>
    26c8:	ab 01       	movw	r20, r22
    26ca:	bc 01       	movw	r22, r24
    26cc:	80 91 56 02 	lds	r24, 0x0256
    26d0:	88 23       	and	r24, r24
    26d2:	91 f4       	brne	.+36     	; 0x26f8 <_ZN20OrangutanPushbuttons23getSingleDebouncedPressEh+0x3e>
    26d4:	81 e0       	ldi	r24, 0x01	; 1
    26d6:	80 93 56 02 	sts	0x0256, r24
    26da:	84 b1       	in	r24, 0x04	; 4
    26dc:	8d 7c       	andi	r24, 0xCD	; 205
    26de:	84 b9       	out	0x04, r24	; 4
    26e0:	85 b1       	in	r24, 0x05	; 5
    26e2:	82 63       	ori	r24, 0x32	; 50
    26e4:	85 b9       	out	0x05, r24	; 5
    26e6:	85 e0       	ldi	r24, 0x05	; 5
    26e8:	90 e0       	ldi	r25, 0x00	; 0
    26ea:	6f 93       	push	r22
    26ec:	64 e0       	ldi	r22, 0x04	; 4
    26ee:	6a 95       	dec	r22
    26f0:	f1 f7       	brne	.-4      	; 0x26ee <_ZN20OrangutanPushbuttons23getSingleDebouncedPressEh+0x34>
    26f2:	6f 91       	pop	r22
    26f4:	01 97       	sbiw	r24, 0x01	; 1
    26f6:	c9 f7       	brne	.-14     	; 0x26ea <_ZN20OrangutanPushbuttons23getSingleDebouncedPressEh+0x30>
    26f8:	80 91 62 02 	lds	r24, 0x0262
    26fc:	81 30       	cpi	r24, 0x01	; 1
    26fe:	11 f1       	breq	.+68     	; 0x2744 <_ZN20OrangutanPushbuttons23getSingleDebouncedPressEh+0x8a>
    2700:	81 30       	cpi	r24, 0x01	; 1
    2702:	38 f0       	brcs	.+14     	; 0x2712 <_ZN20OrangutanPushbuttons23getSingleDebouncedPressEh+0x58>
    2704:	82 30       	cpi	r24, 0x02	; 2
    2706:	09 f4       	brne	.+2      	; 0x270a <_ZN20OrangutanPushbuttons23getSingleDebouncedPressEh+0x50>
    2708:	43 c0       	rjmp	.+134    	; 0x2790 <_ZN20OrangutanPushbuttons23getSingleDebouncedPressEh+0xd6>
    270a:	83 30       	cpi	r24, 0x03	; 3
    270c:	09 f0       	breq	.+2      	; 0x2710 <_ZN20OrangutanPushbuttons23getSingleDebouncedPressEh+0x56>
    270e:	89 c0       	rjmp	.+274    	; 0x2822 <_ZN20OrangutanPushbuttons23getSingleDebouncedPressEh+0x168>
    2710:	65 c0       	rjmp	.+202    	; 0x27dc <_ZN20OrangutanPushbuttons23getSingleDebouncedPressEh+0x122>
    2712:	20 2f       	mov	r18, r16
    2714:	30 e0       	ldi	r19, 0x00	; 0
    2716:	81 2f       	mov	r24, r17
    2718:	90 e0       	ldi	r25, 0x00	; 0
    271a:	80 95       	com	r24
    271c:	90 95       	com	r25
    271e:	28 23       	and	r18, r24
    2720:	39 23       	and	r19, r25
    2722:	23 2b       	or	r18, r19
    2724:	09 f4       	brne	.+2      	; 0x2728 <_ZN20OrangutanPushbuttons23getSingleDebouncedPressEh+0x6e>
    2726:	7d c0       	rjmp	.+250    	; 0x2822 <_ZN20OrangutanPushbuttons23getSingleDebouncedPressEh+0x168>
    2728:	10 95       	com	r17
    272a:	10 23       	and	r17, r16
    272c:	10 93 5d 02 	sts	0x025D, r17
    2730:	40 93 5e 02 	sts	0x025E, r20
    2734:	50 93 5f 02 	sts	0x025F, r21
    2738:	60 93 60 02 	sts	0x0260, r22
    273c:	70 93 61 02 	sts	0x0261, r23
    2740:	81 e0       	ldi	r24, 0x01	; 1
    2742:	6d c0       	rjmp	.+218    	; 0x281e <_ZN20OrangutanPushbuttons23getSingleDebouncedPressEh+0x164>
    2744:	80 91 5e 02 	lds	r24, 0x025E
    2748:	90 91 5f 02 	lds	r25, 0x025F
    274c:	a0 91 60 02 	lds	r26, 0x0260
    2750:	b0 91 61 02 	lds	r27, 0x0261
    2754:	48 1b       	sub	r20, r24
    2756:	59 0b       	sbc	r21, r25
    2758:	6a 0b       	sbc	r22, r26
    275a:	7b 0b       	sbc	r23, r27
    275c:	4f 30       	cpi	r20, 0x0F	; 15
    275e:	51 05       	cpc	r21, r1
    2760:	61 05       	cpc	r22, r1
    2762:	71 05       	cpc	r23, r1
    2764:	08 f4       	brcc	.+2      	; 0x2768 <_ZN20OrangutanPushbuttons23getSingleDebouncedPressEh+0xae>
    2766:	5d c0       	rjmp	.+186    	; 0x2822 <_ZN20OrangutanPushbuttons23getSingleDebouncedPressEh+0x168>
    2768:	40 91 5d 02 	lds	r20, 0x025D
    276c:	81 2f       	mov	r24, r17
    276e:	90 e0       	ldi	r25, 0x00	; 0
    2770:	80 95       	com	r24
    2772:	90 95       	com	r25
    2774:	24 2f       	mov	r18, r20
    2776:	30 e0       	ldi	r19, 0x00	; 0
    2778:	82 23       	and	r24, r18
    277a:	93 23       	and	r25, r19
    277c:	89 2b       	or	r24, r25
    277e:	59 f1       	breq	.+86     	; 0x27d6 <_ZN20OrangutanPushbuttons23getSingleDebouncedPressEh+0x11c>
    2780:	82 e0       	ldi	r24, 0x02	; 2
    2782:	80 93 62 02 	sts	0x0262, r24
    2786:	10 95       	com	r17
    2788:	14 23       	and	r17, r20
    278a:	10 93 5d 02 	sts	0x025D, r17
    278e:	49 c0       	rjmp	.+146    	; 0x2822 <_ZN20OrangutanPushbuttons23getSingleDebouncedPressEh+0x168>
    2790:	a0 91 5d 02 	lds	r26, 0x025D
    2794:	21 2f       	mov	r18, r17
    2796:	30 e0       	ldi	r19, 0x00	; 0
    2798:	ea 2f       	mov	r30, r26
    279a:	f0 e0       	ldi	r31, 0x00	; 0
    279c:	c9 01       	movw	r24, r18
    279e:	8e 23       	and	r24, r30
    27a0:	9f 23       	and	r25, r31
    27a2:	89 2b       	or	r24, r25
    27a4:	79 f0       	breq	.+30     	; 0x27c4 <_ZN20OrangutanPushbuttons23getSingleDebouncedPressEh+0x10a>
    27a6:	83 e0       	ldi	r24, 0x03	; 3
    27a8:	80 93 62 02 	sts	0x0262, r24
    27ac:	1a 23       	and	r17, r26
    27ae:	10 93 5d 02 	sts	0x025D, r17
    27b2:	40 93 5e 02 	sts	0x025E, r20
    27b6:	50 93 5f 02 	sts	0x025F, r21
    27ba:	60 93 60 02 	sts	0x0260, r22
    27be:	70 93 61 02 	sts	0x0261, r23
    27c2:	2f c0       	rjmp	.+94     	; 0x2822 <_ZN20OrangutanPushbuttons23getSingleDebouncedPressEh+0x168>
    27c4:	80 2f       	mov	r24, r16
    27c6:	90 e0       	ldi	r25, 0x00	; 0
    27c8:	20 95       	com	r18
    27ca:	30 95       	com	r19
    27cc:	82 23       	and	r24, r18
    27ce:	93 23       	and	r25, r19
    27d0:	e8 17       	cp	r30, r24
    27d2:	f9 07       	cpc	r31, r25
    27d4:	31 f1       	breq	.+76     	; 0x2822 <_ZN20OrangutanPushbuttons23getSingleDebouncedPressEh+0x168>
    27d6:	10 92 62 02 	sts	0x0262, r1
    27da:	23 c0       	rjmp	.+70     	; 0x2822 <_ZN20OrangutanPushbuttons23getSingleDebouncedPressEh+0x168>
    27dc:	80 91 5e 02 	lds	r24, 0x025E
    27e0:	90 91 5f 02 	lds	r25, 0x025F
    27e4:	a0 91 60 02 	lds	r26, 0x0260
    27e8:	b0 91 61 02 	lds	r27, 0x0261
    27ec:	48 1b       	sub	r20, r24
    27ee:	59 0b       	sbc	r21, r25
    27f0:	6a 0b       	sbc	r22, r26
    27f2:	7b 0b       	sbc	r23, r27
    27f4:	4f 30       	cpi	r20, 0x0F	; 15
    27f6:	51 05       	cpc	r21, r1
    27f8:	61 05       	cpc	r22, r1
    27fa:	71 05       	cpc	r23, r1
    27fc:	90 f0       	brcs	.+36     	; 0x2822 <_ZN20OrangutanPushbuttons23getSingleDebouncedPressEh+0x168>
    27fe:	40 91 5d 02 	lds	r20, 0x025D
    2802:	81 2f       	mov	r24, r17
    2804:	90 e0       	ldi	r25, 0x00	; 0
    2806:	24 2f       	mov	r18, r20
    2808:	30 e0       	ldi	r19, 0x00	; 0
    280a:	82 23       	and	r24, r18
    280c:	93 23       	and	r25, r19
    280e:	89 2b       	or	r24, r25
    2810:	29 f0       	breq	.+10     	; 0x281c <_ZN20OrangutanPushbuttons23getSingleDebouncedPressEh+0x162>
    2812:	10 92 62 02 	sts	0x0262, r1
    2816:	81 2f       	mov	r24, r17
    2818:	84 23       	and	r24, r20
    281a:	04 c0       	rjmp	.+8      	; 0x2824 <_ZN20OrangutanPushbuttons23getSingleDebouncedPressEh+0x16a>
    281c:	82 e0       	ldi	r24, 0x02	; 2
    281e:	80 93 62 02 	sts	0x0262, r24
    2822:	80 e0       	ldi	r24, 0x00	; 0
    2824:	1f 91       	pop	r17
    2826:	0f 91       	pop	r16
    2828:	08 95       	ret

0000282a <get_single_debounced_button_press>:
    282a:	0e 94 5d 13 	call	0x26ba	; 0x26ba <_ZN20OrangutanPushbuttons23getSingleDebouncedPressEh>
    282e:	08 95       	ret

00002830 <_ZN20OrangutanPushbuttons14waitForReleaseEh>:
    2830:	1f 93       	push	r17
    2832:	cf 93       	push	r28
    2834:	df 93       	push	r29
    2836:	18 2f       	mov	r17, r24
    2838:	80 91 56 02 	lds	r24, 0x0256
    283c:	88 23       	and	r24, r24
    283e:	91 f4       	brne	.+36     	; 0x2864 <_ZN20OrangutanPushbuttons14waitForReleaseEh+0x34>
    2840:	81 e0       	ldi	r24, 0x01	; 1
    2842:	80 93 56 02 	sts	0x0256, r24
    2846:	84 b1       	in	r24, 0x04	; 4
    2848:	8d 7c       	andi	r24, 0xCD	; 205
    284a:	84 b9       	out	0x04, r24	; 4
    284c:	85 b1       	in	r24, 0x05	; 5
    284e:	82 63       	ori	r24, 0x32	; 50
    2850:	85 b9       	out	0x05, r24	; 5
    2852:	85 e0       	ldi	r24, 0x05	; 5
    2854:	90 e0       	ldi	r25, 0x00	; 0
    2856:	6f 93       	push	r22
    2858:	64 e0       	ldi	r22, 0x04	; 4
    285a:	6a 95       	dec	r22
    285c:	f1 f7       	brne	.-4      	; 0x285a <_ZN20OrangutanPushbuttons14waitForReleaseEh+0x2a>
    285e:	6f 91       	pop	r22
    2860:	01 97       	sbiw	r24, 0x01	; 1
    2862:	c9 f7       	brne	.-14     	; 0x2856 <_ZN20OrangutanPushbuttons14waitForReleaseEh+0x26>
    2864:	c1 2f       	mov	r28, r17
    2866:	d0 e0       	ldi	r29, 0x00	; 0
    2868:	83 b1       	in	r24, 0x03	; 3
    286a:	90 e0       	ldi	r25, 0x00	; 0
    286c:	8c 23       	and	r24, r28
    286e:	9d 23       	and	r25, r29
    2870:	89 2b       	or	r24, r25
    2872:	d1 f3       	breq	.-12     	; 0x2868 <_ZN20OrangutanPushbuttons14waitForReleaseEh+0x38>
    2874:	8a e0       	ldi	r24, 0x0A	; 10
    2876:	90 e0       	ldi	r25, 0x00	; 0
    2878:	0e 94 38 15 	call	0x2a70	; 0x2a70 <_ZN13OrangutanTime17delayMillisecondsEj>
    287c:	83 b1       	in	r24, 0x03	; 3
    287e:	90 e0       	ldi	r25, 0x00	; 0
    2880:	8c 23       	and	r24, r28
    2882:	9d 23       	and	r25, r29
    2884:	89 2b       	or	r24, r25
    2886:	81 f3       	breq	.-32     	; 0x2868 <_ZN20OrangutanPushbuttons14waitForReleaseEh+0x38>
    2888:	83 b1       	in	r24, 0x03	; 3
    288a:	81 23       	and	r24, r17
    288c:	df 91       	pop	r29
    288e:	cf 91       	pop	r28
    2890:	1f 91       	pop	r17
    2892:	08 95       	ret

00002894 <wait_for_button_release>:
    2894:	0e 94 18 14 	call	0x2830	; 0x2830 <_ZN20OrangutanPushbuttons14waitForReleaseEh>
    2898:	08 95       	ret

0000289a <_ZN20OrangutanPushbuttons12waitForPressEh>:
    289a:	1f 93       	push	r17
    289c:	cf 93       	push	r28
    289e:	df 93       	push	r29
    28a0:	18 2f       	mov	r17, r24
    28a2:	80 91 56 02 	lds	r24, 0x0256
    28a6:	88 23       	and	r24, r24
    28a8:	91 f4       	brne	.+36     	; 0x28ce <_ZN20OrangutanPushbuttons12waitForPressEh+0x34>
    28aa:	81 e0       	ldi	r24, 0x01	; 1
    28ac:	80 93 56 02 	sts	0x0256, r24
    28b0:	84 b1       	in	r24, 0x04	; 4
    28b2:	8d 7c       	andi	r24, 0xCD	; 205
    28b4:	84 b9       	out	0x04, r24	; 4
    28b6:	85 b1       	in	r24, 0x05	; 5
    28b8:	82 63       	ori	r24, 0x32	; 50
    28ba:	85 b9       	out	0x05, r24	; 5
    28bc:	85 e0       	ldi	r24, 0x05	; 5
    28be:	90 e0       	ldi	r25, 0x00	; 0
    28c0:	6f 93       	push	r22
    28c2:	64 e0       	ldi	r22, 0x04	; 4
    28c4:	6a 95       	dec	r22
    28c6:	f1 f7       	brne	.-4      	; 0x28c4 <_ZN20OrangutanPushbuttons12waitForPressEh+0x2a>
    28c8:	6f 91       	pop	r22
    28ca:	01 97       	sbiw	r24, 0x01	; 1
    28cc:	c9 f7       	brne	.-14     	; 0x28c0 <_ZN20OrangutanPushbuttons12waitForPressEh+0x26>
    28ce:	c1 2f       	mov	r28, r17
    28d0:	d0 e0       	ldi	r29, 0x00	; 0
    28d2:	83 b1       	in	r24, 0x03	; 3
    28d4:	90 e0       	ldi	r25, 0x00	; 0
    28d6:	80 95       	com	r24
    28d8:	90 95       	com	r25
    28da:	8c 23       	and	r24, r28
    28dc:	9d 23       	and	r25, r29
    28de:	89 2b       	or	r24, r25
    28e0:	c1 f3       	breq	.-16     	; 0x28d2 <_ZN20OrangutanPushbuttons12waitForPressEh+0x38>
    28e2:	8a e0       	ldi	r24, 0x0A	; 10
    28e4:	90 e0       	ldi	r25, 0x00	; 0
    28e6:	0e 94 38 15 	call	0x2a70	; 0x2a70 <_ZN13OrangutanTime17delayMillisecondsEj>
    28ea:	83 b1       	in	r24, 0x03	; 3
    28ec:	90 e0       	ldi	r25, 0x00	; 0
    28ee:	80 95       	com	r24
    28f0:	90 95       	com	r25
    28f2:	8c 23       	and	r24, r28
    28f4:	9d 23       	and	r25, r29
    28f6:	89 2b       	or	r24, r25
    28f8:	61 f3       	breq	.-40     	; 0x28d2 <_ZN20OrangutanPushbuttons12waitForPressEh+0x38>
    28fa:	83 b1       	in	r24, 0x03	; 3
    28fc:	80 95       	com	r24
    28fe:	81 23       	and	r24, r17
    2900:	df 91       	pop	r29
    2902:	cf 91       	pop	r28
    2904:	1f 91       	pop	r17
    2906:	08 95       	ret

00002908 <_ZN20OrangutanPushbuttons13waitForButtonEh>:
    2908:	1f 93       	push	r17
    290a:	0e 94 4d 14 	call	0x289a	; 0x289a <_ZN20OrangutanPushbuttons12waitForPressEh>
    290e:	18 2f       	mov	r17, r24
    2910:	0e 94 18 14 	call	0x2830	; 0x2830 <_ZN20OrangutanPushbuttons14waitForReleaseEh>
    2914:	81 2f       	mov	r24, r17
    2916:	1f 91       	pop	r17
    2918:	08 95       	ret

0000291a <wait_for_button>:
    291a:	0e 94 84 14 	call	0x2908	; 0x2908 <_ZN20OrangutanPushbuttons13waitForButtonEh>
    291e:	08 95       	ret

00002920 <wait_for_button_press>:
    2920:	0e 94 4d 14 	call	0x289a	; 0x289a <_ZN20OrangutanPushbuttons12waitForPressEh>
    2924:	08 95       	ret

00002926 <get_free_ram>:
    2926:	a2 e0       	ldi	r26, 0x02	; 2
    2928:	b0 e0       	ldi	r27, 0x00	; 0
    292a:	e9 e9       	ldi	r30, 0x99	; 153
    292c:	f4 e1       	ldi	r31, 0x14	; 20
    292e:	0c 94 72 16 	jmp	0x2ce4	; 0x2ce4 <__prologue_saves__+0x20>
    2932:	20 91 71 02 	lds	r18, 0x0271
    2936:	30 91 72 02 	lds	r19, 0x0272
    293a:	ce 01       	movw	r24, r28
    293c:	01 96       	adiw	r24, 0x01	; 1
    293e:	21 15       	cp	r18, r1
    2940:	31 05       	cpc	r19, r1
    2942:	19 f4       	brne	.+6      	; 0x294a <get_free_ram+0x24>
    2944:	8b 57       	subi	r24, 0x7B	; 123
    2946:	92 40       	sbci	r25, 0x02	; 2
    2948:	02 c0       	rjmp	.+4      	; 0x294e <get_free_ram+0x28>
    294a:	82 1b       	sub	r24, r18
    294c:	93 0b       	sbc	r25, r19
    294e:	9a 83       	std	Y+2, r25	; 0x02
    2950:	89 83       	std	Y+1, r24	; 0x01
    2952:	89 81       	ldd	r24, Y+1	; 0x01
    2954:	9a 81       	ldd	r25, Y+2	; 0x02
    2956:	22 96       	adiw	r28, 0x02	; 2
    2958:	e2 e0       	ldi	r30, 0x02	; 2
    295a:	0c 94 8e 16 	jmp	0x2d1c	; 0x2d1c <__epilogue_restores__+0x20>

0000295e <_ZN18OrangutanResourcesC2Ev>:
    295e:	08 95       	ret

00002960 <_ZN18OrangutanResourcesC1Ev>:
    2960:	08 95       	ret

00002962 <_ZN18OrangutanResources10getFreeRAMEv>:
    2962:	a2 e0       	ldi	r26, 0x02	; 2
    2964:	b0 e0       	ldi	r27, 0x00	; 0
    2966:	e7 eb       	ldi	r30, 0xB7	; 183
    2968:	f4 e1       	ldi	r31, 0x14	; 20
    296a:	0c 94 72 16 	jmp	0x2ce4	; 0x2ce4 <__prologue_saves__+0x20>
    296e:	20 91 71 02 	lds	r18, 0x0271
    2972:	30 91 72 02 	lds	r19, 0x0272
    2976:	ce 01       	movw	r24, r28
    2978:	01 96       	adiw	r24, 0x01	; 1
    297a:	21 15       	cp	r18, r1
    297c:	31 05       	cpc	r19, r1
    297e:	19 f4       	brne	.+6      	; 0x2986 <_ZN18OrangutanResources10getFreeRAMEv+0x24>
    2980:	8b 57       	subi	r24, 0x7B	; 123
    2982:	92 40       	sbci	r25, 0x02	; 2
    2984:	02 c0       	rjmp	.+4      	; 0x298a <_ZN18OrangutanResources10getFreeRAMEv+0x28>
    2986:	82 1b       	sub	r24, r18
    2988:	93 0b       	sbc	r25, r19
    298a:	9a 83       	std	Y+2, r25	; 0x02
    298c:	89 83       	std	Y+1, r24	; 0x01
    298e:	89 81       	ldd	r24, Y+1	; 0x01
    2990:	9a 81       	ldd	r25, Y+2	; 0x02
    2992:	22 96       	adiw	r28, 0x02	; 2
    2994:	e2 e0       	ldi	r30, 0x02	; 2
    2996:	0c 94 8e 16 	jmp	0x2d1c	; 0x2d1c <__epilogue_restores__+0x20>

0000299a <__vector_9>:
    299a:	2f 92       	push	r2
    299c:	8f 93       	push	r24
    299e:	9f 93       	push	r25
    29a0:	2f b6       	in	r2, 0x3f	; 63
    29a2:	80 91 67 02 	lds	r24, 0x0267
    29a6:	90 91 68 02 	lds	r25, 0x0268
    29aa:	01 96       	adiw	r24, 0x01	; 1
    29ac:	80 93 67 02 	sts	0x0267, r24
    29b0:	90 93 68 02 	sts	0x0268, r25
    29b4:	90 e0       	ldi	r25, 0x00	; 0
    29b6:	80 91 69 02 	lds	r24, 0x0269
    29ba:	89 1f       	adc	r24, r25
    29bc:	80 93 69 02 	sts	0x0269, r24
    29c0:	90 91 6f 02 	lds	r25, 0x026F
    29c4:	9c 5f       	subi	r25, 0xFC	; 252
    29c6:	90 93 6f 02 	sts	0x026F, r25
    29ca:	80 91 6e 02 	lds	r24, 0x026E
    29ce:	80 51       	subi	r24, 0x10	; 16
    29d0:	97 42       	sbci	r25, 0x27	; 39
    29d2:	c0 f0       	brcs	.+48     	; 0x2a04 <end>
    29d4:	90 93 6f 02 	sts	0x026F, r25
    29d8:	80 93 6e 02 	sts	0x026E, r24
    29dc:	80 91 6a 02 	lds	r24, 0x026A
    29e0:	90 91 6b 02 	lds	r25, 0x026B
    29e4:	01 96       	adiw	r24, 0x01	; 1
    29e6:	80 93 6a 02 	sts	0x026A, r24
    29ea:	90 93 6b 02 	sts	0x026B, r25
    29ee:	90 e0       	ldi	r25, 0x00	; 0
    29f0:	80 91 6c 02 	lds	r24, 0x026C
    29f4:	89 1f       	adc	r24, r25
    29f6:	80 93 6c 02 	sts	0x026C, r24
    29fa:	80 91 6d 02 	lds	r24, 0x026D
    29fe:	89 1f       	adc	r24, r25
    2a00:	80 93 6d 02 	sts	0x026D, r24

00002a04 <end>:
    2a04:	2f be       	out	0x3f, r2	; 63
    2a06:	9f 91       	pop	r25
    2a08:	8f 91       	pop	r24
    2a0a:	2f 90       	pop	r2
    2a0c:	18 95       	reti

00002a0e <ticks_to_microseconds>:
    2a0e:	6f 5f       	subi	r22, 0xFF	; 255
    2a10:	7f 4f       	sbci	r23, 0xFF	; 255
    2a12:	8f 4f       	sbci	r24, 0xFF	; 255
    2a14:	9f 4f       	sbci	r25, 0xFF	; 255
    2a16:	66 0f       	add	r22, r22
    2a18:	77 1f       	adc	r23, r23
    2a1a:	88 1f       	adc	r24, r24
    2a1c:	99 1f       	adc	r25, r25
    2a1e:	25 e0       	ldi	r18, 0x05	; 5
    2a20:	30 e0       	ldi	r19, 0x00	; 0
    2a22:	40 e0       	ldi	r20, 0x00	; 0
    2a24:	50 e0       	ldi	r21, 0x00	; 0
    2a26:	0e 94 25 16 	call	0x2c4a	; 0x2c4a <__udivmodsi4>
    2a2a:	ca 01       	movw	r24, r20
    2a2c:	b9 01       	movw	r22, r18
    2a2e:	08 95       	ret

00002a30 <delay_ms>:
    2a30:	28 ee       	ldi	r18, 0xE8	; 232
    2a32:	33 e0       	ldi	r19, 0x03	; 3
    2a34:	09 c0       	rjmp	.+18     	; 0x2a48 <delay_ms+0x18>
    2a36:	f9 01       	movw	r30, r18
    2a38:	6f 93       	push	r22
    2a3a:	64 e0       	ldi	r22, 0x04	; 4
    2a3c:	6a 95       	dec	r22
    2a3e:	f1 f7       	brne	.-4      	; 0x2a3c <delay_ms+0xc>
    2a40:	6f 91       	pop	r22
    2a42:	31 97       	sbiw	r30, 0x01	; 1
    2a44:	c9 f7       	brne	.-14     	; 0x2a38 <delay_ms+0x8>
    2a46:	01 97       	sbiw	r24, 0x01	; 1
    2a48:	00 97       	sbiw	r24, 0x00	; 0
    2a4a:	a9 f7       	brne	.-22     	; 0x2a36 <delay_ms+0x6>
    2a4c:	08 95       	ret

00002a4e <_ZN13OrangutanTime19ticksToMicrosecondsEm>:
    2a4e:	6f 5f       	subi	r22, 0xFF	; 255
    2a50:	7f 4f       	sbci	r23, 0xFF	; 255
    2a52:	8f 4f       	sbci	r24, 0xFF	; 255
    2a54:	9f 4f       	sbci	r25, 0xFF	; 255
    2a56:	66 0f       	add	r22, r22
    2a58:	77 1f       	adc	r23, r23
    2a5a:	88 1f       	adc	r24, r24
    2a5c:	99 1f       	adc	r25, r25
    2a5e:	25 e0       	ldi	r18, 0x05	; 5
    2a60:	30 e0       	ldi	r19, 0x00	; 0
    2a62:	40 e0       	ldi	r20, 0x00	; 0
    2a64:	50 e0       	ldi	r21, 0x00	; 0
    2a66:	0e 94 25 16 	call	0x2c4a	; 0x2c4a <__udivmodsi4>
    2a6a:	ca 01       	movw	r24, r20
    2a6c:	b9 01       	movw	r22, r18
    2a6e:	08 95       	ret

00002a70 <_ZN13OrangutanTime17delayMillisecondsEj>:
    2a70:	28 ee       	ldi	r18, 0xE8	; 232
    2a72:	33 e0       	ldi	r19, 0x03	; 3
    2a74:	09 c0       	rjmp	.+18     	; 0x2a88 <_ZN13OrangutanTime17delayMillisecondsEj+0x18>
    2a76:	f9 01       	movw	r30, r18
    2a78:	6f 93       	push	r22
    2a7a:	64 e0       	ldi	r22, 0x04	; 4
    2a7c:	6a 95       	dec	r22
    2a7e:	f1 f7       	brne	.-4      	; 0x2a7c <_ZN13OrangutanTime17delayMillisecondsEj+0xc>
    2a80:	6f 91       	pop	r22
    2a82:	31 97       	sbiw	r30, 0x01	; 1
    2a84:	c9 f7       	brne	.-14     	; 0x2a78 <_ZN13OrangutanTime17delayMillisecondsEj+0x8>
    2a86:	01 97       	sbiw	r24, 0x01	; 1
    2a88:	00 97       	sbiw	r24, 0x00	; 0
    2a8a:	a9 f7       	brne	.-22     	; 0x2a76 <_ZN13OrangutanTime17delayMillisecondsEj+0x6>
    2a8c:	08 95       	ret

00002a8e <_ZN13OrangutanTime5init2Ev>:
    2a8e:	a0 e7       	ldi	r26, 0x70	; 112
    2a90:	b0 e0       	ldi	r27, 0x00	; 0
    2a92:	8c 91       	ld	r24, X
    2a94:	8e 7f       	andi	r24, 0xFE	; 254
    2a96:	8c 93       	st	X, r24
    2a98:	e0 eb       	ldi	r30, 0xB0	; 176
    2a9a:	f0 e0       	ldi	r31, 0x00	; 0
    2a9c:	80 81       	ld	r24, Z
    2a9e:	83 60       	ori	r24, 0x03	; 3
    2aa0:	80 83       	st	Z, r24
    2aa2:	e1 eb       	ldi	r30, 0xB1	; 177
    2aa4:	f0 e0       	ldi	r31, 0x00	; 0
    2aa6:	80 81       	ld	r24, Z
    2aa8:	80 7f       	andi	r24, 0xF0	; 240
    2aaa:	80 83       	st	Z, r24
    2aac:	80 81       	ld	r24, Z
    2aae:	82 60       	ori	r24, 0x02	; 2
    2ab0:	80 83       	st	Z, r24
    2ab2:	b8 9a       	sbi	0x17, 0	; 23
    2ab4:	8c 91       	ld	r24, X
    2ab6:	81 60       	ori	r24, 0x01	; 1
    2ab8:	8c 93       	st	X, r24
    2aba:	78 94       	sei
    2abc:	08 95       	ret

00002abe <_ZN13OrangutanTime4initEv>:
    2abe:	80 91 70 02 	lds	r24, 0x0270
    2ac2:	88 23       	and	r24, r24
    2ac4:	29 f4       	brne	.+10     	; 0x2ad0 <_ZN13OrangutanTime4initEv+0x12>
    2ac6:	81 e0       	ldi	r24, 0x01	; 1
    2ac8:	80 93 70 02 	sts	0x0270, r24
    2acc:	0e 94 47 15 	call	0x2a8e	; 0x2a8e <_ZN13OrangutanTime5init2Ev>
    2ad0:	08 95       	ret

00002ad2 <_ZN13OrangutanTime2msEv>:
    2ad2:	0e 94 5f 15 	call	0x2abe	; 0x2abe <_ZN13OrangutanTime4initEv>
    2ad6:	e0 e7       	ldi	r30, 0x70	; 112
    2ad8:	f0 e0       	ldi	r31, 0x00	; 0
    2ada:	80 81       	ld	r24, Z
    2adc:	8e 7f       	andi	r24, 0xFE	; 254
    2ade:	80 83       	st	Z, r24
    2ae0:	20 91 6a 02 	lds	r18, 0x026A
    2ae4:	30 91 6b 02 	lds	r19, 0x026B
    2ae8:	40 91 6c 02 	lds	r20, 0x026C
    2aec:	50 91 6d 02 	lds	r21, 0x026D
    2af0:	80 81       	ld	r24, Z
    2af2:	81 60       	ori	r24, 0x01	; 1
    2af4:	80 83       	st	Z, r24
    2af6:	b9 01       	movw	r22, r18
    2af8:	ca 01       	movw	r24, r20
    2afa:	08 95       	ret

00002afc <get_ms>:
    2afc:	0e 94 69 15 	call	0x2ad2	; 0x2ad2 <_ZN13OrangutanTime2msEv>
    2b00:	08 95       	ret

00002b02 <_ZN13OrangutanTime5ticksEv>:
    2b02:	0e 94 5f 15 	call	0x2abe	; 0x2abe <_ZN13OrangutanTime4initEv>
    2b06:	80 91 70 00 	lds	r24, 0x0070
    2b0a:	8e 7f       	andi	r24, 0xFE	; 254
    2b0c:	80 93 70 00 	sts	0x0070, r24
    2b10:	60 91 b2 00 	lds	r22, 0x00B2
    2b14:	80 91 66 02 	lds	r24, 0x0266
    2b18:	90 91 67 02 	lds	r25, 0x0267
    2b1c:	a0 91 68 02 	lds	r26, 0x0268
    2b20:	b0 91 69 02 	lds	r27, 0x0269
    2b24:	b8 99       	sbic	0x17, 0	; 23
    2b26:	05 c0       	rjmp	.+10     	; 0x2b32 <_ZN13OrangutanTime5ticksEv+0x30>
    2b28:	26 2f       	mov	r18, r22
    2b2a:	30 e0       	ldi	r19, 0x00	; 0
    2b2c:	40 e0       	ldi	r20, 0x00	; 0
    2b2e:	50 e0       	ldi	r21, 0x00	; 0
    2b30:	11 c0       	rjmp	.+34     	; 0x2b54 <_ZN13OrangutanTime5ticksEv+0x52>
    2b32:	80 91 b2 00 	lds	r24, 0x00B2
    2b36:	20 91 66 02 	lds	r18, 0x0266
    2b3a:	30 91 67 02 	lds	r19, 0x0267
    2b3e:	40 91 68 02 	lds	r20, 0x0268
    2b42:	50 91 69 02 	lds	r21, 0x0269
    2b46:	20 50       	subi	r18, 0x00	; 0
    2b48:	3f 4f       	sbci	r19, 0xFF	; 255
    2b4a:	4f 4f       	sbci	r20, 0xFF	; 255
    2b4c:	5f 4f       	sbci	r21, 0xFF	; 255
    2b4e:	90 e0       	ldi	r25, 0x00	; 0
    2b50:	a0 e0       	ldi	r26, 0x00	; 0
    2b52:	b0 e0       	ldi	r27, 0x00	; 0
    2b54:	28 2b       	or	r18, r24
    2b56:	39 2b       	or	r19, r25
    2b58:	4a 2b       	or	r20, r26
    2b5a:	5b 2b       	or	r21, r27
    2b5c:	80 91 70 00 	lds	r24, 0x0070
    2b60:	81 60       	ori	r24, 0x01	; 1
    2b62:	80 93 70 00 	sts	0x0070, r24
    2b66:	b9 01       	movw	r22, r18
    2b68:	ca 01       	movw	r24, r20
    2b6a:	08 95       	ret

00002b6c <get_ticks>:
    2b6c:	0e 94 81 15 	call	0x2b02	; 0x2b02 <_ZN13OrangutanTime5ticksEv>
    2b70:	08 95       	ret

00002b72 <_ZN13OrangutanTime5resetEv>:
    2b72:	0e 94 5f 15 	call	0x2abe	; 0x2abe <_ZN13OrangutanTime4initEv>
    2b76:	e0 e7       	ldi	r30, 0x70	; 112
    2b78:	f0 e0       	ldi	r31, 0x00	; 0
    2b7a:	80 81       	ld	r24, Z
    2b7c:	8e 7f       	andi	r24, 0xFE	; 254
    2b7e:	80 83       	st	Z, r24
    2b80:	10 92 6a 02 	sts	0x026A, r1
    2b84:	10 92 6b 02 	sts	0x026B, r1
    2b88:	10 92 6c 02 	sts	0x026C, r1
    2b8c:	10 92 6d 02 	sts	0x026D, r1
    2b90:	10 92 6f 02 	sts	0x026F, r1
    2b94:	10 92 6e 02 	sts	0x026E, r1
    2b98:	80 81       	ld	r24, Z
    2b9a:	81 60       	ori	r24, 0x01	; 1
    2b9c:	80 83       	st	Z, r24
    2b9e:	08 95       	ret

00002ba0 <time_reset>:
    2ba0:	0e 94 b9 15 	call	0x2b72	; 0x2b72 <_ZN13OrangutanTime5resetEv>
    2ba4:	08 95       	ret

00002ba6 <__mulsi3>:
    2ba6:	62 9f       	mul	r22, r18
    2ba8:	d0 01       	movw	r26, r0
    2baa:	73 9f       	mul	r23, r19
    2bac:	f0 01       	movw	r30, r0
    2bae:	82 9f       	mul	r24, r18
    2bb0:	e0 0d       	add	r30, r0
    2bb2:	f1 1d       	adc	r31, r1
    2bb4:	64 9f       	mul	r22, r20
    2bb6:	e0 0d       	add	r30, r0
    2bb8:	f1 1d       	adc	r31, r1
    2bba:	92 9f       	mul	r25, r18
    2bbc:	f0 0d       	add	r31, r0
    2bbe:	83 9f       	mul	r24, r19
    2bc0:	f0 0d       	add	r31, r0
    2bc2:	74 9f       	mul	r23, r20
    2bc4:	f0 0d       	add	r31, r0
    2bc6:	65 9f       	mul	r22, r21
    2bc8:	f0 0d       	add	r31, r0
    2bca:	99 27       	eor	r25, r25
    2bcc:	72 9f       	mul	r23, r18
    2bce:	b0 0d       	add	r27, r0
    2bd0:	e1 1d       	adc	r30, r1
    2bd2:	f9 1f       	adc	r31, r25
    2bd4:	63 9f       	mul	r22, r19
    2bd6:	b0 0d       	add	r27, r0
    2bd8:	e1 1d       	adc	r30, r1
    2bda:	f9 1f       	adc	r31, r25
    2bdc:	bd 01       	movw	r22, r26
    2bde:	cf 01       	movw	r24, r30
    2be0:	11 24       	eor	r1, r1
    2be2:	08 95       	ret

00002be4 <__udivmodqi4>:
    2be4:	99 1b       	sub	r25, r25
    2be6:	79 e0       	ldi	r23, 0x09	; 9
    2be8:	04 c0       	rjmp	.+8      	; 0x2bf2 <__udivmodqi4_ep>

00002bea <__udivmodqi4_loop>:
    2bea:	99 1f       	adc	r25, r25
    2bec:	96 17       	cp	r25, r22
    2bee:	08 f0       	brcs	.+2      	; 0x2bf2 <__udivmodqi4_ep>
    2bf0:	96 1b       	sub	r25, r22

00002bf2 <__udivmodqi4_ep>:
    2bf2:	88 1f       	adc	r24, r24
    2bf4:	7a 95       	dec	r23
    2bf6:	c9 f7       	brne	.-14     	; 0x2bea <__udivmodqi4_loop>
    2bf8:	80 95       	com	r24
    2bfa:	08 95       	ret

00002bfc <__udivmodhi4>:
    2bfc:	aa 1b       	sub	r26, r26
    2bfe:	bb 1b       	sub	r27, r27
    2c00:	51 e1       	ldi	r21, 0x11	; 17
    2c02:	07 c0       	rjmp	.+14     	; 0x2c12 <__udivmodhi4_ep>

00002c04 <__udivmodhi4_loop>:
    2c04:	aa 1f       	adc	r26, r26
    2c06:	bb 1f       	adc	r27, r27
    2c08:	a6 17       	cp	r26, r22
    2c0a:	b7 07       	cpc	r27, r23
    2c0c:	10 f0       	brcs	.+4      	; 0x2c12 <__udivmodhi4_ep>
    2c0e:	a6 1b       	sub	r26, r22
    2c10:	b7 0b       	sbc	r27, r23

00002c12 <__udivmodhi4_ep>:
    2c12:	88 1f       	adc	r24, r24
    2c14:	99 1f       	adc	r25, r25
    2c16:	5a 95       	dec	r21
    2c18:	a9 f7       	brne	.-22     	; 0x2c04 <__udivmodhi4_loop>
    2c1a:	80 95       	com	r24
    2c1c:	90 95       	com	r25
    2c1e:	bc 01       	movw	r22, r24
    2c20:	cd 01       	movw	r24, r26
    2c22:	08 95       	ret

00002c24 <__divmodhi4>:
    2c24:	97 fb       	bst	r25, 7
    2c26:	09 2e       	mov	r0, r25
    2c28:	07 26       	eor	r0, r23
    2c2a:	0a d0       	rcall	.+20     	; 0x2c40 <__divmodhi4_neg1>
    2c2c:	77 fd       	sbrc	r23, 7
    2c2e:	04 d0       	rcall	.+8      	; 0x2c38 <__divmodhi4_neg2>
    2c30:	e5 df       	rcall	.-54     	; 0x2bfc <__udivmodhi4>
    2c32:	06 d0       	rcall	.+12     	; 0x2c40 <__divmodhi4_neg1>
    2c34:	00 20       	and	r0, r0
    2c36:	1a f4       	brpl	.+6      	; 0x2c3e <__divmodhi4_exit>

00002c38 <__divmodhi4_neg2>:
    2c38:	70 95       	com	r23
    2c3a:	61 95       	neg	r22
    2c3c:	7f 4f       	sbci	r23, 0xFF	; 255

00002c3e <__divmodhi4_exit>:
    2c3e:	08 95       	ret

00002c40 <__divmodhi4_neg1>:
    2c40:	f6 f7       	brtc	.-4      	; 0x2c3e <__divmodhi4_exit>
    2c42:	90 95       	com	r25
    2c44:	81 95       	neg	r24
    2c46:	9f 4f       	sbci	r25, 0xFF	; 255
    2c48:	08 95       	ret

00002c4a <__udivmodsi4>:
    2c4a:	a1 e2       	ldi	r26, 0x21	; 33
    2c4c:	1a 2e       	mov	r1, r26
    2c4e:	aa 1b       	sub	r26, r26
    2c50:	bb 1b       	sub	r27, r27
    2c52:	fd 01       	movw	r30, r26
    2c54:	0d c0       	rjmp	.+26     	; 0x2c70 <__udivmodsi4_ep>

00002c56 <__udivmodsi4_loop>:
    2c56:	aa 1f       	adc	r26, r26
    2c58:	bb 1f       	adc	r27, r27
    2c5a:	ee 1f       	adc	r30, r30
    2c5c:	ff 1f       	adc	r31, r31
    2c5e:	a2 17       	cp	r26, r18
    2c60:	b3 07       	cpc	r27, r19
    2c62:	e4 07       	cpc	r30, r20
    2c64:	f5 07       	cpc	r31, r21
    2c66:	20 f0       	brcs	.+8      	; 0x2c70 <__udivmodsi4_ep>
    2c68:	a2 1b       	sub	r26, r18
    2c6a:	b3 0b       	sbc	r27, r19
    2c6c:	e4 0b       	sbc	r30, r20
    2c6e:	f5 0b       	sbc	r31, r21

00002c70 <__udivmodsi4_ep>:
    2c70:	66 1f       	adc	r22, r22
    2c72:	77 1f       	adc	r23, r23
    2c74:	88 1f       	adc	r24, r24
    2c76:	99 1f       	adc	r25, r25
    2c78:	1a 94       	dec	r1
    2c7a:	69 f7       	brne	.-38     	; 0x2c56 <__udivmodsi4_loop>
    2c7c:	60 95       	com	r22
    2c7e:	70 95       	com	r23
    2c80:	80 95       	com	r24
    2c82:	90 95       	com	r25
    2c84:	9b 01       	movw	r18, r22
    2c86:	ac 01       	movw	r20, r24
    2c88:	bd 01       	movw	r22, r26
    2c8a:	cf 01       	movw	r24, r30
    2c8c:	08 95       	ret

00002c8e <__divmodsi4>:
    2c8e:	97 fb       	bst	r25, 7
    2c90:	09 2e       	mov	r0, r25
    2c92:	05 26       	eor	r0, r21
    2c94:	0e d0       	rcall	.+28     	; 0x2cb2 <__divmodsi4_neg1>
    2c96:	57 fd       	sbrc	r21, 7
    2c98:	04 d0       	rcall	.+8      	; 0x2ca2 <__divmodsi4_neg2>
    2c9a:	d7 df       	rcall	.-82     	; 0x2c4a <__udivmodsi4>
    2c9c:	0a d0       	rcall	.+20     	; 0x2cb2 <__divmodsi4_neg1>
    2c9e:	00 1c       	adc	r0, r0
    2ca0:	38 f4       	brcc	.+14     	; 0x2cb0 <__divmodsi4_exit>

00002ca2 <__divmodsi4_neg2>:
    2ca2:	50 95       	com	r21
    2ca4:	40 95       	com	r20
    2ca6:	30 95       	com	r19
    2ca8:	21 95       	neg	r18
    2caa:	3f 4f       	sbci	r19, 0xFF	; 255
    2cac:	4f 4f       	sbci	r20, 0xFF	; 255
    2cae:	5f 4f       	sbci	r21, 0xFF	; 255

00002cb0 <__divmodsi4_exit>:
    2cb0:	08 95       	ret

00002cb2 <__divmodsi4_neg1>:
    2cb2:	f6 f7       	brtc	.-4      	; 0x2cb0 <__divmodsi4_exit>
    2cb4:	90 95       	com	r25
    2cb6:	80 95       	com	r24
    2cb8:	70 95       	com	r23
    2cba:	61 95       	neg	r22
    2cbc:	7f 4f       	sbci	r23, 0xFF	; 255
    2cbe:	8f 4f       	sbci	r24, 0xFF	; 255
    2cc0:	9f 4f       	sbci	r25, 0xFF	; 255
    2cc2:	08 95       	ret

00002cc4 <__prologue_saves__>:
    2cc4:	2f 92       	push	r2
    2cc6:	3f 92       	push	r3
    2cc8:	4f 92       	push	r4
    2cca:	5f 92       	push	r5
    2ccc:	6f 92       	push	r6
    2cce:	7f 92       	push	r7
    2cd0:	8f 92       	push	r8
    2cd2:	9f 92       	push	r9
    2cd4:	af 92       	push	r10
    2cd6:	bf 92       	push	r11
    2cd8:	cf 92       	push	r12
    2cda:	df 92       	push	r13
    2cdc:	ef 92       	push	r14
    2cde:	ff 92       	push	r15
    2ce0:	0f 93       	push	r16
    2ce2:	1f 93       	push	r17
    2ce4:	cf 93       	push	r28
    2ce6:	df 93       	push	r29
    2ce8:	cd b7       	in	r28, 0x3d	; 61
    2cea:	de b7       	in	r29, 0x3e	; 62
    2cec:	ca 1b       	sub	r28, r26
    2cee:	db 0b       	sbc	r29, r27
    2cf0:	0f b6       	in	r0, 0x3f	; 63
    2cf2:	f8 94       	cli
    2cf4:	de bf       	out	0x3e, r29	; 62
    2cf6:	0f be       	out	0x3f, r0	; 63
    2cf8:	cd bf       	out	0x3d, r28	; 61
    2cfa:	09 94       	ijmp

00002cfc <__epilogue_restores__>:
    2cfc:	2a 88       	ldd	r2, Y+18	; 0x12
    2cfe:	39 88       	ldd	r3, Y+17	; 0x11
    2d00:	48 88       	ldd	r4, Y+16	; 0x10
    2d02:	5f 84       	ldd	r5, Y+15	; 0x0f
    2d04:	6e 84       	ldd	r6, Y+14	; 0x0e
    2d06:	7d 84       	ldd	r7, Y+13	; 0x0d
    2d08:	8c 84       	ldd	r8, Y+12	; 0x0c
    2d0a:	9b 84       	ldd	r9, Y+11	; 0x0b
    2d0c:	aa 84       	ldd	r10, Y+10	; 0x0a
    2d0e:	b9 84       	ldd	r11, Y+9	; 0x09
    2d10:	c8 84       	ldd	r12, Y+8	; 0x08
    2d12:	df 80       	ldd	r13, Y+7	; 0x07
    2d14:	ee 80       	ldd	r14, Y+6	; 0x06
    2d16:	fd 80       	ldd	r15, Y+5	; 0x05
    2d18:	0c 81       	ldd	r16, Y+4	; 0x04
    2d1a:	1b 81       	ldd	r17, Y+3	; 0x03
    2d1c:	aa 81       	ldd	r26, Y+2	; 0x02
    2d1e:	b9 81       	ldd	r27, Y+1	; 0x01
    2d20:	ce 0f       	add	r28, r30
    2d22:	d1 1d       	adc	r29, r1
    2d24:	0f b6       	in	r0, 0x3f	; 63
    2d26:	f8 94       	cli
    2d28:	de bf       	out	0x3e, r29	; 62
    2d2a:	0f be       	out	0x3f, r0	; 63
    2d2c:	cd bf       	out	0x3d, r28	; 61
    2d2e:	ed 01       	movw	r28, r26
    2d30:	08 95       	ret

00002d32 <__tablejump2__>:
    2d32:	ee 0f       	add	r30, r30
    2d34:	ff 1f       	adc	r31, r31

00002d36 <__tablejump__>:
    2d36:	05 90       	lpm	r0, Z+
    2d38:	f4 91       	lpm	r31, Z+
    2d3a:	e0 2d       	mov	r30, r0
    2d3c:	09 94       	ijmp

00002d3e <malloc>:
    2d3e:	cf 93       	push	r28
    2d40:	df 93       	push	r29
    2d42:	bc 01       	movw	r22, r24
    2d44:	82 30       	cpi	r24, 0x02	; 2
    2d46:	91 05       	cpc	r25, r1
    2d48:	10 f4       	brcc	.+4      	; 0x2d4e <malloc+0x10>
    2d4a:	62 e0       	ldi	r22, 0x02	; 2
    2d4c:	70 e0       	ldi	r23, 0x00	; 0
    2d4e:	a0 91 73 02 	lds	r26, 0x0273
    2d52:	b0 91 74 02 	lds	r27, 0x0274
    2d56:	ed 01       	movw	r28, r26
    2d58:	e0 e0       	ldi	r30, 0x00	; 0
    2d5a:	f0 e0       	ldi	r31, 0x00	; 0
    2d5c:	40 e0       	ldi	r20, 0x00	; 0
    2d5e:	50 e0       	ldi	r21, 0x00	; 0
    2d60:	21 c0       	rjmp	.+66     	; 0x2da4 <malloc+0x66>
    2d62:	88 81       	ld	r24, Y
    2d64:	99 81       	ldd	r25, Y+1	; 0x01
    2d66:	86 17       	cp	r24, r22
    2d68:	97 07       	cpc	r25, r23
    2d6a:	69 f4       	brne	.+26     	; 0x2d86 <malloc+0x48>
    2d6c:	8a 81       	ldd	r24, Y+2	; 0x02
    2d6e:	9b 81       	ldd	r25, Y+3	; 0x03
    2d70:	30 97       	sbiw	r30, 0x00	; 0
    2d72:	19 f0       	breq	.+6      	; 0x2d7a <malloc+0x3c>
    2d74:	93 83       	std	Z+3, r25	; 0x03
    2d76:	82 83       	std	Z+2, r24	; 0x02
    2d78:	04 c0       	rjmp	.+8      	; 0x2d82 <malloc+0x44>
    2d7a:	90 93 74 02 	sts	0x0274, r25
    2d7e:	80 93 73 02 	sts	0x0273, r24
    2d82:	fe 01       	movw	r30, r28
    2d84:	34 c0       	rjmp	.+104    	; 0x2dee <malloc+0xb0>
    2d86:	68 17       	cp	r22, r24
    2d88:	79 07       	cpc	r23, r25
    2d8a:	38 f4       	brcc	.+14     	; 0x2d9a <malloc+0x5c>
    2d8c:	41 15       	cp	r20, r1
    2d8e:	51 05       	cpc	r21, r1
    2d90:	19 f0       	breq	.+6      	; 0x2d98 <malloc+0x5a>
    2d92:	84 17       	cp	r24, r20
    2d94:	95 07       	cpc	r25, r21
    2d96:	08 f4       	brcc	.+2      	; 0x2d9a <malloc+0x5c>
    2d98:	ac 01       	movw	r20, r24
    2d9a:	fe 01       	movw	r30, r28
    2d9c:	8a 81       	ldd	r24, Y+2	; 0x02
    2d9e:	9b 81       	ldd	r25, Y+3	; 0x03
    2da0:	9c 01       	movw	r18, r24
    2da2:	e9 01       	movw	r28, r18
    2da4:	20 97       	sbiw	r28, 0x00	; 0
    2da6:	e9 f6       	brne	.-70     	; 0x2d62 <malloc+0x24>
    2da8:	41 15       	cp	r20, r1
    2daa:	51 05       	cpc	r21, r1
    2dac:	a9 f1       	breq	.+106    	; 0x2e18 <malloc+0xda>
    2dae:	ca 01       	movw	r24, r20
    2db0:	86 1b       	sub	r24, r22
    2db2:	97 0b       	sbc	r25, r23
    2db4:	04 97       	sbiw	r24, 0x04	; 4
    2db6:	08 f4       	brcc	.+2      	; 0x2dba <malloc+0x7c>
    2db8:	ba 01       	movw	r22, r20
    2dba:	e0 e0       	ldi	r30, 0x00	; 0
    2dbc:	f0 e0       	ldi	r31, 0x00	; 0
    2dbe:	2a c0       	rjmp	.+84     	; 0x2e14 <malloc+0xd6>
    2dc0:	8d 91       	ld	r24, X+
    2dc2:	9c 91       	ld	r25, X
    2dc4:	11 97       	sbiw	r26, 0x01	; 1
    2dc6:	84 17       	cp	r24, r20
    2dc8:	95 07       	cpc	r25, r21
    2dca:	f9 f4       	brne	.+62     	; 0x2e0a <malloc+0xcc>
    2dcc:	64 17       	cp	r22, r20
    2dce:	75 07       	cpc	r23, r21
    2dd0:	81 f4       	brne	.+32     	; 0x2df2 <malloc+0xb4>
    2dd2:	12 96       	adiw	r26, 0x02	; 2
    2dd4:	8d 91       	ld	r24, X+
    2dd6:	9c 91       	ld	r25, X
    2dd8:	13 97       	sbiw	r26, 0x03	; 3
    2dda:	30 97       	sbiw	r30, 0x00	; 0
    2ddc:	19 f0       	breq	.+6      	; 0x2de4 <malloc+0xa6>
    2dde:	93 83       	std	Z+3, r25	; 0x03
    2de0:	82 83       	std	Z+2, r24	; 0x02
    2de2:	04 c0       	rjmp	.+8      	; 0x2dec <malloc+0xae>
    2de4:	90 93 74 02 	sts	0x0274, r25
    2de8:	80 93 73 02 	sts	0x0273, r24
    2dec:	fd 01       	movw	r30, r26
    2dee:	32 96       	adiw	r30, 0x02	; 2
    2df0:	4f c0       	rjmp	.+158    	; 0x2e90 <malloc+0x152>
    2df2:	ca 01       	movw	r24, r20
    2df4:	86 1b       	sub	r24, r22
    2df6:	97 0b       	sbc	r25, r23
    2df8:	fd 01       	movw	r30, r26
    2dfa:	e8 0f       	add	r30, r24
    2dfc:	f9 1f       	adc	r31, r25
    2dfe:	61 93       	st	Z+, r22
    2e00:	71 93       	st	Z+, r23
    2e02:	02 97       	sbiw	r24, 0x02	; 2
    2e04:	8d 93       	st	X+, r24
    2e06:	9c 93       	st	X, r25
    2e08:	43 c0       	rjmp	.+134    	; 0x2e90 <malloc+0x152>
    2e0a:	fd 01       	movw	r30, r26
    2e0c:	82 81       	ldd	r24, Z+2	; 0x02
    2e0e:	93 81       	ldd	r25, Z+3	; 0x03
    2e10:	9c 01       	movw	r18, r24
    2e12:	d9 01       	movw	r26, r18
    2e14:	10 97       	sbiw	r26, 0x00	; 0
    2e16:	a1 f6       	brne	.-88     	; 0x2dc0 <malloc+0x82>
    2e18:	80 91 71 02 	lds	r24, 0x0271
    2e1c:	90 91 72 02 	lds	r25, 0x0272
    2e20:	89 2b       	or	r24, r25
    2e22:	41 f4       	brne	.+16     	; 0x2e34 <malloc+0xf6>
    2e24:	80 91 41 02 	lds	r24, 0x0241
    2e28:	90 91 42 02 	lds	r25, 0x0242
    2e2c:	90 93 72 02 	sts	0x0272, r25
    2e30:	80 93 71 02 	sts	0x0271, r24
    2e34:	40 91 43 02 	lds	r20, 0x0243
    2e38:	50 91 44 02 	lds	r21, 0x0244
    2e3c:	41 15       	cp	r20, r1
    2e3e:	51 05       	cpc	r21, r1
    2e40:	41 f4       	brne	.+16     	; 0x2e52 <malloc+0x114>
    2e42:	4d b7       	in	r20, 0x3d	; 61
    2e44:	5e b7       	in	r21, 0x3e	; 62
    2e46:	80 91 3f 02 	lds	r24, 0x023F
    2e4a:	90 91 40 02 	lds	r25, 0x0240
    2e4e:	48 1b       	sub	r20, r24
    2e50:	59 0b       	sbc	r21, r25
    2e52:	20 91 71 02 	lds	r18, 0x0271
    2e56:	30 91 72 02 	lds	r19, 0x0272
    2e5a:	24 17       	cp	r18, r20
    2e5c:	35 07       	cpc	r19, r21
    2e5e:	b0 f4       	brcc	.+44     	; 0x2e8c <malloc+0x14e>
    2e60:	ca 01       	movw	r24, r20
    2e62:	82 1b       	sub	r24, r18
    2e64:	93 0b       	sbc	r25, r19
    2e66:	86 17       	cp	r24, r22
    2e68:	97 07       	cpc	r25, r23
    2e6a:	80 f0       	brcs	.+32     	; 0x2e8c <malloc+0x14e>
    2e6c:	ab 01       	movw	r20, r22
    2e6e:	4e 5f       	subi	r20, 0xFE	; 254
    2e70:	5f 4f       	sbci	r21, 0xFF	; 255
    2e72:	84 17       	cp	r24, r20
    2e74:	95 07       	cpc	r25, r21
    2e76:	50 f0       	brcs	.+20     	; 0x2e8c <malloc+0x14e>
    2e78:	42 0f       	add	r20, r18
    2e7a:	53 1f       	adc	r21, r19
    2e7c:	50 93 72 02 	sts	0x0272, r21
    2e80:	40 93 71 02 	sts	0x0271, r20
    2e84:	f9 01       	movw	r30, r18
    2e86:	61 93       	st	Z+, r22
    2e88:	71 93       	st	Z+, r23
    2e8a:	02 c0       	rjmp	.+4      	; 0x2e90 <malloc+0x152>
    2e8c:	e0 e0       	ldi	r30, 0x00	; 0
    2e8e:	f0 e0       	ldi	r31, 0x00	; 0
    2e90:	cf 01       	movw	r24, r30
    2e92:	df 91       	pop	r29
    2e94:	cf 91       	pop	r28
    2e96:	08 95       	ret

00002e98 <free>:
    2e98:	cf 93       	push	r28
    2e9a:	df 93       	push	r29
    2e9c:	00 97       	sbiw	r24, 0x00	; 0
    2e9e:	09 f4       	brne	.+2      	; 0x2ea2 <free+0xa>
    2ea0:	50 c0       	rjmp	.+160    	; 0x2f42 <free+0xaa>
    2ea2:	ec 01       	movw	r28, r24
    2ea4:	22 97       	sbiw	r28, 0x02	; 2
    2ea6:	1b 82       	std	Y+3, r1	; 0x03
    2ea8:	1a 82       	std	Y+2, r1	; 0x02
    2eaa:	a0 91 73 02 	lds	r26, 0x0273
    2eae:	b0 91 74 02 	lds	r27, 0x0274
    2eb2:	10 97       	sbiw	r26, 0x00	; 0
    2eb4:	09 f1       	breq	.+66     	; 0x2ef8 <free+0x60>
    2eb6:	40 e0       	ldi	r20, 0x00	; 0
    2eb8:	50 e0       	ldi	r21, 0x00	; 0
    2eba:	ac 17       	cp	r26, r28
    2ebc:	bd 07       	cpc	r27, r29
    2ebe:	08 f1       	brcs	.+66     	; 0x2f02 <free+0x6a>
    2ec0:	bb 83       	std	Y+3, r27	; 0x03
    2ec2:	aa 83       	std	Y+2, r26	; 0x02
    2ec4:	fe 01       	movw	r30, r28
    2ec6:	21 91       	ld	r18, Z+
    2ec8:	31 91       	ld	r19, Z+
    2eca:	e2 0f       	add	r30, r18
    2ecc:	f3 1f       	adc	r31, r19
    2ece:	ae 17       	cp	r26, r30
    2ed0:	bf 07       	cpc	r27, r31
    2ed2:	79 f4       	brne	.+30     	; 0x2ef2 <free+0x5a>
    2ed4:	8d 91       	ld	r24, X+
    2ed6:	9c 91       	ld	r25, X
    2ed8:	11 97       	sbiw	r26, 0x01	; 1
    2eda:	28 0f       	add	r18, r24
    2edc:	39 1f       	adc	r19, r25
    2ede:	2e 5f       	subi	r18, 0xFE	; 254
    2ee0:	3f 4f       	sbci	r19, 0xFF	; 255
    2ee2:	39 83       	std	Y+1, r19	; 0x01
    2ee4:	28 83       	st	Y, r18
    2ee6:	12 96       	adiw	r26, 0x02	; 2
    2ee8:	8d 91       	ld	r24, X+
    2eea:	9c 91       	ld	r25, X
    2eec:	13 97       	sbiw	r26, 0x03	; 3
    2eee:	9b 83       	std	Y+3, r25	; 0x03
    2ef0:	8a 83       	std	Y+2, r24	; 0x02
    2ef2:	41 15       	cp	r20, r1
    2ef4:	51 05       	cpc	r21, r1
    2ef6:	71 f4       	brne	.+28     	; 0x2f14 <free+0x7c>
    2ef8:	d0 93 74 02 	sts	0x0274, r29
    2efc:	c0 93 73 02 	sts	0x0273, r28
    2f00:	20 c0       	rjmp	.+64     	; 0x2f42 <free+0xaa>
    2f02:	12 96       	adiw	r26, 0x02	; 2
    2f04:	8d 91       	ld	r24, X+
    2f06:	9c 91       	ld	r25, X
    2f08:	13 97       	sbiw	r26, 0x03	; 3
    2f0a:	ad 01       	movw	r20, r26
    2f0c:	00 97       	sbiw	r24, 0x00	; 0
    2f0e:	11 f0       	breq	.+4      	; 0x2f14 <free+0x7c>
    2f10:	dc 01       	movw	r26, r24
    2f12:	d3 cf       	rjmp	.-90     	; 0x2eba <free+0x22>
    2f14:	fa 01       	movw	r30, r20
    2f16:	d3 83       	std	Z+3, r29	; 0x03
    2f18:	c2 83       	std	Z+2, r28	; 0x02
    2f1a:	21 91       	ld	r18, Z+
    2f1c:	31 91       	ld	r19, Z+
    2f1e:	e2 0f       	add	r30, r18
    2f20:	f3 1f       	adc	r31, r19
    2f22:	ce 17       	cp	r28, r30
    2f24:	df 07       	cpc	r29, r31
    2f26:	69 f4       	brne	.+26     	; 0x2f42 <free+0xaa>
    2f28:	88 81       	ld	r24, Y
    2f2a:	99 81       	ldd	r25, Y+1	; 0x01
    2f2c:	28 0f       	add	r18, r24
    2f2e:	39 1f       	adc	r19, r25
    2f30:	2e 5f       	subi	r18, 0xFE	; 254
    2f32:	3f 4f       	sbci	r19, 0xFF	; 255
    2f34:	fa 01       	movw	r30, r20
    2f36:	31 83       	std	Z+1, r19	; 0x01
    2f38:	20 83       	st	Z, r18
    2f3a:	8a 81       	ldd	r24, Y+2	; 0x02
    2f3c:	9b 81       	ldd	r25, Y+3	; 0x03
    2f3e:	93 83       	std	Z+3, r25	; 0x03
    2f40:	82 83       	std	Z+2, r24	; 0x02
    2f42:	df 91       	pop	r29
    2f44:	cf 91       	pop	r28
    2f46:	08 95       	ret

00002f48 <fdevopen>:
    2f48:	0f 93       	push	r16
    2f4a:	1f 93       	push	r17
    2f4c:	cf 93       	push	r28
    2f4e:	df 93       	push	r29
    2f50:	8c 01       	movw	r16, r24
    2f52:	eb 01       	movw	r28, r22
    2f54:	00 97       	sbiw	r24, 0x00	; 0
    2f56:	31 f4       	brne	.+12     	; 0x2f64 <fdevopen+0x1c>
    2f58:	61 15       	cp	r22, r1
    2f5a:	71 05       	cpc	r23, r1
    2f5c:	19 f4       	brne	.+6      	; 0x2f64 <fdevopen+0x1c>
    2f5e:	20 e0       	ldi	r18, 0x00	; 0
    2f60:	30 e0       	ldi	r19, 0x00	; 0
    2f62:	38 c0       	rjmp	.+112    	; 0x2fd4 <fdevopen+0x8c>
    2f64:	81 e0       	ldi	r24, 0x01	; 1
    2f66:	90 e0       	ldi	r25, 0x00	; 0
    2f68:	6e e0       	ldi	r22, 0x0E	; 14
    2f6a:	70 e0       	ldi	r23, 0x00	; 0
    2f6c:	0e 94 f0 17 	call	0x2fe0	; 0x2fe0 <calloc>
    2f70:	fc 01       	movw	r30, r24
    2f72:	9c 01       	movw	r18, r24
    2f74:	00 97       	sbiw	r24, 0x00	; 0
    2f76:	71 f1       	breq	.+92     	; 0x2fd4 <fdevopen+0x8c>
    2f78:	80 e8       	ldi	r24, 0x80	; 128
    2f7a:	83 83       	std	Z+3, r24	; 0x03
    2f7c:	20 97       	sbiw	r28, 0x00	; 0
    2f7e:	71 f0       	breq	.+28     	; 0x2f9c <fdevopen+0x54>
    2f80:	d3 87       	std	Z+11, r29	; 0x0b
    2f82:	c2 87       	std	Z+10, r28	; 0x0a
    2f84:	81 e8       	ldi	r24, 0x81	; 129
    2f86:	83 83       	std	Z+3, r24	; 0x03
    2f88:	80 91 75 02 	lds	r24, 0x0275
    2f8c:	90 91 76 02 	lds	r25, 0x0276
    2f90:	89 2b       	or	r24, r25
    2f92:	21 f4       	brne	.+8      	; 0x2f9c <fdevopen+0x54>
    2f94:	f0 93 76 02 	sts	0x0276, r31
    2f98:	e0 93 75 02 	sts	0x0275, r30
    2f9c:	01 15       	cp	r16, r1
    2f9e:	11 05       	cpc	r17, r1
    2fa0:	c9 f0       	breq	.+50     	; 0x2fd4 <fdevopen+0x8c>
    2fa2:	11 87       	std	Z+9, r17	; 0x09
    2fa4:	00 87       	std	Z+8, r16	; 0x08
    2fa6:	83 81       	ldd	r24, Z+3	; 0x03
    2fa8:	82 60       	ori	r24, 0x02	; 2
    2faa:	83 83       	std	Z+3, r24	; 0x03
    2fac:	80 91 77 02 	lds	r24, 0x0277
    2fb0:	90 91 78 02 	lds	r25, 0x0278
    2fb4:	89 2b       	or	r24, r25
    2fb6:	71 f4       	brne	.+28     	; 0x2fd4 <fdevopen+0x8c>
    2fb8:	f0 93 78 02 	sts	0x0278, r31
    2fbc:	e0 93 77 02 	sts	0x0277, r30
    2fc0:	80 91 79 02 	lds	r24, 0x0279
    2fc4:	90 91 7a 02 	lds	r25, 0x027A
    2fc8:	89 2b       	or	r24, r25
    2fca:	21 f4       	brne	.+8      	; 0x2fd4 <fdevopen+0x8c>
    2fcc:	f0 93 7a 02 	sts	0x027A, r31
    2fd0:	e0 93 79 02 	sts	0x0279, r30
    2fd4:	c9 01       	movw	r24, r18
    2fd6:	df 91       	pop	r29
    2fd8:	cf 91       	pop	r28
    2fda:	1f 91       	pop	r17
    2fdc:	0f 91       	pop	r16
    2fde:	08 95       	ret

00002fe0 <calloc>:
    2fe0:	0f 93       	push	r16
    2fe2:	1f 93       	push	r17
    2fe4:	cf 93       	push	r28
    2fe6:	df 93       	push	r29
    2fe8:	68 9f       	mul	r22, r24
    2fea:	80 01       	movw	r16, r0
    2fec:	69 9f       	mul	r22, r25
    2fee:	10 0d       	add	r17, r0
    2ff0:	78 9f       	mul	r23, r24
    2ff2:	10 0d       	add	r17, r0
    2ff4:	11 24       	eor	r1, r1
    2ff6:	c8 01       	movw	r24, r16
    2ff8:	0e 94 9f 16 	call	0x2d3e	; 0x2d3e <malloc>
    2ffc:	ec 01       	movw	r28, r24
    2ffe:	00 97       	sbiw	r24, 0x00	; 0
    3000:	29 f0       	breq	.+10     	; 0x300c <calloc+0x2c>
    3002:	60 e0       	ldi	r22, 0x00	; 0
    3004:	70 e0       	ldi	r23, 0x00	; 0
    3006:	a8 01       	movw	r20, r16
    3008:	0e 94 0c 18 	call	0x3018	; 0x3018 <memset>
    300c:	ce 01       	movw	r24, r28
    300e:	df 91       	pop	r29
    3010:	cf 91       	pop	r28
    3012:	1f 91       	pop	r17
    3014:	0f 91       	pop	r16
    3016:	08 95       	ret

00003018 <memset>:
    3018:	dc 01       	movw	r26, r24
    301a:	01 c0       	rjmp	.+2      	; 0x301e <memset+0x6>
    301c:	6d 93       	st	X+, r22
    301e:	41 50       	subi	r20, 0x01	; 1
    3020:	50 40       	sbci	r21, 0x00	; 0
    3022:	e0 f7       	brcc	.-8      	; 0x301c <memset+0x4>
    3024:	08 95       	ret

00003026 <_exit>:
    3026:	f8 94       	cli

00003028 <__stop_program>:
    3028:	ff cf       	rjmp	.-2      	; 0x3028 <__stop_program>
