
bomb-squad.elf:     file format elf32-avr

Sections:
Idx Name          Size      VMA       LMA       File off  Algn
  0 .data         00000150  00800100  00003e36  00003eca  2**0
                  CONTENTS, ALLOC, LOAD, DATA
  1 .text         00003e36  00000000  00000000  00000094  2**1
                  CONTENTS, ALLOC, LOAD, READONLY, CODE
  2 .bss          0000007d  00800250  00800250  0000401a  2**0
                  ALLOC
  3 .debug_aranges 00000858  00000000  00000000  0000401a  2**0
                  CONTENTS, READONLY, DEBUGGING
  4 .debug_pubnames 00001b72  00000000  00000000  00004872  2**0
                  CONTENTS, READONLY, DEBUGGING
  5 .debug_info   00006598  00000000  00000000  000063e4  2**0
                  CONTENTS, READONLY, DEBUGGING
  6 .debug_abbrev 000023df  00000000  00000000  0000c97c  2**0
                  CONTENTS, READONLY, DEBUGGING
  7 .debug_line   00004c19  00000000  00000000  0000ed5b  2**0
                  CONTENTS, READONLY, DEBUGGING
  8 .debug_frame  00000fd0  00000000  00000000  00013974  2**2
                  CONTENTS, READONLY, DEBUGGING
  9 .debug_str    000029fb  00000000  00000000  00014944  2**0
                  CONTENTS, READONLY, DEBUGGING
 10 .debug_loc    00003504  00000000  00000000  0001733f  2**0
                  CONTENTS, READONLY, DEBUGGING
 11 .debug_ranges 00000778  00000000  00000000  0001a843  2**0
                  CONTENTS, READONLY, DEBUGGING

Disassembly of section .text:

00000000 <__vectors>:
       0:	0c 94 42 00 	jmp	0x84	; 0x84 <__dtors_end>
       4:	0c 94 6a 00 	jmp	0xd4	; 0xd4 <__bad_interrupt>
       8:	0c 94 6a 00 	jmp	0xd4	; 0xd4 <__bad_interrupt>
       c:	0c 94 6a 00 	jmp	0xd4	; 0xd4 <__bad_interrupt>
      10:	0c 94 6a 00 	jmp	0xd4	; 0xd4 <__bad_interrupt>
      14:	0c 94 6a 00 	jmp	0xd4	; 0xd4 <__bad_interrupt>
      18:	0c 94 6a 00 	jmp	0xd4	; 0xd4 <__bad_interrupt>
      1c:	0c 94 6a 00 	jmp	0xd4	; 0xd4 <__bad_interrupt>
      20:	0c 94 6a 00 	jmp	0xd4	; 0xd4 <__bad_interrupt>
      24:	0c 94 5d 14 	jmp	0x28ba	; 0x28ba <__vector_9>
      28:	0c 94 6a 00 	jmp	0xd4	; 0xd4 <__bad_interrupt>
      2c:	0c 94 6a 00 	jmp	0xd4	; 0xd4 <__bad_interrupt>
      30:	0c 94 6a 00 	jmp	0xd4	; 0xd4 <__bad_interrupt>
      34:	0c 94 da 0c 	jmp	0x19b4	; 0x19b4 <__vector_13>
      38:	0c 94 6a 00 	jmp	0xd4	; 0xd4 <__bad_interrupt>
      3c:	0c 94 6a 00 	jmp	0xd4	; 0xd4 <__bad_interrupt>
      40:	0c 94 6a 00 	jmp	0xd4	; 0xd4 <__bad_interrupt>
      44:	0c 94 6a 00 	jmp	0xd4	; 0xd4 <__bad_interrupt>
      48:	0c 94 6a 00 	jmp	0xd4	; 0xd4 <__bad_interrupt>
      4c:	0c 94 6a 00 	jmp	0xd4	; 0xd4 <__bad_interrupt>
      50:	0c 94 6a 00 	jmp	0xd4	; 0xd4 <__bad_interrupt>
      54:	0c 94 6a 00 	jmp	0xd4	; 0xd4 <__bad_interrupt>
      58:	0c 94 6a 00 	jmp	0xd4	; 0xd4 <__bad_interrupt>
      5c:	0c 94 6a 00 	jmp	0xd4	; 0xd4 <__bad_interrupt>
      60:	0c 94 6a 00 	jmp	0xd4	; 0xd4 <__bad_interrupt>
      64:	0c 94 6a 00 	jmp	0xd4	; 0xd4 <__bad_interrupt>
      68:	fa 09       	sbc	r31, r10
      6a:	00 0a       	sbc	r0, r16
      6c:	03 0a       	sbc	r0, r19
      6e:	06 0a       	sbc	r0, r22
      70:	09 0a       	sbc	r0, r25
      72:	0c 0a       	sbc	r0, r28
      74:	0f 0a       	sbc	r0, r31
      76:	12 0a       	sbc	r1, r18
      78:	15 0a       	sbc	r1, r21
      7a:	18 0a       	sbc	r1, r24
      7c:	1b 0a       	sbc	r1, r27
      7e:	1e 0a       	sbc	r1, r30

00000080 <__ctors_start>:
      80:	7d 15       	cp	r23, r13

00000082 <__ctors_end>:
      82:	7e 15       	cp	r23, r14

00000084 <__dtors_end>:
      84:	11 24       	eor	r1, r1
      86:	1f be       	out	0x3f, r1	; 63
      88:	cf ef       	ldi	r28, 0xFF	; 255
      8a:	d4 e0       	ldi	r29, 0x04	; 4
      8c:	de bf       	out	0x3e, r29	; 62
      8e:	cd bf       	out	0x3d, r28	; 61

00000090 <__do_copy_data>:
      90:	12 e0       	ldi	r17, 0x02	; 2
      92:	a0 e0       	ldi	r26, 0x00	; 0
      94:	b1 e0       	ldi	r27, 0x01	; 1
      96:	e6 e3       	ldi	r30, 0x36	; 54
      98:	fe e3       	ldi	r31, 0x3E	; 62
      9a:	02 c0       	rjmp	.+4      	; 0xa0 <.do_copy_data_start>

0000009c <.do_copy_data_loop>:
      9c:	05 90       	lpm	r0, Z+
      9e:	0d 92       	st	X+, r0

000000a0 <.do_copy_data_start>:
      a0:	a0 35       	cpi	r26, 0x50	; 80
      a2:	b1 07       	cpc	r27, r17
      a4:	d9 f7       	brne	.-10     	; 0x9c <.do_copy_data_loop>

000000a6 <__do_clear_bss>:
      a6:	12 e0       	ldi	r17, 0x02	; 2
      a8:	a0 e5       	ldi	r26, 0x50	; 80
      aa:	b2 e0       	ldi	r27, 0x02	; 2
      ac:	01 c0       	rjmp	.+2      	; 0xb0 <.do_clear_bss_start>

000000ae <.do_clear_bss_loop>:
      ae:	1d 92       	st	X+, r1

000000b0 <.do_clear_bss_start>:
      b0:	ad 3c       	cpi	r26, 0xCD	; 205
      b2:	b1 07       	cpc	r27, r17
      b4:	e1 f7       	brne	.-8      	; 0xae <.do_clear_bss_loop>

000000b6 <__do_global_ctors>:
      b6:	10 e0       	ldi	r17, 0x00	; 0
      b8:	c2 e8       	ldi	r28, 0x82	; 130
      ba:	d0 e0       	ldi	r29, 0x00	; 0
      bc:	04 c0       	rjmp	.+8      	; 0xc6 <.do_global_ctors_start>

000000be <.do_global_ctors_loop>:
      be:	22 97       	sbiw	r28, 0x02	; 2
      c0:	fe 01       	movw	r30, r28
      c2:	0e 94 96 1d 	call	0x3b2c	; 0x3b2c <__tablejump__>

000000c6 <.do_global_ctors_start>:
      c6:	c0 38       	cpi	r28, 0x80	; 128
      c8:	d1 07       	cpc	r29, r17
      ca:	c9 f7       	brne	.-14     	; 0xbe <.do_global_ctors_loop>
      cc:	0e 94 da 02 	call	0x5b4	; 0x5b4 <main>
      d0:	0c 94 0e 1f 	jmp	0x3e1c	; 0x3e1c <__do_global_dtors>

000000d4 <__bad_interrupt>:
      d4:	0c 94 00 00 	jmp	0	; 0x0 <__vectors>

000000d8 <init_sensors>:
static inline void set_analog_mode(unsigned char mode)
{
	if (mode == MODE_10_BIT)
		ADMUX &= ~(1 << ADLAR);	// right-adjust result (ADC has result)
	else
		ADMUX |= 1 << ADLAR;		// left-adjust result (ADCH has result)	
      d8:	ec e7       	ldi	r30, 0x7C	; 124
      da:	f0 e0       	ldi	r31, 0x00	; 0
      dc:	80 81       	ld	r24, Z
      de:	80 62       	ori	r24, 0x20	; 32
      e0:	80 83       	st	Z, r24
//Initializes the digital sensors
//MODE_8_BIT => 0=far away, 150=close
void init_sensors()
{
	set_analog_mode(MODE_8_BIT);
	DDRC &= ~(1<< PORTC5);
      e2:	3d 98       	cbi	0x07, 5	; 7
	PORTC &= ~(1<< PORTC5);
      e4:	45 98       	cbi	0x08, 5	; 8
}
      e6:	08 95       	ret

000000e8 <turn_left_in_place>:
}

// Turn to the left in place
void turn_left_in_place()
{
	set_motors(-50, 50);
      e8:	8e ec       	ldi	r24, 0xCE	; 206
      ea:	9f ef       	ldi	r25, 0xFF	; 255
      ec:	62 e3       	ldi	r22, 0x32	; 50
      ee:	70 e0       	ldi	r23, 0x00	; 0
      f0:	0e 94 50 12 	call	0x24a0	; 0x24a0 <set_motors>
}
      f4:	08 95       	ret

000000f6 <turn_right_in_place>:
}

// Turn to the right in place
void turn_right_in_place()
{
	set_motors(50, -50);
      f6:	82 e3       	ldi	r24, 0x32	; 50
      f8:	90 e0       	ldi	r25, 0x00	; 0
      fa:	6e ec       	ldi	r22, 0xCE	; 206
      fc:	7f ef       	ldi	r23, 0xFF	; 255
      fe:	0e 94 50 12 	call	0x24a0	; 0x24a0 <set_motors>
}
     102:	08 95       	ret

00000104 <back_up_right>:
}

// Back up slightly to the right
void back_up_right()
{
	set_motors(-90,-50);
     104:	86 ea       	ldi	r24, 0xA6	; 166
     106:	9f ef       	ldi	r25, 0xFF	; 255
     108:	6e ec       	ldi	r22, 0xCE	; 206
     10a:	7f ef       	ldi	r23, 0xFF	; 255
     10c:	0e 94 50 12 	call	0x24a0	; 0x24a0 <set_motors>
}
     110:	08 95       	ret

00000112 <back_up_left>:
}

// Back up slightly to the left
void back_up_left()
{
	set_motors(-50,-90);
     112:	8e ec       	ldi	r24, 0xCE	; 206
     114:	9f ef       	ldi	r25, 0xFF	; 255
     116:	66 ea       	ldi	r22, 0xA6	; 166
     118:	7f ef       	ldi	r23, 0xFF	; 255
     11a:	0e 94 50 12 	call	0x24a0	; 0x24a0 <set_motors>
}
     11e:	08 95       	ret

00000120 <halt>:


//Stop both motors
void halt()
{
	set_motors(0,0);
     120:	80 e0       	ldi	r24, 0x00	; 0
     122:	90 e0       	ldi	r25, 0x00	; 0
     124:	60 e0       	ldi	r22, 0x00	; 0
     126:	70 e0       	ldi	r23, 0x00	; 0
     128:	0e 94 50 12 	call	0x24a0	; 0x24a0 <set_motors>
}
     12c:	08 95       	ret

0000012e <read_right_sensor>:
}

//Read right sensor data
int read_right_sensor()
{
	return analog_read(SENSOR_5);
     12e:	85 e0       	ldi	r24, 0x05	; 5
     130:	0e 94 4f 07 	call	0xe9e	; 0xe9e <analog_read>
}
     134:	08 95       	ret

00000136 <read_left_sensor>:
}

//Read left sensor data
int read_left_sensor()
{
	return analog_read(SENSOR_7);
     136:	87 e0       	ldi	r24, 0x07	; 7
     138:	0e 94 4f 07 	call	0xe9e	; 0xe9e <analog_read>
}
     13c:	08 95       	ret

0000013e <read_forward_sensor>:
}

//Read forward sensor data
int read_forward_sensor()
{
	return analog_read(SENSOR_6);
     13e:	86 e0       	ldi	r24, 0x06	; 6
     140:	0e 94 4f 07 	call	0xe9e	; 0xe9e <analog_read>
}
     144:	08 95       	ret

00000146 <read_sensor>:
	}
}

int read_sensor(int sensor)
{
	return analog_read(sensor);
     146:	0e 94 4f 07 	call	0xe9e	; 0xe9e <analog_read>
}
     14a:	08 95       	ret

0000014c <scan_360>:
	set_motors(-50, 50);
}

//Scans 360 degree and reports an array of distance data
int* scan_360(int sensor)
{
     14c:	ef 92       	push	r14
     14e:	ff 92       	push	r15
     150:	0f 93       	push	r16
     152:	1f 93       	push	r17
     154:	df 93       	push	r29
     156:	cf 93       	push	r28
     158:	cd b7       	in	r28, 0x3d	; 61
     15a:	de b7       	in	r29, 0x3e	; 62
     15c:	e2 97       	sbiw	r28, 0x32	; 50
     15e:	0f b6       	in	r0, 0x3f	; 63
     160:	f8 94       	cli
     162:	de bf       	out	0x3e, r29	; 62
     164:	0f be       	out	0x3f, r0	; 63
     166:	cd bf       	out	0x3d, r28	; 61
     168:	8e 01       	movw	r16, r28
     16a:	0f 5f       	subi	r16, 0xFF	; 255
     16c:	1f 4f       	sbci	r17, 0xFF	; 255
	int i, *pdata, data[25];
	int power = 40;

	for(i=0; i<25; i++)
     16e:	83 e3       	ldi	r24, 0x33	; 51
     170:	e8 2e       	mov	r14, r24
     172:	f1 2c       	mov	r15, r1
     174:	ec 0e       	add	r14, r28
     176:	fd 1e       	adc	r15, r29
	{
		// rotate LEFT 15 degrees then stop
		int delay = (DELAY_PER_ANGLE_PER_POWER * 15)/power;
		set_motors(-power,power);
     178:	88 ed       	ldi	r24, 0xD8	; 216
     17a:	9f ef       	ldi	r25, 0xFF	; 255
     17c:	68 e2       	ldi	r22, 0x28	; 40
     17e:	70 e0       	ldi	r23, 0x00	; 0
     180:	0e 94 50 12 	call	0x24a0	; 0x24a0 <set_motors>
		delay_ms(delay);
     184:	82 e5       	ldi	r24, 0x52	; 82
     186:	90 e0       	ldi	r25, 0x00	; 0
     188:	0e 94 97 14 	call	0x292e	; 0x292e <delay_ms>
		set_motors(0,0);
     18c:	80 e0       	ldi	r24, 0x00	; 0
     18e:	90 e0       	ldi	r25, 0x00	; 0
     190:	60 e0       	ldi	r22, 0x00	; 0
     192:	70 e0       	ldi	r23, 0x00	; 0
     194:	0e 94 50 12 	call	0x24a0	; 0x24a0 <set_motors>

		// scan forward and store value
		data[i] = analog_read(SENSOR_6);
     198:	86 e0       	ldi	r24, 0x06	; 6
     19a:	0e 94 4f 07 	call	0xe9e	; 0xe9e <analog_read>
     19e:	f8 01       	movw	r30, r16
     1a0:	81 93       	st	Z+, r24
     1a2:	91 93       	st	Z+, r25
     1a4:	8f 01       	movw	r16, r30
int* scan_360(int sensor)
{
	int i, *pdata, data[25];
	int power = 40;

	for(i=0; i<25; i++)
     1a6:	ee 15       	cp	r30, r14
     1a8:	ff 05       	cpc	r31, r15
     1aa:	31 f7       	brne	.-52     	; 0x178 <scan_360+0x2c>
		data[i] = analog_read(SENSOR_6);
	}

	pdata = &data[0];
	return pdata;
}
     1ac:	ce 01       	movw	r24, r28
     1ae:	01 96       	adiw	r24, 0x01	; 1
     1b0:	e2 96       	adiw	r28, 0x32	; 50
     1b2:	0f b6       	in	r0, 0x3f	; 63
     1b4:	f8 94       	cli
     1b6:	de bf       	out	0x3e, r29	; 62
     1b8:	0f be       	out	0x3f, r0	; 63
     1ba:	cd bf       	out	0x3d, r28	; 61
     1bc:	cf 91       	pop	r28
     1be:	df 91       	pop	r29
     1c0:	1f 91       	pop	r17
     1c2:	0f 91       	pop	r16
     1c4:	ff 90       	pop	r15
     1c6:	ef 90       	pop	r14
     1c8:	08 95       	ret

000001ca <turn_right>:
	set_motors(0,0);
}

//Turn the robot to right
void turn_right(int power, int angle)
{
     1ca:	af 92       	push	r10
     1cc:	bf 92       	push	r11
     1ce:	cf 92       	push	r12
     1d0:	df 92       	push	r13
     1d2:	ef 92       	push	r14
     1d4:	ff 92       	push	r15
     1d6:	0f 93       	push	r16
     1d8:	1f 93       	push	r17
     1da:	5c 01       	movw	r10, r24
     1dc:	7b 01       	movw	r14, r22
	int delay = (DELAY_PER_ANGLE_PER_POWER * angle)/power;

	set_motors(power,-power);
     1de:	66 27       	eor	r22, r22
     1e0:	77 27       	eor	r23, r23
     1e2:	68 1b       	sub	r22, r24
     1e4:	79 0b       	sbc	r23, r25
     1e6:	0e 94 50 12 	call	0x24a0	; 0x24a0 <set_motors>
	delay_ms(delay);
     1ea:	00 27       	eor	r16, r16
     1ec:	f7 fc       	sbrc	r15, 7
     1ee:	00 95       	com	r16
     1f0:	10 2f       	mov	r17, r16
     1f2:	c8 01       	movw	r24, r16
     1f4:	b7 01       	movw	r22, r14
     1f6:	0e 94 a8 04 	call	0x950	; 0x950 <__floatsisf>
     1fa:	28 e4       	ldi	r18, 0x48	; 72
     1fc:	31 ee       	ldi	r19, 0xE1	; 225
     1fe:	4a e5       	ldi	r20, 0x5A	; 90
     200:	53 e4       	ldi	r21, 0x43	; 67
     202:	0e 94 02 03 	call	0x604	; 0x604 <__mulsf3>
     206:	7b 01       	movw	r14, r22
     208:	8c 01       	movw	r16, r24
     20a:	cc 24       	eor	r12, r12
     20c:	b7 fc       	sbrc	r11, 7
     20e:	c0 94       	com	r12
     210:	dc 2c       	mov	r13, r12
     212:	c6 01       	movw	r24, r12
     214:	b5 01       	movw	r22, r10
     216:	0e 94 a8 04 	call	0x950	; 0x950 <__floatsisf>
     21a:	9b 01       	movw	r18, r22
     21c:	ac 01       	movw	r20, r24
     21e:	c8 01       	movw	r24, r16
     220:	b7 01       	movw	r22, r14
     222:	0e 94 fc 03 	call	0x7f8	; 0x7f8 <__divsf3>
     226:	0e 94 06 05 	call	0xa0c	; 0xa0c <__fixsfsi>
     22a:	dc 01       	movw	r26, r24
     22c:	cb 01       	movw	r24, r22
     22e:	0e 94 97 14 	call	0x292e	; 0x292e <delay_ms>
	set_motors(0,0);
     232:	80 e0       	ldi	r24, 0x00	; 0
     234:	90 e0       	ldi	r25, 0x00	; 0
     236:	60 e0       	ldi	r22, 0x00	; 0
     238:	70 e0       	ldi	r23, 0x00	; 0
     23a:	0e 94 50 12 	call	0x24a0	; 0x24a0 <set_motors>
}
     23e:	1f 91       	pop	r17
     240:	0f 91       	pop	r16
     242:	ff 90       	pop	r15
     244:	ef 90       	pop	r14
     246:	df 90       	pop	r13
     248:	cf 90       	pop	r12
     24a:	bf 90       	pop	r11
     24c:	af 90       	pop	r10
     24e:	08 95       	ret

00000250 <turn_left>:
	set_motors(0,0);
}

//Turn the robot to left
void turn_left(int power, int angle)
{
     250:	af 92       	push	r10
     252:	bf 92       	push	r11
     254:	cf 92       	push	r12
     256:	df 92       	push	r13
     258:	ef 92       	push	r14
     25a:	ff 92       	push	r15
     25c:	0f 93       	push	r16
     25e:	1f 93       	push	r17
     260:	5c 01       	movw	r10, r24
     262:	7b 01       	movw	r14, r22
	int delay = (DELAY_PER_ANGLE_PER_POWER * angle)/power;

	set_motors(-power,power);
     264:	88 27       	eor	r24, r24
     266:	99 27       	eor	r25, r25
     268:	8a 19       	sub	r24, r10
     26a:	9b 09       	sbc	r25, r11
     26c:	b5 01       	movw	r22, r10
     26e:	0e 94 50 12 	call	0x24a0	; 0x24a0 <set_motors>
	delay_ms(delay);
     272:	00 27       	eor	r16, r16
     274:	f7 fc       	sbrc	r15, 7
     276:	00 95       	com	r16
     278:	10 2f       	mov	r17, r16
     27a:	c8 01       	movw	r24, r16
     27c:	b7 01       	movw	r22, r14
     27e:	0e 94 a8 04 	call	0x950	; 0x950 <__floatsisf>
     282:	28 e4       	ldi	r18, 0x48	; 72
     284:	31 ee       	ldi	r19, 0xE1	; 225
     286:	4a e5       	ldi	r20, 0x5A	; 90
     288:	53 e4       	ldi	r21, 0x43	; 67
     28a:	0e 94 02 03 	call	0x604	; 0x604 <__mulsf3>
     28e:	7b 01       	movw	r14, r22
     290:	8c 01       	movw	r16, r24
     292:	cc 24       	eor	r12, r12
     294:	b7 fc       	sbrc	r11, 7
     296:	c0 94       	com	r12
     298:	dc 2c       	mov	r13, r12
     29a:	c6 01       	movw	r24, r12
     29c:	b5 01       	movw	r22, r10
     29e:	0e 94 a8 04 	call	0x950	; 0x950 <__floatsisf>
     2a2:	9b 01       	movw	r18, r22
     2a4:	ac 01       	movw	r20, r24
     2a6:	c8 01       	movw	r24, r16
     2a8:	b7 01       	movw	r22, r14
     2aa:	0e 94 fc 03 	call	0x7f8	; 0x7f8 <__divsf3>
     2ae:	0e 94 06 05 	call	0xa0c	; 0xa0c <__fixsfsi>
     2b2:	dc 01       	movw	r26, r24
     2b4:	cb 01       	movw	r24, r22
     2b6:	0e 94 97 14 	call	0x292e	; 0x292e <delay_ms>
	set_motors(0,0);
     2ba:	80 e0       	ldi	r24, 0x00	; 0
     2bc:	90 e0       	ldi	r25, 0x00	; 0
     2be:	60 e0       	ldi	r22, 0x00	; 0
     2c0:	70 e0       	ldi	r23, 0x00	; 0
     2c2:	0e 94 50 12 	call	0x24a0	; 0x24a0 <set_motors>
}
     2c6:	1f 91       	pop	r17
     2c8:	0f 91       	pop	r16
     2ca:	ff 90       	pop	r15
     2cc:	ef 90       	pop	r14
     2ce:	df 90       	pop	r13
     2d0:	cf 90       	pop	r12
     2d2:	bf 90       	pop	r11
     2d4:	af 90       	pop	r10
     2d6:	08 95       	ret

000002d8 <dash>:
	set_motors(0,0);
}

//Dash forward
void dash(int power, int delay)
{
     2d8:	0f 93       	push	r16
     2da:	1f 93       	push	r17
     2dc:	9c 01       	movw	r18, r24
     2de:	8b 01       	movw	r16, r22
	set_motors(power,power);
     2e0:	b9 01       	movw	r22, r18
     2e2:	0e 94 50 12 	call	0x24a0	; 0x24a0 <set_motors>
	delay_ms(delay);
     2e6:	c8 01       	movw	r24, r16
     2e8:	0e 94 97 14 	call	0x292e	; 0x292e <delay_ms>
	set_motors(0,0);
     2ec:	80 e0       	ldi	r24, 0x00	; 0
     2ee:	90 e0       	ldi	r25, 0x00	; 0
     2f0:	60 e0       	ldi	r22, 0x00	; 0
     2f2:	70 e0       	ldi	r23, 0x00	; 0
     2f4:	0e 94 50 12 	call	0x24a0	; 0x24a0 <set_motors>
}
     2f8:	1f 91       	pop	r17
     2fa:	0f 91       	pop	r16
     2fc:	08 95       	ret

000002fe <print_num_xy>:
	lcd_goto_xy(row,col);
	print(message);
}

void print_num_xy( int row, int col, long num, int doClear)
{
     2fe:	af 92       	push	r10
     300:	bf 92       	push	r11
     302:	cf 92       	push	r12
     304:	df 92       	push	r13
     306:	ef 92       	push	r14
     308:	ff 92       	push	r15
     30a:	0f 93       	push	r16
     30c:	1f 93       	push	r17
     30e:	b8 2e       	mov	r11, r24
     310:	a6 2e       	mov	r10, r22
     312:	69 01       	movw	r12, r18
     314:	7a 01       	movw	r14, r20
	if(doClear)
     316:	01 2b       	or	r16, r17
     318:	11 f0       	breq	.+4      	; 0x31e <print_num_xy+0x20>
	{
		clear();
     31a:	0e 94 22 0f 	call	0x1e44	; 0x1e44 <clear>
	}
	lcd_goto_xy(row,col);
     31e:	8b 2d       	mov	r24, r11
     320:	6a 2d       	mov	r22, r10
     322:	0e 94 f2 0e 	call	0x1de4	; 0x1de4 <lcd_goto_xy>
	print_long(num);
     326:	c7 01       	movw	r24, r14
     328:	b6 01       	movw	r22, r12
     32a:	0e 94 ed 0f 	call	0x1fda	; 0x1fda <print_long>
}
     32e:	1f 91       	pop	r17
     330:	0f 91       	pop	r16
     332:	ff 90       	pop	r15
     334:	ef 90       	pop	r14
     336:	df 90       	pop	r13
     338:	cf 90       	pop	r12
     33a:	bf 90       	pop	r11
     33c:	af 90       	pop	r10
     33e:	08 95       	ret

00000340 <count_down>:
	return pdata;
}

//Display a countdown for count, increment by one second
void count_down(int count)
{
     340:	ef 92       	push	r14
     342:	ff 92       	push	r15
     344:	0f 93       	push	r16
     346:	1f 93       	push	r17
     348:	cf 93       	push	r28
     34a:	df 93       	push	r29
     34c:	ec 01       	movw	r28, r24
	int i = 1;
	clear();
     34e:	0e 94 22 0f 	call	0x1e44	; 0x1e44 <clear>
     352:	ee 24       	eor	r14, r14
     354:	ff 24       	eor	r15, r15
     356:	87 01       	movw	r16, r14
     358:	0e c0       	rjmp	.+28     	; 0x376 <count_down+0x36>
	while(i <= count)
	{
		lcd_goto_xy(0,0);
     35a:	80 e0       	ldi	r24, 0x00	; 0
     35c:	60 e0       	ldi	r22, 0x00	; 0
     35e:	0e 94 f2 0e 	call	0x1de4	; 0x1de4 <lcd_goto_xy>
		print_long(i);
     362:	c8 01       	movw	r24, r16
     364:	b7 01       	movw	r22, r14
     366:	0e 94 ed 0f 	call	0x1fda	; 0x1fda <print_long>
		delay_ms(1000);
     36a:	88 ee       	ldi	r24, 0xE8	; 232
     36c:	93 e0       	ldi	r25, 0x03	; 3
     36e:	0e 94 97 14 	call	0x292e	; 0x292e <delay_ms>
		clear();
     372:	0e 94 22 0f 	call	0x1e44	; 0x1e44 <clear>
     376:	08 94       	sec
     378:	e1 1c       	adc	r14, r1
     37a:	f1 1c       	adc	r15, r1
     37c:	01 1d       	adc	r16, r1
     37e:	11 1d       	adc	r17, r1
//Display a countdown for count, increment by one second
void count_down(int count)
{
	int i = 1;
	clear();
	while(i <= count)
     380:	ce 15       	cp	r28, r14
     382:	df 05       	cpc	r29, r15
     384:	54 f7       	brge	.-44     	; 0x35a <count_down+0x1a>
		print_long(i);
		delay_ms(1000);
		clear();
		i++;
	}
}
     386:	df 91       	pop	r29
     388:	cf 91       	pop	r28
     38a:	1f 91       	pop	r17
     38c:	0f 91       	pop	r16
     38e:	ff 90       	pop	r15
     390:	ef 90       	pop	r14
     392:	08 95       	ret

00000394 <print_xy>:
{
	return analog_read(SENSOR_5);
}

void print_xy( int row, int col, char *message, int doClear)
{
     394:	0f 93       	push	r16
     396:	1f 93       	push	r17
     398:	cf 93       	push	r28
     39a:	df 93       	push	r29
     39c:	18 2f       	mov	r17, r24
     39e:	06 2f       	mov	r16, r22
     3a0:	ea 01       	movw	r28, r20
	if(doClear)
     3a2:	23 2b       	or	r18, r19
     3a4:	11 f0       	breq	.+4      	; 0x3aa <print_xy+0x16>
	{
		clear();
     3a6:	0e 94 22 0f 	call	0x1e44	; 0x1e44 <clear>
	}
	lcd_goto_xy(row,col);
     3aa:	81 2f       	mov	r24, r17
     3ac:	60 2f       	mov	r22, r16
     3ae:	0e 94 f2 0e 	call	0x1de4	; 0x1de4 <lcd_goto_xy>
	print(message);
     3b2:	ce 01       	movw	r24, r28
     3b4:	0e 94 0e 10 	call	0x201c	; 0x201c <print>
}
     3b8:	df 91       	pop	r29
     3ba:	cf 91       	pop	r28
     3bc:	1f 91       	pop	r17
     3be:	0f 91       	pop	r16
     3c0:	08 95       	ret

000003c2 <get_target_difference>:
		}
	}
}

int get_target_difference()
{
     3c2:	ef 92       	push	r14
     3c4:	ff 92       	push	r15
     3c6:	0f 93       	push	r16
     3c8:	1f 93       	push	r17
     3ca:	2c c0       	rjmp	.+88     	; 0x424 <get_target_difference+0x62>
	int s1 = 0;
	int s2 = 0;

	while(!button_is_pressed(BUTTON_B))
	{
		if(get_ms() % 500 == 0)
     3cc:	0e 94 00 15 	call	0x2a00	; 0x2a00 <get_ms>
     3d0:	24 ef       	ldi	r18, 0xF4	; 244
     3d2:	31 e0       	ldi	r19, 0x01	; 1
     3d4:	40 e0       	ldi	r20, 0x00	; 0
     3d6:	50 e0       	ldi	r21, 0x00	; 0
     3d8:	0e 94 20 1d 	call	0x3a40	; 0x3a40 <__udivmodsi4>
     3dc:	61 15       	cp	r22, r1
     3de:	71 05       	cpc	r23, r1
     3e0:	81 05       	cpc	r24, r1
     3e2:	91 05       	cpc	r25, r1
     3e4:	f9 f4       	brne	.+62     	; 0x424 <get_target_difference+0x62>
		{
			clear();
     3e6:	0e 94 22 0f 	call	0x1e44	; 0x1e44 <clear>
			print_xy(0,0,"AlignBot");
     3ea:	80 e0       	ldi	r24, 0x00	; 0
     3ec:	90 e0       	ldi	r25, 0x00	; 0
     3ee:	60 e0       	ldi	r22, 0x00	; 0
     3f0:	70 e0       	ldi	r23, 0x00	; 0
     3f2:	40 e0       	ldi	r20, 0x00	; 0
     3f4:	51 e0       	ldi	r21, 0x01	; 1
     3f6:	0e 94 ca 01 	call	0x394	; 0x394 <print_xy>
			lcd_goto_xy(0,1);
     3fa:	80 e0       	ldi	r24, 0x00	; 0
     3fc:	61 e0       	ldi	r22, 0x01	; 1
     3fe:	0e 94 f2 0e 	call	0x1de4	; 0x1de4 <lcd_goto_xy>
	}
}

int read_sensor(int sensor)
{
	return analog_read(sensor);
     402:	85 e0       	ldi	r24, 0x05	; 5
     404:	0e 94 4f 07 	call	0xe9e	; 0xe9e <analog_read>
     408:	7c 01       	movw	r14, r24
		if(get_ms() % 500 == 0)
		{
			clear();
			print_xy(0,0,"AlignBot");
			lcd_goto_xy(0,1);
			print_long(read_sensor(SENSOR_ONE)-read_sensor(SENSOR_TWO));
     40a:	86 e0       	ldi	r24, 0x06	; 6
     40c:	0e 94 4f 07 	call	0xe9e	; 0xe9e <analog_read>
     410:	e8 1a       	sub	r14, r24
     412:	f9 0a       	sbc	r15, r25
     414:	00 27       	eor	r16, r16
     416:	f7 fc       	sbrc	r15, 7
     418:	00 95       	com	r16
     41a:	10 2f       	mov	r17, r16
     41c:	c8 01       	movw	r24, r16
     41e:	b7 01       	movw	r22, r14
     420:	0e 94 ed 0f 	call	0x1fda	; 0x1fda <print_long>
{

	int s1 = 0;
	int s2 = 0;

	while(!button_is_pressed(BUTTON_B))
     424:	80 e1       	ldi	r24, 0x10	; 16
     426:	0e 94 85 12 	call	0x250a	; 0x250a <button_is_pressed>
     42a:	88 23       	and	r24, r24
     42c:	79 f2       	breq	.-98     	; 0x3cc <get_target_difference+0xa>
	}
}

int read_sensor(int sensor)
{
	return analog_read(sensor);
     42e:	85 e0       	ldi	r24, 0x05	; 5
     430:	0e 94 4f 07 	call	0xe9e	; 0xe9e <analog_read>
     434:	8c 01       	movw	r16, r24
	}

	s1 = read_sensor(SENSOR_ONE); // 0 (far away) - 150 (close)
	s2 = read_sensor(SENSOR_TWO); // 0 (far away) - 150 (close)

	play(">g32>>c32");
     436:	86 e0       	ldi	r24, 0x06	; 6
     438:	0e 94 4f 07 	call	0xe9e	; 0xe9e <analog_read>
     43c:	7c 01       	movw	r14, r24
     43e:	89 e0       	ldi	r24, 0x09	; 9
     440:	91 e0       	ldi	r25, 0x01	; 1
     442:	0e 94 d7 0c 	call	0x19ae	; 0x19ae <play>
     446:	0e 19       	sub	r16, r14
     448:	1f 09       	sbc	r17, r15

	return s1-s2;


}
     44a:	c8 01       	movw	r24, r16
     44c:	1f 91       	pop	r17
     44e:	0f 91       	pop	r16
     450:	ff 90       	pop	r15
     452:	ef 90       	pop	r14
     454:	08 95       	ret

00000456 <get_value_from_user>:
	while(!button_is_pressed(BUTTON_B));
	delay_ms(500);
}

int get_value_from_user(char *msg, int default_value, int increment)
{
     456:	cf 92       	push	r12
     458:	df 92       	push	r13
     45a:	ef 92       	push	r14
     45c:	ff 92       	push	r15
     45e:	0f 93       	push	r16
     460:	1f 93       	push	r17
     462:	cf 93       	push	r28
     464:	df 93       	push	r29
     466:	7c 01       	movw	r14, r24
     468:	8a 01       	movw	r16, r20
     46a:	eb 01       	movw	r28, r22
		{
			value = -32000 + (32000 % increment);
		}
		if(value > 32000)
		{
			value = 32000 - (32000 % increment);
     46c:	c1 2c       	mov	r12, r1
     46e:	9d e7       	ldi	r25, 0x7D	; 125
     470:	d9 2e       	mov	r13, r25
{
	int value = default_value;

	while(1)
	{
		clear();
     472:	0e 94 22 0f 	call	0x1e44	; 0x1e44 <clear>

		// print name
		lcd_goto_xy(0,0);
     476:	80 e0       	ldi	r24, 0x00	; 0
     478:	60 e0       	ldi	r22, 0x00	; 0
     47a:	0e 94 f2 0e 	call	0x1de4	; 0x1de4 <lcd_goto_xy>
		print(msg);
     47e:	c7 01       	movw	r24, r14
     480:	0e 94 0e 10 	call	0x201c	; 0x201c <print>
		print("=?");
     484:	83 e1       	ldi	r24, 0x13	; 19
     486:	91 e0       	ldi	r25, 0x01	; 1
     488:	0e 94 0e 10 	call	0x201c	; 0x201c <print>

		// print current value
		lcd_goto_xy(0,1);
     48c:	80 e0       	ldi	r24, 0x00	; 0
     48e:	61 e0       	ldi	r22, 0x01	; 1
     490:	0e 94 f2 0e 	call	0x1de4	; 0x1de4 <lcd_goto_xy>
		print_long(value);
     494:	be 01       	movw	r22, r28
     496:	88 27       	eor	r24, r24
     498:	77 fd       	sbrc	r23, 7
     49a:	80 95       	com	r24
     49c:	98 2f       	mov	r25, r24
     49e:	0e 94 ed 0f 	call	0x1fda	; 0x1fda <print_long>
		lcd_show_cursor(CURSOR_BLINKING);
     4a2:	81 e0       	ldi	r24, 0x01	; 1
     4a4:	0e 94 d0 0e 	call	0x1da0	; 0x1da0 <lcd_show_cursor>

		// wait for all buttons to be released, then a press
		while(button_is_pressed(ANY_BUTTON));
     4a8:	82 e3       	ldi	r24, 0x32	; 50
     4aa:	0e 94 85 12 	call	0x250a	; 0x250a <button_is_pressed>
     4ae:	88 23       	and	r24, r24
     4b0:	d9 f7       	brne	.-10     	; 0x4a8 <get_value_from_user+0x52>
		char button = wait_for_button_press(ANY_BUTTON);
     4b2:	82 e3       	ldi	r24, 0x32	; 50
     4b4:	0e 94 39 14 	call	0x2872	; 0x2872 <wait_for_button_press>

		if(button & BUTTON_A)
     4b8:	81 ff       	sbrs	r24, 1
     4ba:	07 c0       	rjmp	.+14     	; 0x4ca <get_value_from_user+0x74>
		{
			play("!c32");
     4bc:	86 e1       	ldi	r24, 0x16	; 22
     4be:	91 e0       	ldi	r25, 0x01	; 1
     4c0:	0e 94 d7 0c 	call	0x19ae	; 0x19ae <play>
			value = value - increment;
     4c4:	c0 1b       	sub	r28, r16
     4c6:	d1 0b       	sbc	r29, r17
     4c8:	20 c0       	rjmp	.+64     	; 0x50a <__stack+0xb>
		}
		else if(button & BUTTON_B)
     4ca:	84 ff       	sbrs	r24, 4
     4cc:	16 c0       	rjmp	.+44     	; 0x4fa <get_value_from_user+0xa4>
		{
			lcd_hide_cursor();
     4ce:	0e 94 c5 0e 	call	0x1d8a	; 0x1d8a <lcd_hide_cursor>
			clear();
     4d2:	0e 94 22 0f 	call	0x1e44	; 0x1e44 <clear>
			play("!e32");
     4d6:	8b e1       	ldi	r24, 0x1B	; 27
     4d8:	91 e0       	ldi	r25, 0x01	; 1
     4da:	0e 94 d7 0c 	call	0x19ae	; 0x19ae <play>
			delay_ms(100);
     4de:	84 e6       	ldi	r24, 0x64	; 100
     4e0:	90 e0       	ldi	r25, 0x00	; 0
     4e2:	0e 94 97 14 	call	0x292e	; 0x292e <delay_ms>
		if(value > 32000)
		{
			value = 32000 - (32000 % increment);
		}
	}
}
     4e6:	ce 01       	movw	r24, r28
     4e8:	df 91       	pop	r29
     4ea:	cf 91       	pop	r28
     4ec:	1f 91       	pop	r17
     4ee:	0f 91       	pop	r16
     4f0:	ff 90       	pop	r15
     4f2:	ef 90       	pop	r14
     4f4:	df 90       	pop	r13
     4f6:	cf 90       	pop	r12
     4f8:	08 95       	ret
			clear();
			play("!e32");
			delay_ms(100);
			return value;
		}
		else if(button & BUTTON_C)
     4fa:	85 ff       	sbrs	r24, 5
     4fc:	06 c0       	rjmp	.+12     	; 0x50a <__stack+0xb>
		{
			play("!g32");
     4fe:	80 e2       	ldi	r24, 0x20	; 32
     500:	91 e0       	ldi	r25, 0x01	; 1
     502:	0e 94 d7 0c 	call	0x19ae	; 0x19ae <play>
			value = value + increment;
     506:	c0 0f       	add	r28, r16
     508:	d1 1f       	adc	r29, r17
		}

		if(value < -32000)
     50a:	83 e8       	ldi	r24, 0x83	; 131
     50c:	c0 30       	cpi	r28, 0x00	; 0
     50e:	d8 07       	cpc	r29, r24
     510:	4c f4       	brge	.+18     	; 0x524 <__stack+0x25>
		{
			value = -32000 + (32000 % increment);
     512:	80 e0       	ldi	r24, 0x00	; 0
     514:	9d e7       	ldi	r25, 0x7D	; 125
     516:	b8 01       	movw	r22, r16
     518:	0e 94 0d 1d 	call	0x3a1a	; 0x3a1a <__divmodhi4>
     51c:	ec 01       	movw	r28, r24
     51e:	c0 50       	subi	r28, 0x00	; 0
     520:	dd 47       	sbci	r29, 0x7D	; 125
     522:	a7 cf       	rjmp	.-178    	; 0x472 <get_value_from_user+0x1c>
		}
		if(value > 32000)
     524:	8d e7       	ldi	r24, 0x7D	; 125
     526:	c1 30       	cpi	r28, 0x01	; 1
     528:	d8 07       	cpc	r29, r24
     52a:	0c f4       	brge	.+2      	; 0x52e <__stack+0x2f>
     52c:	a2 cf       	rjmp	.-188    	; 0x472 <get_value_from_user+0x1c>
		{
			value = 32000 - (32000 % increment);
     52e:	80 e0       	ldi	r24, 0x00	; 0
     530:	9d e7       	ldi	r25, 0x7D	; 125
     532:	b8 01       	movw	r22, r16
     534:	0e 94 0d 1d 	call	0x3a1a	; 0x3a1a <__divmodhi4>
     538:	e6 01       	movw	r28, r12
     53a:	c8 1b       	sub	r28, r24
     53c:	d9 0b       	sbc	r29, r25
     53e:	99 cf       	rjmp	.-206    	; 0x472 <get_value_from_user+0x1c>

00000540 <wait_with_message>:
	PORTC &= ~(1<< PORTC5);
}

//Displays a message and waits for B button to press
void wait_with_message(char *str)
{
     540:	0f 93       	push	r16
     542:	1f 93       	push	r17
     544:	8c 01       	movw	r16, r24
	 play_frequency(200, 50, 14);
     546:	88 ec       	ldi	r24, 0xC8	; 200
     548:	90 e0       	ldi	r25, 0x00	; 0
     54a:	62 e3       	ldi	r22, 0x32	; 50
     54c:	70 e0       	ldi	r23, 0x00	; 0
     54e:	4e e0       	ldi	r20, 0x0E	; 14
     550:	0e 94 c9 09 	call	0x1392	; 0x1392 <play_frequency>
	 delay_ms(75);
     554:	8b e4       	ldi	r24, 0x4B	; 75
     556:	90 e0       	ldi	r25, 0x00	; 0
     558:	0e 94 97 14 	call	0x292e	; 0x292e <delay_ms>
	 play_frequency(300, 50, 14);
     55c:	8c e2       	ldi	r24, 0x2C	; 44
     55e:	91 e0       	ldi	r25, 0x01	; 1
     560:	62 e3       	ldi	r22, 0x32	; 50
     562:	70 e0       	ldi	r23, 0x00	; 0
     564:	4e e0       	ldi	r20, 0x0E	; 14
     566:	0e 94 c9 09 	call	0x1392	; 0x1392 <play_frequency>

	 play_frequency(200, 50, 14);
     56a:	88 ec       	ldi	r24, 0xC8	; 200
     56c:	90 e0       	ldi	r25, 0x00	; 0
     56e:	62 e3       	ldi	r22, 0x32	; 50
     570:	70 e0       	ldi	r23, 0x00	; 0
     572:	4e e0       	ldi	r20, 0x0E	; 14
     574:	0e 94 c9 09 	call	0x1392	; 0x1392 <play_frequency>
	 delay_ms(75);
     578:	8b e4       	ldi	r24, 0x4B	; 75
     57a:	90 e0       	ldi	r25, 0x00	; 0
     57c:	0e 94 97 14 	call	0x292e	; 0x292e <delay_ms>
	 play_frequency(300, 50, 14);
     580:	8c e2       	ldi	r24, 0x2C	; 44
     582:	91 e0       	ldi	r25, 0x01	; 1
     584:	62 e3       	ldi	r22, 0x32	; 50
     586:	70 e0       	ldi	r23, 0x00	; 0
     588:	4e e0       	ldi	r20, 0x0E	; 14
     58a:	0e 94 c9 09 	call	0x1392	; 0x1392 <play_frequency>

	lcd_goto_xy(0,0);
     58e:	80 e0       	ldi	r24, 0x00	; 0
     590:	60 e0       	ldi	r22, 0x00	; 0
     592:	0e 94 f2 0e 	call	0x1de4	; 0x1de4 <lcd_goto_xy>
	print(str);
     596:	c8 01       	movw	r24, r16
     598:	0e 94 0e 10 	call	0x201c	; 0x201c <print>

	while(!button_is_pressed(BUTTON_B));
     59c:	80 e1       	ldi	r24, 0x10	; 16
     59e:	0e 94 85 12 	call	0x250a	; 0x250a <button_is_pressed>
     5a2:	88 23       	and	r24, r24
     5a4:	d9 f3       	breq	.-10     	; 0x59c <wait_with_message+0x5c>
	delay_ms(500);
     5a6:	84 ef       	ldi	r24, 0xF4	; 244
     5a8:	91 e0       	ldi	r25, 0x01	; 1
     5aa:	0e 94 97 14 	call	0x292e	; 0x292e <delay_ms>
}
     5ae:	1f 91       	pop	r17
     5b0:	0f 91       	pop	r16
     5b2:	08 95       	ret

000005b4 <main>:
#define DISTANCE 60

main()
{

	init_sensors();
     5b4:	0e 94 6c 00 	call	0xd8	; 0xd8 <init_sensors>
	wait_with_message("Bomb 0.6");
     5b8:	85 e2       	ldi	r24, 0x25	; 37
     5ba:	91 e0       	ldi	r25, 0x01	; 1
     5bc:	0e 94 a0 02 	call	0x540	; 0x540 <wait_with_message>
	pololu_3pi_init(2000);
     5c0:	80 ed       	ldi	r24, 0xD0	; 208
     5c2:	97 e0       	ldi	r25, 0x07	; 7
     5c4:	0e 94 0c 16 	call	0x2c18	; 0x2c18 <pololu_3pi_init>

	//Start tracking
	int front_sensor = 0;
	set_motors(-50,50);
     5c8:	8e ec       	ldi	r24, 0xCE	; 206
     5ca:	9f ef       	ldi	r25, 0xFF	; 255
     5cc:	62 e3       	ldi	r22, 0x32	; 50
     5ce:	70 e0       	ldi	r23, 0x00	; 0
     5d0:	0e 94 50 12 	call	0x24a0	; 0x24a0 <set_motors>
	
	long entered_object = 0;
	long left_object = 0;
	while (1)
	{
		front_sensor = analog_read(7);
     5d4:	87 e0       	ldi	r24, 0x07	; 7
     5d6:	0e 94 4f 07 	call	0xe9e	; 0xe9e <analog_read>

		if (front_sensor > DISTANCE )
     5da:	cd 97       	sbiw	r24, 0x3d	; 61
     5dc:	dc f3       	brlt	.-10     	; 0x5d4 <main+0x20>
		}
	}


	//Move to the object
	set_motors(0,0);
     5de:	80 e0       	ldi	r24, 0x00	; 0
     5e0:	90 e0       	ldi	r25, 0x00	; 0
     5e2:	60 e0       	ldi	r22, 0x00	; 0
     5e4:	70 e0       	ldi	r23, 0x00	; 0
     5e6:	0e 94 50 12 	call	0x24a0	; 0x24a0 <set_motors>
	delay_ms(300);
     5ea:	8c e2       	ldi	r24, 0x2C	; 44
     5ec:	91 e0       	ldi	r25, 0x01	; 1
     5ee:	0e 94 97 14 	call	0x292e	; 0x292e <delay_ms>

	set_motors(50,50);
     5f2:	82 e3       	ldi	r24, 0x32	; 50
     5f4:	90 e0       	ldi	r25, 0x00	; 0
     5f6:	62 e3       	ldi	r22, 0x32	; 50
     5f8:	70 e0       	ldi	r23, 0x00	; 0
     5fa:	0e 94 50 12 	call	0x24a0	; 0x24a0 <set_motors>


}
     5fe:	80 e0       	ldi	r24, 0x00	; 0
     600:	90 e0       	ldi	r25, 0x00	; 0
     602:	08 95       	ret

00000604 <__mulsf3>:
     604:	a0 e2       	ldi	r26, 0x20	; 32
     606:	b0 e0       	ldi	r27, 0x00	; 0
     608:	e8 e0       	ldi	r30, 0x08	; 8
     60a:	f3 e0       	ldi	r31, 0x03	; 3
     60c:	0c 94 5d 1d 	jmp	0x3aba	; 0x3aba <__prologue_saves__>
     610:	69 83       	std	Y+1, r22	; 0x01
     612:	7a 83       	std	Y+2, r23	; 0x02
     614:	8b 83       	std	Y+3, r24	; 0x03
     616:	9c 83       	std	Y+4, r25	; 0x04
     618:	2d 83       	std	Y+5, r18	; 0x05
     61a:	3e 83       	std	Y+6, r19	; 0x06
     61c:	4f 83       	std	Y+7, r20	; 0x07
     61e:	58 87       	std	Y+8, r21	; 0x08
     620:	ce 01       	movw	r24, r28
     622:	01 96       	adiw	r24, 0x01	; 1
     624:	be 01       	movw	r22, r28
     626:	67 5f       	subi	r22, 0xF7	; 247
     628:	7f 4f       	sbci	r23, 0xFF	; 255
     62a:	0e 94 7e 06 	call	0xcfc	; 0xcfc <__unpack_f>
     62e:	ce 01       	movw	r24, r28
     630:	05 96       	adiw	r24, 0x05	; 5
     632:	be 01       	movw	r22, r28
     634:	6f 5e       	subi	r22, 0xEF	; 239
     636:	7f 4f       	sbci	r23, 0xFF	; 255
     638:	0e 94 7e 06 	call	0xcfc	; 0xcfc <__unpack_f>
     63c:	99 85       	ldd	r25, Y+9	; 0x09
     63e:	92 30       	cpi	r25, 0x02	; 2
     640:	88 f0       	brcs	.+34     	; 0x664 <__mulsf3+0x60>
     642:	89 89       	ldd	r24, Y+17	; 0x11
     644:	82 30       	cpi	r24, 0x02	; 2
     646:	c8 f0       	brcs	.+50     	; 0x67a <__mulsf3+0x76>
     648:	94 30       	cpi	r25, 0x04	; 4
     64a:	19 f4       	brne	.+6      	; 0x652 <__mulsf3+0x4e>
     64c:	82 30       	cpi	r24, 0x02	; 2
     64e:	51 f4       	brne	.+20     	; 0x664 <__mulsf3+0x60>
     650:	04 c0       	rjmp	.+8      	; 0x65a <__mulsf3+0x56>
     652:	84 30       	cpi	r24, 0x04	; 4
     654:	29 f4       	brne	.+10     	; 0x660 <__mulsf3+0x5c>
     656:	92 30       	cpi	r25, 0x02	; 2
     658:	81 f4       	brne	.+32     	; 0x67a <__mulsf3+0x76>
     65a:	81 e4       	ldi	r24, 0x41	; 65
     65c:	91 e0       	ldi	r25, 0x01	; 1
     65e:	c6 c0       	rjmp	.+396    	; 0x7ec <__mulsf3+0x1e8>
     660:	92 30       	cpi	r25, 0x02	; 2
     662:	49 f4       	brne	.+18     	; 0x676 <__mulsf3+0x72>
     664:	20 e0       	ldi	r18, 0x00	; 0
     666:	9a 85       	ldd	r25, Y+10	; 0x0a
     668:	8a 89       	ldd	r24, Y+18	; 0x12
     66a:	98 13       	cpse	r25, r24
     66c:	21 e0       	ldi	r18, 0x01	; 1
     66e:	2a 87       	std	Y+10, r18	; 0x0a
     670:	ce 01       	movw	r24, r28
     672:	09 96       	adiw	r24, 0x09	; 9
     674:	bb c0       	rjmp	.+374    	; 0x7ec <__mulsf3+0x1e8>
     676:	82 30       	cpi	r24, 0x02	; 2
     678:	49 f4       	brne	.+18     	; 0x68c <__mulsf3+0x88>
     67a:	20 e0       	ldi	r18, 0x00	; 0
     67c:	9a 85       	ldd	r25, Y+10	; 0x0a
     67e:	8a 89       	ldd	r24, Y+18	; 0x12
     680:	98 13       	cpse	r25, r24
     682:	21 e0       	ldi	r18, 0x01	; 1
     684:	2a 8b       	std	Y+18, r18	; 0x12
     686:	ce 01       	movw	r24, r28
     688:	41 96       	adiw	r24, 0x11	; 17
     68a:	b0 c0       	rjmp	.+352    	; 0x7ec <__mulsf3+0x1e8>
     68c:	2d 84       	ldd	r2, Y+13	; 0x0d
     68e:	3e 84       	ldd	r3, Y+14	; 0x0e
     690:	4f 84       	ldd	r4, Y+15	; 0x0f
     692:	58 88       	ldd	r5, Y+16	; 0x10
     694:	6d 88       	ldd	r6, Y+21	; 0x15
     696:	7e 88       	ldd	r7, Y+22	; 0x16
     698:	8f 88       	ldd	r8, Y+23	; 0x17
     69a:	98 8c       	ldd	r9, Y+24	; 0x18
     69c:	ee 24       	eor	r14, r14
     69e:	ff 24       	eor	r15, r15
     6a0:	87 01       	movw	r16, r14
     6a2:	aa 24       	eor	r10, r10
     6a4:	bb 24       	eor	r11, r11
     6a6:	65 01       	movw	r12, r10
     6a8:	40 e0       	ldi	r20, 0x00	; 0
     6aa:	50 e0       	ldi	r21, 0x00	; 0
     6ac:	60 e0       	ldi	r22, 0x00	; 0
     6ae:	70 e0       	ldi	r23, 0x00	; 0
     6b0:	e0 e0       	ldi	r30, 0x00	; 0
     6b2:	f0 e0       	ldi	r31, 0x00	; 0
     6b4:	c1 01       	movw	r24, r2
     6b6:	81 70       	andi	r24, 0x01	; 1
     6b8:	90 70       	andi	r25, 0x00	; 0
     6ba:	89 2b       	or	r24, r25
     6bc:	e9 f0       	breq	.+58     	; 0x6f8 <__mulsf3+0xf4>
     6be:	e6 0c       	add	r14, r6
     6c0:	f7 1c       	adc	r15, r7
     6c2:	08 1d       	adc	r16, r8
     6c4:	19 1d       	adc	r17, r9
     6c6:	9a 01       	movw	r18, r20
     6c8:	ab 01       	movw	r20, r22
     6ca:	2a 0d       	add	r18, r10
     6cc:	3b 1d       	adc	r19, r11
     6ce:	4c 1d       	adc	r20, r12
     6d0:	5d 1d       	adc	r21, r13
     6d2:	80 e0       	ldi	r24, 0x00	; 0
     6d4:	90 e0       	ldi	r25, 0x00	; 0
     6d6:	a0 e0       	ldi	r26, 0x00	; 0
     6d8:	b0 e0       	ldi	r27, 0x00	; 0
     6da:	e6 14       	cp	r14, r6
     6dc:	f7 04       	cpc	r15, r7
     6de:	08 05       	cpc	r16, r8
     6e0:	19 05       	cpc	r17, r9
     6e2:	20 f4       	brcc	.+8      	; 0x6ec <__mulsf3+0xe8>
     6e4:	81 e0       	ldi	r24, 0x01	; 1
     6e6:	90 e0       	ldi	r25, 0x00	; 0
     6e8:	a0 e0       	ldi	r26, 0x00	; 0
     6ea:	b0 e0       	ldi	r27, 0x00	; 0
     6ec:	ba 01       	movw	r22, r20
     6ee:	a9 01       	movw	r20, r18
     6f0:	48 0f       	add	r20, r24
     6f2:	59 1f       	adc	r21, r25
     6f4:	6a 1f       	adc	r22, r26
     6f6:	7b 1f       	adc	r23, r27
     6f8:	aa 0c       	add	r10, r10
     6fa:	bb 1c       	adc	r11, r11
     6fc:	cc 1c       	adc	r12, r12
     6fe:	dd 1c       	adc	r13, r13
     700:	97 fe       	sbrs	r9, 7
     702:	08 c0       	rjmp	.+16     	; 0x714 <__mulsf3+0x110>
     704:	81 e0       	ldi	r24, 0x01	; 1
     706:	90 e0       	ldi	r25, 0x00	; 0
     708:	a0 e0       	ldi	r26, 0x00	; 0
     70a:	b0 e0       	ldi	r27, 0x00	; 0
     70c:	a8 2a       	or	r10, r24
     70e:	b9 2a       	or	r11, r25
     710:	ca 2a       	or	r12, r26
     712:	db 2a       	or	r13, r27
     714:	31 96       	adiw	r30, 0x01	; 1
     716:	e0 32       	cpi	r30, 0x20	; 32
     718:	f1 05       	cpc	r31, r1
     71a:	49 f0       	breq	.+18     	; 0x72e <__mulsf3+0x12a>
     71c:	66 0c       	add	r6, r6
     71e:	77 1c       	adc	r7, r7
     720:	88 1c       	adc	r8, r8
     722:	99 1c       	adc	r9, r9
     724:	56 94       	lsr	r5
     726:	47 94       	ror	r4
     728:	37 94       	ror	r3
     72a:	27 94       	ror	r2
     72c:	c3 cf       	rjmp	.-122    	; 0x6b4 <__mulsf3+0xb0>
     72e:	fa 85       	ldd	r31, Y+10	; 0x0a
     730:	ea 89       	ldd	r30, Y+18	; 0x12
     732:	2b 89       	ldd	r18, Y+19	; 0x13
     734:	3c 89       	ldd	r19, Y+20	; 0x14
     736:	8b 85       	ldd	r24, Y+11	; 0x0b
     738:	9c 85       	ldd	r25, Y+12	; 0x0c
     73a:	28 0f       	add	r18, r24
     73c:	39 1f       	adc	r19, r25
     73e:	2e 5f       	subi	r18, 0xFE	; 254
     740:	3f 4f       	sbci	r19, 0xFF	; 255
     742:	17 c0       	rjmp	.+46     	; 0x772 <__mulsf3+0x16e>
     744:	ca 01       	movw	r24, r20
     746:	81 70       	andi	r24, 0x01	; 1
     748:	90 70       	andi	r25, 0x00	; 0
     74a:	89 2b       	or	r24, r25
     74c:	61 f0       	breq	.+24     	; 0x766 <__mulsf3+0x162>
     74e:	16 95       	lsr	r17
     750:	07 95       	ror	r16
     752:	f7 94       	ror	r15
     754:	e7 94       	ror	r14
     756:	80 e0       	ldi	r24, 0x00	; 0
     758:	90 e0       	ldi	r25, 0x00	; 0
     75a:	a0 e0       	ldi	r26, 0x00	; 0
     75c:	b0 e8       	ldi	r27, 0x80	; 128
     75e:	e8 2a       	or	r14, r24
     760:	f9 2a       	or	r15, r25
     762:	0a 2b       	or	r16, r26
     764:	1b 2b       	or	r17, r27
     766:	76 95       	lsr	r23
     768:	67 95       	ror	r22
     76a:	57 95       	ror	r21
     76c:	47 95       	ror	r20
     76e:	2f 5f       	subi	r18, 0xFF	; 255
     770:	3f 4f       	sbci	r19, 0xFF	; 255
     772:	77 fd       	sbrc	r23, 7
     774:	e7 cf       	rjmp	.-50     	; 0x744 <__mulsf3+0x140>
     776:	0c c0       	rjmp	.+24     	; 0x790 <__mulsf3+0x18c>
     778:	44 0f       	add	r20, r20
     77a:	55 1f       	adc	r21, r21
     77c:	66 1f       	adc	r22, r22
     77e:	77 1f       	adc	r23, r23
     780:	17 fd       	sbrc	r17, 7
     782:	41 60       	ori	r20, 0x01	; 1
     784:	ee 0c       	add	r14, r14
     786:	ff 1c       	adc	r15, r15
     788:	00 1f       	adc	r16, r16
     78a:	11 1f       	adc	r17, r17
     78c:	21 50       	subi	r18, 0x01	; 1
     78e:	30 40       	sbci	r19, 0x00	; 0
     790:	40 30       	cpi	r20, 0x00	; 0
     792:	90 e0       	ldi	r25, 0x00	; 0
     794:	59 07       	cpc	r21, r25
     796:	90 e0       	ldi	r25, 0x00	; 0
     798:	69 07       	cpc	r22, r25
     79a:	90 e4       	ldi	r25, 0x40	; 64
     79c:	79 07       	cpc	r23, r25
     79e:	60 f3       	brcs	.-40     	; 0x778 <__mulsf3+0x174>
     7a0:	2b 8f       	std	Y+27, r18	; 0x1b
     7a2:	3c 8f       	std	Y+28, r19	; 0x1c
     7a4:	db 01       	movw	r26, r22
     7a6:	ca 01       	movw	r24, r20
     7a8:	8f 77       	andi	r24, 0x7F	; 127
     7aa:	90 70       	andi	r25, 0x00	; 0
     7ac:	a0 70       	andi	r26, 0x00	; 0
     7ae:	b0 70       	andi	r27, 0x00	; 0
     7b0:	80 34       	cpi	r24, 0x40	; 64
     7b2:	91 05       	cpc	r25, r1
     7b4:	a1 05       	cpc	r26, r1
     7b6:	b1 05       	cpc	r27, r1
     7b8:	61 f4       	brne	.+24     	; 0x7d2 <__mulsf3+0x1ce>
     7ba:	47 fd       	sbrc	r20, 7
     7bc:	0a c0       	rjmp	.+20     	; 0x7d2 <__mulsf3+0x1ce>
     7be:	e1 14       	cp	r14, r1
     7c0:	f1 04       	cpc	r15, r1
     7c2:	01 05       	cpc	r16, r1
     7c4:	11 05       	cpc	r17, r1
     7c6:	29 f0       	breq	.+10     	; 0x7d2 <__mulsf3+0x1ce>
     7c8:	40 5c       	subi	r20, 0xC0	; 192
     7ca:	5f 4f       	sbci	r21, 0xFF	; 255
     7cc:	6f 4f       	sbci	r22, 0xFF	; 255
     7ce:	7f 4f       	sbci	r23, 0xFF	; 255
     7d0:	40 78       	andi	r20, 0x80	; 128
     7d2:	1a 8e       	std	Y+26, r1	; 0x1a
     7d4:	fe 17       	cp	r31, r30
     7d6:	11 f0       	breq	.+4      	; 0x7dc <__mulsf3+0x1d8>
     7d8:	81 e0       	ldi	r24, 0x01	; 1
     7da:	8a 8f       	std	Y+26, r24	; 0x1a
     7dc:	4d 8f       	std	Y+29, r20	; 0x1d
     7de:	5e 8f       	std	Y+30, r21	; 0x1e
     7e0:	6f 8f       	std	Y+31, r22	; 0x1f
     7e2:	78 a3       	std	Y+32, r23	; 0x20
     7e4:	83 e0       	ldi	r24, 0x03	; 3
     7e6:	89 8f       	std	Y+25, r24	; 0x19
     7e8:	ce 01       	movw	r24, r28
     7ea:	49 96       	adiw	r24, 0x19	; 25
     7ec:	0e 94 a9 05 	call	0xb52	; 0xb52 <__pack_f>
     7f0:	a0 96       	adiw	r28, 0x20	; 32
     7f2:	e2 e1       	ldi	r30, 0x12	; 18
     7f4:	0c 94 79 1d 	jmp	0x3af2	; 0x3af2 <__epilogue_restores__>

000007f8 <__divsf3>:
     7f8:	a8 e1       	ldi	r26, 0x18	; 24
     7fa:	b0 e0       	ldi	r27, 0x00	; 0
     7fc:	e2 e0       	ldi	r30, 0x02	; 2
     7fe:	f4 e0       	ldi	r31, 0x04	; 4
     800:	0c 94 65 1d 	jmp	0x3aca	; 0x3aca <__prologue_saves__+0x10>
     804:	69 83       	std	Y+1, r22	; 0x01
     806:	7a 83       	std	Y+2, r23	; 0x02
     808:	8b 83       	std	Y+3, r24	; 0x03
     80a:	9c 83       	std	Y+4, r25	; 0x04
     80c:	2d 83       	std	Y+5, r18	; 0x05
     80e:	3e 83       	std	Y+6, r19	; 0x06
     810:	4f 83       	std	Y+7, r20	; 0x07
     812:	58 87       	std	Y+8, r21	; 0x08
     814:	b9 e0       	ldi	r27, 0x09	; 9
     816:	eb 2e       	mov	r14, r27
     818:	f1 2c       	mov	r15, r1
     81a:	ec 0e       	add	r14, r28
     81c:	fd 1e       	adc	r15, r29
     81e:	ce 01       	movw	r24, r28
     820:	01 96       	adiw	r24, 0x01	; 1
     822:	b7 01       	movw	r22, r14
     824:	0e 94 7e 06 	call	0xcfc	; 0xcfc <__unpack_f>
     828:	8e 01       	movw	r16, r28
     82a:	0f 5e       	subi	r16, 0xEF	; 239
     82c:	1f 4f       	sbci	r17, 0xFF	; 255
     82e:	ce 01       	movw	r24, r28
     830:	05 96       	adiw	r24, 0x05	; 5
     832:	b8 01       	movw	r22, r16
     834:	0e 94 7e 06 	call	0xcfc	; 0xcfc <__unpack_f>
     838:	29 85       	ldd	r18, Y+9	; 0x09
     83a:	22 30       	cpi	r18, 0x02	; 2
     83c:	08 f4       	brcc	.+2      	; 0x840 <__divsf3+0x48>
     83e:	7e c0       	rjmp	.+252    	; 0x93c <__divsf3+0x144>
     840:	39 89       	ldd	r19, Y+17	; 0x11
     842:	32 30       	cpi	r19, 0x02	; 2
     844:	10 f4       	brcc	.+4      	; 0x84a <__divsf3+0x52>
     846:	b8 01       	movw	r22, r16
     848:	7c c0       	rjmp	.+248    	; 0x942 <__divsf3+0x14a>
     84a:	8a 85       	ldd	r24, Y+10	; 0x0a
     84c:	9a 89       	ldd	r25, Y+18	; 0x12
     84e:	89 27       	eor	r24, r25
     850:	8a 87       	std	Y+10, r24	; 0x0a
     852:	24 30       	cpi	r18, 0x04	; 4
     854:	11 f0       	breq	.+4      	; 0x85a <__divsf3+0x62>
     856:	22 30       	cpi	r18, 0x02	; 2
     858:	31 f4       	brne	.+12     	; 0x866 <__divsf3+0x6e>
     85a:	23 17       	cp	r18, r19
     85c:	09 f0       	breq	.+2      	; 0x860 <__divsf3+0x68>
     85e:	6e c0       	rjmp	.+220    	; 0x93c <__divsf3+0x144>
     860:	61 e4       	ldi	r22, 0x41	; 65
     862:	71 e0       	ldi	r23, 0x01	; 1
     864:	6e c0       	rjmp	.+220    	; 0x942 <__divsf3+0x14a>
     866:	34 30       	cpi	r19, 0x04	; 4
     868:	39 f4       	brne	.+14     	; 0x878 <__divsf3+0x80>
     86a:	1d 86       	std	Y+13, r1	; 0x0d
     86c:	1e 86       	std	Y+14, r1	; 0x0e
     86e:	1f 86       	std	Y+15, r1	; 0x0f
     870:	18 8a       	std	Y+16, r1	; 0x10
     872:	1c 86       	std	Y+12, r1	; 0x0c
     874:	1b 86       	std	Y+11, r1	; 0x0b
     876:	04 c0       	rjmp	.+8      	; 0x880 <__divsf3+0x88>
     878:	32 30       	cpi	r19, 0x02	; 2
     87a:	21 f4       	brne	.+8      	; 0x884 <__divsf3+0x8c>
     87c:	84 e0       	ldi	r24, 0x04	; 4
     87e:	89 87       	std	Y+9, r24	; 0x09
     880:	b7 01       	movw	r22, r14
     882:	5f c0       	rjmp	.+190    	; 0x942 <__divsf3+0x14a>
     884:	2b 85       	ldd	r18, Y+11	; 0x0b
     886:	3c 85       	ldd	r19, Y+12	; 0x0c
     888:	8b 89       	ldd	r24, Y+19	; 0x13
     88a:	9c 89       	ldd	r25, Y+20	; 0x14
     88c:	28 1b       	sub	r18, r24
     88e:	39 0b       	sbc	r19, r25
     890:	3c 87       	std	Y+12, r19	; 0x0c
     892:	2b 87       	std	Y+11, r18	; 0x0b
     894:	ed 84       	ldd	r14, Y+13	; 0x0d
     896:	fe 84       	ldd	r15, Y+14	; 0x0e
     898:	0f 85       	ldd	r16, Y+15	; 0x0f
     89a:	18 89       	ldd	r17, Y+16	; 0x10
     89c:	ad 88       	ldd	r10, Y+21	; 0x15
     89e:	be 88       	ldd	r11, Y+22	; 0x16
     8a0:	cf 88       	ldd	r12, Y+23	; 0x17
     8a2:	d8 8c       	ldd	r13, Y+24	; 0x18
     8a4:	ea 14       	cp	r14, r10
     8a6:	fb 04       	cpc	r15, r11
     8a8:	0c 05       	cpc	r16, r12
     8aa:	1d 05       	cpc	r17, r13
     8ac:	40 f4       	brcc	.+16     	; 0x8be <__divsf3+0xc6>
     8ae:	ee 0c       	add	r14, r14
     8b0:	ff 1c       	adc	r15, r15
     8b2:	00 1f       	adc	r16, r16
     8b4:	11 1f       	adc	r17, r17
     8b6:	21 50       	subi	r18, 0x01	; 1
     8b8:	30 40       	sbci	r19, 0x00	; 0
     8ba:	3c 87       	std	Y+12, r19	; 0x0c
     8bc:	2b 87       	std	Y+11, r18	; 0x0b
     8be:	20 e0       	ldi	r18, 0x00	; 0
     8c0:	30 e0       	ldi	r19, 0x00	; 0
     8c2:	40 e0       	ldi	r20, 0x00	; 0
     8c4:	50 e0       	ldi	r21, 0x00	; 0
     8c6:	80 e0       	ldi	r24, 0x00	; 0
     8c8:	90 e0       	ldi	r25, 0x00	; 0
     8ca:	a0 e0       	ldi	r26, 0x00	; 0
     8cc:	b0 e4       	ldi	r27, 0x40	; 64
     8ce:	60 e0       	ldi	r22, 0x00	; 0
     8d0:	70 e0       	ldi	r23, 0x00	; 0
     8d2:	ea 14       	cp	r14, r10
     8d4:	fb 04       	cpc	r15, r11
     8d6:	0c 05       	cpc	r16, r12
     8d8:	1d 05       	cpc	r17, r13
     8da:	40 f0       	brcs	.+16     	; 0x8ec <__divsf3+0xf4>
     8dc:	28 2b       	or	r18, r24
     8de:	39 2b       	or	r19, r25
     8e0:	4a 2b       	or	r20, r26
     8e2:	5b 2b       	or	r21, r27
     8e4:	ea 18       	sub	r14, r10
     8e6:	fb 08       	sbc	r15, r11
     8e8:	0c 09       	sbc	r16, r12
     8ea:	1d 09       	sbc	r17, r13
     8ec:	b6 95       	lsr	r27
     8ee:	a7 95       	ror	r26
     8f0:	97 95       	ror	r25
     8f2:	87 95       	ror	r24
     8f4:	ee 0c       	add	r14, r14
     8f6:	ff 1c       	adc	r15, r15
     8f8:	00 1f       	adc	r16, r16
     8fa:	11 1f       	adc	r17, r17
     8fc:	6f 5f       	subi	r22, 0xFF	; 255
     8fe:	7f 4f       	sbci	r23, 0xFF	; 255
     900:	6f 31       	cpi	r22, 0x1F	; 31
     902:	71 05       	cpc	r23, r1
     904:	31 f7       	brne	.-52     	; 0x8d2 <__divsf3+0xda>
     906:	da 01       	movw	r26, r20
     908:	c9 01       	movw	r24, r18
     90a:	8f 77       	andi	r24, 0x7F	; 127
     90c:	90 70       	andi	r25, 0x00	; 0
     90e:	a0 70       	andi	r26, 0x00	; 0
     910:	b0 70       	andi	r27, 0x00	; 0
     912:	80 34       	cpi	r24, 0x40	; 64
     914:	91 05       	cpc	r25, r1
     916:	a1 05       	cpc	r26, r1
     918:	b1 05       	cpc	r27, r1
     91a:	61 f4       	brne	.+24     	; 0x934 <__divsf3+0x13c>
     91c:	27 fd       	sbrc	r18, 7
     91e:	0a c0       	rjmp	.+20     	; 0x934 <__divsf3+0x13c>
     920:	e1 14       	cp	r14, r1
     922:	f1 04       	cpc	r15, r1
     924:	01 05       	cpc	r16, r1
     926:	11 05       	cpc	r17, r1
     928:	29 f0       	breq	.+10     	; 0x934 <__divsf3+0x13c>
     92a:	20 5c       	subi	r18, 0xC0	; 192
     92c:	3f 4f       	sbci	r19, 0xFF	; 255
     92e:	4f 4f       	sbci	r20, 0xFF	; 255
     930:	5f 4f       	sbci	r21, 0xFF	; 255
     932:	20 78       	andi	r18, 0x80	; 128
     934:	2d 87       	std	Y+13, r18	; 0x0d
     936:	3e 87       	std	Y+14, r19	; 0x0e
     938:	4f 87       	std	Y+15, r20	; 0x0f
     93a:	58 8b       	std	Y+16, r21	; 0x10
     93c:	be 01       	movw	r22, r28
     93e:	67 5f       	subi	r22, 0xF7	; 247
     940:	7f 4f       	sbci	r23, 0xFF	; 255
     942:	cb 01       	movw	r24, r22
     944:	0e 94 a9 05 	call	0xb52	; 0xb52 <__pack_f>
     948:	68 96       	adiw	r28, 0x18	; 24
     94a:	ea e0       	ldi	r30, 0x0A	; 10
     94c:	0c 94 81 1d 	jmp	0x3b02	; 0x3b02 <__epilogue_restores__+0x10>

00000950 <__floatsisf>:
     950:	a8 e0       	ldi	r26, 0x08	; 8
     952:	b0 e0       	ldi	r27, 0x00	; 0
     954:	ee ea       	ldi	r30, 0xAE	; 174
     956:	f4 e0       	ldi	r31, 0x04	; 4
     958:	0c 94 66 1d 	jmp	0x3acc	; 0x3acc <__prologue_saves__+0x12>
     95c:	9b 01       	movw	r18, r22
     95e:	ac 01       	movw	r20, r24
     960:	83 e0       	ldi	r24, 0x03	; 3
     962:	89 83       	std	Y+1, r24	; 0x01
     964:	da 01       	movw	r26, r20
     966:	c9 01       	movw	r24, r18
     968:	88 27       	eor	r24, r24
     96a:	b7 fd       	sbrc	r27, 7
     96c:	83 95       	inc	r24
     96e:	99 27       	eor	r25, r25
     970:	aa 27       	eor	r26, r26
     972:	bb 27       	eor	r27, r27
     974:	b8 2e       	mov	r11, r24
     976:	21 15       	cp	r18, r1
     978:	31 05       	cpc	r19, r1
     97a:	41 05       	cpc	r20, r1
     97c:	51 05       	cpc	r21, r1
     97e:	19 f4       	brne	.+6      	; 0x986 <__floatsisf+0x36>
     980:	82 e0       	ldi	r24, 0x02	; 2
     982:	89 83       	std	Y+1, r24	; 0x01
     984:	3a c0       	rjmp	.+116    	; 0x9fa <__floatsisf+0xaa>
     986:	88 23       	and	r24, r24
     988:	a9 f0       	breq	.+42     	; 0x9b4 <__floatsisf+0x64>
     98a:	20 30       	cpi	r18, 0x00	; 0
     98c:	80 e0       	ldi	r24, 0x00	; 0
     98e:	38 07       	cpc	r19, r24
     990:	80 e0       	ldi	r24, 0x00	; 0
     992:	48 07       	cpc	r20, r24
     994:	80 e8       	ldi	r24, 0x80	; 128
     996:	58 07       	cpc	r21, r24
     998:	29 f4       	brne	.+10     	; 0x9a4 <__floatsisf+0x54>
     99a:	60 e0       	ldi	r22, 0x00	; 0
     99c:	70 e0       	ldi	r23, 0x00	; 0
     99e:	80 e0       	ldi	r24, 0x00	; 0
     9a0:	9f ec       	ldi	r25, 0xCF	; 207
     9a2:	30 c0       	rjmp	.+96     	; 0xa04 <__floatsisf+0xb4>
     9a4:	ee 24       	eor	r14, r14
     9a6:	ff 24       	eor	r15, r15
     9a8:	87 01       	movw	r16, r14
     9aa:	e2 1a       	sub	r14, r18
     9ac:	f3 0a       	sbc	r15, r19
     9ae:	04 0b       	sbc	r16, r20
     9b0:	15 0b       	sbc	r17, r21
     9b2:	02 c0       	rjmp	.+4      	; 0x9b8 <__floatsisf+0x68>
     9b4:	79 01       	movw	r14, r18
     9b6:	8a 01       	movw	r16, r20
     9b8:	8e e1       	ldi	r24, 0x1E	; 30
     9ba:	c8 2e       	mov	r12, r24
     9bc:	d1 2c       	mov	r13, r1
     9be:	dc 82       	std	Y+4, r13	; 0x04
     9c0:	cb 82       	std	Y+3, r12	; 0x03
     9c2:	ed 82       	std	Y+5, r14	; 0x05
     9c4:	fe 82       	std	Y+6, r15	; 0x06
     9c6:	0f 83       	std	Y+7, r16	; 0x07
     9c8:	18 87       	std	Y+8, r17	; 0x08
     9ca:	c8 01       	movw	r24, r16
     9cc:	b7 01       	movw	r22, r14
     9ce:	0e 94 5a 05 	call	0xab4	; 0xab4 <__clzsi2>
     9d2:	01 97       	sbiw	r24, 0x01	; 1
     9d4:	18 16       	cp	r1, r24
     9d6:	19 06       	cpc	r1, r25
     9d8:	84 f4       	brge	.+32     	; 0x9fa <__floatsisf+0xaa>
     9da:	08 2e       	mov	r0, r24
     9dc:	04 c0       	rjmp	.+8      	; 0x9e6 <__floatsisf+0x96>
     9de:	ee 0c       	add	r14, r14
     9e0:	ff 1c       	adc	r15, r15
     9e2:	00 1f       	adc	r16, r16
     9e4:	11 1f       	adc	r17, r17
     9e6:	0a 94       	dec	r0
     9e8:	d2 f7       	brpl	.-12     	; 0x9de <__floatsisf+0x8e>
     9ea:	ed 82       	std	Y+5, r14	; 0x05
     9ec:	fe 82       	std	Y+6, r15	; 0x06
     9ee:	0f 83       	std	Y+7, r16	; 0x07
     9f0:	18 87       	std	Y+8, r17	; 0x08
     9f2:	c8 1a       	sub	r12, r24
     9f4:	d9 0a       	sbc	r13, r25
     9f6:	dc 82       	std	Y+4, r13	; 0x04
     9f8:	cb 82       	std	Y+3, r12	; 0x03
     9fa:	ba 82       	std	Y+2, r11	; 0x02
     9fc:	ce 01       	movw	r24, r28
     9fe:	01 96       	adiw	r24, 0x01	; 1
     a00:	0e 94 a9 05 	call	0xb52	; 0xb52 <__pack_f>
     a04:	28 96       	adiw	r28, 0x08	; 8
     a06:	e9 e0       	ldi	r30, 0x09	; 9
     a08:	0c 94 82 1d 	jmp	0x3b04	; 0x3b04 <__epilogue_restores__+0x12>

00000a0c <__fixsfsi>:
     a0c:	ac e0       	ldi	r26, 0x0C	; 12
     a0e:	b0 e0       	ldi	r27, 0x00	; 0
     a10:	ec e0       	ldi	r30, 0x0C	; 12
     a12:	f5 e0       	ldi	r31, 0x05	; 5
     a14:	0c 94 6d 1d 	jmp	0x3ada	; 0x3ada <__prologue_saves__+0x20>
     a18:	69 83       	std	Y+1, r22	; 0x01
     a1a:	7a 83       	std	Y+2, r23	; 0x02
     a1c:	8b 83       	std	Y+3, r24	; 0x03
     a1e:	9c 83       	std	Y+4, r25	; 0x04
     a20:	ce 01       	movw	r24, r28
     a22:	01 96       	adiw	r24, 0x01	; 1
     a24:	be 01       	movw	r22, r28
     a26:	6b 5f       	subi	r22, 0xFB	; 251
     a28:	7f 4f       	sbci	r23, 0xFF	; 255
     a2a:	0e 94 7e 06 	call	0xcfc	; 0xcfc <__unpack_f>
     a2e:	8d 81       	ldd	r24, Y+5	; 0x05
     a30:	82 30       	cpi	r24, 0x02	; 2
     a32:	61 f1       	breq	.+88     	; 0xa8c <__fixsfsi+0x80>
     a34:	82 30       	cpi	r24, 0x02	; 2
     a36:	50 f1       	brcs	.+84     	; 0xa8c <__fixsfsi+0x80>
     a38:	84 30       	cpi	r24, 0x04	; 4
     a3a:	21 f4       	brne	.+8      	; 0xa44 <__fixsfsi+0x38>
     a3c:	8e 81       	ldd	r24, Y+6	; 0x06
     a3e:	88 23       	and	r24, r24
     a40:	51 f1       	breq	.+84     	; 0xa96 <__fixsfsi+0x8a>
     a42:	2e c0       	rjmp	.+92     	; 0xaa0 <__fixsfsi+0x94>
     a44:	2f 81       	ldd	r18, Y+7	; 0x07
     a46:	38 85       	ldd	r19, Y+8	; 0x08
     a48:	37 fd       	sbrc	r19, 7
     a4a:	20 c0       	rjmp	.+64     	; 0xa8c <__fixsfsi+0x80>
     a4c:	6e 81       	ldd	r22, Y+6	; 0x06
     a4e:	2f 31       	cpi	r18, 0x1F	; 31
     a50:	31 05       	cpc	r19, r1
     a52:	1c f0       	brlt	.+6      	; 0xa5a <__fixsfsi+0x4e>
     a54:	66 23       	and	r22, r22
     a56:	f9 f0       	breq	.+62     	; 0xa96 <__fixsfsi+0x8a>
     a58:	23 c0       	rjmp	.+70     	; 0xaa0 <__fixsfsi+0x94>
     a5a:	8e e1       	ldi	r24, 0x1E	; 30
     a5c:	90 e0       	ldi	r25, 0x00	; 0
     a5e:	82 1b       	sub	r24, r18
     a60:	93 0b       	sbc	r25, r19
     a62:	29 85       	ldd	r18, Y+9	; 0x09
     a64:	3a 85       	ldd	r19, Y+10	; 0x0a
     a66:	4b 85       	ldd	r20, Y+11	; 0x0b
     a68:	5c 85       	ldd	r21, Y+12	; 0x0c
     a6a:	04 c0       	rjmp	.+8      	; 0xa74 <__fixsfsi+0x68>
     a6c:	56 95       	lsr	r21
     a6e:	47 95       	ror	r20
     a70:	37 95       	ror	r19
     a72:	27 95       	ror	r18
     a74:	8a 95       	dec	r24
     a76:	d2 f7       	brpl	.-12     	; 0xa6c <__fixsfsi+0x60>
     a78:	66 23       	and	r22, r22
     a7a:	b1 f0       	breq	.+44     	; 0xaa8 <__fixsfsi+0x9c>
     a7c:	50 95       	com	r21
     a7e:	40 95       	com	r20
     a80:	30 95       	com	r19
     a82:	21 95       	neg	r18
     a84:	3f 4f       	sbci	r19, 0xFF	; 255
     a86:	4f 4f       	sbci	r20, 0xFF	; 255
     a88:	5f 4f       	sbci	r21, 0xFF	; 255
     a8a:	0e c0       	rjmp	.+28     	; 0xaa8 <__fixsfsi+0x9c>
     a8c:	20 e0       	ldi	r18, 0x00	; 0
     a8e:	30 e0       	ldi	r19, 0x00	; 0
     a90:	40 e0       	ldi	r20, 0x00	; 0
     a92:	50 e0       	ldi	r21, 0x00	; 0
     a94:	09 c0       	rjmp	.+18     	; 0xaa8 <__fixsfsi+0x9c>
     a96:	2f ef       	ldi	r18, 0xFF	; 255
     a98:	3f ef       	ldi	r19, 0xFF	; 255
     a9a:	4f ef       	ldi	r20, 0xFF	; 255
     a9c:	5f e7       	ldi	r21, 0x7F	; 127
     a9e:	04 c0       	rjmp	.+8      	; 0xaa8 <__fixsfsi+0x9c>
     aa0:	20 e0       	ldi	r18, 0x00	; 0
     aa2:	30 e0       	ldi	r19, 0x00	; 0
     aa4:	40 e0       	ldi	r20, 0x00	; 0
     aa6:	50 e8       	ldi	r21, 0x80	; 128
     aa8:	b9 01       	movw	r22, r18
     aaa:	ca 01       	movw	r24, r20
     aac:	2c 96       	adiw	r28, 0x0c	; 12
     aae:	e2 e0       	ldi	r30, 0x02	; 2
     ab0:	0c 94 89 1d 	jmp	0x3b12	; 0x3b12 <__epilogue_restores__+0x20>

00000ab4 <__clzsi2>:
     ab4:	ef 92       	push	r14
     ab6:	ff 92       	push	r15
     ab8:	0f 93       	push	r16
     aba:	1f 93       	push	r17
     abc:	7b 01       	movw	r14, r22
     abe:	8c 01       	movw	r16, r24
     ac0:	80 e0       	ldi	r24, 0x00	; 0
     ac2:	e8 16       	cp	r14, r24
     ac4:	80 e0       	ldi	r24, 0x00	; 0
     ac6:	f8 06       	cpc	r15, r24
     ac8:	81 e0       	ldi	r24, 0x01	; 1
     aca:	08 07       	cpc	r16, r24
     acc:	80 e0       	ldi	r24, 0x00	; 0
     ace:	18 07       	cpc	r17, r24
     ad0:	88 f4       	brcc	.+34     	; 0xaf4 <__clzsi2+0x40>
     ad2:	8f ef       	ldi	r24, 0xFF	; 255
     ad4:	e8 16       	cp	r14, r24
     ad6:	f1 04       	cpc	r15, r1
     ad8:	01 05       	cpc	r16, r1
     ada:	11 05       	cpc	r17, r1
     adc:	31 f0       	breq	.+12     	; 0xaea <__clzsi2+0x36>
     ade:	28 f0       	brcs	.+10     	; 0xaea <__clzsi2+0x36>
     ae0:	88 e0       	ldi	r24, 0x08	; 8
     ae2:	90 e0       	ldi	r25, 0x00	; 0
     ae4:	a0 e0       	ldi	r26, 0x00	; 0
     ae6:	b0 e0       	ldi	r27, 0x00	; 0
     ae8:	17 c0       	rjmp	.+46     	; 0xb18 <__clzsi2+0x64>
     aea:	80 e0       	ldi	r24, 0x00	; 0
     aec:	90 e0       	ldi	r25, 0x00	; 0
     aee:	a0 e0       	ldi	r26, 0x00	; 0
     af0:	b0 e0       	ldi	r27, 0x00	; 0
     af2:	12 c0       	rjmp	.+36     	; 0xb18 <__clzsi2+0x64>
     af4:	80 e0       	ldi	r24, 0x00	; 0
     af6:	e8 16       	cp	r14, r24
     af8:	80 e0       	ldi	r24, 0x00	; 0
     afa:	f8 06       	cpc	r15, r24
     afc:	80 e0       	ldi	r24, 0x00	; 0
     afe:	08 07       	cpc	r16, r24
     b00:	81 e0       	ldi	r24, 0x01	; 1
     b02:	18 07       	cpc	r17, r24
     b04:	28 f0       	brcs	.+10     	; 0xb10 <__clzsi2+0x5c>
     b06:	88 e1       	ldi	r24, 0x18	; 24
     b08:	90 e0       	ldi	r25, 0x00	; 0
     b0a:	a0 e0       	ldi	r26, 0x00	; 0
     b0c:	b0 e0       	ldi	r27, 0x00	; 0
     b0e:	04 c0       	rjmp	.+8      	; 0xb18 <__clzsi2+0x64>
     b10:	80 e1       	ldi	r24, 0x10	; 16
     b12:	90 e0       	ldi	r25, 0x00	; 0
     b14:	a0 e0       	ldi	r26, 0x00	; 0
     b16:	b0 e0       	ldi	r27, 0x00	; 0
     b18:	20 e2       	ldi	r18, 0x20	; 32
     b1a:	30 e0       	ldi	r19, 0x00	; 0
     b1c:	40 e0       	ldi	r20, 0x00	; 0
     b1e:	50 e0       	ldi	r21, 0x00	; 0
     b20:	28 1b       	sub	r18, r24
     b22:	39 0b       	sbc	r19, r25
     b24:	4a 0b       	sbc	r20, r26
     b26:	5b 0b       	sbc	r21, r27
     b28:	04 c0       	rjmp	.+8      	; 0xb32 <__clzsi2+0x7e>
     b2a:	16 95       	lsr	r17
     b2c:	07 95       	ror	r16
     b2e:	f7 94       	ror	r15
     b30:	e7 94       	ror	r14
     b32:	8a 95       	dec	r24
     b34:	d2 f7       	brpl	.-12     	; 0xb2a <__clzsi2+0x76>
     b36:	f7 01       	movw	r30, r14
     b38:	e7 5b       	subi	r30, 0xB7	; 183
     b3a:	fe 4f       	sbci	r31, 0xFE	; 254
     b3c:	80 81       	ld	r24, Z
     b3e:	28 1b       	sub	r18, r24
     b40:	31 09       	sbc	r19, r1
     b42:	41 09       	sbc	r20, r1
     b44:	51 09       	sbc	r21, r1
     b46:	c9 01       	movw	r24, r18
     b48:	1f 91       	pop	r17
     b4a:	0f 91       	pop	r16
     b4c:	ff 90       	pop	r15
     b4e:	ef 90       	pop	r14
     b50:	08 95       	ret

00000b52 <__pack_f>:
     b52:	df 92       	push	r13
     b54:	ef 92       	push	r14
     b56:	ff 92       	push	r15
     b58:	0f 93       	push	r16
     b5a:	1f 93       	push	r17
     b5c:	fc 01       	movw	r30, r24
     b5e:	e4 80       	ldd	r14, Z+4	; 0x04
     b60:	f5 80       	ldd	r15, Z+5	; 0x05
     b62:	06 81       	ldd	r16, Z+6	; 0x06
     b64:	17 81       	ldd	r17, Z+7	; 0x07
     b66:	d1 80       	ldd	r13, Z+1	; 0x01
     b68:	80 81       	ld	r24, Z
     b6a:	82 30       	cpi	r24, 0x02	; 2
     b6c:	48 f4       	brcc	.+18     	; 0xb80 <__pack_f+0x2e>
     b6e:	80 e0       	ldi	r24, 0x00	; 0
     b70:	90 e0       	ldi	r25, 0x00	; 0
     b72:	a0 e1       	ldi	r26, 0x10	; 16
     b74:	b0 e0       	ldi	r27, 0x00	; 0
     b76:	e8 2a       	or	r14, r24
     b78:	f9 2a       	or	r15, r25
     b7a:	0a 2b       	or	r16, r26
     b7c:	1b 2b       	or	r17, r27
     b7e:	a5 c0       	rjmp	.+330    	; 0xcca <__pack_f+0x178>
     b80:	84 30       	cpi	r24, 0x04	; 4
     b82:	09 f4       	brne	.+2      	; 0xb86 <__pack_f+0x34>
     b84:	9f c0       	rjmp	.+318    	; 0xcc4 <__pack_f+0x172>
     b86:	82 30       	cpi	r24, 0x02	; 2
     b88:	21 f4       	brne	.+8      	; 0xb92 <__pack_f+0x40>
     b8a:	ee 24       	eor	r14, r14
     b8c:	ff 24       	eor	r15, r15
     b8e:	87 01       	movw	r16, r14
     b90:	05 c0       	rjmp	.+10     	; 0xb9c <__pack_f+0x4a>
     b92:	e1 14       	cp	r14, r1
     b94:	f1 04       	cpc	r15, r1
     b96:	01 05       	cpc	r16, r1
     b98:	11 05       	cpc	r17, r1
     b9a:	19 f4       	brne	.+6      	; 0xba2 <__pack_f+0x50>
     b9c:	e0 e0       	ldi	r30, 0x00	; 0
     b9e:	f0 e0       	ldi	r31, 0x00	; 0
     ba0:	96 c0       	rjmp	.+300    	; 0xcce <__pack_f+0x17c>
     ba2:	62 81       	ldd	r22, Z+2	; 0x02
     ba4:	73 81       	ldd	r23, Z+3	; 0x03
     ba6:	9f ef       	ldi	r25, 0xFF	; 255
     ba8:	62 38       	cpi	r22, 0x82	; 130
     baa:	79 07       	cpc	r23, r25
     bac:	0c f0       	brlt	.+2      	; 0xbb0 <__pack_f+0x5e>
     bae:	5b c0       	rjmp	.+182    	; 0xc66 <__pack_f+0x114>
     bb0:	22 e8       	ldi	r18, 0x82	; 130
     bb2:	3f ef       	ldi	r19, 0xFF	; 255
     bb4:	26 1b       	sub	r18, r22
     bb6:	37 0b       	sbc	r19, r23
     bb8:	2a 31       	cpi	r18, 0x1A	; 26
     bba:	31 05       	cpc	r19, r1
     bbc:	2c f0       	brlt	.+10     	; 0xbc8 <__pack_f+0x76>
     bbe:	20 e0       	ldi	r18, 0x00	; 0
     bc0:	30 e0       	ldi	r19, 0x00	; 0
     bc2:	40 e0       	ldi	r20, 0x00	; 0
     bc4:	50 e0       	ldi	r21, 0x00	; 0
     bc6:	2a c0       	rjmp	.+84     	; 0xc1c <__pack_f+0xca>
     bc8:	b8 01       	movw	r22, r16
     bca:	a7 01       	movw	r20, r14
     bcc:	02 2e       	mov	r0, r18
     bce:	04 c0       	rjmp	.+8      	; 0xbd8 <__pack_f+0x86>
     bd0:	76 95       	lsr	r23
     bd2:	67 95       	ror	r22
     bd4:	57 95       	ror	r21
     bd6:	47 95       	ror	r20
     bd8:	0a 94       	dec	r0
     bda:	d2 f7       	brpl	.-12     	; 0xbd0 <__pack_f+0x7e>
     bdc:	81 e0       	ldi	r24, 0x01	; 1
     bde:	90 e0       	ldi	r25, 0x00	; 0
     be0:	a0 e0       	ldi	r26, 0x00	; 0
     be2:	b0 e0       	ldi	r27, 0x00	; 0
     be4:	04 c0       	rjmp	.+8      	; 0xbee <__pack_f+0x9c>
     be6:	88 0f       	add	r24, r24
     be8:	99 1f       	adc	r25, r25
     bea:	aa 1f       	adc	r26, r26
     bec:	bb 1f       	adc	r27, r27
     bee:	2a 95       	dec	r18
     bf0:	d2 f7       	brpl	.-12     	; 0xbe6 <__pack_f+0x94>
     bf2:	01 97       	sbiw	r24, 0x01	; 1
     bf4:	a1 09       	sbc	r26, r1
     bf6:	b1 09       	sbc	r27, r1
     bf8:	8e 21       	and	r24, r14
     bfa:	9f 21       	and	r25, r15
     bfc:	a0 23       	and	r26, r16
     bfe:	b1 23       	and	r27, r17
     c00:	00 97       	sbiw	r24, 0x00	; 0
     c02:	a1 05       	cpc	r26, r1
     c04:	b1 05       	cpc	r27, r1
     c06:	21 f0       	breq	.+8      	; 0xc10 <__pack_f+0xbe>
     c08:	81 e0       	ldi	r24, 0x01	; 1
     c0a:	90 e0       	ldi	r25, 0x00	; 0
     c0c:	a0 e0       	ldi	r26, 0x00	; 0
     c0e:	b0 e0       	ldi	r27, 0x00	; 0
     c10:	9a 01       	movw	r18, r20
     c12:	ab 01       	movw	r20, r22
     c14:	28 2b       	or	r18, r24
     c16:	39 2b       	or	r19, r25
     c18:	4a 2b       	or	r20, r26
     c1a:	5b 2b       	or	r21, r27
     c1c:	da 01       	movw	r26, r20
     c1e:	c9 01       	movw	r24, r18
     c20:	8f 77       	andi	r24, 0x7F	; 127
     c22:	90 70       	andi	r25, 0x00	; 0
     c24:	a0 70       	andi	r26, 0x00	; 0
     c26:	b0 70       	andi	r27, 0x00	; 0
     c28:	80 34       	cpi	r24, 0x40	; 64
     c2a:	91 05       	cpc	r25, r1
     c2c:	a1 05       	cpc	r26, r1
     c2e:	b1 05       	cpc	r27, r1
     c30:	39 f4       	brne	.+14     	; 0xc40 <__pack_f+0xee>
     c32:	27 ff       	sbrs	r18, 7
     c34:	09 c0       	rjmp	.+18     	; 0xc48 <__pack_f+0xf6>
     c36:	20 5c       	subi	r18, 0xC0	; 192
     c38:	3f 4f       	sbci	r19, 0xFF	; 255
     c3a:	4f 4f       	sbci	r20, 0xFF	; 255
     c3c:	5f 4f       	sbci	r21, 0xFF	; 255
     c3e:	04 c0       	rjmp	.+8      	; 0xc48 <__pack_f+0xf6>
     c40:	21 5c       	subi	r18, 0xC1	; 193
     c42:	3f 4f       	sbci	r19, 0xFF	; 255
     c44:	4f 4f       	sbci	r20, 0xFF	; 255
     c46:	5f 4f       	sbci	r21, 0xFF	; 255
     c48:	e0 e0       	ldi	r30, 0x00	; 0
     c4a:	f0 e0       	ldi	r31, 0x00	; 0
     c4c:	20 30       	cpi	r18, 0x00	; 0
     c4e:	a0 e0       	ldi	r26, 0x00	; 0
     c50:	3a 07       	cpc	r19, r26
     c52:	a0 e0       	ldi	r26, 0x00	; 0
     c54:	4a 07       	cpc	r20, r26
     c56:	a0 e4       	ldi	r26, 0x40	; 64
     c58:	5a 07       	cpc	r21, r26
     c5a:	10 f0       	brcs	.+4      	; 0xc60 <__pack_f+0x10e>
     c5c:	e1 e0       	ldi	r30, 0x01	; 1
     c5e:	f0 e0       	ldi	r31, 0x00	; 0
     c60:	79 01       	movw	r14, r18
     c62:	8a 01       	movw	r16, r20
     c64:	27 c0       	rjmp	.+78     	; 0xcb4 <__pack_f+0x162>
     c66:	60 38       	cpi	r22, 0x80	; 128
     c68:	71 05       	cpc	r23, r1
     c6a:	64 f5       	brge	.+88     	; 0xcc4 <__pack_f+0x172>
     c6c:	fb 01       	movw	r30, r22
     c6e:	e1 58       	subi	r30, 0x81	; 129
     c70:	ff 4f       	sbci	r31, 0xFF	; 255
     c72:	d8 01       	movw	r26, r16
     c74:	c7 01       	movw	r24, r14
     c76:	8f 77       	andi	r24, 0x7F	; 127
     c78:	90 70       	andi	r25, 0x00	; 0
     c7a:	a0 70       	andi	r26, 0x00	; 0
     c7c:	b0 70       	andi	r27, 0x00	; 0
     c7e:	80 34       	cpi	r24, 0x40	; 64
     c80:	91 05       	cpc	r25, r1
     c82:	a1 05       	cpc	r26, r1
     c84:	b1 05       	cpc	r27, r1
     c86:	39 f4       	brne	.+14     	; 0xc96 <__pack_f+0x144>
     c88:	e7 fe       	sbrs	r14, 7
     c8a:	0d c0       	rjmp	.+26     	; 0xca6 <__pack_f+0x154>
     c8c:	80 e4       	ldi	r24, 0x40	; 64
     c8e:	90 e0       	ldi	r25, 0x00	; 0
     c90:	a0 e0       	ldi	r26, 0x00	; 0
     c92:	b0 e0       	ldi	r27, 0x00	; 0
     c94:	04 c0       	rjmp	.+8      	; 0xc9e <__pack_f+0x14c>
     c96:	8f e3       	ldi	r24, 0x3F	; 63
     c98:	90 e0       	ldi	r25, 0x00	; 0
     c9a:	a0 e0       	ldi	r26, 0x00	; 0
     c9c:	b0 e0       	ldi	r27, 0x00	; 0
     c9e:	e8 0e       	add	r14, r24
     ca0:	f9 1e       	adc	r15, r25
     ca2:	0a 1f       	adc	r16, r26
     ca4:	1b 1f       	adc	r17, r27
     ca6:	17 ff       	sbrs	r17, 7
     ca8:	05 c0       	rjmp	.+10     	; 0xcb4 <__pack_f+0x162>
     caa:	16 95       	lsr	r17
     cac:	07 95       	ror	r16
     cae:	f7 94       	ror	r15
     cb0:	e7 94       	ror	r14
     cb2:	31 96       	adiw	r30, 0x01	; 1
     cb4:	87 e0       	ldi	r24, 0x07	; 7
     cb6:	16 95       	lsr	r17
     cb8:	07 95       	ror	r16
     cba:	f7 94       	ror	r15
     cbc:	e7 94       	ror	r14
     cbe:	8a 95       	dec	r24
     cc0:	d1 f7       	brne	.-12     	; 0xcb6 <__pack_f+0x164>
     cc2:	05 c0       	rjmp	.+10     	; 0xcce <__pack_f+0x17c>
     cc4:	ee 24       	eor	r14, r14
     cc6:	ff 24       	eor	r15, r15
     cc8:	87 01       	movw	r16, r14
     cca:	ef ef       	ldi	r30, 0xFF	; 255
     ccc:	f0 e0       	ldi	r31, 0x00	; 0
     cce:	6e 2f       	mov	r22, r30
     cd0:	67 95       	ror	r22
     cd2:	66 27       	eor	r22, r22
     cd4:	67 95       	ror	r22
     cd6:	90 2f       	mov	r25, r16
     cd8:	9f 77       	andi	r25, 0x7F	; 127
     cda:	d7 94       	ror	r13
     cdc:	dd 24       	eor	r13, r13
     cde:	d7 94       	ror	r13
     ce0:	8e 2f       	mov	r24, r30
     ce2:	86 95       	lsr	r24
     ce4:	49 2f       	mov	r20, r25
     ce6:	46 2b       	or	r20, r22
     ce8:	58 2f       	mov	r21, r24
     cea:	5d 29       	or	r21, r13
     cec:	b7 01       	movw	r22, r14
     cee:	ca 01       	movw	r24, r20
     cf0:	1f 91       	pop	r17
     cf2:	0f 91       	pop	r16
     cf4:	ff 90       	pop	r15
     cf6:	ef 90       	pop	r14
     cf8:	df 90       	pop	r13
     cfa:	08 95       	ret

00000cfc <__unpack_f>:
     cfc:	fc 01       	movw	r30, r24
     cfe:	db 01       	movw	r26, r22
     d00:	40 81       	ld	r20, Z
     d02:	51 81       	ldd	r21, Z+1	; 0x01
     d04:	22 81       	ldd	r18, Z+2	; 0x02
     d06:	62 2f       	mov	r22, r18
     d08:	6f 77       	andi	r22, 0x7F	; 127
     d0a:	70 e0       	ldi	r23, 0x00	; 0
     d0c:	22 1f       	adc	r18, r18
     d0e:	22 27       	eor	r18, r18
     d10:	22 1f       	adc	r18, r18
     d12:	93 81       	ldd	r25, Z+3	; 0x03
     d14:	89 2f       	mov	r24, r25
     d16:	88 0f       	add	r24, r24
     d18:	82 2b       	or	r24, r18
     d1a:	28 2f       	mov	r18, r24
     d1c:	30 e0       	ldi	r19, 0x00	; 0
     d1e:	99 1f       	adc	r25, r25
     d20:	99 27       	eor	r25, r25
     d22:	99 1f       	adc	r25, r25
     d24:	11 96       	adiw	r26, 0x01	; 1
     d26:	9c 93       	st	X, r25
     d28:	11 97       	sbiw	r26, 0x01	; 1
     d2a:	21 15       	cp	r18, r1
     d2c:	31 05       	cpc	r19, r1
     d2e:	a9 f5       	brne	.+106    	; 0xd9a <__unpack_f+0x9e>
     d30:	41 15       	cp	r20, r1
     d32:	51 05       	cpc	r21, r1
     d34:	61 05       	cpc	r22, r1
     d36:	71 05       	cpc	r23, r1
     d38:	11 f4       	brne	.+4      	; 0xd3e <__unpack_f+0x42>
     d3a:	82 e0       	ldi	r24, 0x02	; 2
     d3c:	37 c0       	rjmp	.+110    	; 0xdac <__unpack_f+0xb0>
     d3e:	82 e8       	ldi	r24, 0x82	; 130
     d40:	9f ef       	ldi	r25, 0xFF	; 255
     d42:	13 96       	adiw	r26, 0x03	; 3
     d44:	9c 93       	st	X, r25
     d46:	8e 93       	st	-X, r24
     d48:	12 97       	sbiw	r26, 0x02	; 2
     d4a:	9a 01       	movw	r18, r20
     d4c:	ab 01       	movw	r20, r22
     d4e:	67 e0       	ldi	r22, 0x07	; 7
     d50:	22 0f       	add	r18, r18
     d52:	33 1f       	adc	r19, r19
     d54:	44 1f       	adc	r20, r20
     d56:	55 1f       	adc	r21, r21
     d58:	6a 95       	dec	r22
     d5a:	d1 f7       	brne	.-12     	; 0xd50 <__unpack_f+0x54>
     d5c:	83 e0       	ldi	r24, 0x03	; 3
     d5e:	8c 93       	st	X, r24
     d60:	0d c0       	rjmp	.+26     	; 0xd7c <__unpack_f+0x80>
     d62:	22 0f       	add	r18, r18
     d64:	33 1f       	adc	r19, r19
     d66:	44 1f       	adc	r20, r20
     d68:	55 1f       	adc	r21, r21
     d6a:	12 96       	adiw	r26, 0x02	; 2
     d6c:	8d 91       	ld	r24, X+
     d6e:	9c 91       	ld	r25, X
     d70:	13 97       	sbiw	r26, 0x03	; 3
     d72:	01 97       	sbiw	r24, 0x01	; 1
     d74:	13 96       	adiw	r26, 0x03	; 3
     d76:	9c 93       	st	X, r25
     d78:	8e 93       	st	-X, r24
     d7a:	12 97       	sbiw	r26, 0x02	; 2
     d7c:	20 30       	cpi	r18, 0x00	; 0
     d7e:	80 e0       	ldi	r24, 0x00	; 0
     d80:	38 07       	cpc	r19, r24
     d82:	80 e0       	ldi	r24, 0x00	; 0
     d84:	48 07       	cpc	r20, r24
     d86:	80 e4       	ldi	r24, 0x40	; 64
     d88:	58 07       	cpc	r21, r24
     d8a:	58 f3       	brcs	.-42     	; 0xd62 <__unpack_f+0x66>
     d8c:	14 96       	adiw	r26, 0x04	; 4
     d8e:	2d 93       	st	X+, r18
     d90:	3d 93       	st	X+, r19
     d92:	4d 93       	st	X+, r20
     d94:	5c 93       	st	X, r21
     d96:	17 97       	sbiw	r26, 0x07	; 7
     d98:	08 95       	ret
     d9a:	2f 3f       	cpi	r18, 0xFF	; 255
     d9c:	31 05       	cpc	r19, r1
     d9e:	79 f4       	brne	.+30     	; 0xdbe <__unpack_f+0xc2>
     da0:	41 15       	cp	r20, r1
     da2:	51 05       	cpc	r21, r1
     da4:	61 05       	cpc	r22, r1
     da6:	71 05       	cpc	r23, r1
     da8:	19 f4       	brne	.+6      	; 0xdb0 <__unpack_f+0xb4>
     daa:	84 e0       	ldi	r24, 0x04	; 4
     dac:	8c 93       	st	X, r24
     dae:	08 95       	ret
     db0:	64 ff       	sbrs	r22, 4
     db2:	03 c0       	rjmp	.+6      	; 0xdba <__unpack_f+0xbe>
     db4:	81 e0       	ldi	r24, 0x01	; 1
     db6:	8c 93       	st	X, r24
     db8:	12 c0       	rjmp	.+36     	; 0xdde <__unpack_f+0xe2>
     dba:	1c 92       	st	X, r1
     dbc:	10 c0       	rjmp	.+32     	; 0xdde <__unpack_f+0xe2>
     dbe:	2f 57       	subi	r18, 0x7F	; 127
     dc0:	30 40       	sbci	r19, 0x00	; 0
     dc2:	13 96       	adiw	r26, 0x03	; 3
     dc4:	3c 93       	st	X, r19
     dc6:	2e 93       	st	-X, r18
     dc8:	12 97       	sbiw	r26, 0x02	; 2
     dca:	83 e0       	ldi	r24, 0x03	; 3
     dcc:	8c 93       	st	X, r24
     dce:	87 e0       	ldi	r24, 0x07	; 7
     dd0:	44 0f       	add	r20, r20
     dd2:	55 1f       	adc	r21, r21
     dd4:	66 1f       	adc	r22, r22
     dd6:	77 1f       	adc	r23, r23
     dd8:	8a 95       	dec	r24
     dda:	d1 f7       	brne	.-12     	; 0xdd0 <__unpack_f+0xd4>
     ddc:	70 64       	ori	r23, 0x40	; 64
     dde:	14 96       	adiw	r26, 0x04	; 4
     de0:	4d 93       	st	X+, r20
     de2:	5d 93       	st	X+, r21
     de4:	6d 93       	st	X+, r22
     de6:	7c 93       	st	X, r23
     de8:	17 97       	sbiw	r26, 0x07	; 7
     dea:	08 95       	ret

00000dec <analog_conversion_result>:
     dec:	80 91 7c 00 	lds	r24, 0x007C
     df0:	85 ff       	sbrs	r24, 5
     df2:	05 c0       	rjmp	.+10     	; 0xdfe <analog_conversion_result+0x12>
     df4:	80 91 79 00 	lds	r24, 0x0079
     df8:	28 2f       	mov	r18, r24
     dfa:	30 e0       	ldi	r19, 0x00	; 0
     dfc:	04 c0       	rjmp	.+8      	; 0xe06 <analog_conversion_result+0x1a>
     dfe:	20 91 78 00 	lds	r18, 0x0078
     e02:	30 91 79 00 	lds	r19, 0x0079
     e06:	c9 01       	movw	r24, r18
     e08:	08 95       	ret

00000e0a <set_millivolt_calibration>:
     e0a:	90 93 2f 01 	sts	0x012F, r25
     e0e:	80 93 2e 01 	sts	0x012E, r24
     e12:	08 95       	ret

00000e14 <_ZN15OrangutanAnalogC2Ev>:
     e14:	08 95       	ret

00000e16 <_ZN15OrangutanAnalogC1Ev>:
     e16:	08 95       	ret

00000e18 <_ZN15OrangutanAnalog16conversionResultEv>:
     e18:	80 91 7c 00 	lds	r24, 0x007C
     e1c:	85 ff       	sbrs	r24, 5
     e1e:	05 c0       	rjmp	.+10     	; 0xe2a <_ZN15OrangutanAnalog16conversionResultEv+0x12>
     e20:	80 91 79 00 	lds	r24, 0x0079
     e24:	28 2f       	mov	r18, r24
     e26:	30 e0       	ldi	r19, 0x00	; 0
     e28:	04 c0       	rjmp	.+8      	; 0xe32 <_ZN15OrangutanAnalog16conversionResultEv+0x1a>
     e2a:	20 91 78 00 	lds	r18, 0x0078
     e2e:	30 91 79 00 	lds	r19, 0x0079
     e32:	c9 01       	movw	r24, r18
     e34:	08 95       	ret

00000e36 <_ZN15OrangutanAnalog15startConversionEhh>:
     e36:	28 2f       	mov	r18, r24
     e38:	80 32       	cpi	r24, 0x20	; 32
     e3a:	b0 f4       	brcc	.+44     	; 0xe68 <_ZN15OrangutanAnalog15startConversionEhh+0x32>
     e3c:	87 e8       	ldi	r24, 0x87	; 135
     e3e:	80 93 7a 00 	sts	0x007A, r24
     e42:	80 91 7c 00 	lds	r24, 0x007C
     e46:	98 2f       	mov	r25, r24
     e48:	90 64       	ori	r25, 0x40	; 64
     e4a:	66 23       	and	r22, r22
     e4c:	11 f0       	breq	.+4      	; 0xe52 <_ZN15OrangutanAnalog15startConversionEhh+0x1c>
     e4e:	80 6c       	ori	r24, 0xC0	; 192
     e50:	02 c0       	rjmp	.+4      	; 0xe56 <_ZN15OrangutanAnalog15startConversionEhh+0x20>
     e52:	89 2f       	mov	r24, r25
     e54:	8f 77       	andi	r24, 0x7F	; 127
     e56:	80 7e       	andi	r24, 0xE0	; 224
     e58:	82 2b       	or	r24, r18
     e5a:	80 93 7c 00 	sts	0x007C, r24
     e5e:	80 91 7a 00 	lds	r24, 0x007A
     e62:	80 64       	ori	r24, 0x40	; 64
     e64:	80 93 7a 00 	sts	0x007A, r24
     e68:	08 95       	ret

00000e6a <start_analog_conversion>:
     e6a:	60 e0       	ldi	r22, 0x00	; 0
     e6c:	0e 94 1b 07 	call	0xe36	; 0xe36 <_ZN15OrangutanAnalog15startConversionEhh>
     e70:	08 95       	ret

00000e72 <_ZN15OrangutanAnalog4readEh>:
     e72:	60 e0       	ldi	r22, 0x00	; 0
     e74:	0e 94 1b 07 	call	0xe36	; 0xe36 <_ZN15OrangutanAnalog15startConversionEhh>
     e78:	80 91 7a 00 	lds	r24, 0x007A
     e7c:	86 fd       	sbrc	r24, 6
     e7e:	fc cf       	rjmp	.-8      	; 0xe78 <_ZN15OrangutanAnalog4readEh+0x6>
     e80:	80 91 7c 00 	lds	r24, 0x007C
     e84:	85 ff       	sbrs	r24, 5
     e86:	05 c0       	rjmp	.+10     	; 0xe92 <_ZN15OrangutanAnalog4readEh+0x20>
     e88:	80 91 79 00 	lds	r24, 0x0079
     e8c:	28 2f       	mov	r18, r24
     e8e:	30 e0       	ldi	r19, 0x00	; 0
     e90:	04 c0       	rjmp	.+8      	; 0xe9a <_ZN15OrangutanAnalog4readEh+0x28>
     e92:	20 91 78 00 	lds	r18, 0x0078
     e96:	30 91 79 00 	lds	r19, 0x0079
     e9a:	c9 01       	movw	r24, r18
     e9c:	08 95       	ret

00000e9e <analog_read>:
     e9e:	0e 94 39 07 	call	0xe72	; 0xe72 <_ZN15OrangutanAnalog4readEh>
     ea2:	08 95       	ret

00000ea4 <_ZN15OrangutanAnalog11readAverageEhj>:
     ea4:	ef 92       	push	r14
     ea6:	ff 92       	push	r15
     ea8:	0f 93       	push	r16
     eaa:	1f 93       	push	r17
     eac:	cf 93       	push	r28
     eae:	df 93       	push	r29
     eb0:	eb 01       	movw	r28, r22
     eb2:	60 e0       	ldi	r22, 0x00	; 0
     eb4:	0e 94 1b 07 	call	0xe36	; 0xe36 <_ZN15OrangutanAnalog15startConversionEhh>
     eb8:	80 91 7a 00 	lds	r24, 0x007A
     ebc:	86 fd       	sbrc	r24, 6
     ebe:	fc cf       	rjmp	.-8      	; 0xeb8 <_ZN15OrangutanAnalog11readAverageEhj+0x14>
     ec0:	9e 01       	movw	r18, r28
     ec2:	ee 24       	eor	r14, r14
     ec4:	ff 24       	eor	r15, r15
     ec6:	87 01       	movw	r16, r14
     ec8:	80 91 7a 00 	lds	r24, 0x007A
     ecc:	80 64       	ori	r24, 0x40	; 64
     ece:	80 93 7a 00 	sts	0x007A, r24
     ed2:	80 91 7a 00 	lds	r24, 0x007A
     ed6:	86 fd       	sbrc	r24, 6
     ed8:	fc cf       	rjmp	.-8      	; 0xed2 <_ZN15OrangutanAnalog11readAverageEhj+0x2e>
     eda:	80 91 7c 00 	lds	r24, 0x007C
     ede:	85 ff       	sbrs	r24, 5
     ee0:	04 c0       	rjmp	.+8      	; 0xeea <_ZN15OrangutanAnalog11readAverageEhj+0x46>
     ee2:	80 91 79 00 	lds	r24, 0x0079
     ee6:	90 e0       	ldi	r25, 0x00	; 0
     ee8:	04 c0       	rjmp	.+8      	; 0xef2 <_ZN15OrangutanAnalog11readAverageEhj+0x4e>
     eea:	80 91 78 00 	lds	r24, 0x0078
     eee:	90 91 79 00 	lds	r25, 0x0079
     ef2:	a0 e0       	ldi	r26, 0x00	; 0
     ef4:	b0 e0       	ldi	r27, 0x00	; 0
     ef6:	e8 0e       	add	r14, r24
     ef8:	f9 1e       	adc	r15, r25
     efa:	0a 1f       	adc	r16, r26
     efc:	1b 1f       	adc	r17, r27
     efe:	21 50       	subi	r18, 0x01	; 1
     f00:	30 40       	sbci	r19, 0x00	; 0
     f02:	11 f7       	brne	.-60     	; 0xec8 <_ZN15OrangutanAnalog11readAverageEhj+0x24>
     f04:	ce 01       	movw	r24, r28
     f06:	96 95       	lsr	r25
     f08:	87 95       	ror	r24
     f0a:	c0 34       	cpi	r28, 0x40	; 64
     f0c:	d1 05       	cpc	r29, r1
     f0e:	40 f4       	brcc	.+16     	; 0xf20 <_ZN15OrangutanAnalog11readAverageEhj+0x7c>
     f10:	8e 0d       	add	r24, r14
     f12:	9f 1d       	adc	r25, r15
     f14:	6c 2f       	mov	r22, r28
     f16:	70 e0       	ldi	r23, 0x00	; 0
     f18:	0e 94 f9 1c 	call	0x39f2	; 0x39f2 <__udivmodhi4>
     f1c:	9b 01       	movw	r18, r22
     f1e:	0d c0       	rjmp	.+26     	; 0xf3a <_ZN15OrangutanAnalog11readAverageEhj+0x96>
     f20:	a0 e0       	ldi	r26, 0x00	; 0
     f22:	b0 e0       	ldi	r27, 0x00	; 0
     f24:	e8 0e       	add	r14, r24
     f26:	f9 1e       	adc	r15, r25
     f28:	0a 1f       	adc	r16, r26
     f2a:	1b 1f       	adc	r17, r27
     f2c:	9e 01       	movw	r18, r28
     f2e:	40 e0       	ldi	r20, 0x00	; 0
     f30:	50 e0       	ldi	r21, 0x00	; 0
     f32:	c8 01       	movw	r24, r16
     f34:	b7 01       	movw	r22, r14
     f36:	0e 94 20 1d 	call	0x3a40	; 0x3a40 <__udivmodsi4>
     f3a:	c9 01       	movw	r24, r18
     f3c:	cd b7       	in	r28, 0x3d	; 61
     f3e:	de b7       	in	r29, 0x3e	; 62
     f40:	e6 e0       	ldi	r30, 0x06	; 6
     f42:	0c 94 85 1d 	jmp	0x3b0a	; 0x3b0a <__epilogue_restores__+0x18>

00000f46 <read_trimpot>:
     f46:	87 e0       	ldi	r24, 0x07	; 7
     f48:	64 e1       	ldi	r22, 0x14	; 20
     f4a:	70 e0       	ldi	r23, 0x00	; 0
     f4c:	0e 94 52 07 	call	0xea4	; 0xea4 <_ZN15OrangutanAnalog11readAverageEhj>
     f50:	08 95       	ret

00000f52 <analog_read_average>:
     f52:	0e 94 52 07 	call	0xea4	; 0xea4 <_ZN15OrangutanAnalog11readAverageEhj>
     f56:	08 95       	ret

00000f58 <_ZN15OrangutanAnalog23setMillivoltCalibrationEj>:
     f58:	90 93 2f 01 	sts	0x012F, r25
     f5c:	80 93 2e 01 	sts	0x012E, r24
     f60:	08 95       	ret

00000f62 <_ZN15OrangutanAnalog17readVCCMillivoltsEv>:
     f62:	1f 93       	push	r17
     f64:	10 91 7c 00 	lds	r17, 0x007C
     f68:	80 91 7c 00 	lds	r24, 0x007C
     f6c:	8f 7d       	andi	r24, 0xDF	; 223
     f6e:	80 93 7c 00 	sts	0x007C, r24
     f72:	8e e1       	ldi	r24, 0x1E	; 30
     f74:	64 e1       	ldi	r22, 0x14	; 20
     f76:	70 e0       	ldi	r23, 0x00	; 0
     f78:	0e 94 52 07 	call	0xea4	; 0xea4 <_ZN15OrangutanAnalog11readAverageEhj>
     f7c:	8e e1       	ldi	r24, 0x1E	; 30
     f7e:	64 e1       	ldi	r22, 0x14	; 20
     f80:	70 e0       	ldi	r23, 0x00	; 0
     f82:	0e 94 52 07 	call	0xea4	; 0xea4 <_ZN15OrangutanAnalog11readAverageEhj>
     f86:	9c 01       	movw	r18, r24
     f88:	15 fd       	sbrc	r17, 5
     f8a:	04 c0       	rjmp	.+8      	; 0xf94 <_ZN15OrangutanAnalog17readVCCMillivoltsEv+0x32>
     f8c:	80 91 7c 00 	lds	r24, 0x007C
     f90:	8f 7d       	andi	r24, 0xDF	; 223
     f92:	03 c0       	rjmp	.+6      	; 0xf9a <_ZN15OrangutanAnalog17readVCCMillivoltsEv+0x38>
     f94:	80 91 7c 00 	lds	r24, 0x007C
     f98:	80 62       	ori	r24, 0x20	; 32
     f9a:	80 93 7c 00 	sts	0x007C, r24
     f9e:	b9 01       	movw	r22, r18
     fa0:	76 95       	lsr	r23
     fa2:	67 95       	ror	r22
     fa4:	80 e0       	ldi	r24, 0x00	; 0
     fa6:	90 e0       	ldi	r25, 0x00	; 0
     fa8:	6c 54       	subi	r22, 0x4C	; 76
     faa:	74 4d       	sbci	r23, 0xD4	; 212
     fac:	8e 4e       	sbci	r24, 0xEE	; 238
     fae:	9f 4f       	sbci	r25, 0xFF	; 255
     fb0:	40 e0       	ldi	r20, 0x00	; 0
     fb2:	50 e0       	ldi	r21, 0x00	; 0
     fb4:	0e 94 20 1d 	call	0x3a40	; 0x3a40 <__udivmodsi4>
     fb8:	c9 01       	movw	r24, r18
     fba:	1f 91       	pop	r17
     fbc:	08 95       	ret

00000fbe <read_vcc_millivolts>:
     fbe:	0e 94 b1 07 	call	0xf62	; 0xf62 <_ZN15OrangutanAnalog17readVCCMillivoltsEv>
     fc2:	08 95       	ret

00000fc4 <_ZN15OrangutanAnalog12toMillivoltsEj>:
     fc4:	a0 e0       	ldi	r26, 0x00	; 0
     fc6:	b0 e0       	ldi	r27, 0x00	; 0
     fc8:	20 91 2e 01 	lds	r18, 0x012E
     fcc:	30 91 2f 01 	lds	r19, 0x012F
     fd0:	40 e0       	ldi	r20, 0x00	; 0
     fd2:	50 e0       	ldi	r21, 0x00	; 0
     fd4:	bc 01       	movw	r22, r24
     fd6:	cd 01       	movw	r24, r26
     fd8:	0e 94 ce 1c 	call	0x399c	; 0x399c <__mulsi3>
     fdc:	9b 01       	movw	r18, r22
     fde:	ac 01       	movw	r20, r24
     fe0:	80 91 7c 00 	lds	r24, 0x007C
     fe4:	85 ff       	sbrs	r24, 5
     fe6:	0b c0       	rjmp	.+22     	; 0xffe <_ZN15OrangutanAnalog12toMillivoltsEj+0x3a>
     fe8:	b9 01       	movw	r22, r18
     fea:	ca 01       	movw	r24, r20
     fec:	61 58       	subi	r22, 0x81	; 129
     fee:	7f 4f       	sbci	r23, 0xFF	; 255
     ff0:	8f 4f       	sbci	r24, 0xFF	; 255
     ff2:	9f 4f       	sbci	r25, 0xFF	; 255
     ff4:	2f ef       	ldi	r18, 0xFF	; 255
     ff6:	30 e0       	ldi	r19, 0x00	; 0
     ff8:	40 e0       	ldi	r20, 0x00	; 0
     ffa:	50 e0       	ldi	r21, 0x00	; 0
     ffc:	0a c0       	rjmp	.+20     	; 0x1012 <_ZN15OrangutanAnalog12toMillivoltsEj+0x4e>
     ffe:	b9 01       	movw	r22, r18
    1000:	ca 01       	movw	r24, r20
    1002:	61 50       	subi	r22, 0x01	; 1
    1004:	7e 4f       	sbci	r23, 0xFE	; 254
    1006:	8f 4f       	sbci	r24, 0xFF	; 255
    1008:	9f 4f       	sbci	r25, 0xFF	; 255
    100a:	2f ef       	ldi	r18, 0xFF	; 255
    100c:	33 e0       	ldi	r19, 0x03	; 3
    100e:	40 e0       	ldi	r20, 0x00	; 0
    1010:	50 e0       	ldi	r21, 0x00	; 0
    1012:	0e 94 20 1d 	call	0x3a40	; 0x3a40 <__udivmodsi4>
    1016:	c9 01       	movw	r24, r18
    1018:	08 95       	ret

0000101a <_ZN15OrangutanAnalog21readAverageMillivoltsEhj>:
    101a:	0e 94 52 07 	call	0xea4	; 0xea4 <_ZN15OrangutanAnalog11readAverageEhj>
    101e:	0e 94 e2 07 	call	0xfc4	; 0xfc4 <_ZN15OrangutanAnalog12toMillivoltsEj>
    1022:	08 95       	ret

00001024 <analog_read_average_millivolts>:
    1024:	0e 94 0d 08 	call	0x101a	; 0x101a <_ZN15OrangutanAnalog21readAverageMillivoltsEhj>
    1028:	08 95       	ret

0000102a <_ZN15OrangutanAnalog26conversionResultMillivoltsEv>:
    102a:	80 91 7c 00 	lds	r24, 0x007C
    102e:	85 ff       	sbrs	r24, 5
    1030:	06 c0       	rjmp	.+12     	; 0x103e <_ZN15OrangutanAnalog26conversionResultMillivoltsEv+0x14>
    1032:	80 91 79 00 	lds	r24, 0x0079
    1036:	90 e0       	ldi	r25, 0x00	; 0
    1038:	0e 94 e2 07 	call	0xfc4	; 0xfc4 <_ZN15OrangutanAnalog12toMillivoltsEj>
    103c:	08 95       	ret
    103e:	80 91 78 00 	lds	r24, 0x0078
    1042:	90 91 79 00 	lds	r25, 0x0079
    1046:	0e 94 e2 07 	call	0xfc4	; 0xfc4 <_ZN15OrangutanAnalog12toMillivoltsEj>
    104a:	08 95       	ret

0000104c <_ZN15OrangutanAnalog14readMillivoltsEh>:
    104c:	60 e0       	ldi	r22, 0x00	; 0
    104e:	0e 94 1b 07 	call	0xe36	; 0xe36 <_ZN15OrangutanAnalog15startConversionEhh>
    1052:	80 91 7a 00 	lds	r24, 0x007A
    1056:	86 fd       	sbrc	r24, 6
    1058:	fc cf       	rjmp	.-8      	; 0x1052 <_ZN15OrangutanAnalog14readMillivoltsEh+0x6>
    105a:	0e 94 15 08 	call	0x102a	; 0x102a <_ZN15OrangutanAnalog26conversionResultMillivoltsEv>
    105e:	08 95       	ret

00001060 <analog_read_millivolts>:
    1060:	0e 94 26 08 	call	0x104c	; 0x104c <_ZN15OrangutanAnalog14readMillivoltsEh>
    1064:	08 95       	ret

00001066 <analog_conversion_result_millivolts>:
    1066:	0e 94 15 08 	call	0x102a	; 0x102a <_ZN15OrangutanAnalog26conversionResultMillivoltsEv>
    106a:	08 95       	ret

0000106c <read_trimpot_millivolts>:
    106c:	87 e0       	ldi	r24, 0x07	; 7
    106e:	64 e1       	ldi	r22, 0x14	; 20
    1070:	70 e0       	ldi	r23, 0x00	; 0
    1072:	0e 94 52 07 	call	0xea4	; 0xea4 <_ZN15OrangutanAnalog11readAverageEhj>
    1076:	0e 94 e2 07 	call	0xfc4	; 0xfc4 <_ZN15OrangutanAnalog12toMillivoltsEj>
    107a:	08 95       	ret

0000107c <to_millivolts>:
    107c:	0e 94 e2 07 	call	0xfc4	; 0xfc4 <_ZN15OrangutanAnalog12toMillivoltsEj>
    1080:	08 95       	ret

00001082 <_ZN15OrangutanAnalog16readTemperatureFEv>:
    1082:	1f 93       	push	r17
    1084:	10 91 7c 00 	lds	r17, 0x007C
    1088:	80 91 7c 00 	lds	r24, 0x007C
    108c:	8f 7d       	andi	r24, 0xDF	; 223
    108e:	80 93 7c 00 	sts	0x007C, r24
    1092:	86 e0       	ldi	r24, 0x06	; 6
    1094:	64 e1       	ldi	r22, 0x14	; 20
    1096:	70 e0       	ldi	r23, 0x00	; 0
    1098:	0e 94 0d 08 	call	0x101a	; 0x101a <_ZN15OrangutanAnalog21readAverageMillivoltsEhj>
    109c:	9c 01       	movw	r18, r24
    109e:	15 fd       	sbrc	r17, 5
    10a0:	04 c0       	rjmp	.+8      	; 0x10aa <_ZN15OrangutanAnalog16readTemperatureFEv+0x28>
    10a2:	80 91 7c 00 	lds	r24, 0x007C
    10a6:	8f 7d       	andi	r24, 0xDF	; 223
    10a8:	03 c0       	rjmp	.+6      	; 0x10b0 <_ZN15OrangutanAnalog16readTemperatureFEv+0x2e>
    10aa:	80 91 7c 00 	lds	r24, 0x007C
    10ae:	80 62       	ori	r24, 0x20	; 32
    10b0:	80 93 7c 00 	sts	0x007C, r24
    10b4:	c9 01       	movw	r24, r18
    10b6:	88 0f       	add	r24, r24
    10b8:	99 1f       	adc	r25, r25
    10ba:	82 0f       	add	r24, r18
    10bc:	93 1f       	adc	r25, r19
    10be:	88 0f       	add	r24, r24
    10c0:	99 1f       	adc	r25, r25
    10c2:	88 0f       	add	r24, r24
    10c4:	99 1f       	adc	r25, r25
    10c6:	8a 57       	subi	r24, 0x7A	; 122
    10c8:	92 40       	sbci	r25, 0x02	; 2
    10ca:	6d e0       	ldi	r22, 0x0D	; 13
    10cc:	70 e0       	ldi	r23, 0x00	; 0
    10ce:	0e 94 0d 1d 	call	0x3a1a	; 0x3a1a <__divmodhi4>
    10d2:	cb 01       	movw	r24, r22
    10d4:	1f 91       	pop	r17
    10d6:	08 95       	ret

000010d8 <read_temperature_f>:
    10d8:	0e 94 41 08 	call	0x1082	; 0x1082 <_ZN15OrangutanAnalog16readTemperatureFEv>
    10dc:	08 95       	ret

000010de <_ZN15OrangutanAnalog16readTemperatureCEv>:
    10de:	1f 93       	push	r17
    10e0:	10 91 7c 00 	lds	r17, 0x007C
    10e4:	80 91 7c 00 	lds	r24, 0x007C
    10e8:	8f 7d       	andi	r24, 0xDF	; 223
    10ea:	80 93 7c 00 	sts	0x007C, r24
    10ee:	86 e0       	ldi	r24, 0x06	; 6
    10f0:	64 e1       	ldi	r22, 0x14	; 20
    10f2:	70 e0       	ldi	r23, 0x00	; 0
    10f4:	0e 94 0d 08 	call	0x101a	; 0x101a <_ZN15OrangutanAnalog21readAverageMillivoltsEhj>
    10f8:	9c 01       	movw	r18, r24
    10fa:	15 fd       	sbrc	r17, 5
    10fc:	04 c0       	rjmp	.+8      	; 0x1106 <_ZN15OrangutanAnalog16readTemperatureCEv+0x28>
    10fe:	80 91 7c 00 	lds	r24, 0x007C
    1102:	8f 7d       	andi	r24, 0xDF	; 223
    1104:	03 c0       	rjmp	.+6      	; 0x110c <_ZN15OrangutanAnalog16readTemperatureCEv+0x2e>
    1106:	80 91 7c 00 	lds	r24, 0x007C
    110a:	80 62       	ori	r24, 0x20	; 32
    110c:	80 93 7c 00 	sts	0x007C, r24
    1110:	84 e1       	ldi	r24, 0x14	; 20
    1112:	90 e0       	ldi	r25, 0x00	; 0
    1114:	ac 01       	movw	r20, r24
    1116:	24 9f       	mul	r18, r20
    1118:	c0 01       	movw	r24, r0
    111a:	25 9f       	mul	r18, r21
    111c:	90 0d       	add	r25, r0
    111e:	34 9f       	mul	r19, r20
    1120:	90 0d       	add	r25, r0
    1122:	11 24       	eor	r1, r1
    1124:	8e 52       	subi	r24, 0x2E	; 46
    1126:	9f 41       	sbci	r25, 0x1F	; 31
    1128:	67 e2       	ldi	r22, 0x27	; 39
    112a:	70 e0       	ldi	r23, 0x00	; 0
    112c:	0e 94 0d 1d 	call	0x3a1a	; 0x3a1a <__divmodhi4>
    1130:	cb 01       	movw	r24, r22
    1132:	1f 91       	pop	r17
    1134:	08 95       	ret

00001136 <read_temperature_c>:
    1136:	0e 94 6f 08 	call	0x10de	; 0x10de <_ZN15OrangutanAnalog16readTemperatureCEv>
    113a:	08 95       	ret

0000113c <_ZN15OrangutanAnalog25readBatteryMillivolts_3piEv>:
    113c:	1f 93       	push	r17
    113e:	10 91 7c 00 	lds	r17, 0x007C
    1142:	80 91 7c 00 	lds	r24, 0x007C
    1146:	8f 7d       	andi	r24, 0xDF	; 223
    1148:	80 93 7c 00 	sts	0x007C, r24
    114c:	86 e0       	ldi	r24, 0x06	; 6
    114e:	6a e0       	ldi	r22, 0x0A	; 10
    1150:	70 e0       	ldi	r23, 0x00	; 0
    1152:	0e 94 0d 08 	call	0x101a	; 0x101a <_ZN15OrangutanAnalog21readAverageMillivoltsEhj>
    1156:	ac 01       	movw	r20, r24
    1158:	15 fd       	sbrc	r17, 5
    115a:	04 c0       	rjmp	.+8      	; 0x1164 <_ZN15OrangutanAnalog25readBatteryMillivolts_3piEv+0x28>
    115c:	80 91 7c 00 	lds	r24, 0x007C
    1160:	8f 7d       	andi	r24, 0xDF	; 223
    1162:	03 c0       	rjmp	.+6      	; 0x116a <_ZN15OrangutanAnalog25readBatteryMillivolts_3piEv+0x2e>
    1164:	80 91 7c 00 	lds	r24, 0x007C
    1168:	80 62       	ori	r24, 0x20	; 32
    116a:	80 93 7c 00 	sts	0x007C, r24
    116e:	9a 01       	movw	r18, r20
    1170:	22 0f       	add	r18, r18
    1172:	33 1f       	adc	r19, r19
    1174:	24 0f       	add	r18, r20
    1176:	35 1f       	adc	r19, r21
    1178:	2f 5f       	subi	r18, 0xFF	; 255
    117a:	3f 4f       	sbci	r19, 0xFF	; 255
    117c:	36 95       	lsr	r19
    117e:	27 95       	ror	r18
    1180:	c9 01       	movw	r24, r18
    1182:	1f 91       	pop	r17
    1184:	08 95       	ret

00001186 <read_battery_millivolts_3pi>:
    1186:	0e 94 9e 08 	call	0x113c	; 0x113c <_ZN15OrangutanAnalog25readBatteryMillivolts_3piEv>
    118a:	08 95       	ret

0000118c <_ZN15OrangutanAnalog24readBatteryMillivolts_SVEv>:
    118c:	1f 93       	push	r17
    118e:	10 91 7c 00 	lds	r17, 0x007C
    1192:	80 91 7c 00 	lds	r24, 0x007C
    1196:	8f 7d       	andi	r24, 0xDF	; 223
    1198:	80 93 7c 00 	sts	0x007C, r24
    119c:	86 e0       	ldi	r24, 0x06	; 6
    119e:	6a e0       	ldi	r22, 0x0A	; 10
    11a0:	70 e0       	ldi	r23, 0x00	; 0
    11a2:	0e 94 0d 08 	call	0x101a	; 0x101a <_ZN15OrangutanAnalog21readAverageMillivoltsEhj>
    11a6:	ac 01       	movw	r20, r24
    11a8:	15 fd       	sbrc	r17, 5
    11aa:	04 c0       	rjmp	.+8      	; 0x11b4 <_ZN15OrangutanAnalog24readBatteryMillivolts_SVEv+0x28>
    11ac:	80 91 7c 00 	lds	r24, 0x007C
    11b0:	8f 7d       	andi	r24, 0xDF	; 223
    11b2:	03 c0       	rjmp	.+6      	; 0x11ba <_ZN15OrangutanAnalog24readBatteryMillivolts_SVEv+0x2e>
    11b4:	80 91 7c 00 	lds	r24, 0x007C
    11b8:	80 62       	ori	r24, 0x20	; 32
    11ba:	80 93 7c 00 	sts	0x007C, r24
    11be:	9a 01       	movw	r18, r20
    11c0:	22 0f       	add	r18, r18
    11c2:	33 1f       	adc	r19, r19
    11c4:	24 0f       	add	r18, r20
    11c6:	35 1f       	adc	r19, r21
    11c8:	c9 01       	movw	r24, r18
    11ca:	1f 91       	pop	r17
    11cc:	08 95       	ret

000011ce <read_battery_millivolts_sv168>:
    11ce:	0e 94 c6 08 	call	0x118c	; 0x118c <_ZN15OrangutanAnalog24readBatteryMillivolts_SVEv>
    11d2:	08 95       	ret

000011d4 <read_battery_millivolts_sv>:
    11d4:	0e 94 c6 08 	call	0x118c	; 0x118c <_ZN15OrangutanAnalog24readBatteryMillivolts_SVEv>
    11d8:	08 95       	ret

000011da <_ZN15OrangutanBuzzerC2Ev>:
    11da:	08 95       	ret

000011dc <_ZN15OrangutanBuzzerC1Ev>:
    11dc:	08 95       	ret

000011de <is_playing>:
    11de:	80 91 3b 01 	lds	r24, 0x013B
    11e2:	88 23       	and	r24, r24
    11e4:	39 f0       	breq	.+14     	; 0x11f4 <is_playing+0x16>
    11e6:	20 e0       	ldi	r18, 0x00	; 0
    11e8:	80 91 6e 02 	lds	r24, 0x026E
    11ec:	90 91 6f 02 	lds	r25, 0x026F
    11f0:	89 2b       	or	r24, r25
    11f2:	09 f0       	breq	.+2      	; 0x11f6 <is_playing+0x18>
    11f4:	21 e0       	ldi	r18, 0x01	; 1
    11f6:	82 2f       	mov	r24, r18
    11f8:	08 95       	ret

000011fa <_ZN15OrangutanBuzzer5init2Ev>:
    11fa:	10 92 6f 00 	sts	0x006F, r1
    11fe:	83 e2       	ldi	r24, 0x23	; 35
    1200:	80 93 80 00 	sts	0x0080, r24
    1204:	81 e1       	ldi	r24, 0x11	; 17
    1206:	80 93 81 00 	sts	0x0081, r24
    120a:	10 92 82 00 	sts	0x0082, r1
    120e:	80 e1       	ldi	r24, 0x10	; 16
    1210:	97 e2       	ldi	r25, 0x27	; 39
    1212:	90 93 89 00 	sts	0x0089, r25
    1216:	80 93 88 00 	sts	0x0088, r24
    121a:	10 92 8b 00 	sts	0x008B, r1
    121e:	10 92 8a 00 	sts	0x008A, r1
    1222:	22 9a       	sbi	0x04, 2	; 4
    1224:	78 94       	sei
    1226:	08 95       	ret

00001228 <_ZN15OrangutanBuzzer13playFrequencyEjjh>:
    1228:	a0 e0       	ldi	r26, 0x00	; 0
    122a:	b0 e0       	ldi	r27, 0x00	; 0
    122c:	ea e1       	ldi	r30, 0x1A	; 26
    122e:	f9 e0       	ldi	r31, 0x09	; 9
    1230:	0c 94 65 1d 	jmp	0x3aca	; 0x3aca <__prologue_saves__+0x10>
    1234:	8c 01       	movw	r16, r24
    1236:	5b 01       	movw	r10, r22
    1238:	c4 2e       	mov	r12, r20
    123a:	80 91 6d 02 	lds	r24, 0x026D
    123e:	88 23       	and	r24, r24
    1240:	29 f4       	brne	.+10     	; 0x124c <_ZN15OrangutanBuzzer13playFrequencyEjjh+0x24>
    1242:	81 e0       	ldi	r24, 0x01	; 1
    1244:	80 93 6d 02 	sts	0x026D, r24
    1248:	0e 94 fd 08 	call	0x11fa	; 0x11fa <_ZN15OrangutanBuzzer5init2Ev>
    124c:	10 92 3b 01 	sts	0x013B, r1
    1250:	17 fd       	sbrc	r17, 7
    1252:	03 c0       	rjmp	.+6      	; 0x125a <_ZN15OrangutanBuzzer13playFrequencyEjjh+0x32>
    1254:	dd 24       	eor	r13, r13
    1256:	d3 94       	inc	r13
    1258:	03 c0       	rjmp	.+6      	; 0x1260 <_ZN15OrangutanBuzzer13playFrequencyEjjh+0x38>
    125a:	1f 77       	andi	r17, 0x7F	; 127
    125c:	2a e0       	ldi	r18, 0x0A	; 10
    125e:	d2 2e       	mov	r13, r18
    1260:	80 91 81 00 	lds	r24, 0x0081
    1264:	e8 2e       	mov	r14, r24
    1266:	ff 24       	eor	r15, r15
    1268:	88 ef       	ldi	r24, 0xF8	; 248
    126a:	e8 22       	and	r14, r24
    126c:	ff 24       	eor	r15, r15
    126e:	88 ec       	ldi	r24, 0xC8	; 200
    1270:	d8 9e       	mul	r13, r24
    1272:	c0 01       	movw	r24, r0
    1274:	11 24       	eor	r1, r1
    1276:	80 17       	cp	r24, r16
    1278:	91 07       	cpc	r25, r17
    127a:	c8 f4       	brcc	.+50     	; 0x12ae <_ZN15OrangutanBuzzer13playFrequencyEjjh+0x86>
    127c:	e8 01       	movw	r28, r16
    127e:	97 e2       	ldi	r25, 0x27	; 39
    1280:	01 31       	cpi	r16, 0x11	; 17
    1282:	19 07       	cpc	r17, r25
    1284:	10 f0       	brcs	.+4      	; 0x128a <_ZN15OrangutanBuzzer13playFrequencyEjjh+0x62>
    1286:	c0 e1       	ldi	r28, 0x10	; 16
    1288:	d7 e2       	ldi	r29, 0x27	; 39
    128a:	be 01       	movw	r22, r28
    128c:	76 95       	lsr	r23
    128e:	67 95       	ror	r22
    1290:	80 e0       	ldi	r24, 0x00	; 0
    1292:	90 e0       	ldi	r25, 0x00	; 0
    1294:	60 58       	subi	r22, 0x80	; 128
    1296:	79 46       	sbci	r23, 0x69	; 105
    1298:	87 46       	sbci	r24, 0x67	; 103
    129a:	9f 4f       	sbci	r25, 0xFF	; 255
    129c:	9e 01       	movw	r18, r28
    129e:	40 e0       	ldi	r20, 0x00	; 0
    12a0:	50 e0       	ldi	r21, 0x00	; 0
    12a2:	0e 94 20 1d 	call	0x3a40	; 0x3a40 <__udivmodsi4>
    12a6:	89 01       	movw	r16, r18
    12a8:	81 e0       	ldi	r24, 0x01	; 1
    12aa:	90 e0       	ldi	r25, 0x00	; 0
    12ac:	25 c0       	rjmp	.+74     	; 0x12f8 <_ZN15OrangutanBuzzer13playFrequencyEjjh+0xd0>
    12ae:	88 e2       	ldi	r24, 0x28	; 40
    12b0:	d8 9e       	mul	r13, r24
    12b2:	80 2d       	mov	r24, r0
    12b4:	11 24       	eor	r1, r1
    12b6:	c8 2f       	mov	r28, r24
    12b8:	d0 e0       	ldi	r29, 0x00	; 0
    12ba:	c0 17       	cp	r28, r16
    12bc:	d1 07       	cpc	r29, r17
    12be:	08 f4       	brcc	.+2      	; 0x12c2 <_ZN15OrangutanBuzzer13playFrequencyEjjh+0x9a>
    12c0:	e8 01       	movw	r28, r16
    12c2:	be 01       	movw	r22, r28
    12c4:	76 95       	lsr	r23
    12c6:	67 95       	ror	r22
    12c8:	9e 01       	movw	r18, r28
    12ca:	40 e0       	ldi	r20, 0x00	; 0
    12cc:	50 e0       	ldi	r21, 0x00	; 0
    12ce:	9a e0       	ldi	r25, 0x0A	; 10
    12d0:	d9 16       	cp	r13, r25
    12d2:	39 f4       	brne	.+14     	; 0x12e2 <_ZN15OrangutanBuzzer13playFrequencyEjjh+0xba>
    12d4:	80 e0       	ldi	r24, 0x00	; 0
    12d6:	90 e0       	ldi	r25, 0x00	; 0
    12d8:	60 5e       	subi	r22, 0xE0	; 224
    12da:	73 44       	sbci	r23, 0x43	; 67
    12dc:	81 44       	sbci	r24, 0x41	; 65
    12de:	9f 4f       	sbci	r25, 0xFF	; 255
    12e0:	06 c0       	rjmp	.+12     	; 0x12ee <_ZN15OrangutanBuzzer13playFrequencyEjjh+0xc6>
    12e2:	80 e0       	ldi	r24, 0x00	; 0
    12e4:	90 e0       	ldi	r25, 0x00	; 0
    12e6:	60 53       	subi	r22, 0x30	; 48
    12e8:	7d 4e       	sbci	r23, 0xED	; 237
    12ea:	8c 4e       	sbci	r24, 0xEC	; 236
    12ec:	9f 4f       	sbci	r25, 0xFF	; 255
    12ee:	0e 94 20 1d 	call	0x3a40	; 0x3a40 <__udivmodsi4>
    12f2:	89 01       	movw	r16, r18
    12f4:	82 e0       	ldi	r24, 0x02	; 2
    12f6:	90 e0       	ldi	r25, 0x00	; 0
    12f8:	e8 2a       	or	r14, r24
    12fa:	f9 2a       	or	r15, r25
    12fc:	9a e0       	ldi	r25, 0x0A	; 10
    12fe:	d9 16       	cp	r13, r25
    1300:	39 f4       	brne	.+14     	; 0x1310 <_ZN15OrangutanBuzzer13playFrequencyEjjh+0xe8>
    1302:	ce 01       	movw	r24, r28
    1304:	05 96       	adiw	r24, 0x05	; 5
    1306:	6a e0       	ldi	r22, 0x0A	; 10
    1308:	70 e0       	ldi	r23, 0x00	; 0
    130a:	0e 94 f9 1c 	call	0x39f2	; 0x39f2 <__udivmodhi4>
    130e:	eb 01       	movw	r28, r22
    1310:	83 e0       	ldi	r24, 0x03	; 3
    1312:	c8 3e       	cpi	r28, 0xE8	; 232
    1314:	d8 07       	cpc	r29, r24
    1316:	11 f4       	brne	.+4      	; 0x131c <_ZN15OrangutanBuzzer13playFrequencyEjjh+0xf4>
    1318:	b5 01       	movw	r22, r10
    131a:	0f c0       	rjmp	.+30     	; 0x133a <_ZN15OrangutanBuzzer13playFrequencyEjjh+0x112>
    131c:	be 01       	movw	r22, r28
    131e:	80 e0       	ldi	r24, 0x00	; 0
    1320:	90 e0       	ldi	r25, 0x00	; 0
    1322:	95 01       	movw	r18, r10
    1324:	40 e0       	ldi	r20, 0x00	; 0
    1326:	50 e0       	ldi	r21, 0x00	; 0
    1328:	0e 94 ce 1c 	call	0x399c	; 0x399c <__mulsi3>
    132c:	28 ee       	ldi	r18, 0xE8	; 232
    132e:	33 e0       	ldi	r19, 0x03	; 3
    1330:	40 e0       	ldi	r20, 0x00	; 0
    1332:	50 e0       	ldi	r21, 0x00	; 0
    1334:	0e 94 42 1d 	call	0x3a84	; 0x3a84 <__divmodsi4>
    1338:	b9 01       	movw	r22, r18
    133a:	10 92 6f 00 	sts	0x006F, r1
    133e:	e0 92 81 00 	sts	0x0081, r14
    1342:	10 93 89 00 	sts	0x0089, r17
    1346:	00 93 88 00 	sts	0x0088, r16
    134a:	e0 91 88 00 	lds	r30, 0x0088
    134e:	f0 91 89 00 	lds	r31, 0x0089
    1352:	ac 2d       	mov	r26, r12
    1354:	a0 31       	cpi	r26, 0x10	; 16
    1356:	08 f0       	brcs	.+2      	; 0x135a <_ZN15OrangutanBuzzer13playFrequencyEjjh+0x132>
    1358:	af e0       	ldi	r26, 0x0F	; 15
    135a:	80 e1       	ldi	r24, 0x10	; 16
    135c:	90 e0       	ldi	r25, 0x00	; 0
    135e:	8a 1b       	sub	r24, r26
    1360:	91 09       	sbc	r25, r1
    1362:	02 c0       	rjmp	.+4      	; 0x1368 <_ZN15OrangutanBuzzer13playFrequencyEjjh+0x140>
    1364:	f6 95       	lsr	r31
    1366:	e7 95       	ror	r30
    1368:	8a 95       	dec	r24
    136a:	e2 f7       	brpl	.-8      	; 0x1364 <_ZN15OrangutanBuzzer13playFrequencyEjjh+0x13c>
    136c:	f0 93 8b 00 	sts	0x008B, r31
    1370:	e0 93 8a 00 	sts	0x008A, r30
    1374:	70 93 55 02 	sts	0x0255, r23
    1378:	60 93 54 02 	sts	0x0254, r22
    137c:	86 b3       	in	r24, 0x16	; 22
    137e:	8f ef       	ldi	r24, 0xFF	; 255
    1380:	86 bb       	out	0x16, r24	; 22
    1382:	81 e0       	ldi	r24, 0x01	; 1
    1384:	80 93 6f 00 	sts	0x006F, r24
    1388:	cd b7       	in	r28, 0x3d	; 61
    138a:	de b7       	in	r29, 0x3e	; 62
    138c:	ea e0       	ldi	r30, 0x0A	; 10
    138e:	0c 94 81 1d 	jmp	0x3b02	; 0x3b02 <__epilogue_restores__+0x10>

00001392 <play_frequency>:
    1392:	0e 94 14 09 	call	0x1228	; 0x1228 <_ZN15OrangutanBuzzer13playFrequencyEjjh>
    1396:	08 95       	ret

00001398 <_ZN15OrangutanBuzzer8playNoteEhjh>:
    1398:	cf 93       	push	r28
    139a:	df 93       	push	r29
    139c:	eb 01       	movw	r28, r22
    139e:	8f 3f       	cpi	r24, 0xFF	; 255
    13a0:	11 f0       	breq	.+4      	; 0x13a6 <_ZN15OrangutanBuzzer8playNoteEhjh+0xe>
    13a2:	44 23       	and	r20, r20
    13a4:	29 f4       	brne	.+10     	; 0x13b0 <_ZN15OrangutanBuzzer8playNoteEhjh+0x18>
    13a6:	88 ee       	ldi	r24, 0xE8	; 232
    13a8:	93 e0       	ldi	r25, 0x03	; 3
    13aa:	be 01       	movw	r22, r28
    13ac:	40 e0       	ldi	r20, 0x00	; 0
    13ae:	67 c0       	rjmp	.+206    	; 0x147e <_ZN15OrangutanBuzzer8playNoteEhjh+0xe6>
    13b0:	81 31       	cpi	r24, 0x11	; 17
    13b2:	10 f4       	brcc	.+4      	; 0x13b8 <_ZN15OrangutanBuzzer8playNoteEhjh+0x20>
    13b4:	20 e0       	ldi	r18, 0x00	; 0
    13b6:	05 c0       	rjmp	.+10     	; 0x13c2 <_ZN15OrangutanBuzzer8playNoteEhjh+0x2a>
    13b8:	28 2f       	mov	r18, r24
    13ba:	20 51       	subi	r18, 0x10	; 16
    13bc:	20 36       	cpi	r18, 0x60	; 96
    13be:	08 f0       	brcs	.+2      	; 0x13c2 <_ZN15OrangutanBuzzer8playNoteEhjh+0x2a>
    13c0:	2f e5       	ldi	r18, 0x5F	; 95
    13c2:	82 2f       	mov	r24, r18
    13c4:	6c e0       	ldi	r22, 0x0C	; 12
    13c6:	0e 94 ed 1c 	call	0x39da	; 0x39da <__udivmodqi4>
    13ca:	38 2f       	mov	r19, r24
    13cc:	68 2f       	mov	r22, r24
    13ce:	70 e0       	ldi	r23, 0x00	; 0
    13d0:	84 ef       	ldi	r24, 0xF4	; 244
    13d2:	9f ef       	ldi	r25, 0xFF	; 255
    13d4:	68 9f       	mul	r22, r24
    13d6:	f0 01       	movw	r30, r0
    13d8:	69 9f       	mul	r22, r25
    13da:	f0 0d       	add	r31, r0
    13dc:	78 9f       	mul	r23, r24
    13de:	f0 0d       	add	r31, r0
    13e0:	11 24       	eor	r1, r1
    13e2:	e2 0f       	add	r30, r18
    13e4:	f1 1d       	adc	r31, r1
    13e6:	ec 30       	cpi	r30, 0x0C	; 12
    13e8:	f1 05       	cpc	r31, r1
    13ea:	38 f4       	brcc	.+14     	; 0x13fa <_ZN15OrangutanBuzzer8playNoteEhjh+0x62>
    13ec:	ec 5c       	subi	r30, 0xCC	; 204
    13ee:	ff 4f       	sbci	r31, 0xFF	; 255
    13f0:	0c 94 94 1d 	jmp	0x3b28	; 0x3b28 <__tablejump2__>
    13f4:	8c e9       	ldi	r24, 0x9C	; 156
    13f6:	91 e0       	ldi	r25, 0x01	; 1
    13f8:	23 c0       	rjmp	.+70     	; 0x1440 <_ZN15OrangutanBuzzer8playNoteEhjh+0xa8>
    13fa:	80 e0       	ldi	r24, 0x00	; 0
    13fc:	90 e0       	ldi	r25, 0x00	; 0
    13fe:	20 c0       	rjmp	.+64     	; 0x1440 <_ZN15OrangutanBuzzer8playNoteEhjh+0xa8>
    1400:	85 eb       	ldi	r24, 0xB5	; 181
    1402:	91 e0       	ldi	r25, 0x01	; 1
    1404:	1d c0       	rjmp	.+58     	; 0x1440 <_ZN15OrangutanBuzzer8playNoteEhjh+0xa8>
    1406:	8f ec       	ldi	r24, 0xCF	; 207
    1408:	91 e0       	ldi	r25, 0x01	; 1
    140a:	1a c0       	rjmp	.+52     	; 0x1440 <_ZN15OrangutanBuzzer8playNoteEhjh+0xa8>
    140c:	8a ee       	ldi	r24, 0xEA	; 234
    140e:	91 e0       	ldi	r25, 0x01	; 1
    1410:	17 c0       	rjmp	.+46     	; 0x1440 <_ZN15OrangutanBuzzer8playNoteEhjh+0xa8>
    1412:	87 e0       	ldi	r24, 0x07	; 7
    1414:	92 e0       	ldi	r25, 0x02	; 2
    1416:	14 c0       	rjmp	.+40     	; 0x1440 <_ZN15OrangutanBuzzer8playNoteEhjh+0xa8>
    1418:	86 e2       	ldi	r24, 0x26	; 38
    141a:	92 e0       	ldi	r25, 0x02	; 2
    141c:	11 c0       	rjmp	.+34     	; 0x1440 <_ZN15OrangutanBuzzer8playNoteEhjh+0xa8>
    141e:	87 e4       	ldi	r24, 0x47	; 71
    1420:	92 e0       	ldi	r25, 0x02	; 2
    1422:	0e c0       	rjmp	.+28     	; 0x1440 <_ZN15OrangutanBuzzer8playNoteEhjh+0xa8>
    1424:	89 e6       	ldi	r24, 0x69	; 105
    1426:	92 e0       	ldi	r25, 0x02	; 2
    1428:	0b c0       	rjmp	.+22     	; 0x1440 <_ZN15OrangutanBuzzer8playNoteEhjh+0xa8>
    142a:	8e e8       	ldi	r24, 0x8E	; 142
    142c:	92 e0       	ldi	r25, 0x02	; 2
    142e:	08 c0       	rjmp	.+16     	; 0x1440 <_ZN15OrangutanBuzzer8playNoteEhjh+0xa8>
    1430:	85 eb       	ldi	r24, 0xB5	; 181
    1432:	92 e0       	ldi	r25, 0x02	; 2
    1434:	05 c0       	rjmp	.+10     	; 0x1440 <_ZN15OrangutanBuzzer8playNoteEhjh+0xa8>
    1436:	8e ed       	ldi	r24, 0xDE	; 222
    1438:	92 e0       	ldi	r25, 0x02	; 2
    143a:	02 c0       	rjmp	.+4      	; 0x1440 <_ZN15OrangutanBuzzer8playNoteEhjh+0xa8>
    143c:	8a e0       	ldi	r24, 0x0A	; 10
    143e:	93 e0       	ldi	r25, 0x03	; 3
    1440:	37 30       	cpi	r19, 0x07	; 7
    1442:	71 f0       	breq	.+28     	; 0x1460 <_ZN15OrangutanBuzzer8playNoteEhjh+0xc8>
    1444:	02 c0       	rjmp	.+4      	; 0x144a <_ZN15OrangutanBuzzer8playNoteEhjh+0xb2>
    1446:	88 0f       	add	r24, r24
    1448:	99 1f       	adc	r25, r25
    144a:	6a 95       	dec	r22
    144c:	e2 f7       	brpl	.-8      	; 0x1446 <_ZN15OrangutanBuzzer8playNoteEhjh+0xae>
    144e:	32 30       	cpi	r19, 0x02	; 2
    1450:	20 f0       	brcs	.+8      	; 0x145a <_ZN15OrangutanBuzzer8playNoteEhjh+0xc2>
    1452:	05 96       	adiw	r24, 0x05	; 5
    1454:	6a e0       	ldi	r22, 0x0A	; 10
    1456:	70 e0       	ldi	r23, 0x00	; 0
    1458:	0b c0       	rjmp	.+22     	; 0x1470 <_ZN15OrangutanBuzzer8playNoteEhjh+0xd8>
    145a:	80 50       	subi	r24, 0x00	; 0
    145c:	90 48       	sbci	r25, 0x80	; 128
    145e:	0b c0       	rjmp	.+22     	; 0x1476 <_ZN15OrangutanBuzzer8playNoteEhjh+0xde>
    1460:	36 e0       	ldi	r19, 0x06	; 6
    1462:	88 0f       	add	r24, r24
    1464:	99 1f       	adc	r25, r25
    1466:	3a 95       	dec	r19
    1468:	e1 f7       	brne	.-8      	; 0x1462 <_ZN15OrangutanBuzzer8playNoteEhjh+0xca>
    146a:	02 96       	adiw	r24, 0x02	; 2
    146c:	65 e0       	ldi	r22, 0x05	; 5
    146e:	70 e0       	ldi	r23, 0x00	; 0
    1470:	0e 94 f9 1c 	call	0x39f2	; 0x39f2 <__udivmodhi4>
    1474:	cb 01       	movw	r24, r22
    1476:	40 31       	cpi	r20, 0x10	; 16
    1478:	08 f0       	brcs	.+2      	; 0x147c <_ZN15OrangutanBuzzer8playNoteEhjh+0xe4>
    147a:	4f e0       	ldi	r20, 0x0F	; 15
    147c:	be 01       	movw	r22, r28
    147e:	0e 94 14 09 	call	0x1228	; 0x1228 <_ZN15OrangutanBuzzer13playFrequencyEjjh>
    1482:	df 91       	pop	r29
    1484:	cf 91       	pop	r28
    1486:	08 95       	ret

00001488 <play_note>:
    1488:	0e 94 cc 09 	call	0x1398	; 0x1398 <_ZN15OrangutanBuzzer8playNoteEhjh>
    148c:	08 95       	ret

0000148e <_ZN15OrangutanBuzzer9isPlayingEv>:
    148e:	80 91 3b 01 	lds	r24, 0x013B
    1492:	88 23       	and	r24, r24
    1494:	39 f0       	breq	.+14     	; 0x14a4 <_ZN15OrangutanBuzzer9isPlayingEv+0x16>
    1496:	20 e0       	ldi	r18, 0x00	; 0
    1498:	80 91 6e 02 	lds	r24, 0x026E
    149c:	90 91 6f 02 	lds	r25, 0x026F
    14a0:	89 2b       	or	r24, r25
    14a2:	09 f0       	breq	.+2      	; 0x14a6 <_ZN15OrangutanBuzzer9isPlayingEv+0x18>
    14a4:	21 e0       	ldi	r18, 0x01	; 1
    14a6:	82 2f       	mov	r24, r18
    14a8:	08 95       	ret

000014aa <_ZN15OrangutanBuzzer11stopPlayingEv>:
    14aa:	10 92 6f 00 	sts	0x006F, r1
    14ae:	e1 e8       	ldi	r30, 0x81	; 129
    14b0:	f0 e0       	ldi	r31, 0x00	; 0
    14b2:	80 81       	ld	r24, Z
    14b4:	88 7f       	andi	r24, 0xF8	; 248
    14b6:	81 60       	ori	r24, 0x01	; 1
    14b8:	80 83       	st	Z, r24
    14ba:	80 e1       	ldi	r24, 0x10	; 16
    14bc:	97 e2       	ldi	r25, 0x27	; 39
    14be:	90 93 89 00 	sts	0x0089, r25
    14c2:	80 93 88 00 	sts	0x0088, r24
    14c6:	10 92 8b 00 	sts	0x008B, r1
    14ca:	10 92 8a 00 	sts	0x008A, r1
    14ce:	81 e0       	ldi	r24, 0x01	; 1
    14d0:	80 93 3b 01 	sts	0x013B, r24
    14d4:	10 92 6f 02 	sts	0x026F, r1
    14d8:	10 92 6e 02 	sts	0x026E, r1
    14dc:	08 95       	ret

000014de <stop_playing>:
    14de:	0e 94 55 0a 	call	0x14aa	; 0x14aa <_ZN15OrangutanBuzzer11stopPlayingEv>
    14e2:	08 95       	ret

000014e4 <_ZL16currentCharacterv>:
    14e4:	30 91 52 02 	lds	r19, 0x0252
    14e8:	e0 91 6e 02 	lds	r30, 0x026E
    14ec:	f0 91 6f 02 	lds	r31, 0x026F
    14f0:	33 23       	and	r19, r19
    14f2:	11 f0       	breq	.+4      	; 0x14f8 <_ZL16currentCharacterv+0x14>
    14f4:	24 91       	lpm	r18, Z+
    14f6:	01 c0       	rjmp	.+2      	; 0x14fa <_ZL16currentCharacterv+0x16>
    14f8:	20 81       	ld	r18, Z
    14fa:	82 2f       	mov	r24, r18
    14fc:	81 54       	subi	r24, 0x41	; 65
    14fe:	8a 31       	cpi	r24, 0x1A	; 26
    1500:	08 f4       	brcc	.+2      	; 0x1504 <_ZL16currentCharacterv+0x20>
    1502:	20 5e       	subi	r18, 0xE0	; 224
    1504:	20 32       	cpi	r18, 0x20	; 32
    1506:	59 f4       	brne	.+22     	; 0x151e <_ZL16currentCharacterv+0x3a>
    1508:	80 91 6e 02 	lds	r24, 0x026E
    150c:	90 91 6f 02 	lds	r25, 0x026F
    1510:	01 96       	adiw	r24, 0x01	; 1
    1512:	90 93 6f 02 	sts	0x026F, r25
    1516:	80 93 6e 02 	sts	0x026E, r24
    151a:	01 97       	sbiw	r24, 0x01	; 1
    151c:	29 f7       	brne	.-54     	; 0x14e8 <_ZL16currentCharacterv+0x4>
    151e:	82 2f       	mov	r24, r18
    1520:	08 95       	ret

00001522 <_ZL9getNumberv>:
    1522:	cf 93       	push	r28
    1524:	df 93       	push	r29
    1526:	0e 94 72 0a 	call	0x14e4	; 0x14e4 <_ZL16currentCharacterv>
    152a:	28 2f       	mov	r18, r24
    152c:	c0 e0       	ldi	r28, 0x00	; 0
    152e:	d0 e0       	ldi	r29, 0x00	; 0
    1530:	1d c0       	rjmp	.+58     	; 0x156c <_ZL9getNumberv+0x4a>
    1532:	ce 01       	movw	r24, r28
    1534:	53 e0       	ldi	r21, 0x03	; 3
    1536:	88 0f       	add	r24, r24
    1538:	99 1f       	adc	r25, r25
    153a:	5a 95       	dec	r21
    153c:	e1 f7       	brne	.-8      	; 0x1536 <_ZL9getNumberv+0x14>
    153e:	cc 0f       	add	r28, r28
    1540:	dd 1f       	adc	r29, r29
    1542:	c8 0f       	add	r28, r24
    1544:	d9 1f       	adc	r29, r25
    1546:	82 2f       	mov	r24, r18
    1548:	99 27       	eor	r25, r25
    154a:	87 fd       	sbrc	r24, 7
    154c:	90 95       	com	r25
    154e:	c8 0f       	add	r28, r24
    1550:	d9 1f       	adc	r29, r25
    1552:	e0 97       	sbiw	r28, 0x30	; 48
    1554:	80 91 6e 02 	lds	r24, 0x026E
    1558:	90 91 6f 02 	lds	r25, 0x026F
    155c:	01 96       	adiw	r24, 0x01	; 1
    155e:	90 93 6f 02 	sts	0x026F, r25
    1562:	80 93 6e 02 	sts	0x026E, r24
    1566:	0e 94 72 0a 	call	0x14e4	; 0x14e4 <_ZL16currentCharacterv>
    156a:	28 2f       	mov	r18, r24
    156c:	82 2f       	mov	r24, r18
    156e:	80 53       	subi	r24, 0x30	; 48
    1570:	8a 30       	cpi	r24, 0x0A	; 10
    1572:	f8 f2       	brcs	.-66     	; 0x1532 <_ZL9getNumberv+0x10>
    1574:	ce 01       	movw	r24, r28
    1576:	df 91       	pop	r29
    1578:	cf 91       	pop	r28
    157a:	08 95       	ret

0000157c <_ZL8nextNotev>:
    157c:	a0 e0       	ldi	r26, 0x00	; 0
    157e:	b0 e0       	ldi	r27, 0x00	; 0
    1580:	e4 ec       	ldi	r30, 0xC4	; 196
    1582:	fa e0       	ldi	r31, 0x0A	; 10
    1584:	0c 94 63 1d 	jmp	0x3ac6	; 0x3ac6 <__prologue_saves__+0xc>
    1588:	80 90 30 01 	lds	r8, 0x0130
    158c:	b0 90 50 02 	lds	r11, 0x0250
    1590:	bb 20       	and	r11, r11
    1592:	21 f0       	breq	.+8      	; 0x159c <_ZL8nextNotev+0x20>
    1594:	60 91 51 02 	lds	r22, 0x0251
    1598:	66 23       	and	r22, r22
    159a:	99 f4       	brne	.+38     	; 0x15c2 <_ZL8nextNotev+0x46>
    159c:	a0 90 51 02 	lds	r10, 0x0251
    15a0:	00 91 35 01 	lds	r16, 0x0135
    15a4:	10 91 36 01 	lds	r17, 0x0136
    15a8:	e0 90 31 01 	lds	r14, 0x0131
    15ac:	f0 90 32 01 	lds	r15, 0x0132
    15b0:	c0 91 33 01 	lds	r28, 0x0133
    15b4:	d0 91 34 01 	lds	r29, 0x0134
    15b8:	c0 90 37 01 	lds	r12, 0x0137
    15bc:	d0 90 38 01 	lds	r13, 0x0138
    15c0:	08 c1       	rjmp	.+528    	; 0x17d2 <_ZL8nextNotev+0x256>
    15c2:	8f ef       	ldi	r24, 0xFF	; 255
    15c4:	70 e0       	ldi	r23, 0x00	; 0
    15c6:	40 e0       	ldi	r20, 0x00	; 0
    15c8:	0e 94 cc 09 	call	0x1398	; 0x1398 <_ZN15OrangutanBuzzer8playNoteEhjh>
    15cc:	10 92 51 02 	sts	0x0251, r1
    15d0:	cb c1       	rjmp	.+918    	; 0x1968 <_ZL8nextNotev+0x3ec>
    15d2:	94 e0       	ldi	r25, 0x04	; 4
    15d4:	89 2e       	mov	r8, r25
    15d6:	bb 24       	eor	r11, r11
    15d8:	04 ef       	ldi	r16, 0xF4	; 244
    15da:	11 e0       	ldi	r17, 0x01	; 1
    15dc:	84 e0       	ldi	r24, 0x04	; 4
    15de:	e8 2e       	mov	r14, r24
    15e0:	f1 2c       	mov	r15, r1
    15e2:	c0 ed       	ldi	r28, 0xD0	; 208
    15e4:	d7 e0       	ldi	r29, 0x07	; 7
    15e6:	b4 e0       	ldi	r27, 0x04	; 4
    15e8:	9b 2e       	mov	r9, r27
    15ea:	af e0       	ldi	r26, 0x0F	; 15
    15ec:	ca 2e       	mov	r12, r26
    15ee:	d1 2c       	mov	r13, r1
    15f0:	0e 94 72 0a 	call	0x14e4	; 0x14e4 <_ZL16currentCharacterv>
    15f4:	28 2f       	mov	r18, r24
    15f6:	80 91 6e 02 	lds	r24, 0x026E
    15fa:	90 91 6f 02 	lds	r25, 0x026F
    15fe:	01 96       	adiw	r24, 0x01	; 1
    1600:	90 93 6f 02 	sts	0x026F, r25
    1604:	80 93 6e 02 	sts	0x026E, r24
    1608:	26 36       	cpi	r18, 0x66	; 102
    160a:	09 f4       	brne	.+2      	; 0x160e <_ZL8nextNotev+0x92>
    160c:	98 c0       	rjmp	.+304    	; 0x173e <_ZL8nextNotev+0x1c2>
    160e:	27 36       	cpi	r18, 0x67	; 103
    1610:	cc f4       	brge	.+50     	; 0x1644 <_ZL8nextNotev+0xc8>
    1612:	22 36       	cpi	r18, 0x62	; 98
    1614:	a1 f1       	breq	.+104    	; 0x167e <_ZL8nextNotev+0x102>
    1616:	23 36       	cpi	r18, 0x63	; 99
    1618:	74 f4       	brge	.+28     	; 0x1636 <_ZL8nextNotev+0xba>
    161a:	2e 33       	cpi	r18, 0x3E	; 62
    161c:	61 f1       	breq	.+88     	; 0x1676 <_ZL8nextNotev+0xfa>
    161e:	2f 33       	cpi	r18, 0x3F	; 63
    1620:	34 f4       	brge	.+12     	; 0x162e <_ZL8nextNotev+0xb2>
    1622:	21 32       	cpi	r18, 0x21	; 33
    1624:	b1 f2       	breq	.-84     	; 0x15d2 <_ZL8nextNotev+0x56>
    1626:	2c 33       	cpi	r18, 0x3C	; 60
    1628:	09 f0       	breq	.+2      	; 0x162c <_ZL8nextNotev+0xb0>
    162a:	0b c1       	rjmp	.+534    	; 0x1842 <_ZL8nextNotev+0x2c6>
    162c:	26 c0       	rjmp	.+76     	; 0x167a <_ZL8nextNotev+0xfe>
    162e:	21 36       	cpi	r18, 0x61	; 97
    1630:	09 f0       	breq	.+2      	; 0x1634 <_ZL8nextNotev+0xb8>
    1632:	07 c1       	rjmp	.+526    	; 0x1842 <_ZL8nextNotev+0x2c6>
    1634:	21 c1       	rjmp	.+578    	; 0x1878 <_ZL8nextNotev+0x2fc>
    1636:	24 36       	cpi	r18, 0x64	; 100
    1638:	09 f4       	brne	.+2      	; 0x163c <_ZL8nextNotev+0xc0>
    163a:	51 c0       	rjmp	.+162    	; 0x16de <_ZL8nextNotev+0x162>
    163c:	25 36       	cpi	r18, 0x65	; 101
    163e:	0c f0       	brlt	.+2      	; 0x1642 <_ZL8nextNotev+0xc6>
    1640:	66 c0       	rjmp	.+204    	; 0x170e <_ZL8nextNotev+0x192>
    1642:	35 c0       	rjmp	.+106    	; 0x16ae <_ZL8nextNotev+0x132>
    1644:	2f 36       	cpi	r18, 0x6F	; 111
    1646:	09 f4       	brne	.+2      	; 0x164a <_ZL8nextNotev+0xce>
    1648:	c1 c0       	rjmp	.+386    	; 0x17cc <_ZL8nextNotev+0x250>
    164a:	20 37       	cpi	r18, 0x70	; 112
    164c:	54 f4       	brge	.+20     	; 0x1662 <_ZL8nextNotev+0xe6>
    164e:	2c 36       	cpi	r18, 0x6C	; 108
    1650:	09 f4       	brne	.+2      	; 0x1654 <_ZL8nextNotev+0xd8>
    1652:	a5 c0       	rjmp	.+330    	; 0x179e <_ZL8nextNotev+0x222>
    1654:	2d 36       	cpi	r18, 0x6D	; 109
    1656:	09 f4       	brne	.+2      	; 0x165a <_ZL8nextNotev+0xde>
    1658:	a6 c0       	rjmp	.+332    	; 0x17a6 <_ZL8nextNotev+0x22a>
    165a:	27 36       	cpi	r18, 0x67	; 103
    165c:	09 f0       	breq	.+2      	; 0x1660 <_ZL8nextNotev+0xe4>
    165e:	f1 c0       	rjmp	.+482    	; 0x1842 <_ZL8nextNotev+0x2c6>
    1660:	86 c0       	rjmp	.+268    	; 0x176e <_ZL8nextNotev+0x1f2>
    1662:	24 37       	cpi	r18, 0x74	; 116
    1664:	09 f4       	brne	.+2      	; 0x1668 <_ZL8nextNotev+0xec>
    1666:	d1 c0       	rjmp	.+418    	; 0x180a <_ZL8nextNotev+0x28e>
    1668:	26 37       	cpi	r18, 0x76	; 118
    166a:	09 f4       	brne	.+2      	; 0x166e <_ZL8nextNotev+0xf2>
    166c:	e6 c0       	rjmp	.+460    	; 0x183a <_ZL8nextNotev+0x2be>
    166e:	22 37       	cpi	r18, 0x72	; 114
    1670:	09 f0       	breq	.+2      	; 0x1674 <_ZL8nextNotev+0xf8>
    1672:	e7 c0       	rjmp	.+462    	; 0x1842 <_ZL8nextNotev+0x2c6>
    1674:	b0 c0       	rjmp	.+352    	; 0x17d6 <_ZL8nextNotev+0x25a>
    1676:	83 94       	inc	r8
    1678:	bb cf       	rjmp	.-138    	; 0x15f0 <_ZL8nextNotev+0x74>
    167a:	8a 94       	dec	r8
    167c:	b9 cf       	rjmp	.-142    	; 0x15f0 <_ZL8nextNotev+0x74>
    167e:	a0 92 51 02 	sts	0x0251, r10
    1682:	b0 92 50 02 	sts	0x0250, r11
    1686:	10 93 36 01 	sts	0x0136, r17
    168a:	00 93 35 01 	sts	0x0135, r16
    168e:	f0 92 32 01 	sts	0x0132, r15
    1692:	e0 92 31 01 	sts	0x0131, r14
    1696:	d0 93 34 01 	sts	0x0134, r29
    169a:	c0 93 33 01 	sts	0x0133, r28
    169e:	90 92 30 01 	sts	0x0130, r9
    16a2:	d0 92 38 01 	sts	0x0138, r13
    16a6:	c0 92 37 01 	sts	0x0137, r12
    16aa:	2b e0       	ldi	r18, 0x0B	; 11
    16ac:	fc c0       	rjmp	.+504    	; 0x18a6 <_ZL8nextNotev+0x32a>
    16ae:	a0 92 51 02 	sts	0x0251, r10
    16b2:	b0 92 50 02 	sts	0x0250, r11
    16b6:	10 93 36 01 	sts	0x0136, r17
    16ba:	00 93 35 01 	sts	0x0135, r16
    16be:	f0 92 32 01 	sts	0x0132, r15
    16c2:	e0 92 31 01 	sts	0x0131, r14
    16c6:	d0 93 34 01 	sts	0x0134, r29
    16ca:	c0 93 33 01 	sts	0x0133, r28
    16ce:	90 92 30 01 	sts	0x0130, r9
    16d2:	d0 92 38 01 	sts	0x0138, r13
    16d6:	c0 92 37 01 	sts	0x0137, r12
    16da:	20 e0       	ldi	r18, 0x00	; 0
    16dc:	e4 c0       	rjmp	.+456    	; 0x18a6 <_ZL8nextNotev+0x32a>
    16de:	a0 92 51 02 	sts	0x0251, r10
    16e2:	b0 92 50 02 	sts	0x0250, r11
    16e6:	10 93 36 01 	sts	0x0136, r17
    16ea:	00 93 35 01 	sts	0x0135, r16
    16ee:	f0 92 32 01 	sts	0x0132, r15
    16f2:	e0 92 31 01 	sts	0x0131, r14
    16f6:	d0 93 34 01 	sts	0x0134, r29
    16fa:	c0 93 33 01 	sts	0x0133, r28
    16fe:	90 92 30 01 	sts	0x0130, r9
    1702:	d0 92 38 01 	sts	0x0138, r13
    1706:	c0 92 37 01 	sts	0x0137, r12
    170a:	22 e0       	ldi	r18, 0x02	; 2
    170c:	cc c0       	rjmp	.+408    	; 0x18a6 <_ZL8nextNotev+0x32a>
    170e:	a0 92 51 02 	sts	0x0251, r10
    1712:	b0 92 50 02 	sts	0x0250, r11
    1716:	10 93 36 01 	sts	0x0136, r17
    171a:	00 93 35 01 	sts	0x0135, r16
    171e:	f0 92 32 01 	sts	0x0132, r15
    1722:	e0 92 31 01 	sts	0x0131, r14
    1726:	d0 93 34 01 	sts	0x0134, r29
    172a:	c0 93 33 01 	sts	0x0133, r28
    172e:	90 92 30 01 	sts	0x0130, r9
    1732:	d0 92 38 01 	sts	0x0138, r13
    1736:	c0 92 37 01 	sts	0x0137, r12
    173a:	24 e0       	ldi	r18, 0x04	; 4
    173c:	b4 c0       	rjmp	.+360    	; 0x18a6 <_ZL8nextNotev+0x32a>
    173e:	a0 92 51 02 	sts	0x0251, r10
    1742:	b0 92 50 02 	sts	0x0250, r11
    1746:	10 93 36 01 	sts	0x0136, r17
    174a:	00 93 35 01 	sts	0x0135, r16
    174e:	f0 92 32 01 	sts	0x0132, r15
    1752:	e0 92 31 01 	sts	0x0131, r14
    1756:	d0 93 34 01 	sts	0x0134, r29
    175a:	c0 93 33 01 	sts	0x0133, r28
    175e:	90 92 30 01 	sts	0x0130, r9
    1762:	d0 92 38 01 	sts	0x0138, r13
    1766:	c0 92 37 01 	sts	0x0137, r12
    176a:	25 e0       	ldi	r18, 0x05	; 5
    176c:	9c c0       	rjmp	.+312    	; 0x18a6 <_ZL8nextNotev+0x32a>
    176e:	a0 92 51 02 	sts	0x0251, r10
    1772:	b0 92 50 02 	sts	0x0250, r11
    1776:	10 93 36 01 	sts	0x0136, r17
    177a:	00 93 35 01 	sts	0x0135, r16
    177e:	f0 92 32 01 	sts	0x0132, r15
    1782:	e0 92 31 01 	sts	0x0131, r14
    1786:	d0 93 34 01 	sts	0x0134, r29
    178a:	c0 93 33 01 	sts	0x0133, r28
    178e:	90 92 30 01 	sts	0x0130, r9
    1792:	d0 92 38 01 	sts	0x0138, r13
    1796:	c0 92 37 01 	sts	0x0137, r12
    179a:	27 e0       	ldi	r18, 0x07	; 7
    179c:	84 c0       	rjmp	.+264    	; 0x18a6 <_ZL8nextNotev+0x32a>
    179e:	0e 94 91 0a 	call	0x1522	; 0x1522 <_ZL9getNumberv>
    17a2:	7c 01       	movw	r14, r24
    17a4:	44 c0       	rjmp	.+136    	; 0x182e <_ZL8nextNotev+0x2b2>
    17a6:	0e 94 72 0a 	call	0x14e4	; 0x14e4 <_ZL16currentCharacterv>
    17aa:	8c 36       	cpi	r24, 0x6C	; 108
    17ac:	11 f4       	brne	.+4      	; 0x17b2 <_ZL8nextNotev+0x236>
    17ae:	bb 24       	eor	r11, r11
    17b0:	03 c0       	rjmp	.+6      	; 0x17b8 <_ZL8nextNotev+0x23c>
    17b2:	aa 24       	eor	r10, r10
    17b4:	bb 24       	eor	r11, r11
    17b6:	b3 94       	inc	r11
    17b8:	80 91 6e 02 	lds	r24, 0x026E
    17bc:	90 91 6f 02 	lds	r25, 0x026F
    17c0:	01 96       	adiw	r24, 0x01	; 1
    17c2:	90 93 6f 02 	sts	0x026F, r25
    17c6:	80 93 6e 02 	sts	0x026E, r24
    17ca:	12 cf       	rjmp	.-476    	; 0x15f0 <_ZL8nextNotev+0x74>
    17cc:	0e 94 91 0a 	call	0x1522	; 0x1522 <_ZL9getNumberv>
    17d0:	88 2e       	mov	r8, r24
    17d2:	98 2c       	mov	r9, r8
    17d4:	0d cf       	rjmp	.-486    	; 0x15f0 <_ZL8nextNotev+0x74>
    17d6:	a0 92 51 02 	sts	0x0251, r10
    17da:	b0 92 50 02 	sts	0x0250, r11
    17de:	10 93 36 01 	sts	0x0136, r17
    17e2:	00 93 35 01 	sts	0x0135, r16
    17e6:	f0 92 32 01 	sts	0x0132, r15
    17ea:	e0 92 31 01 	sts	0x0131, r14
    17ee:	d0 93 34 01 	sts	0x0134, r29
    17f2:	c0 93 33 01 	sts	0x0133, r28
    17f6:	90 92 30 01 	sts	0x0130, r9
    17fa:	d0 92 38 01 	sts	0x0138, r13
    17fe:	c0 92 37 01 	sts	0x0137, r12
    1802:	20 e0       	ldi	r18, 0x00	; 0
    1804:	ff 24       	eor	r15, r15
    1806:	f3 94       	inc	r15
    1808:	4f c0       	rjmp	.+158    	; 0x18a8 <_ZL8nextNotev+0x32c>
    180a:	0e 94 91 0a 	call	0x1522	; 0x1522 <_ZL9getNumberv>
    180e:	bc 01       	movw	r22, r24
    1810:	80 ec       	ldi	r24, 0xC0	; 192
    1812:	9d e5       	ldi	r25, 0x5D	; 93
    1814:	0e 94 f9 1c 	call	0x39f2	; 0x39f2 <__udivmodhi4>
    1818:	cb 01       	movw	r24, r22
    181a:	eb 01       	movw	r28, r22
    181c:	f3 e0       	ldi	r31, 0x03	; 3
    181e:	cc 0f       	add	r28, r28
    1820:	dd 1f       	adc	r29, r29
    1822:	fa 95       	dec	r31
    1824:	e1 f7       	brne	.-8      	; 0x181e <_ZL8nextNotev+0x2a2>
    1826:	88 0f       	add	r24, r24
    1828:	99 1f       	adc	r25, r25
    182a:	c8 0f       	add	r28, r24
    182c:	d9 1f       	adc	r29, r25
    182e:	ce 01       	movw	r24, r28
    1830:	b7 01       	movw	r22, r14
    1832:	0e 94 f9 1c 	call	0x39f2	; 0x39f2 <__udivmodhi4>
    1836:	8b 01       	movw	r16, r22
    1838:	db ce       	rjmp	.-586    	; 0x15f0 <_ZL8nextNotev+0x74>
    183a:	0e 94 91 0a 	call	0x1522	; 0x1522 <_ZL9getNumberv>
    183e:	6c 01       	movw	r12, r24
    1840:	d7 ce       	rjmp	.-594    	; 0x15f0 <_ZL8nextNotev+0x74>
    1842:	a0 92 51 02 	sts	0x0251, r10
    1846:	b0 92 50 02 	sts	0x0250, r11
    184a:	10 93 36 01 	sts	0x0136, r17
    184e:	00 93 35 01 	sts	0x0135, r16
    1852:	f0 92 32 01 	sts	0x0132, r15
    1856:	e0 92 31 01 	sts	0x0131, r14
    185a:	d0 93 34 01 	sts	0x0134, r29
    185e:	c0 93 33 01 	sts	0x0133, r28
    1862:	90 92 30 01 	sts	0x0130, r9
    1866:	d0 92 38 01 	sts	0x0138, r13
    186a:	c0 92 37 01 	sts	0x0137, r12
    186e:	10 92 6f 02 	sts	0x026F, r1
    1872:	10 92 6e 02 	sts	0x026E, r1
    1876:	78 c0       	rjmp	.+240    	; 0x1968 <_ZL8nextNotev+0x3ec>
    1878:	a0 92 51 02 	sts	0x0251, r10
    187c:	b0 92 50 02 	sts	0x0250, r11
    1880:	10 93 36 01 	sts	0x0136, r17
    1884:	00 93 35 01 	sts	0x0135, r16
    1888:	f0 92 32 01 	sts	0x0132, r15
    188c:	e0 92 31 01 	sts	0x0131, r14
    1890:	d0 93 34 01 	sts	0x0134, r29
    1894:	c0 93 33 01 	sts	0x0133, r28
    1898:	90 92 30 01 	sts	0x0130, r9
    189c:	d0 92 38 01 	sts	0x0138, r13
    18a0:	c0 92 37 01 	sts	0x0137, r12
    18a4:	29 e0       	ldi	r18, 0x09	; 9
    18a6:	ff 24       	eor	r15, r15
    18a8:	8c e0       	ldi	r24, 0x0C	; 12
    18aa:	88 9e       	mul	r8, r24
    18ac:	c0 01       	movw	r24, r0
    18ae:	11 24       	eor	r1, r1
    18b0:	e2 2e       	mov	r14, r18
    18b2:	e8 0e       	add	r14, r24
    18b4:	0a c0       	rjmp	.+20     	; 0x18ca <_ZL8nextNotev+0x34e>
    18b6:	80 91 6e 02 	lds	r24, 0x026E
    18ba:	90 91 6f 02 	lds	r25, 0x026F
    18be:	01 96       	adiw	r24, 0x01	; 1
    18c0:	90 93 6f 02 	sts	0x026F, r25
    18c4:	80 93 6e 02 	sts	0x026E, r24
    18c8:	e3 94       	inc	r14
    18ca:	0e 94 72 0a 	call	0x14e4	; 0x14e4 <_ZL16currentCharacterv>
    18ce:	8b 32       	cpi	r24, 0x2B	; 43
    18d0:	91 f3       	breq	.-28     	; 0x18b6 <_ZL8nextNotev+0x33a>
    18d2:	83 32       	cpi	r24, 0x23	; 35
    18d4:	81 f3       	breq	.-32     	; 0x18b6 <_ZL8nextNotev+0x33a>
    18d6:	0c c0       	rjmp	.+24     	; 0x18f0 <_ZL8nextNotev+0x374>
    18d8:	80 91 6e 02 	lds	r24, 0x026E
    18dc:	90 91 6f 02 	lds	r25, 0x026F
    18e0:	01 96       	adiw	r24, 0x01	; 1
    18e2:	90 93 6f 02 	sts	0x026F, r25
    18e6:	80 93 6e 02 	sts	0x026E, r24
    18ea:	ea 94       	dec	r14
    18ec:	0e 94 72 0a 	call	0x14e4	; 0x14e4 <_ZL16currentCharacterv>
    18f0:	8d 32       	cpi	r24, 0x2D	; 45
    18f2:	91 f3       	breq	.-28     	; 0x18d8 <_ZL8nextNotev+0x35c>
    18f4:	c0 91 35 01 	lds	r28, 0x0135
    18f8:	d0 91 36 01 	lds	r29, 0x0136
    18fc:	81 53       	subi	r24, 0x31	; 49
    18fe:	88 30       	cpi	r24, 0x08	; 8
    1900:	58 f4       	brcc	.+22     	; 0x1918 <_ZL8nextNotev+0x39c>
    1902:	00 91 33 01 	lds	r16, 0x0133
    1906:	10 91 34 01 	lds	r17, 0x0134
    190a:	0e 94 91 0a 	call	0x1522	; 0x1522 <_ZL9getNumberv>
    190e:	bc 01       	movw	r22, r24
    1910:	c8 01       	movw	r24, r16
    1912:	0e 94 f9 1c 	call	0x39f2	; 0x39f2 <__udivmodhi4>
    1916:	eb 01       	movw	r28, r22
    1918:	8e 01       	movw	r16, r28
    191a:	0b c0       	rjmp	.+22     	; 0x1932 <_ZL8nextNotev+0x3b6>
    191c:	80 91 6e 02 	lds	r24, 0x026E
    1920:	90 91 6f 02 	lds	r25, 0x026F
    1924:	01 96       	adiw	r24, 0x01	; 1
    1926:	90 93 6f 02 	sts	0x026F, r25
    192a:	80 93 6e 02 	sts	0x026E, r24
    192e:	c0 0f       	add	r28, r16
    1930:	d1 1f       	adc	r29, r17
    1932:	16 95       	lsr	r17
    1934:	07 95       	ror	r16
    1936:	0e 94 72 0a 	call	0x14e4	; 0x14e4 <_ZL16currentCharacterv>
    193a:	8e 32       	cpi	r24, 0x2E	; 46
    193c:	79 f3       	breq	.-34     	; 0x191c <_ZL8nextNotev+0x3a0>
    193e:	80 91 50 02 	lds	r24, 0x0250
    1942:	88 23       	and	r24, r24
    1944:	39 f0       	breq	.+14     	; 0x1954 <_ZL8nextNotev+0x3d8>
    1946:	ce 01       	movw	r24, r28
    1948:	96 95       	lsr	r25
    194a:	87 95       	ror	r24
    194c:	80 93 51 02 	sts	0x0251, r24
    1950:	c8 1b       	sub	r28, r24
    1952:	d1 09       	sbc	r29, r1
    1954:	ff 20       	and	r15, r15
    1956:	11 f0       	breq	.+4      	; 0x195c <_ZL8nextNotev+0x3e0>
    1958:	ee 24       	eor	r14, r14
    195a:	ea 94       	dec	r14
    195c:	8e 2d       	mov	r24, r14
    195e:	be 01       	movw	r22, r28
    1960:	40 91 37 01 	lds	r20, 0x0137
    1964:	0e 94 cc 09 	call	0x1398	; 0x1398 <_ZN15OrangutanBuzzer8playNoteEhjh>
    1968:	cd b7       	in	r28, 0x3d	; 61
    196a:	de b7       	in	r29, 0x3e	; 62
    196c:	ec e0       	ldi	r30, 0x0C	; 12
    196e:	0c 94 7f 1d 	jmp	0x3afe	; 0x3afe <__epilogue_restores__+0xc>

00001972 <_ZN15OrangutanBuzzer20playFromProgramSpaceEPKc>:
    1972:	10 92 6f 00 	sts	0x006F, r1
    1976:	90 93 6f 02 	sts	0x026F, r25
    197a:	80 93 6e 02 	sts	0x026E, r24
    197e:	81 e0       	ldi	r24, 0x01	; 1
    1980:	80 93 52 02 	sts	0x0252, r24
    1984:	10 92 51 02 	sts	0x0251, r1
    1988:	0e 94 be 0a 	call	0x157c	; 0x157c <_ZL8nextNotev>
    198c:	08 95       	ret

0000198e <play_from_program_space>:
    198e:	0e 94 b9 0c 	call	0x1972	; 0x1972 <_ZN15OrangutanBuzzer20playFromProgramSpaceEPKc>
    1992:	08 95       	ret

00001994 <_ZN15OrangutanBuzzer4playEPKc>:
    1994:	10 92 6f 00 	sts	0x006F, r1
    1998:	90 93 6f 02 	sts	0x026F, r25
    199c:	80 93 6e 02 	sts	0x026E, r24
    19a0:	10 92 52 02 	sts	0x0252, r1
    19a4:	10 92 51 02 	sts	0x0251, r1
    19a8:	0e 94 be 0a 	call	0x157c	; 0x157c <_ZL8nextNotev>
    19ac:	08 95       	ret

000019ae <play>:
    19ae:	0e 94 ca 0c 	call	0x1994	; 0x1994 <_ZN15OrangutanBuzzer4playEPKc>
    19b2:	08 95       	ret

000019b4 <__vector_13>:
    19b4:	1f 92       	push	r1
    19b6:	0f 92       	push	r0
    19b8:	0f b6       	in	r0, 0x3f	; 63
    19ba:	0f 92       	push	r0
    19bc:	11 24       	eor	r1, r1
    19be:	2f 93       	push	r18
    19c0:	3f 93       	push	r19
    19c2:	4f 93       	push	r20
    19c4:	5f 93       	push	r21
    19c6:	6f 93       	push	r22
    19c8:	7f 93       	push	r23
    19ca:	8f 93       	push	r24
    19cc:	9f 93       	push	r25
    19ce:	af 93       	push	r26
    19d0:	bf 93       	push	r27
    19d2:	ef 93       	push	r30
    19d4:	ff 93       	push	r31
    19d6:	80 91 54 02 	lds	r24, 0x0254
    19da:	90 91 55 02 	lds	r25, 0x0255
    19de:	01 97       	sbiw	r24, 0x01	; 1
    19e0:	90 93 55 02 	sts	0x0255, r25
    19e4:	80 93 54 02 	sts	0x0254, r24
    19e8:	01 96       	adiw	r24, 0x01	; 1
    19ea:	11 f5       	brne	.+68     	; 0x1a30 <__vector_13+0x7c>
    19ec:	10 92 6f 00 	sts	0x006F, r1
    19f0:	78 94       	sei
    19f2:	80 91 81 00 	lds	r24, 0x0081
    19f6:	88 7f       	andi	r24, 0xF8	; 248
    19f8:	81 60       	ori	r24, 0x01	; 1
    19fa:	80 93 81 00 	sts	0x0081, r24
    19fe:	80 e1       	ldi	r24, 0x10	; 16
    1a00:	97 e2       	ldi	r25, 0x27	; 39
    1a02:	90 93 89 00 	sts	0x0089, r25
    1a06:	80 93 88 00 	sts	0x0088, r24
    1a0a:	10 92 8b 00 	sts	0x008B, r1
    1a0e:	10 92 8a 00 	sts	0x008A, r1
    1a12:	81 e0       	ldi	r24, 0x01	; 1
    1a14:	80 93 3b 01 	sts	0x013B, r24
    1a18:	80 91 6e 02 	lds	r24, 0x026E
    1a1c:	90 91 6f 02 	lds	r25, 0x026F
    1a20:	89 2b       	or	r24, r25
    1a22:	31 f0       	breq	.+12     	; 0x1a30 <__vector_13+0x7c>
    1a24:	80 91 53 02 	lds	r24, 0x0253
    1a28:	88 23       	and	r24, r24
    1a2a:	11 f4       	brne	.+4      	; 0x1a30 <__vector_13+0x7c>
    1a2c:	0e 94 be 0a 	call	0x157c	; 0x157c <_ZL8nextNotev>
    1a30:	ff 91       	pop	r31
    1a32:	ef 91       	pop	r30
    1a34:	bf 91       	pop	r27
    1a36:	af 91       	pop	r26
    1a38:	9f 91       	pop	r25
    1a3a:	8f 91       	pop	r24
    1a3c:	7f 91       	pop	r23
    1a3e:	6f 91       	pop	r22
    1a40:	5f 91       	pop	r21
    1a42:	4f 91       	pop	r20
    1a44:	3f 91       	pop	r19
    1a46:	2f 91       	pop	r18
    1a48:	0f 90       	pop	r0
    1a4a:	0f be       	out	0x3f, r0	; 63
    1a4c:	0f 90       	pop	r0
    1a4e:	1f 90       	pop	r1
    1a50:	18 95       	reti

00001a52 <_ZN15OrangutanBuzzer9playCheckEv>:
    1a52:	10 92 6f 00 	sts	0x006F, r1
    1a56:	80 91 3b 01 	lds	r24, 0x013B
    1a5a:	88 23       	and	r24, r24
    1a5c:	41 f0       	breq	.+16     	; 0x1a6e <_ZN15OrangutanBuzzer9playCheckEv+0x1c>
    1a5e:	80 91 6e 02 	lds	r24, 0x026E
    1a62:	90 91 6f 02 	lds	r25, 0x026F
    1a66:	89 2b       	or	r24, r25
    1a68:	11 f0       	breq	.+4      	; 0x1a6e <_ZN15OrangutanBuzzer9playCheckEv+0x1c>
    1a6a:	0e 94 be 0a 	call	0x157c	; 0x157c <_ZL8nextNotev>
    1a6e:	81 e0       	ldi	r24, 0x01	; 1
    1a70:	80 93 6f 00 	sts	0x006F, r24
    1a74:	20 e0       	ldi	r18, 0x00	; 0
    1a76:	80 91 6e 02 	lds	r24, 0x026E
    1a7a:	90 91 6f 02 	lds	r25, 0x026F
    1a7e:	89 2b       	or	r24, r25
    1a80:	09 f0       	breq	.+2      	; 0x1a84 <_ZN15OrangutanBuzzer9playCheckEv+0x32>
    1a82:	21 e0       	ldi	r18, 0x01	; 1
    1a84:	82 2f       	mov	r24, r18
    1a86:	08 95       	ret

00001a88 <_ZN15OrangutanBuzzer8playModeEh>:
    1a88:	80 93 53 02 	sts	0x0253, r24
    1a8c:	88 23       	and	r24, r24
    1a8e:	11 f4       	brne	.+4      	; 0x1a94 <_ZN15OrangutanBuzzer8playModeEh+0xc>
    1a90:	0e 94 29 0d 	call	0x1a52	; 0x1a52 <_ZN15OrangutanBuzzer9playCheckEv>
    1a94:	08 95       	ret

00001a96 <play_mode>:
    1a96:	0e 94 44 0d 	call	0x1a88	; 0x1a88 <_ZN15OrangutanBuzzer8playModeEh>
    1a9a:	08 95       	ret

00001a9c <play_check>:
    1a9c:	0e 94 29 0d 	call	0x1a52	; 0x1a52 <_ZN15OrangutanBuzzer9playCheckEv>
    1aa0:	08 95       	ret

00001aa2 <_ZN12OrangutanLCDC2Ev>:
    1aa2:	08 95       	ret

00001aa4 <_ZN12OrangutanLCDC1Ev>:
    1aa4:	08 95       	ret

00001aa6 <void_getchar>:
    1aa6:	80 e0       	ldi	r24, 0x00	; 0
    1aa8:	90 e0       	ldi	r25, 0x00	; 0
    1aaa:	08 95       	ret

00001aac <_ZN12OrangutanLCD8busyWaitEv>:
    1aac:	ef 92       	push	r14
    1aae:	ff 92       	push	r15
    1ab0:	0f 93       	push	r16
    1ab2:	1f 93       	push	r17
    1ab4:	6a b1       	in	r22, 0x0a	; 10
    1ab6:	57 98       	cbi	0x0a, 7	; 10
    1ab8:	5a 98       	cbi	0x0b, 2	; 11
    1aba:	28 9a       	sbi	0x05, 0	; 5
    1abc:	e0 90 5a 02 	lds	r14, 0x025A
    1ac0:	f0 90 5b 02 	lds	r15, 0x025B
    1ac4:	00 91 5c 02 	lds	r16, 0x025C
    1ac8:	10 91 5d 02 	lds	r17, 0x025D
    1acc:	20 e0       	ldi	r18, 0x00	; 0
    1ace:	30 e0       	ldi	r19, 0x00	; 0
    1ad0:	41 e0       	ldi	r20, 0x01	; 1
    1ad2:	50 e0       	ldi	r21, 0x00	; 0
    1ad4:	ca 01       	movw	r24, r20
    1ad6:	6f 93       	push	r22
    1ad8:	64 e0       	ldi	r22, 0x04	; 4
    1ada:	6a 95       	dec	r22
    1adc:	f1 f7       	brne	.-4      	; 0x1ada <_ZN12OrangutanLCD8busyWaitEv+0x2e>
    1ade:	6f 91       	pop	r22
    1ae0:	01 97       	sbiw	r24, 0x01	; 1
    1ae2:	c9 f7       	brne	.-14     	; 0x1ad6 <_ZN12OrangutanLCD8busyWaitEv+0x2a>
    1ae4:	5c 9a       	sbi	0x0b, 4	; 11
    1ae6:	ca 01       	movw	r24, r20
    1ae8:	6f 93       	push	r22
    1aea:	64 e0       	ldi	r22, 0x04	; 4
    1aec:	6a 95       	dec	r22
    1aee:	f1 f7       	brne	.-4      	; 0x1aec <_ZN12OrangutanLCD8busyWaitEv+0x40>
    1af0:	6f 91       	pop	r22
    1af2:	01 97       	sbiw	r24, 0x01	; 1
    1af4:	c9 f7       	brne	.-14     	; 0x1ae8 <_ZN12OrangutanLCD8busyWaitEv+0x3c>
    1af6:	89 b1       	in	r24, 0x09	; 9
    1af8:	5c 98       	cbi	0x0b, 4	; 11
    1afa:	fa 01       	movw	r30, r20
    1afc:	6f 93       	push	r22
    1afe:	64 e0       	ldi	r22, 0x04	; 4
    1b00:	6a 95       	dec	r22
    1b02:	f1 f7       	brne	.-4      	; 0x1b00 <_ZN12OrangutanLCD8busyWaitEv+0x54>
    1b04:	6f 91       	pop	r22
    1b06:	31 97       	sbiw	r30, 0x01	; 1
    1b08:	c9 f7       	brne	.-14     	; 0x1afc <_ZN12OrangutanLCD8busyWaitEv+0x50>
    1b0a:	5c 9a       	sbi	0x0b, 4	; 11
    1b0c:	fa 01       	movw	r30, r20
    1b0e:	6f 93       	push	r22
    1b10:	64 e0       	ldi	r22, 0x04	; 4
    1b12:	6a 95       	dec	r22
    1b14:	f1 f7       	brne	.-4      	; 0x1b12 <_ZN12OrangutanLCD8busyWaitEv+0x66>
    1b16:	6f 91       	pop	r22
    1b18:	31 97       	sbiw	r30, 0x01	; 1
    1b1a:	c9 f7       	brne	.-14     	; 0x1b0e <_ZN12OrangutanLCD8busyWaitEv+0x62>
    1b1c:	5c 98       	cbi	0x0b, 4	; 11
    1b1e:	87 ff       	sbrs	r24, 7
    1b20:	0b c0       	rjmp	.+22     	; 0x1b38 <_ZN12OrangutanLCD8busyWaitEv+0x8c>
    1b22:	2c 5f       	subi	r18, 0xFC	; 252
    1b24:	3f 4f       	sbci	r19, 0xFF	; 255
    1b26:	c9 01       	movw	r24, r18
    1b28:	a0 e0       	ldi	r26, 0x00	; 0
    1b2a:	b0 e0       	ldi	r27, 0x00	; 0
    1b2c:	8e 15       	cp	r24, r14
    1b2e:	9f 05       	cpc	r25, r15
    1b30:	a0 07       	cpc	r26, r16
    1b32:	b1 07       	cpc	r27, r17
    1b34:	08 f4       	brcc	.+2      	; 0x1b38 <_ZN12OrangutanLCD8busyWaitEv+0x8c>
    1b36:	ce cf       	rjmp	.-100    	; 0x1ad4 <_ZN12OrangutanLCD8busyWaitEv+0x28>
    1b38:	6a b9       	out	0x0a, r22	; 10
    1b3a:	1f 91       	pop	r17
    1b3c:	0f 91       	pop	r16
    1b3e:	ff 90       	pop	r15
    1b40:	ef 90       	pop	r14
    1b42:	08 95       	ret

00001b44 <_ZN12OrangutanLCD8sendDataEh>:
    1b44:	65 b1       	in	r22, 0x05	; 5
    1b46:	90 e0       	ldi	r25, 0x00	; 0
    1b48:	ac 01       	movw	r20, r24
    1b4a:	41 70       	andi	r20, 0x01	; 1
    1b4c:	50 70       	andi	r21, 0x00	; 0
    1b4e:	44 0f       	add	r20, r20
    1b50:	55 1f       	adc	r21, r21
    1b52:	9c 01       	movw	r18, r24
    1b54:	26 70       	andi	r18, 0x06	; 6
    1b56:	30 70       	andi	r19, 0x00	; 0
    1b58:	53 e0       	ldi	r21, 0x03	; 3
    1b5a:	22 0f       	add	r18, r18
    1b5c:	33 1f       	adc	r19, r19
    1b5e:	5a 95       	dec	r21
    1b60:	e1 f7       	brne	.-8      	; 0x1b5a <_ZN12OrangutanLCD8sendDataEh+0x16>
    1b62:	42 2b       	or	r20, r18
    1b64:	6d 7c       	andi	r22, 0xCD	; 205
    1b66:	46 2b       	or	r20, r22
    1b68:	45 b9       	out	0x05, r20	; 5
    1b6a:	2b b1       	in	r18, 0x0b	; 11
    1b6c:	88 70       	andi	r24, 0x08	; 8
    1b6e:	90 70       	andi	r25, 0x00	; 0
    1b70:	34 e0       	ldi	r19, 0x04	; 4
    1b72:	88 0f       	add	r24, r24
    1b74:	99 1f       	adc	r25, r25
    1b76:	3a 95       	dec	r19
    1b78:	e1 f7       	brne	.-8      	; 0x1b72 <_ZN12OrangutanLCD8sendDataEh+0x2e>
    1b7a:	2f 77       	andi	r18, 0x7F	; 127
    1b7c:	28 2b       	or	r18, r24
    1b7e:	2b b9       	out	0x0b, r18	; 11
    1b80:	5c 9a       	sbi	0x0b, 4	; 11
    1b82:	81 e0       	ldi	r24, 0x01	; 1
    1b84:	90 e0       	ldi	r25, 0x00	; 0
    1b86:	fc 01       	movw	r30, r24
    1b88:	6f 93       	push	r22
    1b8a:	64 e0       	ldi	r22, 0x04	; 4
    1b8c:	6a 95       	dec	r22
    1b8e:	f1 f7       	brne	.-4      	; 0x1b8c <_ZN12OrangutanLCD8sendDataEh+0x48>
    1b90:	6f 91       	pop	r22
    1b92:	31 97       	sbiw	r30, 0x01	; 1
    1b94:	c9 f7       	brne	.-14     	; 0x1b88 <_ZN12OrangutanLCD8sendDataEh+0x44>
    1b96:	5c 98       	cbi	0x0b, 4	; 11
    1b98:	6f 93       	push	r22
    1b9a:	64 e0       	ldi	r22, 0x04	; 4
    1b9c:	6a 95       	dec	r22
    1b9e:	f1 f7       	brne	.-4      	; 0x1b9c <_ZN12OrangutanLCD8sendDataEh+0x58>
    1ba0:	6f 91       	pop	r22
    1ba2:	01 97       	sbiw	r24, 0x01	; 1
    1ba4:	c9 f7       	brne	.-14     	; 0x1b98 <_ZN12OrangutanLCD8sendDataEh+0x54>
    1ba6:	08 95       	ret

00001ba8 <_ZN12OrangutanLCD10initPrintfEv>:
    1ba8:	80 91 56 02 	lds	r24, 0x0256
    1bac:	90 91 57 02 	lds	r25, 0x0257
    1bb0:	00 97       	sbiw	r24, 0x00	; 0
    1bb2:	11 f0       	breq	.+4      	; 0x1bb8 <_ZN12OrangutanLCD10initPrintfEv+0x10>
    1bb4:	0e 94 47 1e 	call	0x3c8e	; 0x3c8e <free>
    1bb8:	80 91 39 01 	lds	r24, 0x0139
    1bbc:	90 e0       	ldi	r25, 0x00	; 0
    1bbe:	01 97       	sbiw	r24, 0x01	; 1
    1bc0:	20 91 3a 01 	lds	r18, 0x013A
    1bc4:	30 e0       	ldi	r19, 0x00	; 0
    1bc6:	ac 01       	movw	r20, r24
    1bc8:	42 9f       	mul	r20, r18
    1bca:	c0 01       	movw	r24, r0
    1bcc:	43 9f       	mul	r20, r19
    1bce:	90 0d       	add	r25, r0
    1bd0:	52 9f       	mul	r21, r18
    1bd2:	90 0d       	add	r25, r0
    1bd4:	11 24       	eor	r1, r1
    1bd6:	0e 94 9a 1d 	call	0x3b34	; 0x3b34 <malloc>
    1bda:	90 93 57 02 	sts	0x0257, r25
    1bde:	80 93 56 02 	sts	0x0256, r24
    1be2:	00 97       	sbiw	r24, 0x00	; 0
    1be4:	29 f1       	breq	.+74     	; 0x1c30 <_ZN12OrangutanLCD10initPrintfEv+0x88>
    1be6:	60 e0       	ldi	r22, 0x00	; 0
    1be8:	70 e2       	ldi	r23, 0x20	; 32
    1bea:	08 c0       	rjmp	.+16     	; 0x1bfc <_ZN12OrangutanLCD10initPrintfEv+0x54>
    1bec:	e0 91 56 02 	lds	r30, 0x0256
    1bf0:	f0 91 57 02 	lds	r31, 0x0257
    1bf4:	e4 0f       	add	r30, r20
    1bf6:	f5 1f       	adc	r31, r21
    1bf8:	70 83       	st	Z, r23
    1bfa:	6f 5f       	subi	r22, 0xFF	; 255
    1bfc:	46 2f       	mov	r20, r22
    1bfe:	50 e0       	ldi	r21, 0x00	; 0
    1c00:	80 91 39 01 	lds	r24, 0x0139
    1c04:	90 e0       	ldi	r25, 0x00	; 0
    1c06:	01 97       	sbiw	r24, 0x01	; 1
    1c08:	20 91 3a 01 	lds	r18, 0x013A
    1c0c:	30 e0       	ldi	r19, 0x00	; 0
    1c0e:	fc 01       	movw	r30, r24
    1c10:	e2 9f       	mul	r30, r18
    1c12:	c0 01       	movw	r24, r0
    1c14:	e3 9f       	mul	r30, r19
    1c16:	90 0d       	add	r25, r0
    1c18:	f2 9f       	mul	r31, r18
    1c1a:	90 0d       	add	r25, r0
    1c1c:	11 24       	eor	r1, r1
    1c1e:	48 17       	cp	r20, r24
    1c20:	59 07       	cpc	r21, r25
    1c22:	24 f3       	brlt	.-56     	; 0x1bec <_ZN12OrangutanLCD10initPrintfEv+0x44>
    1c24:	87 e1       	ldi	r24, 0x17	; 23
    1c26:	90 e1       	ldi	r25, 0x10	; 16
    1c28:	63 e5       	ldi	r22, 0x53	; 83
    1c2a:	7d e0       	ldi	r23, 0x0D	; 13
    1c2c:	0e 94 9f 1e 	call	0x3d3e	; 0x3d3e <fdevopen>
    1c30:	08 95       	ret

00001c32 <_ZN12OrangutanLCD10initPrintfEhh>:
    1c32:	80 93 3a 01 	sts	0x013A, r24
    1c36:	60 93 39 01 	sts	0x0139, r22
    1c3a:	0e 94 d4 0d 	call	0x1ba8	; 0x1ba8 <_ZN12OrangutanLCD10initPrintfEv>
    1c3e:	08 95       	ret

00001c40 <lcd_init_printf_with_dimensions>:
    1c40:	80 93 3a 01 	sts	0x013A, r24
    1c44:	60 93 39 01 	sts	0x0139, r22
    1c48:	0e 94 d4 0d 	call	0x1ba8	; 0x1ba8 <_ZN12OrangutanLCD10initPrintfEv>
    1c4c:	08 95       	ret

00001c4e <lcd_init_printf>:
    1c4e:	0e 94 d4 0d 	call	0x1ba8	; 0x1ba8 <_ZN12OrangutanLCD10initPrintfEv>
    1c52:	08 95       	ret

00001c54 <_ZN12OrangutanLCD5init2Ev>:
    1c54:	80 e1       	ldi	r24, 0x10	; 16
    1c56:	97 e2       	ldi	r25, 0x27	; 39
    1c58:	a0 e0       	ldi	r26, 0x00	; 0
    1c5a:	b0 e0       	ldi	r27, 0x00	; 0
    1c5c:	80 93 5a 02 	sts	0x025A, r24
    1c60:	90 93 5b 02 	sts	0x025B, r25
    1c64:	a0 93 5c 02 	sts	0x025C, r26
    1c68:	b0 93 5d 02 	sts	0x025D, r27
    1c6c:	52 9a       	sbi	0x0a, 2	; 10
    1c6e:	20 9a       	sbi	0x04, 0	; 4
    1c70:	54 9a       	sbi	0x0a, 4	; 10
    1c72:	8e e1       	ldi	r24, 0x1E	; 30
    1c74:	90 e0       	ldi	r25, 0x00	; 0
    1c76:	0e 94 ba 14 	call	0x2974	; 0x2974 <_ZN13OrangutanTime17delayMillisecondsEj>
    1c7a:	83 e0       	ldi	r24, 0x03	; 3
    1c7c:	0e 94 5d 11 	call	0x22ba	; 0x22ba <_ZN12OrangutanLCD13send_4bit_cmdEh>
    1c80:	86 e0       	ldi	r24, 0x06	; 6
    1c82:	90 e0       	ldi	r25, 0x00	; 0
    1c84:	0e 94 ba 14 	call	0x2974	; 0x2974 <_ZN13OrangutanTime17delayMillisecondsEj>
    1c88:	83 e0       	ldi	r24, 0x03	; 3
    1c8a:	0e 94 5d 11 	call	0x22ba	; 0x22ba <_ZN12OrangutanLCD13send_4bit_cmdEh>
    1c8e:	82 e0       	ldi	r24, 0x02	; 2
    1c90:	90 e0       	ldi	r25, 0x00	; 0
    1c92:	0e 94 ba 14 	call	0x2974	; 0x2974 <_ZN13OrangutanTime17delayMillisecondsEj>
    1c96:	83 e0       	ldi	r24, 0x03	; 3
    1c98:	0e 94 5d 11 	call	0x22ba	; 0x22ba <_ZN12OrangutanLCD13send_4bit_cmdEh>
    1c9c:	82 e0       	ldi	r24, 0x02	; 2
    1c9e:	90 e0       	ldi	r25, 0x00	; 0
    1ca0:	0e 94 ba 14 	call	0x2974	; 0x2974 <_ZN13OrangutanTime17delayMillisecondsEj>
    1ca4:	82 e0       	ldi	r24, 0x02	; 2
    1ca6:	0e 94 5d 11 	call	0x22ba	; 0x22ba <_ZN12OrangutanLCD13send_4bit_cmdEh>
    1caa:	82 e0       	ldi	r24, 0x02	; 2
    1cac:	90 e0       	ldi	r25, 0x00	; 0
    1cae:	0e 94 ba 14 	call	0x2974	; 0x2974 <_ZN13OrangutanTime17delayMillisecondsEj>
    1cb2:	88 e2       	ldi	r24, 0x28	; 40
    1cb4:	0e 94 a7 0e 	call	0x1d4e	; 0x1d4e <_ZN12OrangutanLCD8send_cmdEh>
    1cb8:	88 e0       	ldi	r24, 0x08	; 8
    1cba:	0e 94 a7 0e 	call	0x1d4e	; 0x1d4e <_ZN12OrangutanLCD8send_cmdEh>
    1cbe:	81 e0       	ldi	r24, 0x01	; 1
    1cc0:	0e 94 a7 0e 	call	0x1d4e	; 0x1d4e <_ZN12OrangutanLCD8send_cmdEh>
    1cc4:	86 e0       	ldi	r24, 0x06	; 6
    1cc6:	0e 94 a7 0e 	call	0x1d4e	; 0x1d4e <_ZN12OrangutanLCD8send_cmdEh>
    1cca:	8c e0       	ldi	r24, 0x0C	; 12
    1ccc:	0e 94 a7 0e 	call	0x1d4e	; 0x1d4e <_ZN12OrangutanLCD8send_cmdEh>
    1cd0:	08 95       	ret

00001cd2 <_ZN12OrangutanLCD4initEv>:
    1cd2:	80 91 5e 02 	lds	r24, 0x025E
    1cd6:	88 23       	and	r24, r24
    1cd8:	29 f4       	brne	.+10     	; 0x1ce4 <_ZN12OrangutanLCD4initEv+0x12>
    1cda:	81 e0       	ldi	r24, 0x01	; 1
    1cdc:	80 93 5e 02 	sts	0x025E, r24
    1ce0:	0e 94 2a 0e 	call	0x1c54	; 0x1c54 <_ZN12OrangutanLCD5init2Ev>
    1ce4:	08 95       	ret

00001ce6 <_ZN12OrangutanLCD4sendEhhh>:
    1ce6:	bf 92       	push	r11
    1ce8:	cf 92       	push	r12
    1cea:	df 92       	push	r13
    1cec:	ef 92       	push	r14
    1cee:	ff 92       	push	r15
    1cf0:	0f 93       	push	r16
    1cf2:	1f 93       	push	r17
    1cf4:	08 2f       	mov	r16, r24
    1cf6:	16 2f       	mov	r17, r22
    1cf8:	f4 2e       	mov	r15, r20
    1cfa:	0e 94 69 0e 	call	0x1cd2	; 0x1cd2 <_ZN12OrangutanLCD4initEv>
    1cfe:	0e 94 56 0d 	call	0x1aac	; 0x1aac <_ZN12OrangutanLCD8busyWaitEv>
    1d02:	b4 b0       	in	r11, 0x04	; 4
    1d04:	c5 b0       	in	r12, 0x05	; 5
    1d06:	da b0       	in	r13, 0x0a	; 10
    1d08:	eb b0       	in	r14, 0x0b	; 11
    1d0a:	28 98       	cbi	0x05, 0	; 5
    1d0c:	11 23       	and	r17, r17
    1d0e:	11 f0       	breq	.+4      	; 0x1d14 <_ZN12OrangutanLCD4sendEhhh+0x2e>
    1d10:	5a 9a       	sbi	0x0b, 2	; 11
    1d12:	01 c0       	rjmp	.+2      	; 0x1d16 <_ZN12OrangutanLCD4sendEhhh+0x30>
    1d14:	5a 98       	cbi	0x0b, 2	; 11
    1d16:	84 b1       	in	r24, 0x04	; 4
    1d18:	82 63       	ori	r24, 0x32	; 50
    1d1a:	84 b9       	out	0x04, r24	; 4
    1d1c:	57 9a       	sbi	0x0a, 7	; 10
    1d1e:	81 e0       	ldi	r24, 0x01	; 1
    1d20:	f8 16       	cp	r15, r24
    1d22:	29 f0       	breq	.+10     	; 0x1d2e <_ZN12OrangutanLCD4sendEhhh+0x48>
    1d24:	80 2f       	mov	r24, r16
    1d26:	82 95       	swap	r24
    1d28:	8f 70       	andi	r24, 0x0F	; 15
    1d2a:	0e 94 a2 0d 	call	0x1b44	; 0x1b44 <_ZN12OrangutanLCD8sendDataEh>
    1d2e:	80 2f       	mov	r24, r16
    1d30:	8f 70       	andi	r24, 0x0F	; 15
    1d32:	0e 94 a2 0d 	call	0x1b44	; 0x1b44 <_ZN12OrangutanLCD8sendDataEh>
    1d36:	da b8       	out	0x0a, r13	; 10
    1d38:	eb b8       	out	0x0b, r14	; 11
    1d3a:	b4 b8       	out	0x04, r11	; 4
    1d3c:	c5 b8       	out	0x05, r12	; 5
    1d3e:	1f 91       	pop	r17
    1d40:	0f 91       	pop	r16
    1d42:	ff 90       	pop	r15
    1d44:	ef 90       	pop	r14
    1d46:	df 90       	pop	r13
    1d48:	cf 90       	pop	r12
    1d4a:	bf 90       	pop	r11
    1d4c:	08 95       	ret

00001d4e <_ZN12OrangutanLCD8send_cmdEh>:
    1d4e:	60 e0       	ldi	r22, 0x00	; 0
    1d50:	42 e0       	ldi	r20, 0x02	; 2
    1d52:	0e 94 73 0e 	call	0x1ce6	; 0x1ce6 <_ZN12OrangutanLCD4sendEhhh>
    1d56:	08 95       	ret

00001d58 <_ZN12OrangutanLCD10moveCursorEhh>:
    1d58:	0f 93       	push	r16
    1d5a:	1f 93       	push	r17
    1d5c:	08 2f       	mov	r16, r24
    1d5e:	16 2f       	mov	r17, r22
    1d60:	08 c0       	rjmp	.+16     	; 0x1d72 <_ZN12OrangutanLCD10moveCursorEhh+0x1a>
    1d62:	00 23       	and	r16, r16
    1d64:	11 f4       	brne	.+4      	; 0x1d6a <_ZN12OrangutanLCD10moveCursorEhh+0x12>
    1d66:	80 e1       	ldi	r24, 0x10	; 16
    1d68:	01 c0       	rjmp	.+2      	; 0x1d6c <_ZN12OrangutanLCD10moveCursorEhh+0x14>
    1d6a:	84 e1       	ldi	r24, 0x14	; 20
    1d6c:	0e 94 a7 0e 	call	0x1d4e	; 0x1d4e <_ZN12OrangutanLCD8send_cmdEh>
    1d70:	11 50       	subi	r17, 0x01	; 1
    1d72:	11 23       	and	r17, r17
    1d74:	b1 f7       	brne	.-20     	; 0x1d62 <_ZN12OrangutanLCD10moveCursorEhh+0xa>
    1d76:	1f 91       	pop	r17
    1d78:	0f 91       	pop	r16
    1d7a:	08 95       	ret

00001d7c <lcd_move_cursor>:
    1d7c:	0e 94 ac 0e 	call	0x1d58	; 0x1d58 <_ZN12OrangutanLCD10moveCursorEhh>
    1d80:	08 95       	ret

00001d82 <_ZN12OrangutanLCD10hideCursorEv>:
    1d82:	8c e0       	ldi	r24, 0x0C	; 12
    1d84:	0e 94 a7 0e 	call	0x1d4e	; 0x1d4e <_ZN12OrangutanLCD8send_cmdEh>
    1d88:	08 95       	ret

00001d8a <lcd_hide_cursor>:
    1d8a:	0e 94 c1 0e 	call	0x1d82	; 0x1d82 <_ZN12OrangutanLCD10hideCursorEv>
    1d8e:	08 95       	ret

00001d90 <_ZN12OrangutanLCD10showCursorEh>:
    1d90:	81 30       	cpi	r24, 0x01	; 1
    1d92:	11 f4       	brne	.+4      	; 0x1d98 <_ZN12OrangutanLCD10showCursorEh+0x8>
    1d94:	8f e0       	ldi	r24, 0x0F	; 15
    1d96:	01 c0       	rjmp	.+2      	; 0x1d9a <_ZN12OrangutanLCD10showCursorEh+0xa>
    1d98:	8e e0       	ldi	r24, 0x0E	; 14
    1d9a:	0e 94 a7 0e 	call	0x1d4e	; 0x1d4e <_ZN12OrangutanLCD8send_cmdEh>
    1d9e:	08 95       	ret

00001da0 <lcd_show_cursor>:
    1da0:	0e 94 c8 0e 	call	0x1d90	; 0x1d90 <_ZN12OrangutanLCD10showCursorEh>
    1da4:	08 95       	ret

00001da6 <_ZN12OrangutanLCD6gotoXYEhh>:
    1da6:	a4 e0       	ldi	r26, 0x04	; 4
    1da8:	b0 e0       	ldi	r27, 0x00	; 0
    1daa:	e9 ed       	ldi	r30, 0xD9	; 217
    1dac:	fe e0       	ldi	r31, 0x0E	; 14
    1dae:	0c 94 6b 1d 	jmp	0x3ad6	; 0x3ad6 <__prologue_saves__+0x1c>
    1db2:	18 2f       	mov	r17, r24
    1db4:	06 2f       	mov	r16, r22
    1db6:	80 e8       	ldi	r24, 0x80	; 128
    1db8:	89 83       	std	Y+1, r24	; 0x01
    1dba:	80 ec       	ldi	r24, 0xC0	; 192
    1dbc:	8a 83       	std	Y+2, r24	; 0x02
    1dbe:	84 e9       	ldi	r24, 0x94	; 148
    1dc0:	8b 83       	std	Y+3, r24	; 0x03
    1dc2:	84 ed       	ldi	r24, 0xD4	; 212
    1dc4:	8c 83       	std	Y+4, r24	; 0x04
    1dc6:	fe 01       	movw	r30, r28
    1dc8:	e6 0f       	add	r30, r22
    1dca:	f1 1d       	adc	r31, r1
    1dcc:	81 81       	ldd	r24, Z+1	; 0x01
    1dce:	81 0f       	add	r24, r17
    1dd0:	0e 94 a7 0e 	call	0x1d4e	; 0x1d4e <_ZN12OrangutanLCD8send_cmdEh>
    1dd4:	10 93 59 02 	sts	0x0259, r17
    1dd8:	00 93 58 02 	sts	0x0258, r16
    1ddc:	24 96       	adiw	r28, 0x04	; 4
    1dde:	e4 e0       	ldi	r30, 0x04	; 4
    1de0:	0c 94 87 1d 	jmp	0x3b0e	; 0x3b0e <__epilogue_restores__+0x1c>

00001de4 <lcd_goto_xy>:
    1de4:	0e 94 d3 0e 	call	0x1da6	; 0x1da6 <_ZN12OrangutanLCD6gotoXYEhh>
    1de8:	08 95       	ret

00001dea <_ZN12OrangutanLCD5clearEv>:
    1dea:	81 e0       	ldi	r24, 0x01	; 1
    1dec:	0e 94 a7 0e 	call	0x1d4e	; 0x1d4e <_ZN12OrangutanLCD8send_cmdEh>
    1df0:	80 91 56 02 	lds	r24, 0x0256
    1df4:	90 91 57 02 	lds	r25, 0x0257
    1df8:	89 2b       	or	r24, r25
    1dfa:	19 f1       	breq	.+70     	; 0x1e42 <_ZN12OrangutanLCD5clearEv+0x58>
    1dfc:	60 e0       	ldi	r22, 0x00	; 0
    1dfe:	70 e2       	ldi	r23, 0x20	; 32
    1e00:	08 c0       	rjmp	.+16     	; 0x1e12 <_ZN12OrangutanLCD5clearEv+0x28>
    1e02:	e0 91 56 02 	lds	r30, 0x0256
    1e06:	f0 91 57 02 	lds	r31, 0x0257
    1e0a:	e4 0f       	add	r30, r20
    1e0c:	f5 1f       	adc	r31, r21
    1e0e:	70 83       	st	Z, r23
    1e10:	6f 5f       	subi	r22, 0xFF	; 255
    1e12:	46 2f       	mov	r20, r22
    1e14:	50 e0       	ldi	r21, 0x00	; 0
    1e16:	80 91 39 01 	lds	r24, 0x0139
    1e1a:	90 e0       	ldi	r25, 0x00	; 0
    1e1c:	01 97       	sbiw	r24, 0x01	; 1
    1e1e:	20 91 3a 01 	lds	r18, 0x013A
    1e22:	30 e0       	ldi	r19, 0x00	; 0
    1e24:	fc 01       	movw	r30, r24
    1e26:	e2 9f       	mul	r30, r18
    1e28:	c0 01       	movw	r24, r0
    1e2a:	e3 9f       	mul	r30, r19
    1e2c:	90 0d       	add	r25, r0
    1e2e:	f2 9f       	mul	r31, r18
    1e30:	90 0d       	add	r25, r0
    1e32:	11 24       	eor	r1, r1
    1e34:	48 17       	cp	r20, r24
    1e36:	59 07       	cpc	r21, r25
    1e38:	24 f3       	brlt	.-56     	; 0x1e02 <_ZN12OrangutanLCD5clearEv+0x18>
    1e3a:	10 92 59 02 	sts	0x0259, r1
    1e3e:	10 92 58 02 	sts	0x0258, r1
    1e42:	08 95       	ret

00001e44 <clear>:
    1e44:	0e 94 f5 0e 	call	0x1dea	; 0x1dea <_ZN12OrangutanLCD5clearEv>
    1e48:	08 95       	ret

00001e4a <_ZN12OrangutanLCD9send_dataEh>:
    1e4a:	61 e0       	ldi	r22, 0x01	; 1
    1e4c:	42 e0       	ldi	r20, 0x02	; 2
    1e4e:	0e 94 73 0e 	call	0x1ce6	; 0x1ce6 <_ZN12OrangutanLCD4sendEhhh>
    1e52:	08 95       	ret

00001e54 <_ZN12OrangutanLCD11printBinaryEh>:
    1e54:	0f 93       	push	r16
    1e56:	1f 93       	push	r17
    1e58:	cf 93       	push	r28
    1e5a:	df 93       	push	r29
    1e5c:	00 e0       	ldi	r16, 0x00	; 0
    1e5e:	10 e8       	ldi	r17, 0x80	; 128
    1e60:	c8 2f       	mov	r28, r24
    1e62:	d0 e0       	ldi	r29, 0x00	; 0
    1e64:	81 2f       	mov	r24, r17
    1e66:	90 e0       	ldi	r25, 0x00	; 0
    1e68:	8c 23       	and	r24, r28
    1e6a:	9d 23       	and	r25, r29
    1e6c:	89 2b       	or	r24, r25
    1e6e:	11 f0       	breq	.+4      	; 0x1e74 <_ZN12OrangutanLCD11printBinaryEh+0x20>
    1e70:	81 e3       	ldi	r24, 0x31	; 49
    1e72:	01 c0       	rjmp	.+2      	; 0x1e76 <_ZN12OrangutanLCD11printBinaryEh+0x22>
    1e74:	80 e3       	ldi	r24, 0x30	; 48
    1e76:	0e 94 25 0f 	call	0x1e4a	; 0x1e4a <_ZN12OrangutanLCD9send_dataEh>
    1e7a:	0f 5f       	subi	r16, 0xFF	; 255
    1e7c:	08 30       	cpi	r16, 0x08	; 8
    1e7e:	11 f0       	breq	.+4      	; 0x1e84 <_ZN12OrangutanLCD11printBinaryEh+0x30>
    1e80:	16 95       	lsr	r17
    1e82:	f0 cf       	rjmp	.-32     	; 0x1e64 <_ZN12OrangutanLCD11printBinaryEh+0x10>
    1e84:	df 91       	pop	r29
    1e86:	cf 91       	pop	r28
    1e88:	1f 91       	pop	r17
    1e8a:	0f 91       	pop	r16
    1e8c:	08 95       	ret

00001e8e <print_binary>:
    1e8e:	0e 94 2a 0f 	call	0x1e54	; 0x1e54 <_ZN12OrangutanLCD11printBinaryEh>
    1e92:	08 95       	ret

00001e94 <_ZN12OrangutanLCD14printHexNibbleEh>:
    1e94:	8a 30       	cpi	r24, 0x0A	; 10
    1e96:	10 f4       	brcc	.+4      	; 0x1e9c <_ZN12OrangutanLCD14printHexNibbleEh+0x8>
    1e98:	80 5d       	subi	r24, 0xD0	; 208
    1e9a:	01 c0       	rjmp	.+2      	; 0x1e9e <_ZN12OrangutanLCD14printHexNibbleEh+0xa>
    1e9c:	89 5c       	subi	r24, 0xC9	; 201
    1e9e:	0e 94 25 0f 	call	0x1e4a	; 0x1e4a <_ZN12OrangutanLCD9send_dataEh>
    1ea2:	08 95       	ret

00001ea4 <_ZN12OrangutanLCD8printHexEh>:
    1ea4:	1f 93       	push	r17
    1ea6:	18 2f       	mov	r17, r24
    1ea8:	82 95       	swap	r24
    1eaa:	8f 70       	andi	r24, 0x0F	; 15
    1eac:	0e 94 4a 0f 	call	0x1e94	; 0x1e94 <_ZN12OrangutanLCD14printHexNibbleEh>
    1eb0:	81 2f       	mov	r24, r17
    1eb2:	8f 70       	andi	r24, 0x0F	; 15
    1eb4:	0e 94 4a 0f 	call	0x1e94	; 0x1e94 <_ZN12OrangutanLCD14printHexNibbleEh>
    1eb8:	1f 91       	pop	r17
    1eba:	08 95       	ret

00001ebc <_ZN12OrangutanLCD8printHexEj>:
    1ebc:	1f 93       	push	r17
    1ebe:	18 2f       	mov	r17, r24
    1ec0:	89 2f       	mov	r24, r25
    1ec2:	0e 94 52 0f 	call	0x1ea4	; 0x1ea4 <_ZN12OrangutanLCD8printHexEh>
    1ec6:	81 2f       	mov	r24, r17
    1ec8:	0e 94 52 0f 	call	0x1ea4	; 0x1ea4 <_ZN12OrangutanLCD8printHexEh>
    1ecc:	1f 91       	pop	r17
    1ece:	08 95       	ret

00001ed0 <print_hex>:
    1ed0:	0e 94 5e 0f 	call	0x1ebc	; 0x1ebc <_ZN12OrangutanLCD8printHexEj>
    1ed4:	08 95       	ret

00001ed6 <print_hex_byte>:
    1ed6:	0e 94 52 0f 	call	0x1ea4	; 0x1ea4 <_ZN12OrangutanLCD8printHexEh>
    1eda:	08 95       	ret

00001edc <_ZN12OrangutanLCD5printEm>:
    1edc:	6f 92       	push	r6
    1ede:	7f 92       	push	r7
    1ee0:	8f 92       	push	r8
    1ee2:	9f 92       	push	r9
    1ee4:	af 92       	push	r10
    1ee6:	bf 92       	push	r11
    1ee8:	cf 92       	push	r12
    1eea:	df 92       	push	r13
    1eec:	ff 92       	push	r15
    1eee:	0f 93       	push	r16
    1ef0:	df 93       	push	r29
    1ef2:	cf 93       	push	r28
    1ef4:	cd b7       	in	r28, 0x3d	; 61
    1ef6:	de b7       	in	r29, 0x3e	; 62
    1ef8:	2a 97       	sbiw	r28, 0x0a	; 10
    1efa:	0f b6       	in	r0, 0x3f	; 63
    1efc:	f8 94       	cli
    1efe:	de bf       	out	0x3e, r29	; 62
    1f00:	0f be       	out	0x3f, r0	; 63
    1f02:	cd bf       	out	0x3d, r28	; 61
    1f04:	5b 01       	movw	r10, r22
    1f06:	6c 01       	movw	r12, r24
    1f08:	0a e0       	ldi	r16, 0x0A	; 10
    1f0a:	3e 01       	movw	r6, r28
    1f0c:	08 94       	sec
    1f0e:	61 1c       	adc	r6, r1
    1f10:	71 1c       	adc	r7, r1
    1f12:	fa 2c       	mov	r15, r10
    1f14:	c6 01       	movw	r24, r12
    1f16:	b5 01       	movw	r22, r10
    1f18:	2a e0       	ldi	r18, 0x0A	; 10
    1f1a:	30 e0       	ldi	r19, 0x00	; 0
    1f1c:	40 e0       	ldi	r20, 0x00	; 0
    1f1e:	50 e0       	ldi	r21, 0x00	; 0
    1f20:	0e 94 20 1d 	call	0x3a40	; 0x3a40 <__udivmodsi4>
    1f24:	c9 01       	movw	r24, r18
    1f26:	da 01       	movw	r26, r20
    1f28:	5c 01       	movw	r10, r24
    1f2a:	6d 01       	movw	r12, r26
    1f2c:	01 50       	subi	r16, 0x01	; 1
    1f2e:	43 01       	movw	r8, r6
    1f30:	80 0e       	add	r8, r16
    1f32:	91 1c       	adc	r9, r1
    1f34:	80 e3       	ldi	r24, 0x30	; 48
    1f36:	f8 0e       	add	r15, r24
    1f38:	c6 01       	movw	r24, r12
    1f3a:	b5 01       	movw	r22, r10
    1f3c:	2a e0       	ldi	r18, 0x0A	; 10
    1f3e:	30 e0       	ldi	r19, 0x00	; 0
    1f40:	40 e0       	ldi	r20, 0x00	; 0
    1f42:	50 e0       	ldi	r21, 0x00	; 0
    1f44:	0e 94 ce 1c 	call	0x399c	; 0x399c <__mulsi3>
    1f48:	f6 1a       	sub	r15, r22
    1f4a:	f4 01       	movw	r30, r8
    1f4c:	f0 82       	st	Z, r15
    1f4e:	a1 14       	cp	r10, r1
    1f50:	b1 04       	cpc	r11, r1
    1f52:	c1 04       	cpc	r12, r1
    1f54:	d1 04       	cpc	r13, r1
    1f56:	e9 f6       	brne	.-70     	; 0x1f12 <_ZN12OrangutanLCD5printEm+0x36>
    1f58:	08 c0       	rjmp	.+16     	; 0x1f6a <_ZN12OrangutanLCD5printEm+0x8e>
    1f5a:	f6 01       	movw	r30, r12
    1f5c:	e0 0f       	add	r30, r16
    1f5e:	f1 1d       	adc	r31, r1
    1f60:	80 81       	ld	r24, Z
    1f62:	0e 94 25 0f 	call	0x1e4a	; 0x1e4a <_ZN12OrangutanLCD9send_dataEh>
    1f66:	0f 5f       	subi	r16, 0xFF	; 255
    1f68:	04 c0       	rjmp	.+8      	; 0x1f72 <_ZN12OrangutanLCD5printEm+0x96>
    1f6a:	6e 01       	movw	r12, r28
    1f6c:	08 94       	sec
    1f6e:	c1 1c       	adc	r12, r1
    1f70:	d1 1c       	adc	r13, r1
    1f72:	0a 30       	cpi	r16, 0x0A	; 10
    1f74:	90 f3       	brcs	.-28     	; 0x1f5a <_ZN12OrangutanLCD5printEm+0x7e>
    1f76:	2a 96       	adiw	r28, 0x0a	; 10
    1f78:	0f b6       	in	r0, 0x3f	; 63
    1f7a:	f8 94       	cli
    1f7c:	de bf       	out	0x3e, r29	; 62
    1f7e:	0f be       	out	0x3f, r0	; 63
    1f80:	cd bf       	out	0x3d, r28	; 61
    1f82:	cf 91       	pop	r28
    1f84:	df 91       	pop	r29
    1f86:	0f 91       	pop	r16
    1f88:	ff 90       	pop	r15
    1f8a:	df 90       	pop	r13
    1f8c:	cf 90       	pop	r12
    1f8e:	bf 90       	pop	r11
    1f90:	af 90       	pop	r10
    1f92:	9f 90       	pop	r9
    1f94:	8f 90       	pop	r8
    1f96:	7f 90       	pop	r7
    1f98:	6f 90       	pop	r6
    1f9a:	08 95       	ret

00001f9c <print_unsigned_long>:
    1f9c:	0e 94 6e 0f 	call	0x1edc	; 0x1edc <_ZN12OrangutanLCD5printEm>
    1fa0:	08 95       	ret

00001fa2 <_ZN12OrangutanLCD5printEl>:
    1fa2:	ef 92       	push	r14
    1fa4:	ff 92       	push	r15
    1fa6:	0f 93       	push	r16
    1fa8:	1f 93       	push	r17
    1faa:	7b 01       	movw	r14, r22
    1fac:	8c 01       	movw	r16, r24
    1fae:	97 ff       	sbrs	r25, 7
    1fb0:	0b c0       	rjmp	.+22     	; 0x1fc8 <_ZN12OrangutanLCD5printEl+0x26>
    1fb2:	10 95       	com	r17
    1fb4:	00 95       	com	r16
    1fb6:	f0 94       	com	r15
    1fb8:	e0 94       	com	r14
    1fba:	e1 1c       	adc	r14, r1
    1fbc:	f1 1c       	adc	r15, r1
    1fbe:	01 1d       	adc	r16, r1
    1fc0:	11 1d       	adc	r17, r1
    1fc2:	8d e2       	ldi	r24, 0x2D	; 45
    1fc4:	0e 94 25 0f 	call	0x1e4a	; 0x1e4a <_ZN12OrangutanLCD9send_dataEh>
    1fc8:	c8 01       	movw	r24, r16
    1fca:	b7 01       	movw	r22, r14
    1fcc:	0e 94 6e 0f 	call	0x1edc	; 0x1edc <_ZN12OrangutanLCD5printEm>
    1fd0:	1f 91       	pop	r17
    1fd2:	0f 91       	pop	r16
    1fd4:	ff 90       	pop	r15
    1fd6:	ef 90       	pop	r14
    1fd8:	08 95       	ret

00001fda <print_long>:
    1fda:	0e 94 d1 0f 	call	0x1fa2	; 0x1fa2 <_ZN12OrangutanLCD5printEl>
    1fde:	08 95       	ret

00001fe0 <_ZN12OrangutanLCD21printFromProgramSpaceEPKc>:
    1fe0:	cf 93       	push	r28
    1fe2:	df 93       	push	r29
    1fe4:	ec 01       	movw	r28, r24
    1fe6:	03 c0       	rjmp	.+6      	; 0x1fee <_ZN12OrangutanLCD21printFromProgramSpaceEPKc+0xe>
    1fe8:	0e 94 25 0f 	call	0x1e4a	; 0x1e4a <_ZN12OrangutanLCD9send_dataEh>
    1fec:	21 96       	adiw	r28, 0x01	; 1
    1fee:	fe 01       	movw	r30, r28
    1ff0:	84 91       	lpm	r24, Z+
    1ff2:	88 23       	and	r24, r24
    1ff4:	c9 f7       	brne	.-14     	; 0x1fe8 <_ZN12OrangutanLCD21printFromProgramSpaceEPKc+0x8>
    1ff6:	df 91       	pop	r29
    1ff8:	cf 91       	pop	r28
    1ffa:	08 95       	ret

00001ffc <print_from_program_space>:
    1ffc:	0e 94 f0 0f 	call	0x1fe0	; 0x1fe0 <_ZN12OrangutanLCD21printFromProgramSpaceEPKc>
    2000:	08 95       	ret

00002002 <_ZN12OrangutanLCD5printEPKc>:
    2002:	cf 93       	push	r28
    2004:	df 93       	push	r29
    2006:	ec 01       	movw	r28, r24
    2008:	03 c0       	rjmp	.+6      	; 0x2010 <_ZN12OrangutanLCD5printEPKc+0xe>
    200a:	21 96       	adiw	r28, 0x01	; 1
    200c:	0e 94 25 0f 	call	0x1e4a	; 0x1e4a <_ZN12OrangutanLCD9send_dataEh>
    2010:	88 81       	ld	r24, Y
    2012:	88 23       	and	r24, r24
    2014:	d1 f7       	brne	.-12     	; 0x200a <_ZN12OrangutanLCD5printEPKc+0x8>
    2016:	df 91       	pop	r29
    2018:	cf 91       	pop	r28
    201a:	08 95       	ret

0000201c <print>:
    201c:	0e 94 01 10 	call	0x2002	; 0x2002 <_ZN12OrangutanLCD5printEPKc>
    2020:	08 95       	ret

00002022 <_ZN12OrangutanLCD5printEc>:
    2022:	0e 94 25 0f 	call	0x1e4a	; 0x1e4a <_ZN12OrangutanLCD9send_dataEh>
    2026:	08 95       	ret

00002028 <print_character>:
    2028:	0e 94 25 0f 	call	0x1e4a	; 0x1e4a <_ZN12OrangutanLCD9send_dataEh>
    202c:	08 95       	ret

0000202e <lcd_putchar>:
    202e:	a0 e0       	ldi	r26, 0x00	; 0
    2030:	b0 e0       	ldi	r27, 0x00	; 0
    2032:	ed e1       	ldi	r30, 0x1D	; 29
    2034:	f0 e1       	ldi	r31, 0x10	; 16
    2036:	0c 94 67 1d 	jmp	0x3ace	; 0x3ace <__prologue_saves__+0x14>
    203a:	e8 2e       	mov	r14, r24
    203c:	80 91 56 02 	lds	r24, 0x0256
    2040:	90 91 57 02 	lds	r25, 0x0257
    2044:	89 2b       	or	r24, r25
    2046:	09 f4       	brne	.+2      	; 0x204a <lcd_putchar+0x1c>
    2048:	05 c1       	rjmp	.+522    	; 0x2254 <lcd_putchar+0x226>
    204a:	2a e0       	ldi	r18, 0x0A	; 10
    204c:	e2 16       	cp	r14, r18
    204e:	09 f4       	brne	.+2      	; 0x2052 <lcd_putchar+0x24>
    2050:	46 c0       	rjmp	.+140    	; 0x20de <lcd_putchar+0xb0>
    2052:	38 e0       	ldi	r19, 0x08	; 8
    2054:	e3 16       	cp	r14, r19
    2056:	c9 f4       	brne	.+50     	; 0x208a <lcd_putchar+0x5c>
    2058:	80 91 59 02 	lds	r24, 0x0259
    205c:	81 50       	subi	r24, 0x01	; 1
    205e:	80 93 59 02 	sts	0x0259, r24
    2062:	8f 3f       	cpi	r24, 0xFF	; 255
    2064:	51 f4       	brne	.+20     	; 0x207a <lcd_putchar+0x4c>
    2066:	80 91 58 02 	lds	r24, 0x0258
    206a:	81 50       	subi	r24, 0x01	; 1
    206c:	80 93 58 02 	sts	0x0258, r24
    2070:	80 91 3a 01 	lds	r24, 0x013A
    2074:	81 50       	subi	r24, 0x01	; 1
    2076:	80 93 59 02 	sts	0x0259, r24
    207a:	80 91 58 02 	lds	r24, 0x0258
    207e:	8f 3f       	cpi	r24, 0xFF	; 255
    2080:	09 f0       	breq	.+2      	; 0x2084 <lcd_putchar+0x56>
    2082:	e2 c0       	rjmp	.+452    	; 0x2248 <lcd_putchar+0x21a>
    2084:	10 92 58 02 	sts	0x0258, r1
    2088:	dd c0       	rjmp	.+442    	; 0x2244 <lcd_putchar+0x216>
    208a:	8e 2d       	mov	r24, r14
    208c:	0e 94 25 0f 	call	0x1e4a	; 0x1e4a <_ZN12OrangutanLCD9send_dataEh>
    2090:	20 91 58 02 	lds	r18, 0x0258
    2094:	22 23       	and	r18, r18
    2096:	c9 f0       	breq	.+50     	; 0x20ca <lcd_putchar+0x9c>
    2098:	30 e0       	ldi	r19, 0x00	; 0
    209a:	21 50       	subi	r18, 0x01	; 1
    209c:	30 40       	sbci	r19, 0x00	; 0
    209e:	80 91 3a 01 	lds	r24, 0x013A
    20a2:	90 e0       	ldi	r25, 0x00	; 0
    20a4:	ac 01       	movw	r20, r24
    20a6:	24 9f       	mul	r18, r20
    20a8:	c0 01       	movw	r24, r0
    20aa:	25 9f       	mul	r18, r21
    20ac:	90 0d       	add	r25, r0
    20ae:	34 9f       	mul	r19, r20
    20b0:	90 0d       	add	r25, r0
    20b2:	11 24       	eor	r1, r1
    20b4:	20 91 59 02 	lds	r18, 0x0259
    20b8:	e0 91 56 02 	lds	r30, 0x0256
    20bc:	f0 91 57 02 	lds	r31, 0x0257
    20c0:	e8 0f       	add	r30, r24
    20c2:	f9 1f       	adc	r31, r25
    20c4:	e2 0f       	add	r30, r18
    20c6:	f1 1d       	adc	r31, r1
    20c8:	e0 82       	st	Z, r14
    20ca:	80 91 59 02 	lds	r24, 0x0259
    20ce:	8f 5f       	subi	r24, 0xFF	; 255
    20d0:	80 93 59 02 	sts	0x0259, r24
    20d4:	90 91 3a 01 	lds	r25, 0x013A
    20d8:	89 17       	cp	r24, r25
    20da:	09 f0       	breq	.+2      	; 0x20de <lcd_putchar+0xb0>
    20dc:	bb c0       	rjmp	.+374    	; 0x2254 <lcd_putchar+0x226>
    20de:	40 91 58 02 	lds	r20, 0x0258
    20e2:	24 2f       	mov	r18, r20
    20e4:	30 e0       	ldi	r19, 0x00	; 0
    20e6:	80 91 39 01 	lds	r24, 0x0139
    20ea:	90 e0       	ldi	r25, 0x00	; 0
    20ec:	01 97       	sbiw	r24, 0x01	; 1
    20ee:	28 17       	cp	r18, r24
    20f0:	39 07       	cpc	r19, r25
    20f2:	09 f0       	breq	.+2      	; 0x20f6 <lcd_putchar+0xc8>
    20f4:	a4 c0       	rjmp	.+328    	; 0x223e <lcd_putchar+0x210>
    20f6:	c0 e0       	ldi	r28, 0x00	; 0
    20f8:	d0 e0       	ldi	r29, 0x00	; 0
    20fa:	44 c0       	rjmp	.+136    	; 0x2184 <lcd_putchar+0x156>
    20fc:	80 e0       	ldi	r24, 0x00	; 0
    20fe:	6c 2f       	mov	r22, r28
    2100:	0e 94 d3 0e 	call	0x1da6	; 0x1da6 <_ZN12OrangutanLCD6gotoXYEhh>
    2104:	ff 24       	eor	r15, r15
    2106:	6e 01       	movw	r12, r28
    2108:	08 94       	sec
    210a:	c1 1c       	adc	r12, r1
    210c:	d1 1c       	adc	r13, r1
    210e:	35 c0       	rjmp	.+106    	; 0x217a <lcd_putchar+0x14c>
    2110:	0f 2d       	mov	r16, r15
    2112:	10 e0       	ldi	r17, 0x00	; 0
    2114:	90 e0       	ldi	r25, 0x00	; 0
    2116:	9c 01       	movw	r18, r24
    2118:	c2 9f       	mul	r28, r18
    211a:	c0 01       	movw	r24, r0
    211c:	c3 9f       	mul	r28, r19
    211e:	90 0d       	add	r25, r0
    2120:	d2 9f       	mul	r29, r18
    2122:	90 0d       	add	r25, r0
    2124:	11 24       	eor	r1, r1
    2126:	e0 91 56 02 	lds	r30, 0x0256
    212a:	f0 91 57 02 	lds	r31, 0x0257
    212e:	e0 0f       	add	r30, r16
    2130:	f1 1f       	adc	r31, r17
    2132:	e8 0f       	add	r30, r24
    2134:	f9 1f       	adc	r31, r25
    2136:	80 81       	ld	r24, Z
    2138:	0e 94 25 0f 	call	0x1e4a	; 0x1e4a <_ZN12OrangutanLCD9send_dataEh>
    213c:	e0 91 56 02 	lds	r30, 0x0256
    2140:	f0 91 57 02 	lds	r31, 0x0257
    2144:	80 91 3a 01 	lds	r24, 0x013A
    2148:	90 e0       	ldi	r25, 0x00	; 0
    214a:	c8 9f       	mul	r28, r24
    214c:	d0 01       	movw	r26, r0
    214e:	c9 9f       	mul	r28, r25
    2150:	b0 0d       	add	r27, r0
    2152:	d8 9f       	mul	r29, r24
    2154:	b0 0d       	add	r27, r0
    2156:	11 24       	eor	r1, r1
    2158:	e0 0f       	add	r30, r16
    215a:	f1 1f       	adc	r31, r17
    215c:	ae 0f       	add	r26, r30
    215e:	bf 1f       	adc	r27, r31
    2160:	ac 01       	movw	r20, r24
    2162:	c4 9e       	mul	r12, r20
    2164:	c0 01       	movw	r24, r0
    2166:	c5 9e       	mul	r12, r21
    2168:	90 0d       	add	r25, r0
    216a:	d4 9e       	mul	r13, r20
    216c:	90 0d       	add	r25, r0
    216e:	11 24       	eor	r1, r1
    2170:	e8 0f       	add	r30, r24
    2172:	f9 1f       	adc	r31, r25
    2174:	80 81       	ld	r24, Z
    2176:	8c 93       	st	X, r24
    2178:	f3 94       	inc	r15
    217a:	80 91 3a 01 	lds	r24, 0x013A
    217e:	f8 16       	cp	r15, r24
    2180:	38 f2       	brcs	.-114    	; 0x2110 <lcd_putchar+0xe2>
    2182:	e6 01       	movw	r28, r12
    2184:	60 91 39 01 	lds	r22, 0x0139
    2188:	86 2f       	mov	r24, r22
    218a:	90 e0       	ldi	r25, 0x00	; 0
    218c:	02 97       	sbiw	r24, 0x02	; 2
    218e:	c8 17       	cp	r28, r24
    2190:	d9 07       	cpc	r29, r25
    2192:	0c f4       	brge	.+2      	; 0x2196 <lcd_putchar+0x168>
    2194:	b3 cf       	rjmp	.-154    	; 0x20fc <lcd_putchar+0xce>
    2196:	62 30       	cpi	r22, 0x02	; 2
    2198:	08 f4       	brcc	.+2      	; 0x219c <lcd_putchar+0x16e>
    219a:	40 c0       	rjmp	.+128    	; 0x221c <lcd_putchar+0x1ee>
    219c:	62 50       	subi	r22, 0x02	; 2
    219e:	80 e0       	ldi	r24, 0x00	; 0
    21a0:	0e 94 d3 0e 	call	0x1da6	; 0x1da6 <_ZN12OrangutanLCD6gotoXYEhh>
    21a4:	ff 24       	eor	r15, r15
    21a6:	e0 e2       	ldi	r30, 0x20	; 32
    21a8:	de 2e       	mov	r13, r30
    21aa:	34 c0       	rjmp	.+104    	; 0x2214 <lcd_putchar+0x1e6>
    21ac:	0f 2d       	mov	r16, r15
    21ae:	10 e0       	ldi	r17, 0x00	; 0
    21b0:	80 91 39 01 	lds	r24, 0x0139
    21b4:	90 e0       	ldi	r25, 0x00	; 0
    21b6:	02 97       	sbiw	r24, 0x02	; 2
    21b8:	30 e0       	ldi	r19, 0x00	; 0
    21ba:	ac 01       	movw	r20, r24
    21bc:	42 9f       	mul	r20, r18
    21be:	c0 01       	movw	r24, r0
    21c0:	43 9f       	mul	r20, r19
    21c2:	90 0d       	add	r25, r0
    21c4:	52 9f       	mul	r21, r18
    21c6:	90 0d       	add	r25, r0
    21c8:	11 24       	eor	r1, r1
    21ca:	e0 91 56 02 	lds	r30, 0x0256
    21ce:	f0 91 57 02 	lds	r31, 0x0257
    21d2:	e0 0f       	add	r30, r16
    21d4:	f1 1f       	adc	r31, r17
    21d6:	e8 0f       	add	r30, r24
    21d8:	f9 1f       	adc	r31, r25
    21da:	80 81       	ld	r24, Z
    21dc:	0e 94 25 0f 	call	0x1e4a	; 0x1e4a <_ZN12OrangutanLCD9send_dataEh>
    21e0:	20 91 39 01 	lds	r18, 0x0139
    21e4:	30 e0       	ldi	r19, 0x00	; 0
    21e6:	22 50       	subi	r18, 0x02	; 2
    21e8:	30 40       	sbci	r19, 0x00	; 0
    21ea:	80 91 3a 01 	lds	r24, 0x013A
    21ee:	90 e0       	ldi	r25, 0x00	; 0
    21f0:	ac 01       	movw	r20, r24
    21f2:	24 9f       	mul	r18, r20
    21f4:	c0 01       	movw	r24, r0
    21f6:	25 9f       	mul	r18, r21
    21f8:	90 0d       	add	r25, r0
    21fa:	34 9f       	mul	r19, r20
    21fc:	90 0d       	add	r25, r0
    21fe:	11 24       	eor	r1, r1
    2200:	e0 91 56 02 	lds	r30, 0x0256
    2204:	f0 91 57 02 	lds	r31, 0x0257
    2208:	e0 0f       	add	r30, r16
    220a:	f1 1f       	adc	r31, r17
    220c:	e8 0f       	add	r30, r24
    220e:	f9 1f       	adc	r31, r25
    2210:	d0 82       	st	Z, r13
    2212:	f3 94       	inc	r15
    2214:	20 91 3a 01 	lds	r18, 0x013A
    2218:	f2 16       	cp	r15, r18
    221a:	40 f2       	brcs	.-112    	; 0x21ac <lcd_putchar+0x17e>
    221c:	60 91 39 01 	lds	r22, 0x0139
    2220:	61 50       	subi	r22, 0x01	; 1
    2222:	80 e0       	ldi	r24, 0x00	; 0
    2224:	0e 94 d3 0e 	call	0x1da6	; 0x1da6 <_ZN12OrangutanLCD6gotoXYEhh>
    2228:	00 e0       	ldi	r16, 0x00	; 0
    222a:	04 c0       	rjmp	.+8      	; 0x2234 <lcd_putchar+0x206>
    222c:	80 e2       	ldi	r24, 0x20	; 32
    222e:	0e 94 25 0f 	call	0x1e4a	; 0x1e4a <_ZN12OrangutanLCD9send_dataEh>
    2232:	0f 5f       	subi	r16, 0xFF	; 255
    2234:	80 91 3a 01 	lds	r24, 0x013A
    2238:	08 17       	cp	r16, r24
    223a:	c0 f3       	brcs	.-16     	; 0x222c <lcd_putchar+0x1fe>
    223c:	03 c0       	rjmp	.+6      	; 0x2244 <lcd_putchar+0x216>
    223e:	4f 5f       	subi	r20, 0xFF	; 255
    2240:	40 93 58 02 	sts	0x0258, r20
    2244:	10 92 59 02 	sts	0x0259, r1
    2248:	80 91 59 02 	lds	r24, 0x0259
    224c:	60 91 58 02 	lds	r22, 0x0258
    2250:	0e 94 d3 0e 	call	0x1da6	; 0x1da6 <_ZN12OrangutanLCD6gotoXYEhh>
    2254:	2e 2d       	mov	r18, r14
    2256:	33 27       	eor	r19, r19
    2258:	27 fd       	sbrc	r18, 7
    225a:	30 95       	com	r19
    225c:	c9 01       	movw	r24, r18
    225e:	cd b7       	in	r28, 0x3d	; 61
    2260:	de b7       	in	r29, 0x3e	; 62
    2262:	e8 e0       	ldi	r30, 0x08	; 8
    2264:	0c 94 83 1d 	jmp	0x3b06	; 0x3b06 <__epilogue_restores__+0x14>

00002268 <_ZN12OrangutanLCD19loadCustomCharacterEPKch>:
    2268:	ef 92       	push	r14
    226a:	ff 92       	push	r15
    226c:	0f 93       	push	r16
    226e:	1f 93       	push	r17
    2270:	cf 93       	push	r28
    2272:	df 93       	push	r29
    2274:	7c 01       	movw	r14, r24
    2276:	06 2f       	mov	r16, r22
    2278:	10 e0       	ldi	r17, 0x00	; 0
    227a:	f3 e0       	ldi	r31, 0x03	; 3
    227c:	00 0f       	add	r16, r16
    227e:	11 1f       	adc	r17, r17
    2280:	fa 95       	dec	r31
    2282:	e1 f7       	brne	.-8      	; 0x227c <_ZN12OrangutanLCD19loadCustomCharacterEPKch+0x14>
    2284:	c0 e0       	ldi	r28, 0x00	; 0
    2286:	d0 e0       	ldi	r29, 0x00	; 0
    2288:	9e 01       	movw	r18, r28
    228a:	20 0f       	add	r18, r16
    228c:	82 2f       	mov	r24, r18
    228e:	80 64       	ori	r24, 0x40	; 64
    2290:	0e 94 a7 0e 	call	0x1d4e	; 0x1d4e <_ZN12OrangutanLCD8send_cmdEh>
    2294:	f7 01       	movw	r30, r14
    2296:	ec 0f       	add	r30, r28
    2298:	fd 1f       	adc	r31, r29
    229a:	e4 91       	lpm	r30, Z+
    229c:	8e 2f       	mov	r24, r30
    229e:	0e 94 25 0f 	call	0x1e4a	; 0x1e4a <_ZN12OrangutanLCD9send_dataEh>
    22a2:	21 96       	adiw	r28, 0x01	; 1
    22a4:	c8 30       	cpi	r28, 0x08	; 8
    22a6:	d1 05       	cpc	r29, r1
    22a8:	79 f7       	brne	.-34     	; 0x2288 <_ZN12OrangutanLCD19loadCustomCharacterEPKch+0x20>
    22aa:	cd b7       	in	r28, 0x3d	; 61
    22ac:	de b7       	in	r29, 0x3e	; 62
    22ae:	e6 e0       	ldi	r30, 0x06	; 6
    22b0:	0c 94 85 1d 	jmp	0x3b0a	; 0x3b0a <__epilogue_restores__+0x18>

000022b4 <lcd_load_custom_character>:
    22b4:	0e 94 34 11 	call	0x2268	; 0x2268 <_ZN12OrangutanLCD19loadCustomCharacterEPKch>
    22b8:	08 95       	ret

000022ba <_ZN12OrangutanLCD13send_4bit_cmdEh>:
    22ba:	60 e0       	ldi	r22, 0x00	; 0
    22bc:	41 e0       	ldi	r20, 0x01	; 1
    22be:	0e 94 73 0e 	call	0x1ce6	; 0x1ce6 <_ZN12OrangutanLCD4sendEhhh>
    22c2:	08 95       	ret

000022c4 <_ZN12OrangutanLCD6scrollEhhj>:
    22c4:	0f 93       	push	r16
    22c6:	1f 93       	push	r17
    22c8:	cf 93       	push	r28
    22ca:	df 93       	push	r29
    22cc:	08 2f       	mov	r16, r24
    22ce:	16 2f       	mov	r17, r22
    22d0:	ea 01       	movw	r28, r20
    22d2:	0b c0       	rjmp	.+22     	; 0x22ea <_ZN12OrangutanLCD6scrollEhhj+0x26>
    22d4:	00 23       	and	r16, r16
    22d6:	11 f4       	brne	.+4      	; 0x22dc <_ZN12OrangutanLCD6scrollEhhj+0x18>
    22d8:	88 e1       	ldi	r24, 0x18	; 24
    22da:	01 c0       	rjmp	.+2      	; 0x22de <_ZN12OrangutanLCD6scrollEhhj+0x1a>
    22dc:	8c e1       	ldi	r24, 0x1C	; 28
    22de:	0e 94 a7 0e 	call	0x1d4e	; 0x1d4e <_ZN12OrangutanLCD8send_cmdEh>
    22e2:	ce 01       	movw	r24, r28
    22e4:	0e 94 ba 14 	call	0x2974	; 0x2974 <_ZN13OrangutanTime17delayMillisecondsEj>
    22e8:	11 50       	subi	r17, 0x01	; 1
    22ea:	11 23       	and	r17, r17
    22ec:	99 f7       	brne	.-26     	; 0x22d4 <_ZN12OrangutanLCD6scrollEhhj+0x10>
    22ee:	df 91       	pop	r29
    22f0:	cf 91       	pop	r28
    22f2:	1f 91       	pop	r17
    22f4:	0f 91       	pop	r16
    22f6:	08 95       	ret

000022f8 <lcd_scroll>:
    22f8:	0e 94 62 11 	call	0x22c4	; 0x22c4 <_ZN12OrangutanLCD6scrollEhhj>
    22fc:	08 95       	ret

000022fe <_ZN16OrangutanDigital9setOutputEhh>:
    22fe:	28 2f       	mov	r18, r24
    2300:	88 30       	cpi	r24, 0x08	; 8
    2302:	68 f4       	brcc	.+26     	; 0x231e <_ZN16OrangutanDigital9setOutputEhh+0x20>
    2304:	81 e0       	ldi	r24, 0x01	; 1
    2306:	90 e0       	ldi	r25, 0x00	; 0
    2308:	02 c0       	rjmp	.+4      	; 0x230e <_ZN16OrangutanDigital9setOutputEhh+0x10>
    230a:	88 0f       	add	r24, r24
    230c:	99 1f       	adc	r25, r25
    230e:	2a 95       	dec	r18
    2310:	e2 f7       	brpl	.-8      	; 0x230a <_ZN16OrangutanDigital9setOutputEhh+0xc>
    2312:	28 2f       	mov	r18, r24
    2314:	aa e2       	ldi	r26, 0x2A	; 42
    2316:	b0 e0       	ldi	r27, 0x00	; 0
    2318:	eb e2       	ldi	r30, 0x2B	; 43
    231a:	f0 e0       	ldi	r31, 0x00	; 0
    231c:	29 c0       	rjmp	.+82     	; 0x2370 <_ZN16OrangutanDigital9setOutputEhh+0x72>
    231e:	8e 30       	cpi	r24, 0x0E	; 14
    2320:	80 f4       	brcc	.+32     	; 0x2342 <_ZN16OrangutanDigital9setOutputEhh+0x44>
    2322:	30 e0       	ldi	r19, 0x00	; 0
    2324:	28 50       	subi	r18, 0x08	; 8
    2326:	30 40       	sbci	r19, 0x00	; 0
    2328:	81 e0       	ldi	r24, 0x01	; 1
    232a:	90 e0       	ldi	r25, 0x00	; 0
    232c:	02 c0       	rjmp	.+4      	; 0x2332 <_ZN16OrangutanDigital9setOutputEhh+0x34>
    232e:	88 0f       	add	r24, r24
    2330:	99 1f       	adc	r25, r25
    2332:	2a 95       	dec	r18
    2334:	e2 f7       	brpl	.-8      	; 0x232e <_ZN16OrangutanDigital9setOutputEhh+0x30>
    2336:	28 2f       	mov	r18, r24
    2338:	a4 e2       	ldi	r26, 0x24	; 36
    233a:	b0 e0       	ldi	r27, 0x00	; 0
    233c:	e5 e2       	ldi	r30, 0x25	; 37
    233e:	f0 e0       	ldi	r31, 0x00	; 0
    2340:	17 c0       	rjmp	.+46     	; 0x2370 <_ZN16OrangutanDigital9setOutputEhh+0x72>
    2342:	85 31       	cpi	r24, 0x15	; 21
    2344:	30 f0       	brcs	.+12     	; 0x2352 <_ZN16OrangutanDigital9setOutputEhh+0x54>
    2346:	20 e0       	ldi	r18, 0x00	; 0
    2348:	a0 e0       	ldi	r26, 0x00	; 0
    234a:	b0 e0       	ldi	r27, 0x00	; 0
    234c:	e0 e0       	ldi	r30, 0x00	; 0
    234e:	f0 e0       	ldi	r31, 0x00	; 0
    2350:	0f c0       	rjmp	.+30     	; 0x2370 <_ZN16OrangutanDigital9setOutputEhh+0x72>
    2352:	30 e0       	ldi	r19, 0x00	; 0
    2354:	2e 50       	subi	r18, 0x0E	; 14
    2356:	30 40       	sbci	r19, 0x00	; 0
    2358:	81 e0       	ldi	r24, 0x01	; 1
    235a:	90 e0       	ldi	r25, 0x00	; 0
    235c:	02 c0       	rjmp	.+4      	; 0x2362 <_ZN16OrangutanDigital9setOutputEhh+0x64>
    235e:	88 0f       	add	r24, r24
    2360:	99 1f       	adc	r25, r25
    2362:	2a 95       	dec	r18
    2364:	e2 f7       	brpl	.-8      	; 0x235e <_ZN16OrangutanDigital9setOutputEhh+0x60>
    2366:	28 2f       	mov	r18, r24
    2368:	a7 e2       	ldi	r26, 0x27	; 39
    236a:	b0 e0       	ldi	r27, 0x00	; 0
    236c:	e8 e2       	ldi	r30, 0x28	; 40
    236e:	f0 e0       	ldi	r31, 0x00	; 0
    2370:	6f 3f       	cpi	r22, 0xFF	; 255
    2372:	19 f4       	brne	.+6      	; 0x237a <_ZN16OrangutanDigital9setOutputEhh+0x7c>
    2374:	80 81       	ld	r24, Z
    2376:	82 27       	eor	r24, r18
    2378:	09 c0       	rjmp	.+18     	; 0x238c <_ZN16OrangutanDigital9setOutputEhh+0x8e>
    237a:	66 23       	and	r22, r22
    237c:	19 f0       	breq	.+6      	; 0x2384 <_ZN16OrangutanDigital9setOutputEhh+0x86>
    237e:	80 81       	ld	r24, Z
    2380:	82 2b       	or	r24, r18
    2382:	04 c0       	rjmp	.+8      	; 0x238c <_ZN16OrangutanDigital9setOutputEhh+0x8e>
    2384:	90 81       	ld	r25, Z
    2386:	82 2f       	mov	r24, r18
    2388:	80 95       	com	r24
    238a:	89 23       	and	r24, r25
    238c:	80 83       	st	Z, r24
    238e:	8c 91       	ld	r24, X
    2390:	82 2b       	or	r24, r18
    2392:	8c 93       	st	X, r24
    2394:	08 95       	ret

00002396 <_ZN15OrangutanMotorsC2Ev>:
    2396:	08 95       	ret

00002398 <_ZN15OrangutanMotorsC1Ev>:
    2398:	08 95       	ret

0000239a <_ZN15OrangutanMotors5init2Ev>:
    239a:	e0 eb       	ldi	r30, 0xB0	; 176
    239c:	f0 e0       	ldi	r31, 0x00	; 0
    239e:	83 ef       	ldi	r24, 0xF3	; 243
    23a0:	80 83       	st	Z, r24
    23a2:	80 81       	ld	r24, Z
    23a4:	84 bd       	out	0x24, r24	; 36
    23a6:	e1 eb       	ldi	r30, 0xB1	; 177
    23a8:	f0 e0       	ldi	r31, 0x00	; 0
    23aa:	82 e0       	ldi	r24, 0x02	; 2
    23ac:	80 83       	st	Z, r24
    23ae:	80 81       	ld	r24, Z
    23b0:	85 bd       	out	0x25, r24	; 37
    23b2:	e4 eb       	ldi	r30, 0xB4	; 180
    23b4:	f0 e0       	ldi	r31, 0x00	; 0
    23b6:	10 82       	st	Z, r1
    23b8:	80 81       	ld	r24, Z
    23ba:	e3 eb       	ldi	r30, 0xB3	; 179
    23bc:	f0 e0       	ldi	r31, 0x00	; 0
    23be:	80 83       	st	Z, r24
    23c0:	80 81       	ld	r24, Z
    23c2:	88 bd       	out	0x28, r24	; 40
    23c4:	88 b5       	in	r24, 0x28	; 40
    23c6:	87 bd       	out	0x27, r24	; 39
    23c8:	86 e0       	ldi	r24, 0x06	; 6
    23ca:	60 e0       	ldi	r22, 0x00	; 0
    23cc:	0e 94 7f 11 	call	0x22fe	; 0x22fe <_ZN16OrangutanDigital9setOutputEhh>
    23d0:	85 e0       	ldi	r24, 0x05	; 5
    23d2:	60 e0       	ldi	r22, 0x00	; 0
    23d4:	0e 94 7f 11 	call	0x22fe	; 0x22fe <_ZN16OrangutanDigital9setOutputEhh>
    23d8:	8b e0       	ldi	r24, 0x0B	; 11
    23da:	60 e0       	ldi	r22, 0x00	; 0
    23dc:	0e 94 7f 11 	call	0x22fe	; 0x22fe <_ZN16OrangutanDigital9setOutputEhh>
    23e0:	83 e0       	ldi	r24, 0x03	; 3
    23e2:	60 e0       	ldi	r22, 0x00	; 0
    23e4:	0e 94 7f 11 	call	0x22fe	; 0x22fe <_ZN16OrangutanDigital9setOutputEhh>
    23e8:	08 95       	ret

000023ea <_ZN15OrangutanMotors4initEv>:
    23ea:	80 91 5f 02 	lds	r24, 0x025F
    23ee:	88 23       	and	r24, r24
    23f0:	29 f4       	brne	.+10     	; 0x23fc <_ZN15OrangutanMotors4initEv+0x12>
    23f2:	81 e0       	ldi	r24, 0x01	; 1
    23f4:	80 93 5f 02 	sts	0x025F, r24
    23f8:	0e 94 cd 11 	call	0x239a	; 0x239a <_ZN15OrangutanMotors5init2Ev>
    23fc:	08 95       	ret

000023fe <_ZN15OrangutanMotors10setM1SpeedEi>:
    23fe:	cf 93       	push	r28
    2400:	df 93       	push	r29
    2402:	ec 01       	movw	r28, r24
    2404:	0e 94 f5 11 	call	0x23ea	; 0x23ea <_ZN15OrangutanMotors4initEv>
    2408:	d7 fd       	sbrc	r29, 7
    240a:	02 c0       	rjmp	.+4      	; 0x2410 <_ZN15OrangutanMotors10setM1SpeedEi+0x12>
    240c:	20 e0       	ldi	r18, 0x00	; 0
    240e:	04 c0       	rjmp	.+8      	; 0x2418 <_ZN15OrangutanMotors10setM1SpeedEi+0x1a>
    2410:	d0 95       	com	r29
    2412:	c1 95       	neg	r28
    2414:	df 4f       	sbci	r29, 0xFF	; 255
    2416:	21 e0       	ldi	r18, 0x01	; 1
    2418:	ce 01       	movw	r24, r28
    241a:	cf 3f       	cpi	r28, 0xFF	; 255
    241c:	d1 05       	cpc	r29, r1
    241e:	19 f0       	breq	.+6      	; 0x2426 <_ZN15OrangutanMotors10setM1SpeedEi+0x28>
    2420:	14 f0       	brlt	.+4      	; 0x2426 <_ZN15OrangutanMotors10setM1SpeedEi+0x28>
    2422:	8f ef       	ldi	r24, 0xFF	; 255
    2424:	90 e0       	ldi	r25, 0x00	; 0
    2426:	22 23       	and	r18, r18
    2428:	19 f0       	breq	.+6      	; 0x2430 <_ZN15OrangutanMotors10setM1SpeedEi+0x32>
    242a:	18 bc       	out	0x28, r1	; 40
    242c:	87 bd       	out	0x27, r24	; 39
    242e:	02 c0       	rjmp	.+4      	; 0x2434 <_ZN15OrangutanMotors10setM1SpeedEi+0x36>
    2430:	88 bd       	out	0x28, r24	; 40
    2432:	17 bc       	out	0x27, r1	; 39
    2434:	df 91       	pop	r29
    2436:	cf 91       	pop	r28
    2438:	08 95       	ret

0000243a <set_m1_speed>:
    243a:	0e 94 ff 11 	call	0x23fe	; 0x23fe <_ZN15OrangutanMotors10setM1SpeedEi>
    243e:	08 95       	ret

00002440 <_ZN15OrangutanMotors10setM2SpeedEi>:
    2440:	cf 93       	push	r28
    2442:	df 93       	push	r29
    2444:	ec 01       	movw	r28, r24
    2446:	0e 94 f5 11 	call	0x23ea	; 0x23ea <_ZN15OrangutanMotors4initEv>
    244a:	d7 fd       	sbrc	r29, 7
    244c:	02 c0       	rjmp	.+4      	; 0x2452 <_ZN15OrangutanMotors10setM2SpeedEi+0x12>
    244e:	20 e0       	ldi	r18, 0x00	; 0
    2450:	04 c0       	rjmp	.+8      	; 0x245a <_ZN15OrangutanMotors10setM2SpeedEi+0x1a>
    2452:	d0 95       	com	r29
    2454:	c1 95       	neg	r28
    2456:	df 4f       	sbci	r29, 0xFF	; 255
    2458:	21 e0       	ldi	r18, 0x01	; 1
    245a:	ce 01       	movw	r24, r28
    245c:	cf 3f       	cpi	r28, 0xFF	; 255
    245e:	d1 05       	cpc	r29, r1
    2460:	19 f0       	breq	.+6      	; 0x2468 <_ZN15OrangutanMotors10setM2SpeedEi+0x28>
    2462:	14 f0       	brlt	.+4      	; 0x2468 <_ZN15OrangutanMotors10setM2SpeedEi+0x28>
    2464:	8f ef       	ldi	r24, 0xFF	; 255
    2466:	90 e0       	ldi	r25, 0x00	; 0
    2468:	22 23       	and	r18, r18
    246a:	29 f0       	breq	.+10     	; 0x2476 <_ZN15OrangutanMotors10setM2SpeedEi+0x36>
    246c:	10 92 b4 00 	sts	0x00B4, r1
    2470:	80 93 b3 00 	sts	0x00B3, r24
    2474:	04 c0       	rjmp	.+8      	; 0x247e <_ZN15OrangutanMotors10setM2SpeedEi+0x3e>
    2476:	80 93 b4 00 	sts	0x00B4, r24
    247a:	10 92 b3 00 	sts	0x00B3, r1
    247e:	df 91       	pop	r29
    2480:	cf 91       	pop	r28
    2482:	08 95       	ret

00002484 <set_m2_speed>:
    2484:	0e 94 20 12 	call	0x2440	; 0x2440 <_ZN15OrangutanMotors10setM2SpeedEi>
    2488:	08 95       	ret

0000248a <_ZN15OrangutanMotors9setSpeedsEii>:
    248a:	0f 93       	push	r16
    248c:	1f 93       	push	r17
    248e:	8b 01       	movw	r16, r22
    2490:	0e 94 ff 11 	call	0x23fe	; 0x23fe <_ZN15OrangutanMotors10setM1SpeedEi>
    2494:	c8 01       	movw	r24, r16
    2496:	0e 94 20 12 	call	0x2440	; 0x2440 <_ZN15OrangutanMotors10setM2SpeedEi>
    249a:	1f 91       	pop	r17
    249c:	0f 91       	pop	r16
    249e:	08 95       	ret

000024a0 <set_motors>:
    24a0:	0e 94 45 12 	call	0x248a	; 0x248a <_ZN15OrangutanMotors9setSpeedsEii>
    24a4:	08 95       	ret

000024a6 <_ZN20OrangutanPushbuttonsC2Ev>:
    24a6:	08 95       	ret

000024a8 <_ZN20OrangutanPushbuttonsC1Ev>:
    24a8:	08 95       	ret

000024aa <_ZN20OrangutanPushbuttons4initEv>:
    24aa:	80 91 60 02 	lds	r24, 0x0260
    24ae:	88 23       	and	r24, r24
    24b0:	91 f4       	brne	.+36     	; 0x24d6 <_ZN20OrangutanPushbuttons4initEv+0x2c>
    24b2:	81 e0       	ldi	r24, 0x01	; 1
    24b4:	80 93 60 02 	sts	0x0260, r24
    24b8:	84 b1       	in	r24, 0x04	; 4
    24ba:	8d 7c       	andi	r24, 0xCD	; 205
    24bc:	84 b9       	out	0x04, r24	; 4
    24be:	85 b1       	in	r24, 0x05	; 5
    24c0:	82 63       	ori	r24, 0x32	; 50
    24c2:	85 b9       	out	0x05, r24	; 5
    24c4:	85 e0       	ldi	r24, 0x05	; 5
    24c6:	90 e0       	ldi	r25, 0x00	; 0
    24c8:	6f 93       	push	r22
    24ca:	64 e0       	ldi	r22, 0x04	; 4
    24cc:	6a 95       	dec	r22
    24ce:	f1 f7       	brne	.-4      	; 0x24cc <_ZN20OrangutanPushbuttons4initEv+0x22>
    24d0:	6f 91       	pop	r22
    24d2:	01 97       	sbiw	r24, 0x01	; 1
    24d4:	c9 f7       	brne	.-14     	; 0x24c8 <_ZN20OrangutanPushbuttons4initEv+0x1e>
    24d6:	08 95       	ret

000024d8 <_ZN20OrangutanPushbuttons5init2Ev>:
    24d8:	84 b1       	in	r24, 0x04	; 4
    24da:	8d 7c       	andi	r24, 0xCD	; 205
    24dc:	84 b9       	out	0x04, r24	; 4
    24de:	85 b1       	in	r24, 0x05	; 5
    24e0:	82 63       	ori	r24, 0x32	; 50
    24e2:	85 b9       	out	0x05, r24	; 5
    24e4:	85 e0       	ldi	r24, 0x05	; 5
    24e6:	90 e0       	ldi	r25, 0x00	; 0
    24e8:	6f 93       	push	r22
    24ea:	64 e0       	ldi	r22, 0x04	; 4
    24ec:	6a 95       	dec	r22
    24ee:	f1 f7       	brne	.-4      	; 0x24ec <_ZN20OrangutanPushbuttons5init2Ev+0x14>
    24f0:	6f 91       	pop	r22
    24f2:	01 97       	sbiw	r24, 0x01	; 1
    24f4:	c9 f7       	brne	.-14     	; 0x24e8 <_ZN20OrangutanPushbuttons5init2Ev+0x10>
    24f6:	08 95       	ret

000024f8 <_ZN20OrangutanPushbuttons9isPressedEh>:
    24f8:	1f 93       	push	r17
    24fa:	18 2f       	mov	r17, r24
    24fc:	0e 94 55 12 	call	0x24aa	; 0x24aa <_ZN20OrangutanPushbuttons4initEv>
    2500:	83 b1       	in	r24, 0x03	; 3
    2502:	80 95       	com	r24
    2504:	81 23       	and	r24, r17
    2506:	1f 91       	pop	r17
    2508:	08 95       	ret

0000250a <button_is_pressed>:
    250a:	0e 94 7c 12 	call	0x24f8	; 0x24f8 <_ZN20OrangutanPushbuttons9isPressedEh>
    250e:	08 95       	ret

00002510 <_ZN20OrangutanPushbuttons25getSingleDebouncedReleaseEh>:
    2510:	cf 92       	push	r12
    2512:	df 92       	push	r13
    2514:	ef 92       	push	r14
    2516:	ff 92       	push	r15
    2518:	0f 93       	push	r16
    251a:	1f 93       	push	r17
    251c:	c8 2e       	mov	r12, r24
    251e:	d3 b0       	in	r13, 0x03	; 3
    2520:	0e 94 eb 14 	call	0x29d6	; 0x29d6 <_ZN13OrangutanTime2msEv>
    2524:	7b 01       	movw	r14, r22
    2526:	8c 01       	movw	r16, r24
    2528:	0e 94 55 12 	call	0x24aa	; 0x24aa <_ZN20OrangutanPushbuttons4initEv>
    252c:	80 91 66 02 	lds	r24, 0x0266
    2530:	81 30       	cpi	r24, 0x01	; 1
    2532:	11 f1       	breq	.+68     	; 0x2578 <_ZN20OrangutanPushbuttons25getSingleDebouncedReleaseEh+0x68>
    2534:	81 30       	cpi	r24, 0x01	; 1
    2536:	38 f0       	brcs	.+14     	; 0x2546 <_ZN20OrangutanPushbuttons25getSingleDebouncedReleaseEh+0x36>
    2538:	82 30       	cpi	r24, 0x02	; 2
    253a:	09 f4       	brne	.+2      	; 0x253e <_ZN20OrangutanPushbuttons25getSingleDebouncedReleaseEh+0x2e>
    253c:	44 c0       	rjmp	.+136    	; 0x25c6 <_ZN20OrangutanPushbuttons25getSingleDebouncedReleaseEh+0xb6>
    253e:	83 30       	cpi	r24, 0x03	; 3
    2540:	09 f0       	breq	.+2      	; 0x2544 <_ZN20OrangutanPushbuttons25getSingleDebouncedReleaseEh+0x34>
    2542:	8b c0       	rjmp	.+278    	; 0x265a <_ZN20OrangutanPushbuttons25getSingleDebouncedReleaseEh+0x14a>
    2544:	66 c0       	rjmp	.+204    	; 0x2612 <_ZN20OrangutanPushbuttons25getSingleDebouncedReleaseEh+0x102>
    2546:	2c 2d       	mov	r18, r12
    2548:	30 e0       	ldi	r19, 0x00	; 0
    254a:	8d 2d       	mov	r24, r13
    254c:	90 e0       	ldi	r25, 0x00	; 0
    254e:	80 95       	com	r24
    2550:	90 95       	com	r25
    2552:	28 23       	and	r18, r24
    2554:	39 23       	and	r19, r25
    2556:	23 2b       	or	r18, r19
    2558:	09 f4       	brne	.+2      	; 0x255c <_ZN20OrangutanPushbuttons25getSingleDebouncedReleaseEh+0x4c>
    255a:	7f c0       	rjmp	.+254    	; 0x265a <_ZN20OrangutanPushbuttons25getSingleDebouncedReleaseEh+0x14a>
    255c:	d0 94       	com	r13
    255e:	dc 20       	and	r13, r12
    2560:	d0 92 61 02 	sts	0x0261, r13
    2564:	e0 92 62 02 	sts	0x0262, r14
    2568:	f0 92 63 02 	sts	0x0263, r15
    256c:	00 93 64 02 	sts	0x0264, r16
    2570:	10 93 65 02 	sts	0x0265, r17
    2574:	81 e0       	ldi	r24, 0x01	; 1
    2576:	6f c0       	rjmp	.+222    	; 0x2656 <_ZN20OrangutanPushbuttons25getSingleDebouncedReleaseEh+0x146>
    2578:	80 91 62 02 	lds	r24, 0x0262
    257c:	90 91 63 02 	lds	r25, 0x0263
    2580:	a0 91 64 02 	lds	r26, 0x0264
    2584:	b0 91 65 02 	lds	r27, 0x0265
    2588:	e8 1a       	sub	r14, r24
    258a:	f9 0a       	sbc	r15, r25
    258c:	0a 0b       	sbc	r16, r26
    258e:	1b 0b       	sbc	r17, r27
    2590:	8f e0       	ldi	r24, 0x0F	; 15
    2592:	e8 16       	cp	r14, r24
    2594:	f1 04       	cpc	r15, r1
    2596:	01 05       	cpc	r16, r1
    2598:	11 05       	cpc	r17, r1
    259a:	08 f4       	brcc	.+2      	; 0x259e <_ZN20OrangutanPushbuttons25getSingleDebouncedReleaseEh+0x8e>
    259c:	5e c0       	rjmp	.+188    	; 0x265a <_ZN20OrangutanPushbuttons25getSingleDebouncedReleaseEh+0x14a>
    259e:	40 91 61 02 	lds	r20, 0x0261
    25a2:	8d 2d       	mov	r24, r13
    25a4:	90 e0       	ldi	r25, 0x00	; 0
    25a6:	80 95       	com	r24
    25a8:	90 95       	com	r25
    25aa:	24 2f       	mov	r18, r20
    25ac:	30 e0       	ldi	r19, 0x00	; 0
    25ae:	82 23       	and	r24, r18
    25b0:	93 23       	and	r25, r19
    25b2:	89 2b       	or	r24, r25
    25b4:	59 f1       	breq	.+86     	; 0x260c <_ZN20OrangutanPushbuttons25getSingleDebouncedReleaseEh+0xfc>
    25b6:	82 e0       	ldi	r24, 0x02	; 2
    25b8:	80 93 66 02 	sts	0x0266, r24
    25bc:	d0 94       	com	r13
    25be:	d4 22       	and	r13, r20
    25c0:	d0 92 61 02 	sts	0x0261, r13
    25c4:	4a c0       	rjmp	.+148    	; 0x265a <_ZN20OrangutanPushbuttons25getSingleDebouncedReleaseEh+0x14a>
    25c6:	40 91 61 02 	lds	r20, 0x0261
    25ca:	64 2f       	mov	r22, r20
    25cc:	70 e0       	ldi	r23, 0x00	; 0
    25ce:	2d 2d       	mov	r18, r13
    25d0:	30 e0       	ldi	r19, 0x00	; 0
    25d2:	cb 01       	movw	r24, r22
    25d4:	82 23       	and	r24, r18
    25d6:	93 23       	and	r25, r19
    25d8:	89 2b       	or	r24, r25
    25da:	79 f0       	breq	.+30     	; 0x25fa <_ZN20OrangutanPushbuttons25getSingleDebouncedReleaseEh+0xea>
    25dc:	83 e0       	ldi	r24, 0x03	; 3
    25de:	80 93 66 02 	sts	0x0266, r24
    25e2:	4d 21       	and	r20, r13
    25e4:	40 93 61 02 	sts	0x0261, r20
    25e8:	e0 92 62 02 	sts	0x0262, r14
    25ec:	f0 92 63 02 	sts	0x0263, r15
    25f0:	00 93 64 02 	sts	0x0264, r16
    25f4:	10 93 65 02 	sts	0x0265, r17
    25f8:	30 c0       	rjmp	.+96     	; 0x265a <_ZN20OrangutanPushbuttons25getSingleDebouncedReleaseEh+0x14a>
    25fa:	8c 2d       	mov	r24, r12
    25fc:	90 e0       	ldi	r25, 0x00	; 0
    25fe:	20 95       	com	r18
    2600:	30 95       	com	r19
    2602:	82 23       	and	r24, r18
    2604:	93 23       	and	r25, r19
    2606:	68 17       	cp	r22, r24
    2608:	79 07       	cpc	r23, r25
    260a:	39 f1       	breq	.+78     	; 0x265a <_ZN20OrangutanPushbuttons25getSingleDebouncedReleaseEh+0x14a>
    260c:	10 92 66 02 	sts	0x0266, r1
    2610:	24 c0       	rjmp	.+72     	; 0x265a <_ZN20OrangutanPushbuttons25getSingleDebouncedReleaseEh+0x14a>
    2612:	80 91 62 02 	lds	r24, 0x0262
    2616:	90 91 63 02 	lds	r25, 0x0263
    261a:	a0 91 64 02 	lds	r26, 0x0264
    261e:	b0 91 65 02 	lds	r27, 0x0265
    2622:	e8 1a       	sub	r14, r24
    2624:	f9 0a       	sbc	r15, r25
    2626:	0a 0b       	sbc	r16, r26
    2628:	1b 0b       	sbc	r17, r27
    262a:	8f e0       	ldi	r24, 0x0F	; 15
    262c:	e8 16       	cp	r14, r24
    262e:	f1 04       	cpc	r15, r1
    2630:	01 05       	cpc	r16, r1
    2632:	11 05       	cpc	r17, r1
    2634:	90 f0       	brcs	.+36     	; 0x265a <_ZN20OrangutanPushbuttons25getSingleDebouncedReleaseEh+0x14a>
    2636:	40 91 61 02 	lds	r20, 0x0261
    263a:	84 2f       	mov	r24, r20
    263c:	90 e0       	ldi	r25, 0x00	; 0
    263e:	2d 2d       	mov	r18, r13
    2640:	30 e0       	ldi	r19, 0x00	; 0
    2642:	82 23       	and	r24, r18
    2644:	93 23       	and	r25, r19
    2646:	89 2b       	or	r24, r25
    2648:	29 f0       	breq	.+10     	; 0x2654 <_ZN20OrangutanPushbuttons25getSingleDebouncedReleaseEh+0x144>
    264a:	10 92 66 02 	sts	0x0266, r1
    264e:	84 2f       	mov	r24, r20
    2650:	8d 21       	and	r24, r13
    2652:	04 c0       	rjmp	.+8      	; 0x265c <_ZN20OrangutanPushbuttons25getSingleDebouncedReleaseEh+0x14c>
    2654:	82 e0       	ldi	r24, 0x02	; 2
    2656:	80 93 66 02 	sts	0x0266, r24
    265a:	80 e0       	ldi	r24, 0x00	; 0
    265c:	1f 91       	pop	r17
    265e:	0f 91       	pop	r16
    2660:	ff 90       	pop	r15
    2662:	ef 90       	pop	r14
    2664:	df 90       	pop	r13
    2666:	cf 90       	pop	r12
    2668:	08 95       	ret

0000266a <get_single_debounced_button_release>:
    266a:	0e 94 88 12 	call	0x2510	; 0x2510 <_ZN20OrangutanPushbuttons25getSingleDebouncedReleaseEh>
    266e:	08 95       	ret

00002670 <_ZN20OrangutanPushbuttons23getSingleDebouncedPressEh>:
    2670:	cf 92       	push	r12
    2672:	df 92       	push	r13
    2674:	ef 92       	push	r14
    2676:	ff 92       	push	r15
    2678:	0f 93       	push	r16
    267a:	1f 93       	push	r17
    267c:	c8 2e       	mov	r12, r24
    267e:	d3 b0       	in	r13, 0x03	; 3
    2680:	d0 94       	com	r13
    2682:	0e 94 eb 14 	call	0x29d6	; 0x29d6 <_ZN13OrangutanTime2msEv>
    2686:	7b 01       	movw	r14, r22
    2688:	8c 01       	movw	r16, r24
    268a:	0e 94 55 12 	call	0x24aa	; 0x24aa <_ZN20OrangutanPushbuttons4initEv>
    268e:	80 91 6c 02 	lds	r24, 0x026C
    2692:	81 30       	cpi	r24, 0x01	; 1
    2694:	11 f1       	breq	.+68     	; 0x26da <_ZN20OrangutanPushbuttons23getSingleDebouncedPressEh+0x6a>
    2696:	81 30       	cpi	r24, 0x01	; 1
    2698:	38 f0       	brcs	.+14     	; 0x26a8 <_ZN20OrangutanPushbuttons23getSingleDebouncedPressEh+0x38>
    269a:	82 30       	cpi	r24, 0x02	; 2
    269c:	09 f4       	brne	.+2      	; 0x26a0 <_ZN20OrangutanPushbuttons23getSingleDebouncedPressEh+0x30>
    269e:	44 c0       	rjmp	.+136    	; 0x2728 <_ZN20OrangutanPushbuttons23getSingleDebouncedPressEh+0xb8>
    26a0:	83 30       	cpi	r24, 0x03	; 3
    26a2:	09 f0       	breq	.+2      	; 0x26a6 <_ZN20OrangutanPushbuttons23getSingleDebouncedPressEh+0x36>
    26a4:	8b c0       	rjmp	.+278    	; 0x27bc <_ZN20OrangutanPushbuttons23getSingleDebouncedPressEh+0x14c>
    26a6:	66 c0       	rjmp	.+204    	; 0x2774 <_ZN20OrangutanPushbuttons23getSingleDebouncedPressEh+0x104>
    26a8:	2c 2d       	mov	r18, r12
    26aa:	30 e0       	ldi	r19, 0x00	; 0
    26ac:	8d 2d       	mov	r24, r13
    26ae:	90 e0       	ldi	r25, 0x00	; 0
    26b0:	80 95       	com	r24
    26b2:	90 95       	com	r25
    26b4:	28 23       	and	r18, r24
    26b6:	39 23       	and	r19, r25
    26b8:	23 2b       	or	r18, r19
    26ba:	09 f4       	brne	.+2      	; 0x26be <_ZN20OrangutanPushbuttons23getSingleDebouncedPressEh+0x4e>
    26bc:	7f c0       	rjmp	.+254    	; 0x27bc <_ZN20OrangutanPushbuttons23getSingleDebouncedPressEh+0x14c>
    26be:	d0 94       	com	r13
    26c0:	dc 20       	and	r13, r12
    26c2:	d0 92 67 02 	sts	0x0267, r13
    26c6:	e0 92 68 02 	sts	0x0268, r14
    26ca:	f0 92 69 02 	sts	0x0269, r15
    26ce:	00 93 6a 02 	sts	0x026A, r16
    26d2:	10 93 6b 02 	sts	0x026B, r17
    26d6:	81 e0       	ldi	r24, 0x01	; 1
    26d8:	6f c0       	rjmp	.+222    	; 0x27b8 <_ZN20OrangutanPushbuttons23getSingleDebouncedPressEh+0x148>
    26da:	80 91 68 02 	lds	r24, 0x0268
    26de:	90 91 69 02 	lds	r25, 0x0269
    26e2:	a0 91 6a 02 	lds	r26, 0x026A
    26e6:	b0 91 6b 02 	lds	r27, 0x026B
    26ea:	e8 1a       	sub	r14, r24
    26ec:	f9 0a       	sbc	r15, r25
    26ee:	0a 0b       	sbc	r16, r26
    26f0:	1b 0b       	sbc	r17, r27
    26f2:	8f e0       	ldi	r24, 0x0F	; 15
    26f4:	e8 16       	cp	r14, r24
    26f6:	f1 04       	cpc	r15, r1
    26f8:	01 05       	cpc	r16, r1
    26fa:	11 05       	cpc	r17, r1
    26fc:	08 f4       	brcc	.+2      	; 0x2700 <_ZN20OrangutanPushbuttons23getSingleDebouncedPressEh+0x90>
    26fe:	5e c0       	rjmp	.+188    	; 0x27bc <_ZN20OrangutanPushbuttons23getSingleDebouncedPressEh+0x14c>
    2700:	40 91 67 02 	lds	r20, 0x0267
    2704:	8d 2d       	mov	r24, r13
    2706:	90 e0       	ldi	r25, 0x00	; 0
    2708:	80 95       	com	r24
    270a:	90 95       	com	r25
    270c:	24 2f       	mov	r18, r20
    270e:	30 e0       	ldi	r19, 0x00	; 0
    2710:	82 23       	and	r24, r18
    2712:	93 23       	and	r25, r19
    2714:	89 2b       	or	r24, r25
    2716:	59 f1       	breq	.+86     	; 0x276e <_ZN20OrangutanPushbuttons23getSingleDebouncedPressEh+0xfe>
    2718:	82 e0       	ldi	r24, 0x02	; 2
    271a:	80 93 6c 02 	sts	0x026C, r24
    271e:	d0 94       	com	r13
    2720:	d4 22       	and	r13, r20
    2722:	d0 92 67 02 	sts	0x0267, r13
    2726:	4a c0       	rjmp	.+148    	; 0x27bc <_ZN20OrangutanPushbuttons23getSingleDebouncedPressEh+0x14c>
    2728:	60 91 67 02 	lds	r22, 0x0267
    272c:	2d 2d       	mov	r18, r13
    272e:	30 e0       	ldi	r19, 0x00	; 0
    2730:	46 2f       	mov	r20, r22
    2732:	50 e0       	ldi	r21, 0x00	; 0
    2734:	c9 01       	movw	r24, r18
    2736:	84 23       	and	r24, r20
    2738:	95 23       	and	r25, r21
    273a:	89 2b       	or	r24, r25
    273c:	79 f0       	breq	.+30     	; 0x275c <_ZN20OrangutanPushbuttons23getSingleDebouncedPressEh+0xec>
    273e:	83 e0       	ldi	r24, 0x03	; 3
    2740:	80 93 6c 02 	sts	0x026C, r24
    2744:	d6 22       	and	r13, r22
    2746:	d0 92 67 02 	sts	0x0267, r13
    274a:	e0 92 68 02 	sts	0x0268, r14
    274e:	f0 92 69 02 	sts	0x0269, r15
    2752:	00 93 6a 02 	sts	0x026A, r16
    2756:	10 93 6b 02 	sts	0x026B, r17
    275a:	30 c0       	rjmp	.+96     	; 0x27bc <_ZN20OrangutanPushbuttons23getSingleDebouncedPressEh+0x14c>
    275c:	8c 2d       	mov	r24, r12
    275e:	90 e0       	ldi	r25, 0x00	; 0
    2760:	20 95       	com	r18
    2762:	30 95       	com	r19
    2764:	82 23       	and	r24, r18
    2766:	93 23       	and	r25, r19
    2768:	48 17       	cp	r20, r24
    276a:	59 07       	cpc	r21, r25
    276c:	39 f1       	breq	.+78     	; 0x27bc <_ZN20OrangutanPushbuttons23getSingleDebouncedPressEh+0x14c>
    276e:	10 92 6c 02 	sts	0x026C, r1
    2772:	24 c0       	rjmp	.+72     	; 0x27bc <_ZN20OrangutanPushbuttons23getSingleDebouncedPressEh+0x14c>
    2774:	80 91 68 02 	lds	r24, 0x0268
    2778:	90 91 69 02 	lds	r25, 0x0269
    277c:	a0 91 6a 02 	lds	r26, 0x026A
    2780:	b0 91 6b 02 	lds	r27, 0x026B
    2784:	e8 1a       	sub	r14, r24
    2786:	f9 0a       	sbc	r15, r25
    2788:	0a 0b       	sbc	r16, r26
    278a:	1b 0b       	sbc	r17, r27
    278c:	8f e0       	ldi	r24, 0x0F	; 15
    278e:	e8 16       	cp	r14, r24
    2790:	f1 04       	cpc	r15, r1
    2792:	01 05       	cpc	r16, r1
    2794:	11 05       	cpc	r17, r1
    2796:	90 f0       	brcs	.+36     	; 0x27bc <_ZN20OrangutanPushbuttons23getSingleDebouncedPressEh+0x14c>
    2798:	40 91 67 02 	lds	r20, 0x0267
    279c:	8d 2d       	mov	r24, r13
    279e:	90 e0       	ldi	r25, 0x00	; 0
    27a0:	24 2f       	mov	r18, r20
    27a2:	30 e0       	ldi	r19, 0x00	; 0
    27a4:	82 23       	and	r24, r18
    27a6:	93 23       	and	r25, r19
    27a8:	89 2b       	or	r24, r25
    27aa:	29 f0       	breq	.+10     	; 0x27b6 <_ZN20OrangutanPushbuttons23getSingleDebouncedPressEh+0x146>
    27ac:	10 92 6c 02 	sts	0x026C, r1
    27b0:	8d 2d       	mov	r24, r13
    27b2:	84 23       	and	r24, r20
    27b4:	04 c0       	rjmp	.+8      	; 0x27be <_ZN20OrangutanPushbuttons23getSingleDebouncedPressEh+0x14e>
    27b6:	82 e0       	ldi	r24, 0x02	; 2
    27b8:	80 93 6c 02 	sts	0x026C, r24
    27bc:	80 e0       	ldi	r24, 0x00	; 0
    27be:	1f 91       	pop	r17
    27c0:	0f 91       	pop	r16
    27c2:	ff 90       	pop	r15
    27c4:	ef 90       	pop	r14
    27c6:	df 90       	pop	r13
    27c8:	cf 90       	pop	r12
    27ca:	08 95       	ret

000027cc <get_single_debounced_button_press>:
    27cc:	0e 94 38 13 	call	0x2670	; 0x2670 <_ZN20OrangutanPushbuttons23getSingleDebouncedPressEh>
    27d0:	08 95       	ret

000027d2 <_ZN20OrangutanPushbuttons14waitForReleaseEh>:
    27d2:	1f 93       	push	r17
    27d4:	cf 93       	push	r28
    27d6:	df 93       	push	r29
    27d8:	18 2f       	mov	r17, r24
    27da:	0e 94 55 12 	call	0x24aa	; 0x24aa <_ZN20OrangutanPushbuttons4initEv>
    27de:	c1 2f       	mov	r28, r17
    27e0:	d0 e0       	ldi	r29, 0x00	; 0
    27e2:	83 b1       	in	r24, 0x03	; 3
    27e4:	90 e0       	ldi	r25, 0x00	; 0
    27e6:	8c 23       	and	r24, r28
    27e8:	9d 23       	and	r25, r29
    27ea:	89 2b       	or	r24, r25
    27ec:	d1 f3       	breq	.-12     	; 0x27e2 <_ZN20OrangutanPushbuttons14waitForReleaseEh+0x10>
    27ee:	8a e0       	ldi	r24, 0x0A	; 10
    27f0:	90 e0       	ldi	r25, 0x00	; 0
    27f2:	0e 94 ba 14 	call	0x2974	; 0x2974 <_ZN13OrangutanTime17delayMillisecondsEj>
    27f6:	83 b1       	in	r24, 0x03	; 3
    27f8:	90 e0       	ldi	r25, 0x00	; 0
    27fa:	8c 23       	and	r24, r28
    27fc:	9d 23       	and	r25, r29
    27fe:	89 2b       	or	r24, r25
    2800:	81 f3       	breq	.-32     	; 0x27e2 <_ZN20OrangutanPushbuttons14waitForReleaseEh+0x10>
    2802:	83 b1       	in	r24, 0x03	; 3
    2804:	81 23       	and	r24, r17
    2806:	df 91       	pop	r29
    2808:	cf 91       	pop	r28
    280a:	1f 91       	pop	r17
    280c:	08 95       	ret

0000280e <wait_for_button_release>:
    280e:	0e 94 e9 13 	call	0x27d2	; 0x27d2 <_ZN20OrangutanPushbuttons14waitForReleaseEh>
    2812:	08 95       	ret

00002814 <_ZN20OrangutanPushbuttons12waitForPressEh>:
    2814:	1f 93       	push	r17
    2816:	cf 93       	push	r28
    2818:	df 93       	push	r29
    281a:	18 2f       	mov	r17, r24
    281c:	0e 94 55 12 	call	0x24aa	; 0x24aa <_ZN20OrangutanPushbuttons4initEv>
    2820:	c1 2f       	mov	r28, r17
    2822:	d0 e0       	ldi	r29, 0x00	; 0
    2824:	83 b1       	in	r24, 0x03	; 3
    2826:	90 e0       	ldi	r25, 0x00	; 0
    2828:	80 95       	com	r24
    282a:	90 95       	com	r25
    282c:	8c 23       	and	r24, r28
    282e:	9d 23       	and	r25, r29
    2830:	89 2b       	or	r24, r25
    2832:	c1 f3       	breq	.-16     	; 0x2824 <_ZN20OrangutanPushbuttons12waitForPressEh+0x10>
    2834:	8a e0       	ldi	r24, 0x0A	; 10
    2836:	90 e0       	ldi	r25, 0x00	; 0
    2838:	0e 94 ba 14 	call	0x2974	; 0x2974 <_ZN13OrangutanTime17delayMillisecondsEj>
    283c:	83 b1       	in	r24, 0x03	; 3
    283e:	90 e0       	ldi	r25, 0x00	; 0
    2840:	80 95       	com	r24
    2842:	90 95       	com	r25
    2844:	8c 23       	and	r24, r28
    2846:	9d 23       	and	r25, r29
    2848:	89 2b       	or	r24, r25
    284a:	61 f3       	breq	.-40     	; 0x2824 <_ZN20OrangutanPushbuttons12waitForPressEh+0x10>
    284c:	83 b1       	in	r24, 0x03	; 3
    284e:	80 95       	com	r24
    2850:	81 23       	and	r24, r17
    2852:	df 91       	pop	r29
    2854:	cf 91       	pop	r28
    2856:	1f 91       	pop	r17
    2858:	08 95       	ret

0000285a <_ZN20OrangutanPushbuttons13waitForButtonEh>:
    285a:	1f 93       	push	r17
    285c:	0e 94 0a 14 	call	0x2814	; 0x2814 <_ZN20OrangutanPushbuttons12waitForPressEh>
    2860:	18 2f       	mov	r17, r24
    2862:	0e 94 e9 13 	call	0x27d2	; 0x27d2 <_ZN20OrangutanPushbuttons14waitForReleaseEh>
    2866:	81 2f       	mov	r24, r17
    2868:	1f 91       	pop	r17
    286a:	08 95       	ret

0000286c <wait_for_button>:
    286c:	0e 94 2d 14 	call	0x285a	; 0x285a <_ZN20OrangutanPushbuttons13waitForButtonEh>
    2870:	08 95       	ret

00002872 <wait_for_button_press>:
    2872:	0e 94 0a 14 	call	0x2814	; 0x2814 <_ZN20OrangutanPushbuttons12waitForPressEh>
    2876:	08 95       	ret

00002878 <_ZN18OrangutanResourcesC2Ev>:
    2878:	08 95       	ret

0000287a <_ZN18OrangutanResourcesC1Ev>:
    287a:	08 95       	ret

0000287c <_ZN18OrangutanResources10getFreeRAMEv>:
    287c:	a2 e0       	ldi	r26, 0x02	; 2
    287e:	b0 e0       	ldi	r27, 0x00	; 0
    2880:	e4 e4       	ldi	r30, 0x44	; 68
    2882:	f4 e1       	ldi	r31, 0x14	; 20
    2884:	0c 94 6d 1d 	jmp	0x3ada	; 0x3ada <__prologue_saves__+0x20>
    2888:	20 91 c3 02 	lds	r18, 0x02C3
    288c:	30 91 c4 02 	lds	r19, 0x02C4
    2890:	ce 01       	movw	r24, r28
    2892:	01 96       	adiw	r24, 0x01	; 1
    2894:	21 15       	cp	r18, r1
    2896:	31 05       	cpc	r19, r1
    2898:	19 f4       	brne	.+6      	; 0x28a0 <_ZN18OrangutanResources10getFreeRAMEv+0x24>
    289a:	8d 5c       	subi	r24, 0xCD	; 205
    289c:	92 40       	sbci	r25, 0x02	; 2
    289e:	02 c0       	rjmp	.+4      	; 0x28a4 <_ZN18OrangutanResources10getFreeRAMEv+0x28>
    28a0:	82 1b       	sub	r24, r18
    28a2:	93 0b       	sbc	r25, r19
    28a4:	9a 83       	std	Y+2, r25	; 0x02
    28a6:	89 83       	std	Y+1, r24	; 0x01
    28a8:	89 81       	ldd	r24, Y+1	; 0x01
    28aa:	9a 81       	ldd	r25, Y+2	; 0x02
    28ac:	22 96       	adiw	r28, 0x02	; 2
    28ae:	e2 e0       	ldi	r30, 0x02	; 2
    28b0:	0c 94 89 1d 	jmp	0x3b12	; 0x3b12 <__epilogue_restores__+0x20>

000028b4 <get_free_ram>:
    28b4:	0e 94 3e 14 	call	0x287c	; 0x287c <_ZN18OrangutanResources10getFreeRAMEv>
    28b8:	08 95       	ret

000028ba <__vector_9>:
    28ba:	2f 92       	push	r2
    28bc:	8f 93       	push	r24
    28be:	9f 93       	push	r25
    28c0:	2f b6       	in	r2, 0x3f	; 63
    28c2:	80 91 71 02 	lds	r24, 0x0271
    28c6:	90 91 72 02 	lds	r25, 0x0272
    28ca:	01 96       	adiw	r24, 0x01	; 1
    28cc:	80 93 71 02 	sts	0x0271, r24
    28d0:	90 93 72 02 	sts	0x0272, r25
    28d4:	90 e0       	ldi	r25, 0x00	; 0
    28d6:	80 91 73 02 	lds	r24, 0x0273
    28da:	89 1f       	adc	r24, r25
    28dc:	80 93 73 02 	sts	0x0273, r24
    28e0:	90 91 79 02 	lds	r25, 0x0279
    28e4:	9c 5f       	subi	r25, 0xFC	; 252
    28e6:	90 93 79 02 	sts	0x0279, r25
    28ea:	80 91 78 02 	lds	r24, 0x0278
    28ee:	80 51       	subi	r24, 0x10	; 16
    28f0:	97 42       	sbci	r25, 0x27	; 39
    28f2:	c0 f0       	brcs	.+48     	; 0x2924 <end>
    28f4:	90 93 79 02 	sts	0x0279, r25
    28f8:	80 93 78 02 	sts	0x0278, r24
    28fc:	80 91 74 02 	lds	r24, 0x0274
    2900:	90 91 75 02 	lds	r25, 0x0275
    2904:	01 96       	adiw	r24, 0x01	; 1
    2906:	80 93 74 02 	sts	0x0274, r24
    290a:	90 93 75 02 	sts	0x0275, r25
    290e:	90 e0       	ldi	r25, 0x00	; 0
    2910:	80 91 76 02 	lds	r24, 0x0276
    2914:	89 1f       	adc	r24, r25
    2916:	80 93 76 02 	sts	0x0276, r24
    291a:	80 91 77 02 	lds	r24, 0x0277
    291e:	89 1f       	adc	r24, r25
    2920:	80 93 77 02 	sts	0x0277, r24

00002924 <end>:
    2924:	2f be       	out	0x3f, r2	; 63
    2926:	9f 91       	pop	r25
    2928:	8f 91       	pop	r24
    292a:	2f 90       	pop	r2
    292c:	18 95       	reti

0000292e <delay_ms>:
    292e:	28 ee       	ldi	r18, 0xE8	; 232
    2930:	33 e0       	ldi	r19, 0x03	; 3
    2932:	09 c0       	rjmp	.+18     	; 0x2946 <delay_ms+0x18>
    2934:	f9 01       	movw	r30, r18
    2936:	6f 93       	push	r22
    2938:	64 e0       	ldi	r22, 0x04	; 4
    293a:	6a 95       	dec	r22
    293c:	f1 f7       	brne	.-4      	; 0x293a <delay_ms+0xc>
    293e:	6f 91       	pop	r22
    2940:	31 97       	sbiw	r30, 0x01	; 1
    2942:	c9 f7       	brne	.-14     	; 0x2936 <delay_ms+0x8>
    2944:	01 97       	sbiw	r24, 0x01	; 1
    2946:	00 97       	sbiw	r24, 0x00	; 0
    2948:	a9 f7       	brne	.-22     	; 0x2934 <delay_ms+0x6>
    294a:	08 95       	ret

0000294c <_ZN13OrangutanTime19ticksToMicrosecondsEm>:
    294c:	6f 5f       	subi	r22, 0xFF	; 255
    294e:	7f 4f       	sbci	r23, 0xFF	; 255
    2950:	8f 4f       	sbci	r24, 0xFF	; 255
    2952:	9f 4f       	sbci	r25, 0xFF	; 255
    2954:	66 0f       	add	r22, r22
    2956:	77 1f       	adc	r23, r23
    2958:	88 1f       	adc	r24, r24
    295a:	99 1f       	adc	r25, r25
    295c:	25 e0       	ldi	r18, 0x05	; 5
    295e:	30 e0       	ldi	r19, 0x00	; 0
    2960:	40 e0       	ldi	r20, 0x00	; 0
    2962:	50 e0       	ldi	r21, 0x00	; 0
    2964:	0e 94 20 1d 	call	0x3a40	; 0x3a40 <__udivmodsi4>
    2968:	ca 01       	movw	r24, r20
    296a:	b9 01       	movw	r22, r18
    296c:	08 95       	ret

0000296e <ticks_to_microseconds>:
    296e:	0e 94 a6 14 	call	0x294c	; 0x294c <_ZN13OrangutanTime19ticksToMicrosecondsEm>
    2972:	08 95       	ret

00002974 <_ZN13OrangutanTime17delayMillisecondsEj>:
    2974:	28 ee       	ldi	r18, 0xE8	; 232
    2976:	33 e0       	ldi	r19, 0x03	; 3
    2978:	09 c0       	rjmp	.+18     	; 0x298c <_ZN13OrangutanTime17delayMillisecondsEj+0x18>
    297a:	f9 01       	movw	r30, r18
    297c:	6f 93       	push	r22
    297e:	64 e0       	ldi	r22, 0x04	; 4
    2980:	6a 95       	dec	r22
    2982:	f1 f7       	brne	.-4      	; 0x2980 <_ZN13OrangutanTime17delayMillisecondsEj+0xc>
    2984:	6f 91       	pop	r22
    2986:	31 97       	sbiw	r30, 0x01	; 1
    2988:	c9 f7       	brne	.-14     	; 0x297c <_ZN13OrangutanTime17delayMillisecondsEj+0x8>
    298a:	01 97       	sbiw	r24, 0x01	; 1
    298c:	00 97       	sbiw	r24, 0x00	; 0
    298e:	a9 f7       	brne	.-22     	; 0x297a <_ZN13OrangutanTime17delayMillisecondsEj+0x6>
    2990:	08 95       	ret

00002992 <_ZN13OrangutanTime5init2Ev>:
    2992:	a0 e7       	ldi	r26, 0x70	; 112
    2994:	b0 e0       	ldi	r27, 0x00	; 0
    2996:	8c 91       	ld	r24, X
    2998:	8e 7f       	andi	r24, 0xFE	; 254
    299a:	8c 93       	st	X, r24
    299c:	e0 eb       	ldi	r30, 0xB0	; 176
    299e:	f0 e0       	ldi	r31, 0x00	; 0
    29a0:	80 81       	ld	r24, Z
    29a2:	83 60       	ori	r24, 0x03	; 3
    29a4:	80 83       	st	Z, r24
    29a6:	e1 eb       	ldi	r30, 0xB1	; 177
    29a8:	f0 e0       	ldi	r31, 0x00	; 0
    29aa:	80 81       	ld	r24, Z
    29ac:	80 7f       	andi	r24, 0xF0	; 240
    29ae:	80 83       	st	Z, r24
    29b0:	80 81       	ld	r24, Z
    29b2:	82 60       	ori	r24, 0x02	; 2
    29b4:	80 83       	st	Z, r24
    29b6:	b8 9a       	sbi	0x17, 0	; 23
    29b8:	8c 91       	ld	r24, X
    29ba:	81 60       	ori	r24, 0x01	; 1
    29bc:	8c 93       	st	X, r24
    29be:	78 94       	sei
    29c0:	08 95       	ret

000029c2 <_ZN13OrangutanTime4initEv>:
    29c2:	80 91 7a 02 	lds	r24, 0x027A
    29c6:	88 23       	and	r24, r24
    29c8:	29 f4       	brne	.+10     	; 0x29d4 <_ZN13OrangutanTime4initEv+0x12>
    29ca:	81 e0       	ldi	r24, 0x01	; 1
    29cc:	80 93 7a 02 	sts	0x027A, r24
    29d0:	0e 94 c9 14 	call	0x2992	; 0x2992 <_ZN13OrangutanTime5init2Ev>
    29d4:	08 95       	ret

000029d6 <_ZN13OrangutanTime2msEv>:
    29d6:	0e 94 e1 14 	call	0x29c2	; 0x29c2 <_ZN13OrangutanTime4initEv>
    29da:	e0 e7       	ldi	r30, 0x70	; 112
    29dc:	f0 e0       	ldi	r31, 0x00	; 0
    29de:	80 81       	ld	r24, Z
    29e0:	8e 7f       	andi	r24, 0xFE	; 254
    29e2:	80 83       	st	Z, r24
    29e4:	20 91 74 02 	lds	r18, 0x0274
    29e8:	30 91 75 02 	lds	r19, 0x0275
    29ec:	40 91 76 02 	lds	r20, 0x0276
    29f0:	50 91 77 02 	lds	r21, 0x0277
    29f4:	80 81       	ld	r24, Z
    29f6:	81 60       	ori	r24, 0x01	; 1
    29f8:	80 83       	st	Z, r24
    29fa:	b9 01       	movw	r22, r18
    29fc:	ca 01       	movw	r24, r20
    29fe:	08 95       	ret

00002a00 <get_ms>:
    2a00:	0e 94 eb 14 	call	0x29d6	; 0x29d6 <_ZN13OrangutanTime2msEv>
    2a04:	08 95       	ret

00002a06 <_ZN13OrangutanTime5ticksEv>:
    2a06:	0e 94 e1 14 	call	0x29c2	; 0x29c2 <_ZN13OrangutanTime4initEv>
    2a0a:	80 91 70 00 	lds	r24, 0x0070
    2a0e:	8e 7f       	andi	r24, 0xFE	; 254
    2a10:	80 93 70 00 	sts	0x0070, r24
    2a14:	60 91 b2 00 	lds	r22, 0x00B2
    2a18:	80 91 70 02 	lds	r24, 0x0270
    2a1c:	90 91 71 02 	lds	r25, 0x0271
    2a20:	a0 91 72 02 	lds	r26, 0x0272
    2a24:	b0 91 73 02 	lds	r27, 0x0273
    2a28:	b8 99       	sbic	0x17, 0	; 23
    2a2a:	05 c0       	rjmp	.+10     	; 0x2a36 <_ZN13OrangutanTime5ticksEv+0x30>
    2a2c:	26 2f       	mov	r18, r22
    2a2e:	30 e0       	ldi	r19, 0x00	; 0
    2a30:	40 e0       	ldi	r20, 0x00	; 0
    2a32:	50 e0       	ldi	r21, 0x00	; 0
    2a34:	11 c0       	rjmp	.+34     	; 0x2a58 <_ZN13OrangutanTime5ticksEv+0x52>
    2a36:	80 91 b2 00 	lds	r24, 0x00B2
    2a3a:	20 91 70 02 	lds	r18, 0x0270
    2a3e:	30 91 71 02 	lds	r19, 0x0271
    2a42:	40 91 72 02 	lds	r20, 0x0272
    2a46:	50 91 73 02 	lds	r21, 0x0273
    2a4a:	20 50       	subi	r18, 0x00	; 0
    2a4c:	3f 4f       	sbci	r19, 0xFF	; 255
    2a4e:	4f 4f       	sbci	r20, 0xFF	; 255
    2a50:	5f 4f       	sbci	r21, 0xFF	; 255
    2a52:	90 e0       	ldi	r25, 0x00	; 0
    2a54:	a0 e0       	ldi	r26, 0x00	; 0
    2a56:	b0 e0       	ldi	r27, 0x00	; 0
    2a58:	28 2b       	or	r18, r24
    2a5a:	39 2b       	or	r19, r25
    2a5c:	4a 2b       	or	r20, r26
    2a5e:	5b 2b       	or	r21, r27
    2a60:	80 91 70 00 	lds	r24, 0x0070
    2a64:	81 60       	ori	r24, 0x01	; 1
    2a66:	80 93 70 00 	sts	0x0070, r24
    2a6a:	b9 01       	movw	r22, r18
    2a6c:	ca 01       	movw	r24, r20
    2a6e:	08 95       	ret

00002a70 <get_ticks>:
    2a70:	0e 94 03 15 	call	0x2a06	; 0x2a06 <_ZN13OrangutanTime5ticksEv>
    2a74:	08 95       	ret

00002a76 <_ZN13OrangutanTime5resetEv>:
    2a76:	0e 94 e1 14 	call	0x29c2	; 0x29c2 <_ZN13OrangutanTime4initEv>
    2a7a:	e0 e7       	ldi	r30, 0x70	; 112
    2a7c:	f0 e0       	ldi	r31, 0x00	; 0
    2a7e:	80 81       	ld	r24, Z
    2a80:	8e 7f       	andi	r24, 0xFE	; 254
    2a82:	80 83       	st	Z, r24
    2a84:	10 92 74 02 	sts	0x0274, r1
    2a88:	10 92 75 02 	sts	0x0275, r1
    2a8c:	10 92 76 02 	sts	0x0276, r1
    2a90:	10 92 77 02 	sts	0x0277, r1
    2a94:	10 92 79 02 	sts	0x0279, r1
    2a98:	10 92 78 02 	sts	0x0278, r1
    2a9c:	80 81       	ld	r24, Z
    2a9e:	81 60       	ori	r24, 0x01	; 1
    2aa0:	80 83       	st	Z, r24
    2aa2:	08 95       	ret

00002aa4 <time_reset>:
    2aa4:	0e 94 3b 15 	call	0x2a76	; 0x2a76 <_ZN13OrangutanTime5resetEv>
    2aa8:	08 95       	ret

00002aaa <get_line_sensors_calibrated_minimum_on>:
    2aaa:	80 91 7b 02 	lds	r24, 0x027B
    2aae:	90 91 7c 02 	lds	r25, 0x027C
    2ab2:	08 95       	ret

00002ab4 <get_line_sensors_calibrated_maximum_on>:
    2ab4:	80 91 7d 02 	lds	r24, 0x027D
    2ab8:	90 91 7e 02 	lds	r25, 0x027E
    2abc:	08 95       	ret

00002abe <get_line_sensors_calibrated_minimum_off>:
    2abe:	80 91 7f 02 	lds	r24, 0x027F
    2ac2:	90 91 80 02 	lds	r25, 0x0280
    2ac6:	08 95       	ret

00002ac8 <get_line_sensors_calibrated_maximum_off>:
    2ac8:	80 91 81 02 	lds	r24, 0x0281
    2acc:	90 91 82 02 	lds	r25, 0x0282
    2ad0:	08 95       	ret

00002ad2 <_ZN9Pololu3pi33getLineSensorsCalibratedMinimumOnEv>:
    2ad2:	80 91 7b 02 	lds	r24, 0x027B
    2ad6:	90 91 7c 02 	lds	r25, 0x027C
    2ada:	08 95       	ret

00002adc <_ZN9Pololu3pi33getLineSensorsCalibratedMaximumOnEv>:
    2adc:	80 91 7d 02 	lds	r24, 0x027D
    2ae0:	90 91 7e 02 	lds	r25, 0x027E
    2ae4:	08 95       	ret

00002ae6 <_ZN9Pololu3pi34getLineSensorsCalibratedMinimumOffEv>:
    2ae6:	80 91 7f 02 	lds	r24, 0x027F
    2aea:	90 91 80 02 	lds	r25, 0x0280
    2aee:	08 95       	ret

00002af0 <_ZN9Pololu3pi34getLineSensorsCalibratedMaximumOffEv>:
    2af0:	80 91 81 02 	lds	r24, 0x0281
    2af4:	90 91 82 02 	lds	r25, 0x0282
    2af8:	08 95       	ret

00002afa <_GLOBAL__I_pololu_3pi_init>:
    2afa:	08 95       	ret

00002afc <_GLOBAL__D_pololu_3pi_init>:
    2afc:	8b e7       	ldi	r24, 0x7B	; 123
    2afe:	92 e0       	ldi	r25, 0x02	; 2
    2b00:	0e 94 3e 1b 	call	0x367c	; 0x367c <_ZN16PololuQTRSensorsD2Ev>
    2b04:	08 95       	ret

00002b06 <_ZN9Pololu3pi8readLineEPjhh>:
    2b06:	8b e7       	ldi	r24, 0x7B	; 123
    2b08:	92 e0       	ldi	r25, 0x02	; 2
    2b0a:	0e 94 65 1a 	call	0x34ca	; 0x34ca <_ZN16PololuQTRSensors8readLineEPjhh>
    2b0e:	08 95       	ret

00002b10 <read_line_white>:
    2b10:	9c 01       	movw	r18, r24
    2b12:	46 2f       	mov	r20, r22
    2b14:	8b e7       	ldi	r24, 0x7B	; 123
    2b16:	92 e0       	ldi	r25, 0x02	; 2
    2b18:	b9 01       	movw	r22, r18
    2b1a:	21 e0       	ldi	r18, 0x01	; 1
    2b1c:	0e 94 65 1a 	call	0x34ca	; 0x34ca <_ZN16PololuQTRSensors8readLineEPjhh>
    2b20:	08 95       	ret

00002b22 <read_line>:
    2b22:	9c 01       	movw	r18, r24
    2b24:	46 2f       	mov	r20, r22
    2b26:	8b e7       	ldi	r24, 0x7B	; 123
    2b28:	92 e0       	ldi	r25, 0x02	; 2
    2b2a:	b9 01       	movw	r22, r18
    2b2c:	20 e0       	ldi	r18, 0x00	; 0
    2b2e:	0e 94 65 1a 	call	0x34ca	; 0x34ca <_ZN16PololuQTRSensors8readLineEPjhh>
    2b32:	08 95       	ret

00002b34 <_ZN9Pololu3pi25readLineSensorsCalibratedEPjh>:
    2b34:	8b e7       	ldi	r24, 0x7B	; 123
    2b36:	92 e0       	ldi	r25, 0x02	; 2
    2b38:	0e 94 a8 19 	call	0x3350	; 0x3350 <_ZN16PololuQTRSensors14readCalibratedEPjh>
    2b3c:	08 95       	ret

00002b3e <read_line_sensors_calibrated>:
    2b3e:	9c 01       	movw	r18, r24
    2b40:	46 2f       	mov	r20, r22
    2b42:	8b e7       	ldi	r24, 0x7B	; 123
    2b44:	92 e0       	ldi	r25, 0x02	; 2
    2b46:	b9 01       	movw	r22, r18
    2b48:	0e 94 a8 19 	call	0x3350	; 0x3350 <_ZN16PololuQTRSensors14readCalibratedEPjh>
    2b4c:	08 95       	ret

00002b4e <_ZN9Pololu3pi20calibrateLineSensorsEh>:
    2b4e:	8b e7       	ldi	r24, 0x7B	; 123
    2b50:	92 e0       	ldi	r25, 0x02	; 2
    2b52:	0e 94 5e 1c 	call	0x38bc	; 0x38bc <_ZN16PololuQTRSensors9calibrateEh>
    2b56:	08 95       	ret

00002b58 <calibrate_line_sensors>:
    2b58:	68 2f       	mov	r22, r24
    2b5a:	8b e7       	ldi	r24, 0x7B	; 123
    2b5c:	92 e0       	ldi	r25, 0x02	; 2
    2b5e:	0e 94 5e 1c 	call	0x38bc	; 0x38bc <_ZN16PololuQTRSensors9calibrateEh>
    2b62:	08 95       	ret

00002b64 <_ZN9Pololu3pi11emittersOffEv>:
    2b64:	8b e7       	ldi	r24, 0x7B	; 123
    2b66:	92 e0       	ldi	r25, 0x02	; 2
    2b68:	0e 94 cc 16 	call	0x2d98	; 0x2d98 <_ZN16PololuQTRSensors11emittersOffEv>
    2b6c:	08 95       	ret

00002b6e <emitters_off>:
    2b6e:	8b e7       	ldi	r24, 0x7B	; 123
    2b70:	92 e0       	ldi	r25, 0x02	; 2
    2b72:	0e 94 cc 16 	call	0x2d98	; 0x2d98 <_ZN16PololuQTRSensors11emittersOffEv>
    2b76:	08 95       	ret

00002b78 <_ZN9Pololu3pi10emittersOnEv>:
    2b78:	8b e7       	ldi	r24, 0x7B	; 123
    2b7a:	92 e0       	ldi	r25, 0x02	; 2
    2b7c:	0e 94 eb 16 	call	0x2dd6	; 0x2dd6 <_ZN16PololuQTRSensors10emittersOnEv>
    2b80:	08 95       	ret

00002b82 <emitters_on>:
    2b82:	8b e7       	ldi	r24, 0x7B	; 123
    2b84:	92 e0       	ldi	r25, 0x02	; 2
    2b86:	0e 94 eb 16 	call	0x2dd6	; 0x2dd6 <_ZN16PololuQTRSensors10emittersOnEv>
    2b8a:	08 95       	ret

00002b8c <_ZN9Pololu3pi15readLineSensorsEPjh>:
    2b8c:	9c 01       	movw	r18, r24
    2b8e:	46 2f       	mov	r20, r22
    2b90:	8b e7       	ldi	r24, 0x7B	; 123
    2b92:	92 e0       	ldi	r25, 0x02	; 2
    2b94:	b9 01       	movw	r22, r18
    2b96:	0e 94 38 19 	call	0x3270	; 0x3270 <_ZN16PololuQTRSensors4readEPjh>
    2b9a:	08 95       	ret

00002b9c <read_line_sensors>:
    2b9c:	9c 01       	movw	r18, r24
    2b9e:	46 2f       	mov	r20, r22
    2ba0:	8b e7       	ldi	r24, 0x7B	; 123
    2ba2:	92 e0       	ldi	r25, 0x02	; 2
    2ba4:	b9 01       	movw	r22, r18
    2ba6:	0e 94 38 19 	call	0x3270	; 0x3270 <_ZN16PololuQTRSensors4readEPjh>
    2baa:	08 95       	ret

00002bac <_ZN9Pololu3pi4initEjh>:
    2bac:	0f 93       	push	r16
    2bae:	df 93       	push	r29
    2bb0:	cf 93       	push	r28
    2bb2:	00 d0       	rcall	.+0      	; 0x2bb4 <_ZN9Pololu3pi4initEjh+0x8>
    2bb4:	00 d0       	rcall	.+0      	; 0x2bb6 <_ZN9Pololu3pi4initEjh+0xa>
    2bb6:	0f 92       	push	r0
    2bb8:	cd b7       	in	r28, 0x3d	; 61
    2bba:	de b7       	in	r29, 0x3e	; 62
    2bbc:	9c 01       	movw	r18, r24
    2bbe:	96 2f       	mov	r25, r22
    2bc0:	de 01       	movw	r26, r28
    2bc2:	11 96       	adiw	r26, 0x01	; 1
    2bc4:	ec e3       	ldi	r30, 0x3C	; 60
    2bc6:	f1 e0       	ldi	r31, 0x01	; 1
    2bc8:	85 e0       	ldi	r24, 0x05	; 5
    2bca:	01 90       	ld	r0, Z+
    2bcc:	0d 92       	st	X+, r0
    2bce:	81 50       	subi	r24, 0x01	; 1
    2bd0:	e1 f7       	brne	.-8      	; 0x2bca <_ZN9Pololu3pi4initEjh+0x1e>
    2bd2:	be 01       	movw	r22, r28
    2bd4:	6f 5f       	subi	r22, 0xFF	; 255
    2bd6:	7f 4f       	sbci	r23, 0xFF	; 255
    2bd8:	99 23       	and	r25, r25
    2bda:	29 f0       	breq	.+10     	; 0x2be6 <_ZN9Pololu3pi4initEjh+0x3a>
    2bdc:	8b e7       	ldi	r24, 0x7B	; 123
    2bde:	92 e0       	ldi	r25, 0x02	; 2
    2be0:	45 e0       	ldi	r20, 0x05	; 5
    2be2:	0f ef       	ldi	r16, 0xFF	; 255
    2be4:	04 c0       	rjmp	.+8      	; 0x2bee <_ZN9Pololu3pi4initEjh+0x42>
    2be6:	8b e7       	ldi	r24, 0x7B	; 123
    2be8:	92 e0       	ldi	r25, 0x02	; 2
    2bea:	45 e0       	ldi	r20, 0x05	; 5
    2bec:	03 e1       	ldi	r16, 0x13	; 19
    2bee:	0e 94 53 17 	call	0x2ea6	; 0x2ea6 <_ZN18PololuQTRSensorsRC4initEPhhjh>
    2bf2:	8b e7       	ldi	r24, 0x7B	; 123
    2bf4:	92 e0       	ldi	r25, 0x02	; 2
    2bf6:	0e 94 cc 16 	call	0x2d98	; 0x2d98 <_ZN16PololuQTRSensors11emittersOffEv>
    2bfa:	0e 94 3b 15 	call	0x2a76	; 0x2a76 <_ZN13OrangutanTime5resetEv>
    2bfe:	0f 90       	pop	r0
    2c00:	0f 90       	pop	r0
    2c02:	0f 90       	pop	r0
    2c04:	0f 90       	pop	r0
    2c06:	0f 90       	pop	r0
    2c08:	cf 91       	pop	r28
    2c0a:	df 91       	pop	r29
    2c0c:	0f 91       	pop	r16
    2c0e:	08 95       	ret

00002c10 <pololu_3pi_init_disable_emitter_pin>:
    2c10:	61 e0       	ldi	r22, 0x01	; 1
    2c12:	0e 94 d6 15 	call	0x2bac	; 0x2bac <_ZN9Pololu3pi4initEjh>
    2c16:	08 95       	ret

00002c18 <pololu_3pi_init>:
    2c18:	60 e0       	ldi	r22, 0x00	; 0
    2c1a:	0e 94 d6 15 	call	0x2bac	; 0x2bac <_ZN9Pololu3pi4initEjh>
    2c1e:	08 95       	ret

00002c20 <line_sensors_reset_calibration>:
    2c20:	8b e7       	ldi	r24, 0x7B	; 123
    2c22:	92 e0       	ldi	r25, 0x02	; 2
    2c24:	0e 94 02 17 	call	0x2e04	; 0x2e04 <_ZN16PololuQTRSensors16resetCalibrationEv>
    2c28:	08 95       	ret

00002c2a <_ZN16OrangutanDigital14getIORegistersEP8IOStructh>:
    2c2a:	fc 01       	movw	r30, r24
    2c2c:	11 82       	std	Z+1, r1	; 0x01
    2c2e:	10 82       	st	Z, r1
    2c30:	13 82       	std	Z+3, r1	; 0x03
    2c32:	12 82       	std	Z+2, r1	; 0x02
    2c34:	15 82       	std	Z+5, r1	; 0x05
    2c36:	14 82       	std	Z+4, r1	; 0x04
    2c38:	16 82       	std	Z+6, r1	; 0x06
    2c3a:	68 30       	cpi	r22, 0x08	; 8
    2c3c:	a0 f4       	brcc	.+40     	; 0x2c66 <_ZN16OrangutanDigital14getIORegistersEP8IOStructh+0x3c>
    2c3e:	89 e2       	ldi	r24, 0x29	; 41
    2c40:	90 e0       	ldi	r25, 0x00	; 0
    2c42:	91 83       	std	Z+1, r25	; 0x01
    2c44:	80 83       	st	Z, r24
    2c46:	8b e2       	ldi	r24, 0x2B	; 43
    2c48:	90 e0       	ldi	r25, 0x00	; 0
    2c4a:	93 83       	std	Z+3, r25	; 0x03
    2c4c:	82 83       	std	Z+2, r24	; 0x02
    2c4e:	8a e2       	ldi	r24, 0x2A	; 42
    2c50:	90 e0       	ldi	r25, 0x00	; 0
    2c52:	95 83       	std	Z+5, r25	; 0x05
    2c54:	84 83       	std	Z+4, r24	; 0x04
    2c56:	81 e0       	ldi	r24, 0x01	; 1
    2c58:	90 e0       	ldi	r25, 0x00	; 0
    2c5a:	02 c0       	rjmp	.+4      	; 0x2c60 <_ZN16OrangutanDigital14getIORegistersEP8IOStructh+0x36>
    2c5c:	88 0f       	add	r24, r24
    2c5e:	99 1f       	adc	r25, r25
    2c60:	6a 95       	dec	r22
    2c62:	e2 f7       	brpl	.-8      	; 0x2c5c <_ZN16OrangutanDigital14getIORegistersEP8IOStructh+0x32>
    2c64:	19 c0       	rjmp	.+50     	; 0x2c98 <_ZN16OrangutanDigital14getIORegistersEP8IOStructh+0x6e>
    2c66:	6e 30       	cpi	r22, 0x0E	; 14
    2c68:	c8 f4       	brcc	.+50     	; 0x2c9c <_ZN16OrangutanDigital14getIORegistersEP8IOStructh+0x72>
    2c6a:	83 e2       	ldi	r24, 0x23	; 35
    2c6c:	90 e0       	ldi	r25, 0x00	; 0
    2c6e:	91 83       	std	Z+1, r25	; 0x01
    2c70:	80 83       	st	Z, r24
    2c72:	85 e2       	ldi	r24, 0x25	; 37
    2c74:	90 e0       	ldi	r25, 0x00	; 0
    2c76:	93 83       	std	Z+3, r25	; 0x03
    2c78:	82 83       	std	Z+2, r24	; 0x02
    2c7a:	84 e2       	ldi	r24, 0x24	; 36
    2c7c:	90 e0       	ldi	r25, 0x00	; 0
    2c7e:	95 83       	std	Z+5, r25	; 0x05
    2c80:	84 83       	std	Z+4, r24	; 0x04
    2c82:	26 2f       	mov	r18, r22
    2c84:	30 e0       	ldi	r19, 0x00	; 0
    2c86:	28 50       	subi	r18, 0x08	; 8
    2c88:	30 40       	sbci	r19, 0x00	; 0
    2c8a:	81 e0       	ldi	r24, 0x01	; 1
    2c8c:	90 e0       	ldi	r25, 0x00	; 0
    2c8e:	02 c0       	rjmp	.+4      	; 0x2c94 <_ZN16OrangutanDigital14getIORegistersEP8IOStructh+0x6a>
    2c90:	88 0f       	add	r24, r24
    2c92:	99 1f       	adc	r25, r25
    2c94:	2a 95       	dec	r18
    2c96:	e2 f7       	brpl	.-8      	; 0x2c90 <_ZN16OrangutanDigital14getIORegistersEP8IOStructh+0x66>
    2c98:	86 83       	std	Z+6, r24	; 0x06
    2c9a:	08 95       	ret
    2c9c:	65 31       	cpi	r22, 0x15	; 21
    2c9e:	c0 f4       	brcc	.+48     	; 0x2cd0 <_ZN16OrangutanDigital14getIORegistersEP8IOStructh+0xa6>
    2ca0:	86 e2       	ldi	r24, 0x26	; 38
    2ca2:	90 e0       	ldi	r25, 0x00	; 0
    2ca4:	91 83       	std	Z+1, r25	; 0x01
    2ca6:	80 83       	st	Z, r24
    2ca8:	88 e2       	ldi	r24, 0x28	; 40
    2caa:	90 e0       	ldi	r25, 0x00	; 0
    2cac:	93 83       	std	Z+3, r25	; 0x03
    2cae:	82 83       	std	Z+2, r24	; 0x02
    2cb0:	87 e2       	ldi	r24, 0x27	; 39
    2cb2:	90 e0       	ldi	r25, 0x00	; 0
    2cb4:	95 83       	std	Z+5, r25	; 0x05
    2cb6:	84 83       	std	Z+4, r24	; 0x04
    2cb8:	26 2f       	mov	r18, r22
    2cba:	30 e0       	ldi	r19, 0x00	; 0
    2cbc:	2e 50       	subi	r18, 0x0E	; 14
    2cbe:	30 40       	sbci	r19, 0x00	; 0
    2cc0:	81 e0       	ldi	r24, 0x01	; 1
    2cc2:	90 e0       	ldi	r25, 0x00	; 0
    2cc4:	02 c0       	rjmp	.+4      	; 0x2cca <_ZN16OrangutanDigital14getIORegistersEP8IOStructh+0xa0>
    2cc6:	88 0f       	add	r24, r24
    2cc8:	99 1f       	adc	r25, r25
    2cca:	2a 95       	dec	r18
    2ccc:	e2 f7       	brpl	.-8      	; 0x2cc6 <_ZN16OrangutanDigital14getIORegistersEP8IOStructh+0x9c>
    2cce:	86 83       	std	Z+6, r24	; 0x06
    2cd0:	08 95       	ret

00002cd2 <qtr_emitters_on>:
    2cd2:	a0 91 c1 02 	lds	r26, 0x02C1
    2cd6:	b0 91 c2 02 	lds	r27, 0x02C2
    2cda:	1c 96       	adiw	r26, 0x0c	; 12
    2cdc:	ed 91       	ld	r30, X+
    2cde:	fc 91       	ld	r31, X
    2ce0:	1d 97       	sbiw	r26, 0x0d	; 13
    2ce2:	30 97       	sbiw	r30, 0x00	; 0
    2ce4:	79 f0       	breq	.+30     	; 0x2d04 <qtr_emitters_on+0x32>
    2ce6:	80 81       	ld	r24, Z
    2ce8:	19 96       	adiw	r26, 0x09	; 9
    2cea:	9c 91       	ld	r25, X
    2cec:	19 97       	sbiw	r26, 0x09	; 9
    2cee:	89 2b       	or	r24, r25
    2cf0:	80 83       	st	Z, r24
    2cf2:	1a 96       	adiw	r26, 0x0a	; 10
    2cf4:	ed 91       	ld	r30, X+
    2cf6:	fc 91       	ld	r31, X
    2cf8:	1b 97       	sbiw	r26, 0x0b	; 11
    2cfa:	80 81       	ld	r24, Z
    2cfc:	19 96       	adiw	r26, 0x09	; 9
    2cfe:	9c 91       	ld	r25, X
    2d00:	89 2b       	or	r24, r25
    2d02:	80 83       	st	Z, r24
    2d04:	08 95       	ret

00002d06 <qtr_calibrated_minimum_on>:
    2d06:	e0 91 c1 02 	lds	r30, 0x02C1
    2d0a:	f0 91 c2 02 	lds	r31, 0x02C2
    2d0e:	80 81       	ld	r24, Z
    2d10:	91 81       	ldd	r25, Z+1	; 0x01
    2d12:	08 95       	ret

00002d14 <qtr_calibrated_maximum_on>:
    2d14:	e0 91 c1 02 	lds	r30, 0x02C1
    2d18:	f0 91 c2 02 	lds	r31, 0x02C2
    2d1c:	82 81       	ldd	r24, Z+2	; 0x02
    2d1e:	93 81       	ldd	r25, Z+3	; 0x03
    2d20:	08 95       	ret

00002d22 <qtr_calibrated_minimum_off>:
    2d22:	e0 91 c1 02 	lds	r30, 0x02C1
    2d26:	f0 91 c2 02 	lds	r31, 0x02C2
    2d2a:	84 81       	ldd	r24, Z+4	; 0x04
    2d2c:	95 81       	ldd	r25, Z+5	; 0x05
    2d2e:	08 95       	ret

00002d30 <qtr_calibrated_maximum_off>:
    2d30:	e0 91 c1 02 	lds	r30, 0x02C1
    2d34:	f0 91 c2 02 	lds	r31, 0x02C2
    2d38:	86 81       	ldd	r24, Z+6	; 0x06
    2d3a:	97 81       	ldd	r25, Z+7	; 0x07
    2d3c:	08 95       	ret

00002d3e <_ZN16PololuQTRSensors4initEhhh>:
    2d3e:	a7 e0       	ldi	r26, 0x07	; 7
    2d40:	b0 e0       	ldi	r27, 0x00	; 0
    2d42:	e5 ea       	ldi	r30, 0xA5	; 165
    2d44:	f6 e1       	ldi	r31, 0x16	; 22
    2d46:	0c 94 6b 1d 	jmp	0x3ad6	; 0x3ad6 <__prologue_saves__+0x1c>
    2d4a:	8c 01       	movw	r16, r24
    2d4c:	fc 01       	movw	r30, r24
    2d4e:	11 82       	std	Z+1, r1	; 0x01
    2d50:	10 82       	st	Z, r1
    2d52:	13 82       	std	Z+3, r1	; 0x03
    2d54:	12 82       	std	Z+2, r1	; 0x02
    2d56:	15 82       	std	Z+5, r1	; 0x05
    2d58:	14 82       	std	Z+4, r1	; 0x04
    2d5a:	17 82       	std	Z+7, r1	; 0x07
    2d5c:	16 82       	std	Z+6, r1	; 0x06
    2d5e:	61 31       	cpi	r22, 0x11	; 17
    2d60:	18 f0       	brcs	.+6      	; 0x2d68 <_ZN16PololuQTRSensors4initEhhh+0x2a>
    2d62:	80 e1       	ldi	r24, 0x10	; 16
    2d64:	80 87       	std	Z+8, r24	; 0x08
    2d66:	02 c0       	rjmp	.+4      	; 0x2d6c <_ZN16PololuQTRSensors4initEhhh+0x2e>
    2d68:	fc 01       	movw	r30, r24
    2d6a:	60 87       	std	Z+8, r22	; 0x08
    2d6c:	f8 01       	movw	r30, r16
    2d6e:	20 8b       	std	Z+16, r18	; 0x10
    2d70:	ce 01       	movw	r24, r28
    2d72:	01 96       	adiw	r24, 0x01	; 1
    2d74:	64 2f       	mov	r22, r20
    2d76:	0e 94 15 16 	call	0x2c2a	; 0x2c2a <_ZN16OrangutanDigital14getIORegistersEP8IOStructh>
    2d7a:	8f 81       	ldd	r24, Y+7	; 0x07
    2d7c:	f8 01       	movw	r30, r16
    2d7e:	81 87       	std	Z+9, r24	; 0x09
    2d80:	8b 81       	ldd	r24, Y+3	; 0x03
    2d82:	9c 81       	ldd	r25, Y+4	; 0x04
    2d84:	93 87       	std	Z+11, r25	; 0x0b
    2d86:	82 87       	std	Z+10, r24	; 0x0a
    2d88:	8d 81       	ldd	r24, Y+5	; 0x05
    2d8a:	9e 81       	ldd	r25, Y+6	; 0x06
    2d8c:	95 87       	std	Z+13, r25	; 0x0d
    2d8e:	84 87       	std	Z+12, r24	; 0x0c
    2d90:	27 96       	adiw	r28, 0x07	; 7
    2d92:	e4 e0       	ldi	r30, 0x04	; 4
    2d94:	0c 94 87 1d 	jmp	0x3b0e	; 0x3b0e <__epilogue_restores__+0x1c>

00002d98 <_ZN16PololuQTRSensors11emittersOffEv>:
    2d98:	dc 01       	movw	r26, r24
    2d9a:	1c 96       	adiw	r26, 0x0c	; 12
    2d9c:	ed 91       	ld	r30, X+
    2d9e:	fc 91       	ld	r31, X
    2da0:	1d 97       	sbiw	r26, 0x0d	; 13
    2da2:	30 97       	sbiw	r30, 0x00	; 0
    2da4:	81 f0       	breq	.+32     	; 0x2dc6 <_ZN16PololuQTRSensors11emittersOffEv+0x2e>
    2da6:	80 81       	ld	r24, Z
    2da8:	19 96       	adiw	r26, 0x09	; 9
    2daa:	9c 91       	ld	r25, X
    2dac:	19 97       	sbiw	r26, 0x09	; 9
    2dae:	89 2b       	or	r24, r25
    2db0:	80 83       	st	Z, r24
    2db2:	1a 96       	adiw	r26, 0x0a	; 10
    2db4:	ed 91       	ld	r30, X+
    2db6:	fc 91       	ld	r31, X
    2db8:	1b 97       	sbiw	r26, 0x0b	; 11
    2dba:	90 81       	ld	r25, Z
    2dbc:	19 96       	adiw	r26, 0x09	; 9
    2dbe:	8c 91       	ld	r24, X
    2dc0:	80 95       	com	r24
    2dc2:	89 23       	and	r24, r25
    2dc4:	80 83       	st	Z, r24
    2dc6:	08 95       	ret

00002dc8 <qtr_emitters_off>:
    2dc8:	80 91 c1 02 	lds	r24, 0x02C1
    2dcc:	90 91 c2 02 	lds	r25, 0x02C2
    2dd0:	0e 94 cc 16 	call	0x2d98	; 0x2d98 <_ZN16PololuQTRSensors11emittersOffEv>
    2dd4:	08 95       	ret

00002dd6 <_ZN16PololuQTRSensors10emittersOnEv>:
    2dd6:	dc 01       	movw	r26, r24
    2dd8:	1c 96       	adiw	r26, 0x0c	; 12
    2dda:	ed 91       	ld	r30, X+
    2ddc:	fc 91       	ld	r31, X
    2dde:	1d 97       	sbiw	r26, 0x0d	; 13
    2de0:	30 97       	sbiw	r30, 0x00	; 0
    2de2:	79 f0       	breq	.+30     	; 0x2e02 <_ZN16PololuQTRSensors10emittersOnEv+0x2c>
    2de4:	80 81       	ld	r24, Z
    2de6:	19 96       	adiw	r26, 0x09	; 9
    2de8:	9c 91       	ld	r25, X
    2dea:	19 97       	sbiw	r26, 0x09	; 9
    2dec:	89 2b       	or	r24, r25
    2dee:	80 83       	st	Z, r24
    2df0:	1a 96       	adiw	r26, 0x0a	; 10
    2df2:	ed 91       	ld	r30, X+
    2df4:	fc 91       	ld	r31, X
    2df6:	1b 97       	sbiw	r26, 0x0b	; 11
    2df8:	80 81       	ld	r24, Z
    2dfa:	19 96       	adiw	r26, 0x09	; 9
    2dfc:	9c 91       	ld	r25, X
    2dfe:	89 2b       	or	r24, r25
    2e00:	80 83       	st	Z, r24
    2e02:	08 95       	ret

00002e04 <_ZN16PololuQTRSensors16resetCalibrationEv>:
    2e04:	dc 01       	movw	r26, r24
    2e06:	20 e0       	ldi	r18, 0x00	; 0
    2e08:	40 c0       	rjmp	.+128    	; 0x2e8a <_ZN16PololuQTRSensors16resetCalibrationEv+0x86>
    2e0a:	ed 91       	ld	r30, X+
    2e0c:	fc 91       	ld	r31, X
    2e0e:	11 97       	sbiw	r26, 0x01	; 1
    2e10:	30 97       	sbiw	r30, 0x00	; 0
    2e12:	61 f0       	breq	.+24     	; 0x2e2c <_ZN16PololuQTRSensors16resetCalibrationEv+0x28>
    2e14:	82 2f       	mov	r24, r18
    2e16:	90 e0       	ldi	r25, 0x00	; 0
    2e18:	88 0f       	add	r24, r24
    2e1a:	99 1f       	adc	r25, r25
    2e1c:	e8 0f       	add	r30, r24
    2e1e:	f9 1f       	adc	r31, r25
    2e20:	1e 96       	adiw	r26, 0x0e	; 14
    2e22:	8d 91       	ld	r24, X+
    2e24:	9c 91       	ld	r25, X
    2e26:	1f 97       	sbiw	r26, 0x0f	; 15
    2e28:	91 83       	std	Z+1, r25	; 0x01
    2e2a:	80 83       	st	Z, r24
    2e2c:	14 96       	adiw	r26, 0x04	; 4
    2e2e:	ed 91       	ld	r30, X+
    2e30:	fc 91       	ld	r31, X
    2e32:	15 97       	sbiw	r26, 0x05	; 5
    2e34:	30 97       	sbiw	r30, 0x00	; 0
    2e36:	61 f0       	breq	.+24     	; 0x2e50 <_ZN16PololuQTRSensors16resetCalibrationEv+0x4c>
    2e38:	82 2f       	mov	r24, r18
    2e3a:	90 e0       	ldi	r25, 0x00	; 0
    2e3c:	88 0f       	add	r24, r24
    2e3e:	99 1f       	adc	r25, r25
    2e40:	e8 0f       	add	r30, r24
    2e42:	f9 1f       	adc	r31, r25
    2e44:	1e 96       	adiw	r26, 0x0e	; 14
    2e46:	8d 91       	ld	r24, X+
    2e48:	9c 91       	ld	r25, X
    2e4a:	1f 97       	sbiw	r26, 0x0f	; 15
    2e4c:	91 83       	std	Z+1, r25	; 0x01
    2e4e:	80 83       	st	Z, r24
    2e50:	12 96       	adiw	r26, 0x02	; 2
    2e52:	ed 91       	ld	r30, X+
    2e54:	fc 91       	ld	r31, X
    2e56:	13 97       	sbiw	r26, 0x03	; 3
    2e58:	30 97       	sbiw	r30, 0x00	; 0
    2e5a:	41 f0       	breq	.+16     	; 0x2e6c <_ZN16PololuQTRSensors16resetCalibrationEv+0x68>
    2e5c:	82 2f       	mov	r24, r18
    2e5e:	90 e0       	ldi	r25, 0x00	; 0
    2e60:	88 0f       	add	r24, r24
    2e62:	99 1f       	adc	r25, r25
    2e64:	e8 0f       	add	r30, r24
    2e66:	f9 1f       	adc	r31, r25
    2e68:	11 82       	std	Z+1, r1	; 0x01
    2e6a:	10 82       	st	Z, r1
    2e6c:	16 96       	adiw	r26, 0x06	; 6
    2e6e:	ed 91       	ld	r30, X+
    2e70:	fc 91       	ld	r31, X
    2e72:	17 97       	sbiw	r26, 0x07	; 7
    2e74:	30 97       	sbiw	r30, 0x00	; 0
    2e76:	41 f0       	breq	.+16     	; 0x2e88 <_ZN16PololuQTRSensors16resetCalibrationEv+0x84>
    2e78:	82 2f       	mov	r24, r18
    2e7a:	90 e0       	ldi	r25, 0x00	; 0
    2e7c:	88 0f       	add	r24, r24
    2e7e:	99 1f       	adc	r25, r25
    2e80:	e8 0f       	add	r30, r24
    2e82:	f9 1f       	adc	r31, r25
    2e84:	11 82       	std	Z+1, r1	; 0x01
    2e86:	10 82       	st	Z, r1
    2e88:	2f 5f       	subi	r18, 0xFF	; 255
    2e8a:	18 96       	adiw	r26, 0x08	; 8
    2e8c:	8c 91       	ld	r24, X
    2e8e:	18 97       	sbiw	r26, 0x08	; 8
    2e90:	28 17       	cp	r18, r24
    2e92:	08 f4       	brcc	.+2      	; 0x2e96 <_ZN16PololuQTRSensors16resetCalibrationEv+0x92>
    2e94:	ba cf       	rjmp	.-140    	; 0x2e0a <_ZN16PololuQTRSensors16resetCalibrationEv+0x6>
    2e96:	08 95       	ret

00002e98 <qtr_reset_calibration>:
    2e98:	80 91 c1 02 	lds	r24, 0x02C1
    2e9c:	90 91 c2 02 	lds	r25, 0x02C2
    2ea0:	0e 94 02 17 	call	0x2e04	; 0x2e04 <_ZN16PololuQTRSensors16resetCalibrationEv>
    2ea4:	08 95       	ret

00002ea6 <_ZN18PololuQTRSensorsRC4initEPhhjh>:
    2ea6:	a7 e0       	ldi	r26, 0x07	; 7
    2ea8:	b0 e0       	ldi	r27, 0x00	; 0
    2eaa:	e9 e5       	ldi	r30, 0x59	; 89
    2eac:	f7 e1       	ldi	r31, 0x17	; 23
    2eae:	0c 94 5d 1d 	jmp	0x3aba	; 0x3aba <__prologue_saves__>
    2eb2:	6c 01       	movw	r12, r24
    2eb4:	2b 01       	movw	r4, r22
    2eb6:	64 2f       	mov	r22, r20
    2eb8:	79 01       	movw	r14, r18
    2eba:	40 2f       	mov	r20, r16
    2ebc:	20 e0       	ldi	r18, 0x00	; 0
    2ebe:	0e 94 9f 16 	call	0x2d3e	; 0x2d3e <_ZN16PololuQTRSensors4initEhhh>
    2ec2:	c6 01       	movw	r24, r12
    2ec4:	8f 5b       	subi	r24, 0xBF	; 191
    2ec6:	9f 4f       	sbci	r25, 0xFF	; 255
    2ec8:	fc 01       	movw	r30, r24
    2eca:	10 82       	st	Z, r1
    2ecc:	d6 01       	movw	r26, r12
    2ece:	ae 5b       	subi	r26, 0xBE	; 190
    2ed0:	bf 4f       	sbci	r27, 0xFF	; 255
    2ed2:	1c 92       	st	X, r1
    2ed4:	96 01       	movw	r18, r12
    2ed6:	2d 5b       	subi	r18, 0xBD	; 189
    2ed8:	3f 4f       	sbci	r19, 0xFF	; 255
    2eda:	f9 01       	movw	r30, r18
    2edc:	10 82       	st	Z, r1
    2ede:	f6 01       	movw	r30, r12
    2ee0:	f7 86       	std	Z+15, r15	; 0x0f
    2ee2:	e6 86       	std	Z+14, r14	; 0x0e
    2ee4:	ee 24       	eor	r14, r14
    2ee6:	1e 01       	movw	r2, r28
    2ee8:	08 94       	sec
    2eea:	21 1c       	adc	r2, r1
    2eec:	31 1c       	adc	r3, r1
    2eee:	39 01       	movw	r6, r18
    2ef0:	4d 01       	movw	r8, r26
    2ef2:	5c 01       	movw	r10, r24
    2ef4:	28 c0       	rjmp	.+80     	; 0x2f46 <_ZN18PololuQTRSensorsRC4initEPhhjh+0xa0>
    2ef6:	0e 2d       	mov	r16, r14
    2ef8:	10 e0       	ldi	r17, 0x00	; 0
    2efa:	f2 01       	movw	r30, r4
    2efc:	e0 0f       	add	r30, r16
    2efe:	f1 1f       	adc	r31, r17
    2f00:	c1 01       	movw	r24, r2
    2f02:	60 81       	ld	r22, Z
    2f04:	0e 94 15 16 	call	0x2c2a	; 0x2c2a <_ZN16OrangutanDigital14getIORegistersEP8IOStructh>
    2f08:	2f 81       	ldd	r18, Y+7	; 0x07
    2f0a:	f6 01       	movw	r30, r12
    2f0c:	e0 0f       	add	r30, r16
    2f0e:	f1 1f       	adc	r31, r17
    2f10:	21 8b       	std	Z+17, r18	; 0x11
    2f12:	89 81       	ldd	r24, Y+1	; 0x01
    2f14:	9a 81       	ldd	r25, Y+2	; 0x02
    2f16:	00 0f       	add	r16, r16
    2f18:	11 1f       	adc	r17, r17
    2f1a:	0c 0d       	add	r16, r12
    2f1c:	1d 1d       	adc	r17, r13
    2f1e:	f8 01       	movw	r30, r16
    2f20:	92 a3       	std	Z+34, r25	; 0x22
    2f22:	81 a3       	std	Z+33, r24	; 0x21
    2f24:	83 32       	cpi	r24, 0x23	; 35
    2f26:	91 05       	cpc	r25, r1
    2f28:	11 f4       	brne	.+4      	; 0x2f2e <_ZN18PololuQTRSensorsRC4initEPhhjh+0x88>
    2f2a:	f5 01       	movw	r30, r10
    2f2c:	08 c0       	rjmp	.+16     	; 0x2f3e <_ZN18PololuQTRSensorsRC4initEPhhjh+0x98>
    2f2e:	86 32       	cpi	r24, 0x26	; 38
    2f30:	91 05       	cpc	r25, r1
    2f32:	11 f4       	brne	.+4      	; 0x2f38 <_ZN18PololuQTRSensorsRC4initEPhhjh+0x92>
    2f34:	f4 01       	movw	r30, r8
    2f36:	03 c0       	rjmp	.+6      	; 0x2f3e <_ZN18PololuQTRSensorsRC4initEPhhjh+0x98>
    2f38:	89 97       	sbiw	r24, 0x29	; 41
    2f3a:	21 f4       	brne	.+8      	; 0x2f44 <_ZN18PololuQTRSensorsRC4initEPhhjh+0x9e>
    2f3c:	f3 01       	movw	r30, r6
    2f3e:	80 81       	ld	r24, Z
    2f40:	82 2b       	or	r24, r18
    2f42:	80 83       	st	Z, r24
    2f44:	e3 94       	inc	r14
    2f46:	f6 01       	movw	r30, r12
    2f48:	80 85       	ldd	r24, Z+8	; 0x08
    2f4a:	e8 16       	cp	r14, r24
    2f4c:	a0 f2       	brcs	.-88     	; 0x2ef6 <_ZN18PololuQTRSensorsRC4initEPhhjh+0x50>
    2f4e:	27 96       	adiw	r28, 0x07	; 7
    2f50:	e2 e1       	ldi	r30, 0x12	; 18
    2f52:	0c 94 79 1d 	jmp	0x3af2	; 0x3af2 <__epilogue_restores__>

00002f56 <_ZN18PololuQTRSensorsRCC1EPhhjh>:
    2f56:	0f 93       	push	r16
    2f58:	0e 94 53 17 	call	0x2ea6	; 0x2ea6 <_ZN18PololuQTRSensorsRC4initEPhhjh>
    2f5c:	0f 91       	pop	r16
    2f5e:	08 95       	ret

00002f60 <_ZN18PololuQTRSensorsRCC2EPhhjh>:
    2f60:	0f 93       	push	r16
    2f62:	0e 94 53 17 	call	0x2ea6	; 0x2ea6 <_ZN18PololuQTRSensorsRC4initEPhhjh>
    2f66:	0f 91       	pop	r16
    2f68:	08 95       	ret

00002f6a <_ZN18PololuQTRSensorsRC11readPrivateEPj>:
    2f6a:	a0 e0       	ldi	r26, 0x00	; 0
    2f6c:	b0 e0       	ldi	r27, 0x00	; 0
    2f6e:	eb eb       	ldi	r30, 0xBB	; 187
    2f70:	f7 e1       	ldi	r31, 0x17	; 23
    2f72:	0c 94 63 1d 	jmp	0x3ac6	; 0x3ac6 <__prologue_saves__+0xc>
    2f76:	ec 01       	movw	r28, r24
    2f78:	5b 01       	movw	r10, r22
    2f7a:	cf 5b       	subi	r28, 0xBF	; 191
    2f7c:	df 4f       	sbci	r29, 0xFF	; 255
    2f7e:	49 91       	ld	r20, Y+
    2f80:	a9 91       	ld	r26, Y+
    2f82:	88 80       	ld	r8, Y
    2f84:	c3 54       	subi	r28, 0x43	; 67
    2f86:	d0 40       	sbci	r29, 0x00	; 0
    2f88:	90 e0       	ldi	r25, 0x00	; 0
    2f8a:	09 c0       	rjmp	.+18     	; 0x2f9e <_ZN18PololuQTRSensorsRC11readPrivateEPj+0x34>
    2f8c:	e9 2f       	mov	r30, r25
    2f8e:	f0 e0       	ldi	r31, 0x00	; 0
    2f90:	ee 0f       	add	r30, r30
    2f92:	ff 1f       	adc	r31, r31
    2f94:	ea 0d       	add	r30, r10
    2f96:	fb 1d       	adc	r31, r11
    2f98:	11 82       	std	Z+1, r1	; 0x01
    2f9a:	10 82       	st	Z, r1
    2f9c:	9f 5f       	subi	r25, 0xFF	; 255
    2f9e:	88 85       	ldd	r24, Y+8	; 0x08
    2fa0:	98 17       	cp	r25, r24
    2fa2:	a0 f3       	brcs	.-24     	; 0x2f8c <_ZN18PololuQTRSensorsRC11readPrivateEPj+0x22>
    2fa4:	84 b1       	in	r24, 0x04	; 4
    2fa6:	cf 5b       	subi	r28, 0xBF	; 191
    2fa8:	df 4f       	sbci	r29, 0xFF	; 255
    2faa:	39 91       	ld	r19, Y+
    2fac:	83 2b       	or	r24, r19
    2fae:	84 b9       	out	0x04, r24	; 4
    2fb0:	87 b1       	in	r24, 0x07	; 7
    2fb2:	29 91       	ld	r18, Y+
    2fb4:	82 2b       	or	r24, r18
    2fb6:	87 b9       	out	0x07, r24	; 7
    2fb8:	8a b1       	in	r24, 0x0a	; 10
    2fba:	98 81       	ld	r25, Y
    2fbc:	c3 54       	subi	r28, 0x43	; 67
    2fbe:	d0 40       	sbci	r29, 0x00	; 0
    2fc0:	89 2b       	or	r24, r25
    2fc2:	8a b9       	out	0x0a, r24	; 10
    2fc4:	85 b1       	in	r24, 0x05	; 5
    2fc6:	83 2b       	or	r24, r19
    2fc8:	85 b9       	out	0x05, r24	; 5
    2fca:	88 b1       	in	r24, 0x08	; 8
    2fcc:	82 2b       	or	r24, r18
    2fce:	88 b9       	out	0x08, r24	; 8
    2fd0:	8b b1       	in	r24, 0x0b	; 11
    2fd2:	89 2b       	or	r24, r25
    2fd4:	8b b9       	out	0x0b, r24	; 11
    2fd6:	ea e0       	ldi	r30, 0x0A	; 10
    2fd8:	f0 e0       	ldi	r31, 0x00	; 0
    2fda:	6f 93       	push	r22
    2fdc:	64 e0       	ldi	r22, 0x04	; 4
    2fde:	6a 95       	dec	r22
    2fe0:	f1 f7       	brne	.-4      	; 0x2fde <_ZN18PololuQTRSensorsRC11readPrivateEPj+0x74>
    2fe2:	6f 91       	pop	r22
    2fe4:	31 97       	sbiw	r30, 0x01	; 1
    2fe6:	c9 f7       	brne	.-14     	; 0x2fda <_ZN18PololuQTRSensorsRC11readPrivateEPj+0x70>
    2fe8:	84 b1       	in	r24, 0x04	; 4
    2fea:	30 95       	com	r19
    2fec:	83 23       	and	r24, r19
    2fee:	84 b9       	out	0x04, r24	; 4
    2ff0:	87 b1       	in	r24, 0x07	; 7
    2ff2:	20 95       	com	r18
    2ff4:	82 23       	and	r24, r18
    2ff6:	87 b9       	out	0x07, r24	; 7
    2ff8:	8a b1       	in	r24, 0x0a	; 10
    2ffa:	90 95       	com	r25
    2ffc:	89 23       	and	r24, r25
    2ffe:	8a b9       	out	0x0a, r24	; 10
    3000:	85 b1       	in	r24, 0x05	; 5
    3002:	38 23       	and	r19, r24
    3004:	35 b9       	out	0x05, r19	; 5
    3006:	88 b1       	in	r24, 0x08	; 8
    3008:	28 23       	and	r18, r24
    300a:	28 b9       	out	0x08, r18	; 8
    300c:	8b b1       	in	r24, 0x0b	; 11
    300e:	98 23       	and	r25, r24
    3010:	9b b9       	out	0x0b, r25	; 11
    3012:	90 90 b0 00 	lds	r9, 0x00B0
    3016:	c0 90 b1 00 	lds	r12, 0x00B1
    301a:	80 91 b0 00 	lds	r24, 0x00B0
    301e:	83 60       	ori	r24, 0x03	; 3
    3020:	80 93 b0 00 	sts	0x00B0, r24
    3024:	82 e0       	ldi	r24, 0x02	; 2
    3026:	80 93 b1 00 	sts	0x00B1, r24
    302a:	d0 90 b2 00 	lds	r13, 0x00B2
    302e:	60 e0       	ldi	r22, 0x00	; 0
    3030:	70 e0       	ldi	r23, 0x00	; 0
    3032:	3a c0       	rjmp	.+116    	; 0x30a8 <_ZN18PololuQTRSensorsRC11readPrivateEPj+0x13e>
    3034:	50 91 b2 00 	lds	r21, 0x00B2
    3038:	5d 19       	sub	r21, r13
    303a:	65 0f       	add	r22, r21
    303c:	71 1d       	adc	r23, r1
    303e:	e3 b0       	in	r14, 0x03	; 3
    3040:	e4 16       	cp	r14, r20
    3042:	09 f0       	breq	.+2      	; 0x3046 <_ZN18PololuQTRSensorsRC11readPrivateEPj+0xdc>
    3044:	4f c0       	rjmp	.+158    	; 0x30e4 <_ZN18PololuQTRSensorsRC11readPrivateEPj+0x17a>
    3046:	f6 b0       	in	r15, 0x06	; 6
    3048:	fa 16       	cp	r15, r26
    304a:	09 f0       	breq	.+2      	; 0x304e <_ZN18PololuQTRSensorsRC11readPrivateEPj+0xe4>
    304c:	4b c0       	rjmp	.+150    	; 0x30e4 <_ZN18PololuQTRSensorsRC11readPrivateEPj+0x17a>
    304e:	89 b1       	in	r24, 0x09	; 9
    3050:	88 15       	cp	r24, r8
    3052:	09 f0       	breq	.+2      	; 0x3056 <_ZN18PololuQTRSensorsRC11readPrivateEPj+0xec>
    3054:	47 c0       	rjmp	.+142    	; 0x30e4 <_ZN18PololuQTRSensorsRC11readPrivateEPj+0x17a>
    3056:	25 c0       	rjmp	.+74     	; 0x30a2 <_ZN18PololuQTRSensorsRC11readPrivateEPj+0x138>
    3058:	a4 2f       	mov	r26, r20
    305a:	b0 e0       	ldi	r27, 0x00	; 0
    305c:	9d 01       	movw	r18, r26
    305e:	22 0f       	add	r18, r18
    3060:	33 1f       	adc	r19, r19
    3062:	85 01       	movw	r16, r10
    3064:	02 0f       	add	r16, r18
    3066:	13 1f       	adc	r17, r19
    3068:	f8 01       	movw	r30, r16
    306a:	80 81       	ld	r24, Z
    306c:	91 81       	ldd	r25, Z+1	; 0x01
    306e:	89 2b       	or	r24, r25
    3070:	a1 f4       	brne	.+40     	; 0x309a <_ZN18PololuQTRSensorsRC11readPrivateEPj+0x130>
    3072:	2c 0f       	add	r18, r28
    3074:	3d 1f       	adc	r19, r29
    3076:	f9 01       	movw	r30, r18
    3078:	81 a1       	ldd	r24, Z+33	; 0x21
    307a:	92 a1       	ldd	r25, Z+34	; 0x22
    307c:	fc 01       	movw	r30, r24
    307e:	20 81       	ld	r18, Z
    3080:	30 e0       	ldi	r19, 0x00	; 0
    3082:	ac 0f       	add	r26, r28
    3084:	bd 1f       	adc	r27, r29
    3086:	51 96       	adiw	r26, 0x11	; 17
    3088:	8c 91       	ld	r24, X
    308a:	90 e0       	ldi	r25, 0x00	; 0
    308c:	28 23       	and	r18, r24
    308e:	39 23       	and	r19, r25
    3090:	23 2b       	or	r18, r19
    3092:	19 f4       	brne	.+6      	; 0x309a <_ZN18PololuQTRSensorsRC11readPrivateEPj+0x130>
    3094:	f8 01       	movw	r30, r16
    3096:	71 83       	std	Z+1, r23	; 0x01
    3098:	60 83       	st	Z, r22
    309a:	4f 5f       	subi	r20, 0xFF	; 255
    309c:	88 85       	ldd	r24, Y+8	; 0x08
    309e:	48 17       	cp	r20, r24
    30a0:	d8 f2       	brcs	.-74     	; 0x3058 <_ZN18PololuQTRSensorsRC11readPrivateEPj+0xee>
    30a2:	d5 0e       	add	r13, r21
    30a4:	4e 2d       	mov	r20, r14
    30a6:	af 2d       	mov	r26, r15
    30a8:	8e 85       	ldd	r24, Y+14	; 0x0e
    30aa:	9f 85       	ldd	r25, Y+15	; 0x0f
    30ac:	68 17       	cp	r22, r24
    30ae:	79 07       	cpc	r23, r25
    30b0:	08 f2       	brcs	.-126    	; 0x3034 <_ZN18PololuQTRSensorsRC11readPrivateEPj+0xca>
    30b2:	90 92 b0 00 	sts	0x00B0, r9
    30b6:	c0 92 b1 00 	sts	0x00B1, r12
    30ba:	20 e0       	ldi	r18, 0x00	; 0
    30bc:	0f c0       	rjmp	.+30     	; 0x30dc <_ZN18PololuQTRSensorsRC11readPrivateEPj+0x172>
    30be:	e2 2f       	mov	r30, r18
    30c0:	f0 e0       	ldi	r31, 0x00	; 0
    30c2:	ee 0f       	add	r30, r30
    30c4:	ff 1f       	adc	r31, r31
    30c6:	ea 0d       	add	r30, r10
    30c8:	fb 1d       	adc	r31, r11
    30ca:	80 81       	ld	r24, Z
    30cc:	91 81       	ldd	r25, Z+1	; 0x01
    30ce:	89 2b       	or	r24, r25
    30d0:	21 f4       	brne	.+8      	; 0x30da <_ZN18PololuQTRSensorsRC11readPrivateEPj+0x170>
    30d2:	8e 85       	ldd	r24, Y+14	; 0x0e
    30d4:	9f 85       	ldd	r25, Y+15	; 0x0f
    30d6:	91 83       	std	Z+1, r25	; 0x01
    30d8:	80 83       	st	Z, r24
    30da:	2f 5f       	subi	r18, 0xFF	; 255
    30dc:	88 85       	ldd	r24, Y+8	; 0x08
    30de:	28 17       	cp	r18, r24
    30e0:	70 f3       	brcs	.-36     	; 0x30be <_ZN18PololuQTRSensorsRC11readPrivateEPj+0x154>
    30e2:	05 c0       	rjmp	.+10     	; 0x30ee <_ZN18PololuQTRSensorsRC11readPrivateEPj+0x184>
    30e4:	e3 b0       	in	r14, 0x03	; 3
    30e6:	f6 b0       	in	r15, 0x06	; 6
    30e8:	89 b0       	in	r8, 0x09	; 9
    30ea:	40 e0       	ldi	r20, 0x00	; 0
    30ec:	d7 cf       	rjmp	.-82     	; 0x309c <_ZN18PololuQTRSensorsRC11readPrivateEPj+0x132>
    30ee:	cd b7       	in	r28, 0x3d	; 61
    30f0:	de b7       	in	r29, 0x3e	; 62
    30f2:	ec e0       	ldi	r30, 0x0C	; 12
    30f4:	0c 94 7f 1d 	jmp	0x3afe	; 0x3afe <__epilogue_restores__+0xc>

000030f8 <_ZN22PololuQTRSensorsAnalog4initEPhhhh>:
    30f8:	ef 92       	push	r14
    30fa:	ff 92       	push	r15
    30fc:	0f 93       	push	r16
    30fe:	1f 93       	push	r17
    3100:	cf 93       	push	r28
    3102:	df 93       	push	r29
    3104:	ec 01       	movw	r28, r24
    3106:	7b 01       	movw	r14, r22
    3108:	12 2f       	mov	r17, r18
    310a:	64 2f       	mov	r22, r20
    310c:	40 2f       	mov	r20, r16
    310e:	21 e0       	ldi	r18, 0x01	; 1
    3110:	0e 94 9f 16 	call	0x2d3e	; 0x2d3e <_ZN16PololuQTRSensors4initEhhh>
    3114:	19 a3       	std	Y+33, r17	; 0x21
    3116:	1a a2       	std	Y+34, r1	; 0x22
    3118:	30 e0       	ldi	r19, 0x00	; 0
    311a:	41 e0       	ldi	r20, 0x01	; 1
    311c:	50 e0       	ldi	r21, 0x00	; 0
    311e:	13 c0       	rjmp	.+38     	; 0x3146 <_ZN22PololuQTRSensorsAnalog4initEPhhhh+0x4e>
    3120:	e3 2f       	mov	r30, r19
    3122:	f0 e0       	ldi	r31, 0x00	; 0
    3124:	d7 01       	movw	r26, r14
    3126:	ae 0f       	add	r26, r30
    3128:	bf 1f       	adc	r27, r31
    312a:	ec 0f       	add	r30, r28
    312c:	fd 1f       	adc	r31, r29
    312e:	8c 91       	ld	r24, X
    3130:	81 8b       	std	Z+17, r24	; 0x11
    3132:	ca 01       	movw	r24, r20
    3134:	0c 90       	ld	r0, X
    3136:	02 c0       	rjmp	.+4      	; 0x313c <_ZN22PololuQTRSensorsAnalog4initEPhhhh+0x44>
    3138:	88 0f       	add	r24, r24
    313a:	99 1f       	adc	r25, r25
    313c:	0a 94       	dec	r0
    313e:	e2 f7       	brpl	.-8      	; 0x3138 <_ZN22PololuQTRSensorsAnalog4initEPhhhh+0x40>
    3140:	28 2b       	or	r18, r24
    3142:	2a a3       	std	Y+34, r18	; 0x22
    3144:	3f 5f       	subi	r19, 0xFF	; 255
    3146:	88 85       	ldd	r24, Y+8	; 0x08
    3148:	2a a1       	ldd	r18, Y+34	; 0x22
    314a:	38 17       	cp	r19, r24
    314c:	48 f3       	brcs	.-46     	; 0x3120 <_ZN22PololuQTRSensorsAnalog4initEPhhhh+0x28>
    314e:	2f 73       	andi	r18, 0x3F	; 63
    3150:	2a a3       	std	Y+34, r18	; 0x22
    3152:	8f ef       	ldi	r24, 0xFF	; 255
    3154:	93 e0       	ldi	r25, 0x03	; 3
    3156:	9f 87       	std	Y+15, r25	; 0x0f
    3158:	8e 87       	std	Y+14, r24	; 0x0e
    315a:	cd b7       	in	r28, 0x3d	; 61
    315c:	de b7       	in	r29, 0x3e	; 62
    315e:	e6 e0       	ldi	r30, 0x06	; 6
    3160:	0c 94 85 1d 	jmp	0x3b0a	; 0x3b0a <__epilogue_restores__+0x18>

00003164 <_ZN22PololuQTRSensorsAnalogC1EPhhhh>:
    3164:	0f 93       	push	r16
    3166:	0e 94 7c 18 	call	0x30f8	; 0x30f8 <_ZN22PololuQTRSensorsAnalog4initEPhhhh>
    316a:	0f 91       	pop	r16
    316c:	08 95       	ret

0000316e <_ZN22PololuQTRSensorsAnalogC2EPhhhh>:
    316e:	0f 93       	push	r16
    3170:	0e 94 7c 18 	call	0x30f8	; 0x30f8 <_ZN22PololuQTRSensorsAnalog4initEPhhhh>
    3174:	0f 91       	pop	r16
    3176:	08 95       	ret

00003178 <_ZN22PololuQTRSensorsAnalog11readPrivateEPj>:
    3178:	a0 e0       	ldi	r26, 0x00	; 0
    317a:	b0 e0       	ldi	r27, 0x00	; 0
    317c:	e2 ec       	ldi	r30, 0xC2	; 194
    317e:	f8 e1       	ldi	r31, 0x18	; 24
    3180:	0c 94 67 1d 	jmp	0x3ace	; 0x3ace <__prologue_saves__+0x14>
    3184:	ec 01       	movw	r28, r24
    3186:	8b 01       	movw	r16, r22
    3188:	d0 90 7c 00 	lds	r13, 0x007C
    318c:	e0 90 7a 00 	lds	r14, 0x007A
    3190:	c7 b0       	in	r12, 0x07	; 7
    3192:	f8 b0       	in	r15, 0x08	; 8
    3194:	80 91 7a 00 	lds	r24, 0x007A
    3198:	86 fd       	sbrc	r24, 6
    319a:	fc cf       	rjmp	.-8      	; 0x3194 <_ZN22PololuQTRSensorsAnalog11readPrivateEPj+0x1c>
    319c:	90 e0       	ldi	r25, 0x00	; 0
    319e:	09 c0       	rjmp	.+18     	; 0x31b2 <_ZN22PololuQTRSensorsAnalog11readPrivateEPj+0x3a>
    31a0:	e9 2f       	mov	r30, r25
    31a2:	f0 e0       	ldi	r31, 0x00	; 0
    31a4:	ee 0f       	add	r30, r30
    31a6:	ff 1f       	adc	r31, r31
    31a8:	e0 0f       	add	r30, r16
    31aa:	f1 1f       	adc	r31, r17
    31ac:	11 82       	std	Z+1, r1	; 0x01
    31ae:	10 82       	st	Z, r1
    31b0:	9f 5f       	subi	r25, 0xFF	; 255
    31b2:	88 85       	ldd	r24, Y+8	; 0x08
    31b4:	98 17       	cp	r25, r24
    31b6:	a0 f3       	brcs	.-24     	; 0x31a0 <_ZN22PololuQTRSensorsAnalog11readPrivateEPj+0x28>
    31b8:	97 b1       	in	r25, 0x07	; 7
    31ba:	8a a1       	ldd	r24, Y+34	; 0x22
    31bc:	80 95       	com	r24
    31be:	98 23       	and	r25, r24
    31c0:	97 b9       	out	0x07, r25	; 7
    31c2:	98 b1       	in	r25, 0x08	; 8
    31c4:	89 23       	and	r24, r25
    31c6:	88 b9       	out	0x08, r24	; 8
    31c8:	87 e8       	ldi	r24, 0x87	; 135
    31ca:	80 93 7a 00 	sts	0x007A, r24
    31ce:	50 e0       	ldi	r21, 0x00	; 0
    31d0:	25 c0       	rjmp	.+74     	; 0x321c <_ZN22PololuQTRSensorsAnalog11readPrivateEPj+0xa4>
    31d2:	fe 01       	movw	r30, r28
    31d4:	e4 0f       	add	r30, r20
    31d6:	f1 1d       	adc	r31, r1
    31d8:	81 89       	ldd	r24, Z+17	; 0x11
    31da:	80 64       	ori	r24, 0x40	; 64
    31dc:	80 93 7c 00 	sts	0x007C, r24
    31e0:	80 91 7a 00 	lds	r24, 0x007A
    31e4:	80 64       	ori	r24, 0x40	; 64
    31e6:	80 93 7a 00 	sts	0x007A, r24
    31ea:	80 91 7a 00 	lds	r24, 0x007A
    31ee:	86 fd       	sbrc	r24, 6
    31f0:	fc cf       	rjmp	.-8      	; 0x31ea <_ZN22PololuQTRSensorsAnalog11readPrivateEPj+0x72>
    31f2:	e4 2f       	mov	r30, r20
    31f4:	f0 e0       	ldi	r31, 0x00	; 0
    31f6:	ee 0f       	add	r30, r30
    31f8:	ff 1f       	adc	r31, r31
    31fa:	e0 0f       	add	r30, r16
    31fc:	f1 1f       	adc	r31, r17
    31fe:	20 91 78 00 	lds	r18, 0x0078
    3202:	30 91 79 00 	lds	r19, 0x0079
    3206:	80 81       	ld	r24, Z
    3208:	91 81       	ldd	r25, Z+1	; 0x01
    320a:	82 0f       	add	r24, r18
    320c:	93 1f       	adc	r25, r19
    320e:	91 83       	std	Z+1, r25	; 0x01
    3210:	80 83       	st	Z, r24
    3212:	4f 5f       	subi	r20, 0xFF	; 255
    3214:	88 85       	ldd	r24, Y+8	; 0x08
    3216:	48 17       	cp	r20, r24
    3218:	e0 f2       	brcs	.-72     	; 0x31d2 <_ZN22PololuQTRSensorsAnalog11readPrivateEPj+0x5a>
    321a:	5f 5f       	subi	r21, 0xFF	; 255
    321c:	89 a1       	ldd	r24, Y+33	; 0x21
    321e:	58 17       	cp	r21, r24
    3220:	10 f0       	brcs	.+4      	; 0x3226 <_ZN22PololuQTRSensorsAnalog11readPrivateEPj+0xae>
    3222:	40 e0       	ldi	r20, 0x00	; 0
    3224:	17 c0       	rjmp	.+46     	; 0x3254 <_ZN22PololuQTRSensorsAnalog11readPrivateEPj+0xdc>
    3226:	40 e0       	ldi	r20, 0x00	; 0
    3228:	f5 cf       	rjmp	.-22     	; 0x3214 <_ZN22PololuQTRSensorsAnalog11readPrivateEPj+0x9c>
    322a:	e4 2f       	mov	r30, r20
    322c:	f0 e0       	ldi	r31, 0x00	; 0
    322e:	ee 0f       	add	r30, r30
    3230:	ff 1f       	adc	r31, r31
    3232:	e0 0f       	add	r30, r16
    3234:	f1 1f       	adc	r31, r17
    3236:	69 a1       	ldd	r22, Y+33	; 0x21
    3238:	86 2f       	mov	r24, r22
    323a:	90 e0       	ldi	r25, 0x00	; 0
    323c:	95 95       	asr	r25
    323e:	87 95       	ror	r24
    3240:	20 81       	ld	r18, Z
    3242:	31 81       	ldd	r19, Z+1	; 0x01
    3244:	82 0f       	add	r24, r18
    3246:	93 1f       	adc	r25, r19
    3248:	70 e0       	ldi	r23, 0x00	; 0
    324a:	0e 94 f9 1c 	call	0x39f2	; 0x39f2 <__udivmodhi4>
    324e:	71 83       	std	Z+1, r23	; 0x01
    3250:	60 83       	st	Z, r22
    3252:	4f 5f       	subi	r20, 0xFF	; 255
    3254:	88 85       	ldd	r24, Y+8	; 0x08
    3256:	48 17       	cp	r20, r24
    3258:	40 f3       	brcs	.-48     	; 0x322a <_ZN22PololuQTRSensorsAnalog11readPrivateEPj+0xb2>
    325a:	d0 92 7c 00 	sts	0x007C, r13
    325e:	e0 92 7a 00 	sts	0x007A, r14
    3262:	f8 b8       	out	0x08, r15	; 8
    3264:	c7 b8       	out	0x07, r12	; 7
    3266:	cd b7       	in	r28, 0x3d	; 61
    3268:	de b7       	in	r29, 0x3e	; 62
    326a:	e8 e0       	ldi	r30, 0x08	; 8
    326c:	0c 94 83 1d 	jmp	0x3b06	; 0x3b06 <__epilogue_restores__+0x14>

00003270 <_ZN16PololuQTRSensors4readEPjh>:
    3270:	a0 e2       	ldi	r26, 0x20	; 32
    3272:	b0 e0       	ldi	r27, 0x00	; 0
    3274:	ee e3       	ldi	r30, 0x3E	; 62
    3276:	f9 e1       	ldi	r31, 0x19	; 25
    3278:	0c 94 67 1d 	jmp	0x3ace	; 0x3ace <__prologue_saves__+0x14>
    327c:	8c 01       	movw	r16, r24
    327e:	7b 01       	movw	r14, r22
    3280:	d4 2e       	mov	r13, r20
    3282:	84 2f       	mov	r24, r20
    3284:	81 50       	subi	r24, 0x01	; 1
    3286:	82 30       	cpi	r24, 0x02	; 2
    3288:	b0 f4       	brcc	.+44     	; 0x32b6 <_ZN16PololuQTRSensors4readEPjh+0x46>
    328a:	d8 01       	movw	r26, r16
    328c:	1c 96       	adiw	r26, 0x0c	; 12
    328e:	ed 91       	ld	r30, X+
    3290:	fc 91       	ld	r31, X
    3292:	1d 97       	sbiw	r26, 0x0d	; 13
    3294:	30 97       	sbiw	r30, 0x00	; 0
    3296:	79 f0       	breq	.+30     	; 0x32b6 <_ZN16PololuQTRSensors4readEPjh+0x46>
    3298:	80 81       	ld	r24, Z
    329a:	19 96       	adiw	r26, 0x09	; 9
    329c:	9c 91       	ld	r25, X
    329e:	19 97       	sbiw	r26, 0x09	; 9
    32a0:	89 2b       	or	r24, r25
    32a2:	80 83       	st	Z, r24
    32a4:	1a 96       	adiw	r26, 0x0a	; 10
    32a6:	ed 91       	ld	r30, X+
    32a8:	fc 91       	ld	r31, X
    32aa:	1b 97       	sbiw	r26, 0x0b	; 11
    32ac:	80 81       	ld	r24, Z
    32ae:	19 96       	adiw	r26, 0x09	; 9
    32b0:	9c 91       	ld	r25, X
    32b2:	89 2b       	or	r24, r25
    32b4:	80 83       	st	Z, r24
    32b6:	f8 01       	movw	r30, r16
    32b8:	80 89       	ldd	r24, Z+16	; 0x10
    32ba:	88 23       	and	r24, r24
    32bc:	89 f4       	brne	.+34     	; 0x32e0 <_ZN16PololuQTRSensors4readEPjh+0x70>
    32be:	c8 01       	movw	r24, r16
    32c0:	b7 01       	movw	r22, r14
    32c2:	0e 94 b5 17 	call	0x2f6a	; 0x2f6a <_ZN18PololuQTRSensorsRC11readPrivateEPj>
    32c6:	c8 01       	movw	r24, r16
    32c8:	0e 94 cc 16 	call	0x2d98	; 0x2d98 <_ZN16PololuQTRSensors11emittersOffEv>
    32cc:	f2 e0       	ldi	r31, 0x02	; 2
    32ce:	df 16       	cp	r13, r31
    32d0:	d9 f5       	brne	.+118    	; 0x3348 <_ZN16PololuQTRSensors4readEPjh+0xd8>
    32d2:	c8 01       	movw	r24, r16
    32d4:	be 01       	movw	r22, r28
    32d6:	6f 5f       	subi	r22, 0xFF	; 255
    32d8:	7f 4f       	sbci	r23, 0xFF	; 255
    32da:	0e 94 b5 17 	call	0x2f6a	; 0x2f6a <_ZN18PololuQTRSensorsRC11readPrivateEPj>
    32de:	10 c0       	rjmp	.+32     	; 0x3300 <_ZN16PololuQTRSensors4readEPjh+0x90>
    32e0:	c8 01       	movw	r24, r16
    32e2:	b7 01       	movw	r22, r14
    32e4:	0e 94 bc 18 	call	0x3178	; 0x3178 <_ZN22PololuQTRSensorsAnalog11readPrivateEPj>
    32e8:	c8 01       	movw	r24, r16
    32ea:	0e 94 cc 16 	call	0x2d98	; 0x2d98 <_ZN16PololuQTRSensors11emittersOffEv>
    32ee:	82 e0       	ldi	r24, 0x02	; 2
    32f0:	d8 16       	cp	r13, r24
    32f2:	51 f5       	brne	.+84     	; 0x3348 <_ZN16PololuQTRSensors4readEPjh+0xd8>
    32f4:	c8 01       	movw	r24, r16
    32f6:	be 01       	movw	r22, r28
    32f8:	6f 5f       	subi	r22, 0xFF	; 255
    32fa:	7f 4f       	sbci	r23, 0xFF	; 255
    32fc:	0e 94 bc 18 	call	0x3178	; 0x3178 <_ZN22PololuQTRSensorsAnalog11readPrivateEPj>
    3300:	40 e0       	ldi	r20, 0x00	; 0
    3302:	be 01       	movw	r22, r28
    3304:	6f 5f       	subi	r22, 0xFF	; 255
    3306:	7f 4f       	sbci	r23, 0xFF	; 255
    3308:	1a c0       	rjmp	.+52     	; 0x333e <_ZN16PololuQTRSensors4readEPjh+0xce>
    330a:	e4 2f       	mov	r30, r20
    330c:	f0 e0       	ldi	r31, 0x00	; 0
    330e:	ee 0f       	add	r30, r30
    3310:	ff 1f       	adc	r31, r31
    3312:	67 01       	movw	r12, r14
    3314:	ce 0e       	add	r12, r30
    3316:	df 1e       	adc	r13, r31
    3318:	e6 0f       	add	r30, r22
    331a:	f7 1f       	adc	r31, r23
    331c:	d8 01       	movw	r26, r16
    331e:	1e 96       	adiw	r26, 0x0e	; 14
    3320:	2d 91       	ld	r18, X+
    3322:	3c 91       	ld	r19, X
    3324:	1f 97       	sbiw	r26, 0x0f	; 15
    3326:	80 81       	ld	r24, Z
    3328:	91 81       	ldd	r25, Z+1	; 0x01
    332a:	28 1b       	sub	r18, r24
    332c:	39 0b       	sbc	r19, r25
    332e:	f6 01       	movw	r30, r12
    3330:	80 81       	ld	r24, Z
    3332:	91 81       	ldd	r25, Z+1	; 0x01
    3334:	82 0f       	add	r24, r18
    3336:	93 1f       	adc	r25, r19
    3338:	91 83       	std	Z+1, r25	; 0x01
    333a:	80 83       	st	Z, r24
    333c:	4f 5f       	subi	r20, 0xFF	; 255
    333e:	d8 01       	movw	r26, r16
    3340:	18 96       	adiw	r26, 0x08	; 8
    3342:	8c 91       	ld	r24, X
    3344:	48 17       	cp	r20, r24
    3346:	08 f3       	brcs	.-62     	; 0x330a <_ZN16PololuQTRSensors4readEPjh+0x9a>
    3348:	a0 96       	adiw	r28, 0x20	; 32
    334a:	e8 e0       	ldi	r30, 0x08	; 8
    334c:	0c 94 83 1d 	jmp	0x3b06	; 0x3b06 <__epilogue_restores__+0x14>

00003350 <_ZN16PololuQTRSensors14readCalibratedEPjh>:
    3350:	a0 e0       	ldi	r26, 0x00	; 0
    3352:	b0 e0       	ldi	r27, 0x00	; 0
    3354:	ee ea       	ldi	r30, 0xAE	; 174
    3356:	f9 e1       	ldi	r31, 0x19	; 25
    3358:	0c 94 64 1d 	jmp	0x3ac8	; 0x3ac8 <__prologue_saves__+0xe>
    335c:	ec 01       	movw	r28, r24
    335e:	16 2f       	mov	r17, r22
    3360:	07 2f       	mov	r16, r23
    3362:	94 2e       	mov	r9, r20
    3364:	22 e0       	ldi	r18, 0x02	; 2
    3366:	42 17       	cp	r20, r18
    3368:	11 f0       	breq	.+4      	; 0x336e <_ZN16PololuQTRSensors14readCalibratedEPjh+0x1e>
    336a:	44 23       	and	r20, r20
    336c:	51 f4       	brne	.+20     	; 0x3382 <_ZN16PololuQTRSensors14readCalibratedEPjh+0x32>
    336e:	8c 81       	ldd	r24, Y+4	; 0x04
    3370:	9d 81       	ldd	r25, Y+5	; 0x05
    3372:	89 2b       	or	r24, r25
    3374:	09 f4       	brne	.+2      	; 0x3378 <_ZN16PololuQTRSensors14readCalibratedEPjh+0x28>
    3376:	a4 c0       	rjmp	.+328    	; 0x34c0 <_ZN16PololuQTRSensors14readCalibratedEPjh+0x170>
    3378:	8e 81       	ldd	r24, Y+6	; 0x06
    337a:	9f 81       	ldd	r25, Y+7	; 0x07
    337c:	89 2b       	or	r24, r25
    337e:	09 f4       	brne	.+2      	; 0x3382 <_ZN16PololuQTRSensors14readCalibratedEPjh+0x32>
    3380:	9f c0       	rjmp	.+318    	; 0x34c0 <_ZN16PololuQTRSensors14readCalibratedEPjh+0x170>
    3382:	89 2d       	mov	r24, r9
    3384:	81 50       	subi	r24, 0x01	; 1
    3386:	82 30       	cpi	r24, 0x02	; 2
    3388:	50 f4       	brcc	.+20     	; 0x339e <_ZN16PololuQTRSensors14readCalibratedEPjh+0x4e>
    338a:	88 81       	ld	r24, Y
    338c:	99 81       	ldd	r25, Y+1	; 0x01
    338e:	89 2b       	or	r24, r25
    3390:	09 f4       	brne	.+2      	; 0x3394 <_ZN16PololuQTRSensors14readCalibratedEPjh+0x44>
    3392:	96 c0       	rjmp	.+300    	; 0x34c0 <_ZN16PololuQTRSensors14readCalibratedEPjh+0x170>
    3394:	8a 81       	ldd	r24, Y+2	; 0x02
    3396:	9b 81       	ldd	r25, Y+3	; 0x03
    3398:	89 2b       	or	r24, r25
    339a:	09 f4       	brne	.+2      	; 0x339e <_ZN16PololuQTRSensors14readCalibratedEPjh+0x4e>
    339c:	91 c0       	rjmp	.+290    	; 0x34c0 <_ZN16PololuQTRSensors14readCalibratedEPjh+0x170>
    339e:	ce 01       	movw	r24, r28
    33a0:	61 2f       	mov	r22, r17
    33a2:	70 2f       	mov	r23, r16
    33a4:	49 2d       	mov	r20, r9
    33a6:	0e 94 38 19 	call	0x3270	; 0x3270 <_ZN16PololuQTRSensors4readEPjh>
    33aa:	81 2f       	mov	r24, r17
    33ac:	90 2f       	mov	r25, r16
    33ae:	9c 01       	movw	r18, r24
    33b0:	59 01       	movw	r10, r18
    33b2:	cc 24       	eor	r12, r12
    33b4:	dd 24       	eor	r13, r13
    33b6:	00 e0       	ldi	r16, 0x00	; 0
    33b8:	10 e0       	ldi	r17, 0x00	; 0
    33ba:	7c c0       	rjmp	.+248    	; 0x34b4 <_ZN16PololuQTRSensors14readCalibratedEPjh+0x164>
    33bc:	81 e0       	ldi	r24, 0x01	; 1
    33be:	98 16       	cp	r9, r24
    33c0:	69 f4       	brne	.+26     	; 0x33dc <_ZN16PololuQTRSensors14readCalibratedEPjh+0x8c>
    33c2:	ea 81       	ldd	r30, Y+2	; 0x02
    33c4:	fb 81       	ldd	r31, Y+3	; 0x03
    33c6:	e0 0f       	add	r30, r16
    33c8:	f1 1f       	adc	r31, r17
    33ca:	20 81       	ld	r18, Z
    33cc:	31 81       	ldd	r19, Z+1	; 0x01
    33ce:	e8 81       	ld	r30, Y
    33d0:	f9 81       	ldd	r31, Y+1	; 0x01
    33d2:	e0 0f       	add	r30, r16
    33d4:	f1 1f       	adc	r31, r17
    33d6:	40 81       	ld	r20, Z
    33d8:	51 81       	ldd	r21, Z+1	; 0x01
    33da:	3d c0       	rjmp	.+122    	; 0x3456 <_ZN16PololuQTRSensors14readCalibratedEPjh+0x106>
    33dc:	ac 81       	ldd	r26, Y+4	; 0x04
    33de:	bd 81       	ldd	r27, Y+5	; 0x05
    33e0:	99 20       	and	r9, r9
    33e2:	59 f4       	brne	.+22     	; 0x33fa <_ZN16PololuQTRSensors14readCalibratedEPjh+0xaa>
    33e4:	ee 81       	ldd	r30, Y+6	; 0x06
    33e6:	ff 81       	ldd	r31, Y+7	; 0x07
    33e8:	e0 0f       	add	r30, r16
    33ea:	f1 1f       	adc	r31, r17
    33ec:	20 81       	ld	r18, Z
    33ee:	31 81       	ldd	r19, Z+1	; 0x01
    33f0:	a0 0f       	add	r26, r16
    33f2:	b1 1f       	adc	r27, r17
    33f4:	4d 91       	ld	r20, X+
    33f6:	5c 91       	ld	r21, X
    33f8:	2e c0       	rjmp	.+92     	; 0x3456 <_ZN16PololuQTRSensors14readCalibratedEPjh+0x106>
    33fa:	a0 0f       	add	r26, r16
    33fc:	b1 1f       	adc	r27, r17
    33fe:	8d 91       	ld	r24, X+
    3400:	9c 91       	ld	r25, X
    3402:	e8 81       	ld	r30, Y
    3404:	f9 81       	ldd	r31, Y+1	; 0x01
    3406:	e0 0f       	add	r30, r16
    3408:	f1 1f       	adc	r31, r17
    340a:	20 81       	ld	r18, Z
    340c:	31 81       	ldd	r19, Z+1	; 0x01
    340e:	ee 85       	ldd	r30, Y+14	; 0x0e
    3410:	ff 85       	ldd	r31, Y+15	; 0x0f
    3412:	82 17       	cp	r24, r18
    3414:	93 07       	cpc	r25, r19
    3416:	10 f4       	brcc	.+4      	; 0x341c <_ZN16PololuQTRSensors14readCalibratedEPjh+0xcc>
    3418:	af 01       	movw	r20, r30
    341a:	05 c0       	rjmp	.+10     	; 0x3426 <_ZN16PololuQTRSensors14readCalibratedEPjh+0xd6>
    341c:	a9 01       	movw	r20, r18
    341e:	4e 0f       	add	r20, r30
    3420:	5f 1f       	adc	r21, r31
    3422:	48 1b       	sub	r20, r24
    3424:	59 0b       	sbc	r21, r25
    3426:	ee 81       	ldd	r30, Y+6	; 0x06
    3428:	ff 81       	ldd	r31, Y+7	; 0x07
    342a:	e0 0f       	add	r30, r16
    342c:	f1 1f       	adc	r31, r17
    342e:	60 81       	ld	r22, Z
    3430:	71 81       	ldd	r23, Z+1	; 0x01
    3432:	ea 81       	ldd	r30, Y+2	; 0x02
    3434:	fb 81       	ldd	r31, Y+3	; 0x03
    3436:	e0 0f       	add	r30, r16
    3438:	f1 1f       	adc	r31, r17
    343a:	80 81       	ld	r24, Z
    343c:	91 81       	ldd	r25, Z+1	; 0x01
    343e:	ee 85       	ldd	r30, Y+14	; 0x0e
    3440:	ff 85       	ldd	r31, Y+15	; 0x0f
    3442:	68 17       	cp	r22, r24
    3444:	79 07       	cpc	r23, r25
    3446:	10 f4       	brcc	.+4      	; 0x344c <_ZN16PololuQTRSensors14readCalibratedEPjh+0xfc>
    3448:	9f 01       	movw	r18, r30
    344a:	05 c0       	rjmp	.+10     	; 0x3456 <_ZN16PololuQTRSensors14readCalibratedEPjh+0x106>
    344c:	9c 01       	movw	r18, r24
    344e:	2e 0f       	add	r18, r30
    3450:	3f 1f       	adc	r19, r31
    3452:	26 1b       	sub	r18, r22
    3454:	37 0b       	sbc	r19, r23
    3456:	79 01       	movw	r14, r18
    3458:	e4 1a       	sub	r14, r20
    345a:	f5 0a       	sbc	r15, r21
    345c:	01 f1       	breq	.+64     	; 0x349e <_ZN16PololuQTRSensors14readCalibratedEPjh+0x14e>
    345e:	f5 01       	movw	r30, r10
    3460:	60 81       	ld	r22, Z
    3462:	71 81       	ldd	r23, Z+1	; 0x01
    3464:	80 e0       	ldi	r24, 0x00	; 0
    3466:	90 e0       	ldi	r25, 0x00	; 0
    3468:	9a 01       	movw	r18, r20
    346a:	40 e0       	ldi	r20, 0x00	; 0
    346c:	50 e0       	ldi	r21, 0x00	; 0
    346e:	62 1b       	sub	r22, r18
    3470:	73 0b       	sbc	r23, r19
    3472:	84 0b       	sbc	r24, r20
    3474:	95 0b       	sbc	r25, r21
    3476:	28 ee       	ldi	r18, 0xE8	; 232
    3478:	33 e0       	ldi	r19, 0x03	; 3
    347a:	40 e0       	ldi	r20, 0x00	; 0
    347c:	50 e0       	ldi	r21, 0x00	; 0
    347e:	0e 94 ce 1c 	call	0x399c	; 0x399c <__mulsi3>
    3482:	97 01       	movw	r18, r14
    3484:	40 e0       	ldi	r20, 0x00	; 0
    3486:	50 e0       	ldi	r21, 0x00	; 0
    3488:	0e 94 42 1d 	call	0x3a84	; 0x3a84 <__divmodsi4>
    348c:	c9 01       	movw	r24, r18
    348e:	f3 e0       	ldi	r31, 0x03	; 3
    3490:	29 3e       	cpi	r18, 0xE9	; 233
    3492:	3f 07       	cpc	r19, r31
    3494:	14 f0       	brlt	.+4      	; 0x349a <_ZN16PololuQTRSensors14readCalibratedEPjh+0x14a>
    3496:	88 ee       	ldi	r24, 0xE8	; 232
    3498:	93 e0       	ldi	r25, 0x03	; 3
    349a:	97 ff       	sbrs	r25, 7
    349c:	02 c0       	rjmp	.+4      	; 0x34a2 <_ZN16PololuQTRSensors14readCalibratedEPjh+0x152>
    349e:	80 e0       	ldi	r24, 0x00	; 0
    34a0:	90 e0       	ldi	r25, 0x00	; 0
    34a2:	f5 01       	movw	r30, r10
    34a4:	81 93       	st	Z+, r24
    34a6:	91 93       	st	Z+, r25
    34a8:	5f 01       	movw	r10, r30
    34aa:	08 94       	sec
    34ac:	c1 1c       	adc	r12, r1
    34ae:	d1 1c       	adc	r13, r1
    34b0:	0e 5f       	subi	r16, 0xFE	; 254
    34b2:	1f 4f       	sbci	r17, 0xFF	; 255
    34b4:	88 85       	ldd	r24, Y+8	; 0x08
    34b6:	90 e0       	ldi	r25, 0x00	; 0
    34b8:	c8 16       	cp	r12, r24
    34ba:	d9 06       	cpc	r13, r25
    34bc:	0c f4       	brge	.+2      	; 0x34c0 <_ZN16PololuQTRSensors14readCalibratedEPjh+0x170>
    34be:	7e cf       	rjmp	.-260    	; 0x33bc <_ZN16PololuQTRSensors14readCalibratedEPjh+0x6c>
    34c0:	cd b7       	in	r28, 0x3d	; 61
    34c2:	de b7       	in	r29, 0x3e	; 62
    34c4:	eb e0       	ldi	r30, 0x0B	; 11
    34c6:	0c 94 80 1d 	jmp	0x3b00	; 0x3b00 <__epilogue_restores__+0xe>

000034ca <_ZN16PololuQTRSensors8readLineEPjhh>:
    34ca:	a4 e0       	ldi	r26, 0x04	; 4
    34cc:	b0 e0       	ldi	r27, 0x00	; 0
    34ce:	eb e6       	ldi	r30, 0x6B	; 107
    34d0:	fa e1       	ldi	r31, 0x1A	; 26
    34d2:	0c 94 5d 1d 	jmp	0x3aba	; 0x3aba <__prologue_saves__>
    34d6:	8c 01       	movw	r16, r24
    34d8:	f6 2e       	mov	r15, r22
    34da:	e7 2e       	mov	r14, r23
    34dc:	2a 83       	std	Y+2, r18	; 0x02
    34de:	0e 94 a8 19 	call	0x3350	; 0x3350 <_ZN16PololuQTRSensors14readCalibratedEPjh>
    34e2:	d8 01       	movw	r26, r16
    34e4:	18 96       	adiw	r26, 0x08	; 8
    34e6:	bc 91       	ld	r27, X
    34e8:	b9 83       	std	Y+1, r27	; 0x01
    34ea:	2f 2d       	mov	r18, r15
    34ec:	3e 2d       	mov	r19, r14
    34ee:	c9 01       	movw	r24, r18
    34f0:	8c 01       	movw	r16, r24
    34f2:	55 24       	eor	r5, r5
    34f4:	44 24       	eor	r4, r4
    34f6:	66 24       	eor	r6, r6
    34f8:	77 24       	eor	r7, r7
    34fa:	43 01       	movw	r8, r6
    34fc:	1c 82       	std	Y+4, r1	; 0x04
    34fe:	1b 82       	std	Y+3, r1	; 0x03
    3500:	aa 24       	eor	r10, r10
    3502:	bb 24       	eor	r11, r11
    3504:	65 01       	movw	r12, r10
    3506:	b8 ee       	ldi	r27, 0xE8	; 232
    3508:	2b 2e       	mov	r2, r27
    350a:	b3 e0       	ldi	r27, 0x03	; 3
    350c:	3b 2e       	mov	r3, r27
    350e:	32 c0       	rjmp	.+100    	; 0x3574 <_ZN16PololuQTRSensors8readLineEPjhh+0xaa>
    3510:	f8 01       	movw	r30, r16
    3512:	e0 80       	ld	r14, Z
    3514:	f1 80       	ldd	r15, Z+1	; 0x01
    3516:	fa 81       	ldd	r31, Y+2	; 0x02
    3518:	ff 23       	and	r31, r31
    351a:	21 f0       	breq	.+8      	; 0x3524 <_ZN16PololuQTRSensors8readLineEPjhh+0x5a>
    351c:	91 01       	movw	r18, r2
    351e:	2e 19       	sub	r18, r14
    3520:	3f 09       	sbc	r19, r15
    3522:	79 01       	movw	r14, r18
    3524:	39 ec       	ldi	r19, 0xC9	; 201
    3526:	e3 16       	cp	r14, r19
    3528:	f1 04       	cpc	r15, r1
    352a:	14 f0       	brlt	.+4      	; 0x3530 <_ZN16PololuQTRSensors8readLineEPjhh+0x66>
    352c:	44 24       	eor	r4, r4
    352e:	43 94       	inc	r4
    3530:	83 e3       	ldi	r24, 0x33	; 51
    3532:	e8 16       	cp	r14, r24
    3534:	f1 04       	cpc	r15, r1
    3536:	9c f0       	brlt	.+38     	; 0x355e <_ZN16PololuQTRSensors8readLineEPjhh+0x94>
    3538:	b7 01       	movw	r22, r14
    353a:	88 27       	eor	r24, r24
    353c:	77 fd       	sbrc	r23, 7
    353e:	80 95       	com	r24
    3540:	98 2f       	mov	r25, r24
    3542:	a6 01       	movw	r20, r12
    3544:	95 01       	movw	r18, r10
    3546:	0e 94 ce 1c 	call	0x399c	; 0x399c <__mulsi3>
    354a:	66 0e       	add	r6, r22
    354c:	77 1e       	adc	r7, r23
    354e:	88 1e       	adc	r8, r24
    3550:	99 1e       	adc	r9, r25
    3552:	ab 81       	ldd	r26, Y+3	; 0x03
    3554:	bc 81       	ldd	r27, Y+4	; 0x04
    3556:	ae 0d       	add	r26, r14
    3558:	bf 1d       	adc	r27, r15
    355a:	bc 83       	std	Y+4, r27	; 0x04
    355c:	ab 83       	std	Y+3, r26	; 0x03
    355e:	53 94       	inc	r5
    3560:	88 ee       	ldi	r24, 0xE8	; 232
    3562:	93 e0       	ldi	r25, 0x03	; 3
    3564:	a0 e0       	ldi	r26, 0x00	; 0
    3566:	b0 e0       	ldi	r27, 0x00	; 0
    3568:	a8 0e       	add	r10, r24
    356a:	b9 1e       	adc	r11, r25
    356c:	ca 1e       	adc	r12, r26
    356e:	db 1e       	adc	r13, r27
    3570:	0e 5f       	subi	r16, 0xFE	; 254
    3572:	1f 4f       	sbci	r17, 0xFF	; 255
    3574:	99 81       	ldd	r25, Y+1	; 0x01
    3576:	59 16       	cp	r5, r25
    3578:	58 f2       	brcs	.-106    	; 0x3510 <_ZN16PololuQTRSensors8readLineEPjhh+0x46>
    357a:	44 20       	and	r4, r4
    357c:	21 f5       	brne	.+72     	; 0x35c6 <_ZN16PololuQTRSensors8readLineEPjhh+0xfc>
    357e:	69 2f       	mov	r22, r25
    3580:	70 e0       	ldi	r23, 0x00	; 0
    3582:	84 ef       	ldi	r24, 0xF4	; 244
    3584:	91 e0       	ldi	r25, 0x01	; 1
    3586:	dc 01       	movw	r26, r24
    3588:	6a 9f       	mul	r22, r26
    358a:	c0 01       	movw	r24, r0
    358c:	6b 9f       	mul	r22, r27
    358e:	90 0d       	add	r25, r0
    3590:	7a 9f       	mul	r23, r26
    3592:	90 0d       	add	r25, r0
    3594:	11 24       	eor	r1, r1
    3596:	84 5f       	subi	r24, 0xF4	; 244
    3598:	91 40       	sbci	r25, 0x01	; 1
    359a:	20 91 bf 02 	lds	r18, 0x02BF
    359e:	30 91 c0 02 	lds	r19, 0x02C0
    35a2:	28 17       	cp	r18, r24
    35a4:	39 07       	cpc	r19, r25
    35a6:	1c f4       	brge	.+6      	; 0x35ae <_ZN16PololuQTRSensors8readLineEPjhh+0xe4>
    35a8:	40 e0       	ldi	r20, 0x00	; 0
    35aa:	50 e0       	ldi	r21, 0x00	; 0
    35ac:	1a c0       	rjmp	.+52     	; 0x35e2 <_ZN16PololuQTRSensors8readLineEPjhh+0x118>
    35ae:	88 ee       	ldi	r24, 0xE8	; 232
    35b0:	93 e0       	ldi	r25, 0x03	; 3
    35b2:	68 9f       	mul	r22, r24
    35b4:	a0 01       	movw	r20, r0
    35b6:	69 9f       	mul	r22, r25
    35b8:	50 0d       	add	r21, r0
    35ba:	78 9f       	mul	r23, r24
    35bc:	50 0d       	add	r21, r0
    35be:	11 24       	eor	r1, r1
    35c0:	48 5e       	subi	r20, 0xE8	; 232
    35c2:	53 40       	sbci	r21, 0x03	; 3
    35c4:	0e c0       	rjmp	.+28     	; 0x35e2 <_ZN16PololuQTRSensors8readLineEPjhh+0x118>
    35c6:	eb 81       	ldd	r30, Y+3	; 0x03
    35c8:	fc 81       	ldd	r31, Y+4	; 0x04
    35ca:	9f 01       	movw	r18, r30
    35cc:	40 e0       	ldi	r20, 0x00	; 0
    35ce:	50 e0       	ldi	r21, 0x00	; 0
    35d0:	c4 01       	movw	r24, r8
    35d2:	b3 01       	movw	r22, r6
    35d4:	0e 94 20 1d 	call	0x3a40	; 0x3a40 <__udivmodsi4>
    35d8:	a9 01       	movw	r20, r18
    35da:	30 93 c0 02 	sts	0x02C0, r19
    35de:	20 93 bf 02 	sts	0x02BF, r18
    35e2:	ca 01       	movw	r24, r20
    35e4:	24 96       	adiw	r28, 0x04	; 4
    35e6:	e2 e1       	ldi	r30, 0x12	; 18
    35e8:	0c 94 79 1d 	jmp	0x3af2	; 0x3af2 <__epilogue_restores__>

000035ec <qtr_read_line_white>:
    35ec:	9c 01       	movw	r18, r24
    35ee:	46 2f       	mov	r20, r22
    35f0:	80 91 c1 02 	lds	r24, 0x02C1
    35f4:	90 91 c2 02 	lds	r25, 0x02C2
    35f8:	b9 01       	movw	r22, r18
    35fa:	21 e0       	ldi	r18, 0x01	; 1
    35fc:	0e 94 65 1a 	call	0x34ca	; 0x34ca <_ZN16PololuQTRSensors8readLineEPjhh>
    3600:	08 95       	ret

00003602 <qtr_read_line>:
    3602:	9c 01       	movw	r18, r24
    3604:	46 2f       	mov	r20, r22
    3606:	80 91 c1 02 	lds	r24, 0x02C1
    360a:	90 91 c2 02 	lds	r25, 0x02C2
    360e:	b9 01       	movw	r22, r18
    3610:	20 e0       	ldi	r18, 0x00	; 0
    3612:	0e 94 65 1a 	call	0x34ca	; 0x34ca <_ZN16PololuQTRSensors8readLineEPjhh>
    3616:	08 95       	ret

00003618 <qtr_read_calibrated>:
    3618:	9c 01       	movw	r18, r24
    361a:	46 2f       	mov	r20, r22
    361c:	80 91 c1 02 	lds	r24, 0x02C1
    3620:	90 91 c2 02 	lds	r25, 0x02C2
    3624:	b9 01       	movw	r22, r18
    3626:	0e 94 a8 19 	call	0x3350	; 0x3350 <_ZN16PololuQTRSensors14readCalibratedEPjh>
    362a:	08 95       	ret

0000362c <qtr_read>:
    362c:	9c 01       	movw	r18, r24
    362e:	46 2f       	mov	r20, r22
    3630:	80 91 c1 02 	lds	r24, 0x02C1
    3634:	90 91 c2 02 	lds	r25, 0x02C2
    3638:	b9 01       	movw	r22, r18
    363a:	0e 94 38 19 	call	0x3270	; 0x3270 <_ZN16PololuQTRSensors4readEPjh>
    363e:	08 95       	ret

00003640 <_ZN16PololuQTRSensorsD1Ev>:
    3640:	cf 93       	push	r28
    3642:	df 93       	push	r29
    3644:	ec 01       	movw	r28, r24
    3646:	8a 81       	ldd	r24, Y+2	; 0x02
    3648:	9b 81       	ldd	r25, Y+3	; 0x03
    364a:	00 97       	sbiw	r24, 0x00	; 0
    364c:	11 f0       	breq	.+4      	; 0x3652 <_ZN16PololuQTRSensorsD1Ev+0x12>
    364e:	0e 94 47 1e 	call	0x3c8e	; 0x3c8e <free>
    3652:	8e 81       	ldd	r24, Y+6	; 0x06
    3654:	9f 81       	ldd	r25, Y+7	; 0x07
    3656:	00 97       	sbiw	r24, 0x00	; 0
    3658:	11 f0       	breq	.+4      	; 0x365e <_ZN16PololuQTRSensorsD1Ev+0x1e>
    365a:	0e 94 47 1e 	call	0x3c8e	; 0x3c8e <free>
    365e:	88 81       	ld	r24, Y
    3660:	99 81       	ldd	r25, Y+1	; 0x01
    3662:	00 97       	sbiw	r24, 0x00	; 0
    3664:	11 f0       	breq	.+4      	; 0x366a <_ZN16PololuQTRSensorsD1Ev+0x2a>
    3666:	0e 94 47 1e 	call	0x3c8e	; 0x3c8e <free>
    366a:	8c 81       	ldd	r24, Y+4	; 0x04
    366c:	9d 81       	ldd	r25, Y+5	; 0x05
    366e:	00 97       	sbiw	r24, 0x00	; 0
    3670:	11 f0       	breq	.+4      	; 0x3676 <_ZN16PololuQTRSensorsD1Ev+0x36>
    3672:	0e 94 47 1e 	call	0x3c8e	; 0x3c8e <free>
    3676:	df 91       	pop	r29
    3678:	cf 91       	pop	r28
    367a:	08 95       	ret

0000367c <_ZN16PololuQTRSensorsD2Ev>:
    367c:	cf 93       	push	r28
    367e:	df 93       	push	r29
    3680:	ec 01       	movw	r28, r24
    3682:	8a 81       	ldd	r24, Y+2	; 0x02
    3684:	9b 81       	ldd	r25, Y+3	; 0x03
    3686:	00 97       	sbiw	r24, 0x00	; 0
    3688:	11 f0       	breq	.+4      	; 0x368e <_ZN16PololuQTRSensorsD2Ev+0x12>
    368a:	0e 94 47 1e 	call	0x3c8e	; 0x3c8e <free>
    368e:	8e 81       	ldd	r24, Y+6	; 0x06
    3690:	9f 81       	ldd	r25, Y+7	; 0x07
    3692:	00 97       	sbiw	r24, 0x00	; 0
    3694:	11 f0       	breq	.+4      	; 0x369a <_ZN16PololuQTRSensorsD2Ev+0x1e>
    3696:	0e 94 47 1e 	call	0x3c8e	; 0x3c8e <free>
    369a:	88 81       	ld	r24, Y
    369c:	99 81       	ldd	r25, Y+1	; 0x01
    369e:	00 97       	sbiw	r24, 0x00	; 0
    36a0:	11 f0       	breq	.+4      	; 0x36a6 <_ZN16PololuQTRSensorsD2Ev+0x2a>
    36a2:	0e 94 47 1e 	call	0x3c8e	; 0x3c8e <free>
    36a6:	8c 81       	ldd	r24, Y+4	; 0x04
    36a8:	9d 81       	ldd	r25, Y+5	; 0x05
    36aa:	00 97       	sbiw	r24, 0x00	; 0
    36ac:	11 f0       	breq	.+4      	; 0x36b2 <_ZN16PololuQTRSensorsD2Ev+0x36>
    36ae:	0e 94 47 1e 	call	0x3c8e	; 0x3c8e <free>
    36b2:	df 91       	pop	r29
    36b4:	cf 91       	pop	r28
    36b6:	08 95       	ret

000036b8 <_ZN16PololuQTRSensors16calibrateOnOrOffEPPjS1_h>:
    36b8:	a3 e6       	ldi	r26, 0x63	; 99
    36ba:	b0 e0       	ldi	r27, 0x00	; 0
    36bc:	e2 e6       	ldi	r30, 0x62	; 98
    36be:	fb e1       	ldi	r31, 0x1B	; 27
    36c0:	0c 94 5d 1d 	jmp	0x3aba	; 0x3aba <__prologue_saves__>
    36c4:	7c 01       	movw	r14, r24
    36c6:	5b 01       	movw	r10, r22
    36c8:	6a 01       	movw	r12, r20
    36ca:	a2 96       	adiw	r28, 0x22	; 34
    36cc:	2f af       	std	Y+63, r18	; 0x3f
    36ce:	a2 97       	sbiw	r28, 0x22	; 34
    36d0:	da 01       	movw	r26, r20
    36d2:	8d 91       	ld	r24, X+
    36d4:	9c 91       	ld	r25, X
    36d6:	89 2b       	or	r24, r25
    36d8:	11 f5       	brne	.+68     	; 0x371e <_ZN16PololuQTRSensors16calibrateOnOrOffEPPjS1_h+0x66>
    36da:	f7 01       	movw	r30, r14
    36dc:	80 85       	ldd	r24, Z+8	; 0x08
    36de:	90 e0       	ldi	r25, 0x00	; 0
    36e0:	88 0f       	add	r24, r24
    36e2:	99 1f       	adc	r25, r25
    36e4:	0e 94 9a 1d 	call	0x3b34	; 0x3b34 <malloc>
    36e8:	d6 01       	movw	r26, r12
    36ea:	8d 93       	st	X+, r24
    36ec:	9c 93       	st	X, r25
    36ee:	00 97       	sbiw	r24, 0x00	; 0
    36f0:	09 f4       	brne	.+2      	; 0x36f4 <_ZN16PololuQTRSensors16calibrateOnOrOffEPPjS1_h+0x3c>
    36f2:	df c0       	rjmp	.+446    	; 0x38b2 <_ZN16PololuQTRSensors16calibrateOnOrOffEPPjS1_h+0x1fa>
    36f4:	20 e0       	ldi	r18, 0x00	; 0
    36f6:	30 e0       	ldi	r19, 0x00	; 0
    36f8:	0c c0       	rjmp	.+24     	; 0x3712 <_ZN16PololuQTRSensors16calibrateOnOrOffEPPjS1_h+0x5a>
    36fa:	c9 01       	movw	r24, r18
    36fc:	88 0f       	add	r24, r24
    36fe:	99 1f       	adc	r25, r25
    3700:	d6 01       	movw	r26, r12
    3702:	ed 91       	ld	r30, X+
    3704:	fc 91       	ld	r31, X
    3706:	e8 0f       	add	r30, r24
    3708:	f9 1f       	adc	r31, r25
    370a:	11 82       	std	Z+1, r1	; 0x01
    370c:	10 82       	st	Z, r1
    370e:	2f 5f       	subi	r18, 0xFF	; 255
    3710:	3f 4f       	sbci	r19, 0xFF	; 255
    3712:	f7 01       	movw	r30, r14
    3714:	80 85       	ldd	r24, Z+8	; 0x08
    3716:	90 e0       	ldi	r25, 0x00	; 0
    3718:	28 17       	cp	r18, r24
    371a:	39 07       	cpc	r19, r25
    371c:	74 f3       	brlt	.-36     	; 0x36fa <_ZN16PololuQTRSensors16calibrateOnOrOffEPPjS1_h+0x42>
    371e:	d5 01       	movw	r26, r10
    3720:	8d 91       	ld	r24, X+
    3722:	9c 91       	ld	r25, X
    3724:	89 2b       	or	r24, r25
    3726:	89 f0       	breq	.+34     	; 0x374a <_ZN16PololuQTRSensors16calibrateOnOrOffEPPjS1_h+0x92>
    3728:	00 e0       	ldi	r16, 0x00	; 0
    372a:	10 e0       	ldi	r17, 0x00	; 0
    372c:	3e 01       	movw	r6, r28
    372e:	08 94       	sec
    3730:	61 1c       	adc	r6, r1
    3732:	71 1c       	adc	r7, r1
    3734:	41 e4       	ldi	r20, 0x41	; 65
    3736:	24 2e       	mov	r2, r20
    3738:	31 2c       	mov	r3, r1
    373a:	2c 0e       	add	r2, r28
    373c:	3d 1e       	adc	r3, r29
    373e:	31 e2       	ldi	r19, 0x21	; 33
    3740:	43 2e       	mov	r4, r19
    3742:	51 2c       	mov	r5, r1
    3744:	4c 0e       	add	r4, r28
    3746:	5d 1e       	adc	r5, r29
    3748:	28 c0       	rjmp	.+80     	; 0x379a <_ZN16PololuQTRSensors16calibrateOnOrOffEPPjS1_h+0xe2>
    374a:	f7 01       	movw	r30, r14
    374c:	80 85       	ldd	r24, Z+8	; 0x08
    374e:	90 e0       	ldi	r25, 0x00	; 0
    3750:	88 0f       	add	r24, r24
    3752:	99 1f       	adc	r25, r25
    3754:	0e 94 9a 1d 	call	0x3b34	; 0x3b34 <malloc>
    3758:	d5 01       	movw	r26, r10
    375a:	8d 93       	st	X+, r24
    375c:	9c 93       	st	X, r25
    375e:	00 97       	sbiw	r24, 0x00	; 0
    3760:	09 f4       	brne	.+2      	; 0x3764 <_ZN16PololuQTRSensors16calibrateOnOrOffEPPjS1_h+0xac>
    3762:	a7 c0       	rjmp	.+334    	; 0x38b2 <_ZN16PololuQTRSensors16calibrateOnOrOffEPPjS1_h+0x1fa>
    3764:	20 e0       	ldi	r18, 0x00	; 0
    3766:	30 e0       	ldi	r19, 0x00	; 0
    3768:	11 c0       	rjmp	.+34     	; 0x378c <_ZN16PololuQTRSensors16calibrateOnOrOffEPPjS1_h+0xd4>
    376a:	c9 01       	movw	r24, r18
    376c:	88 0f       	add	r24, r24
    376e:	99 1f       	adc	r25, r25
    3770:	d5 01       	movw	r26, r10
    3772:	ed 91       	ld	r30, X+
    3774:	fc 91       	ld	r31, X
    3776:	e8 0f       	add	r30, r24
    3778:	f9 1f       	adc	r31, r25
    377a:	d7 01       	movw	r26, r14
    377c:	1e 96       	adiw	r26, 0x0e	; 14
    377e:	8d 91       	ld	r24, X+
    3780:	9c 91       	ld	r25, X
    3782:	1f 97       	sbiw	r26, 0x0f	; 15
    3784:	91 83       	std	Z+1, r25	; 0x01
    3786:	80 83       	st	Z, r24
    3788:	2f 5f       	subi	r18, 0xFF	; 255
    378a:	3f 4f       	sbci	r19, 0xFF	; 255
    378c:	f7 01       	movw	r30, r14
    378e:	80 85       	ldd	r24, Z+8	; 0x08
    3790:	90 e0       	ldi	r25, 0x00	; 0
    3792:	28 17       	cp	r18, r24
    3794:	39 07       	cpc	r19, r25
    3796:	4c f3       	brlt	.-46     	; 0x376a <_ZN16PololuQTRSensors16calibrateOnOrOffEPPjS1_h+0xb2>
    3798:	c7 cf       	rjmp	.-114    	; 0x3728 <_ZN16PololuQTRSensors16calibrateOnOrOffEPPjS1_h+0x70>
    379a:	c7 01       	movw	r24, r14
    379c:	b3 01       	movw	r22, r6
    379e:	a2 96       	adiw	r28, 0x22	; 34
    37a0:	4f ad       	ldd	r20, Y+63	; 0x3f
    37a2:	a2 97       	sbiw	r28, 0x22	; 34
    37a4:	0e 94 38 19 	call	0x3270	; 0x3270 <_ZN16PololuQTRSensors4readEPjh>
    37a8:	d7 01       	movw	r26, r14
    37aa:	18 96       	adiw	r26, 0x08	; 8
    37ac:	8c 91       	ld	r24, X
    37ae:	88 2e       	mov	r8, r24
    37b0:	99 24       	eor	r9, r9
    37b2:	a1 01       	movw	r20, r2
    37b4:	f3 01       	movw	r30, r6
    37b6:	a4 96       	adiw	r28, 0x24	; 36
    37b8:	5f ae       	std	Y+63, r5	; 0x3f
    37ba:	4e ae       	std	Y+62, r4	; 0x3e
    37bc:	a4 97       	sbiw	r28, 0x24	; 36
    37be:	60 e0       	ldi	r22, 0x00	; 0
    37c0:	70 e0       	ldi	r23, 0x00	; 0
    37c2:	34 c0       	rjmp	.+104    	; 0x382c <_ZN16PololuQTRSensors16calibrateOnOrOffEPPjS1_h+0x174>
    37c4:	01 15       	cp	r16, r1
    37c6:	11 05       	cpc	r17, r1
    37c8:	59 f0       	breq	.+22     	; 0x37e0 <_ZN16PololuQTRSensors16calibrateOnOrOffEPPjS1_h+0x128>
    37ca:	a4 96       	adiw	r28, 0x24	; 36
    37cc:	ae ad       	ldd	r26, Y+62	; 0x3e
    37ce:	bf ad       	ldd	r27, Y+63	; 0x3f
    37d0:	a4 97       	sbiw	r28, 0x24	; 36
    37d2:	2d 91       	ld	r18, X+
    37d4:	3c 91       	ld	r19, X
    37d6:	80 81       	ld	r24, Z
    37d8:	91 81       	ldd	r25, Z+1	; 0x01
    37da:	28 17       	cp	r18, r24
    37dc:	39 07       	cpc	r19, r25
    37de:	58 f4       	brcc	.+22     	; 0x37f6 <_ZN16PololuQTRSensors16calibrateOnOrOffEPPjS1_h+0x13e>
    37e0:	80 81       	ld	r24, Z
    37e2:	91 81       	ldd	r25, Z+1	; 0x01
    37e4:	a4 96       	adiw	r28, 0x24	; 36
    37e6:	ae ad       	ldd	r26, Y+62	; 0x3e
    37e8:	bf ad       	ldd	r27, Y+63	; 0x3f
    37ea:	a4 97       	sbiw	r28, 0x24	; 36
    37ec:	8d 93       	st	X+, r24
    37ee:	9c 93       	st	X, r25
    37f0:	01 15       	cp	r16, r1
    37f2:	11 05       	cpc	r17, r1
    37f4:	41 f0       	breq	.+16     	; 0x3806 <_ZN16PololuQTRSensors16calibrateOnOrOffEPPjS1_h+0x14e>
    37f6:	da 01       	movw	r26, r20
    37f8:	2d 91       	ld	r18, X+
    37fa:	3c 91       	ld	r19, X
    37fc:	80 81       	ld	r24, Z
    37fe:	91 81       	ldd	r25, Z+1	; 0x01
    3800:	82 17       	cp	r24, r18
    3802:	93 07       	cpc	r25, r19
    3804:	28 f4       	brcc	.+10     	; 0x3810 <_ZN16PololuQTRSensors16calibrateOnOrOffEPPjS1_h+0x158>
    3806:	80 81       	ld	r24, Z
    3808:	91 81       	ldd	r25, Z+1	; 0x01
    380a:	da 01       	movw	r26, r20
    380c:	8d 93       	st	X+, r24
    380e:	9c 93       	st	X, r25
    3810:	6f 5f       	subi	r22, 0xFF	; 255
    3812:	7f 4f       	sbci	r23, 0xFF	; 255
    3814:	4e 5f       	subi	r20, 0xFE	; 254
    3816:	5f 4f       	sbci	r21, 0xFF	; 255
    3818:	32 96       	adiw	r30, 0x02	; 2
    381a:	a4 96       	adiw	r28, 0x24	; 36
    381c:	8e ad       	ldd	r24, Y+62	; 0x3e
    381e:	9f ad       	ldd	r25, Y+63	; 0x3f
    3820:	a4 97       	sbiw	r28, 0x24	; 36
    3822:	02 96       	adiw	r24, 0x02	; 2
    3824:	a4 96       	adiw	r28, 0x24	; 36
    3826:	9f af       	std	Y+63, r25	; 0x3f
    3828:	8e af       	std	Y+62, r24	; 0x3e
    382a:	a4 97       	sbiw	r28, 0x24	; 36
    382c:	68 15       	cp	r22, r8
    382e:	79 05       	cpc	r23, r9
    3830:	4c f2       	brlt	.-110    	; 0x37c4 <_ZN16PololuQTRSensors16calibrateOnOrOffEPPjS1_h+0x10c>
    3832:	0f 5f       	subi	r16, 0xFF	; 255
    3834:	1f 4f       	sbci	r17, 0xFF	; 255
    3836:	0a 30       	cpi	r16, 0x0A	; 10
    3838:	11 05       	cpc	r17, r1
    383a:	09 f0       	breq	.+2      	; 0x383e <_ZN16PololuQTRSensors16calibrateOnOrOffEPPjS1_h+0x186>
    383c:	ae cf       	rjmp	.-164    	; 0x379a <_ZN16PololuQTRSensors16calibrateOnOrOffEPPjS1_h+0xe2>
    383e:	40 e0       	ldi	r20, 0x00	; 0
    3840:	50 e0       	ldi	r21, 0x00	; 0
    3842:	20 e0       	ldi	r18, 0x00	; 0
    3844:	30 e0       	ldi	r19, 0x00	; 0
    3846:	8e 01       	movw	r16, r28
    3848:	0f 5b       	subi	r16, 0xBF	; 191
    384a:	1f 4f       	sbci	r17, 0xFF	; 255
    384c:	be 01       	movw	r22, r28
    384e:	6f 5d       	subi	r22, 0xDF	; 223
    3850:	7f 4f       	sbci	r23, 0xFF	; 255
    3852:	28 c0       	rjmp	.+80     	; 0x38a4 <_ZN16PololuQTRSensors16calibrateOnOrOffEPPjS1_h+0x1ec>
    3854:	f8 01       	movw	r30, r16
    3856:	e2 0f       	add	r30, r18
    3858:	f3 1f       	adc	r31, r19
    385a:	80 80       	ld	r8, Z
    385c:	91 80       	ldd	r9, Z+1	; 0x01
    385e:	f6 01       	movw	r30, r12
    3860:	a0 81       	ld	r26, Z
    3862:	b1 81       	ldd	r27, Z+1	; 0x01
    3864:	a2 0f       	add	r26, r18
    3866:	b3 1f       	adc	r27, r19
    3868:	8d 91       	ld	r24, X+
    386a:	9c 91       	ld	r25, X
    386c:	11 97       	sbiw	r26, 0x01	; 1
    386e:	88 15       	cp	r24, r8
    3870:	99 05       	cpc	r25, r9
    3872:	10 f4       	brcc	.+4      	; 0x3878 <_ZN16PololuQTRSensors16calibrateOnOrOffEPPjS1_h+0x1c0>
    3874:	8d 92       	st	X+, r8
    3876:	9c 92       	st	X, r9
    3878:	fb 01       	movw	r30, r22
    387a:	e2 0f       	add	r30, r18
    387c:	f3 1f       	adc	r31, r19
    387e:	80 80       	ld	r8, Z
    3880:	91 80       	ldd	r9, Z+1	; 0x01
    3882:	f5 01       	movw	r30, r10
    3884:	a0 81       	ld	r26, Z
    3886:	b1 81       	ldd	r27, Z+1	; 0x01
    3888:	a2 0f       	add	r26, r18
    388a:	b3 1f       	adc	r27, r19
    388c:	8d 91       	ld	r24, X+
    388e:	9c 91       	ld	r25, X
    3890:	11 97       	sbiw	r26, 0x01	; 1
    3892:	88 16       	cp	r8, r24
    3894:	99 06       	cpc	r9, r25
    3896:	10 f4       	brcc	.+4      	; 0x389c <_ZN16PololuQTRSensors16calibrateOnOrOffEPPjS1_h+0x1e4>
    3898:	8d 92       	st	X+, r8
    389a:	9c 92       	st	X, r9
    389c:	4f 5f       	subi	r20, 0xFF	; 255
    389e:	5f 4f       	sbci	r21, 0xFF	; 255
    38a0:	2e 5f       	subi	r18, 0xFE	; 254
    38a2:	3f 4f       	sbci	r19, 0xFF	; 255
    38a4:	d7 01       	movw	r26, r14
    38a6:	18 96       	adiw	r26, 0x08	; 8
    38a8:	8c 91       	ld	r24, X
    38aa:	90 e0       	ldi	r25, 0x00	; 0
    38ac:	48 17       	cp	r20, r24
    38ae:	59 07       	cpc	r21, r25
    38b0:	8c f2       	brlt	.-94     	; 0x3854 <_ZN16PololuQTRSensors16calibrateOnOrOffEPPjS1_h+0x19c>
    38b2:	cd 59       	subi	r28, 0x9D	; 157
    38b4:	df 4f       	sbci	r29, 0xFF	; 255
    38b6:	e2 e1       	ldi	r30, 0x12	; 18
    38b8:	0c 94 79 1d 	jmp	0x3af2	; 0x3af2 <__epilogue_restores__>

000038bc <_ZN16PololuQTRSensors9calibrateEh>:
    38bc:	1f 93       	push	r17
    38be:	cf 93       	push	r28
    38c0:	df 93       	push	r29
    38c2:	ec 01       	movw	r28, r24
    38c4:	16 2f       	mov	r17, r22
    38c6:	86 2f       	mov	r24, r22
    38c8:	81 50       	subi	r24, 0x01	; 1
    38ca:	82 30       	cpi	r24, 0x02	; 2
    38cc:	40 f4       	brcc	.+16     	; 0x38de <_ZN16PololuQTRSensors9calibrateEh+0x22>
    38ce:	ae 01       	movw	r20, r28
    38d0:	4e 5f       	subi	r20, 0xFE	; 254
    38d2:	5f 4f       	sbci	r21, 0xFF	; 255
    38d4:	ce 01       	movw	r24, r28
    38d6:	be 01       	movw	r22, r28
    38d8:	21 e0       	ldi	r18, 0x01	; 1
    38da:	0e 94 5c 1b 	call	0x36b8	; 0x36b8 <_ZN16PololuQTRSensors16calibrateOnOrOffEPPjS1_h>
    38de:	12 30       	cpi	r17, 0x02	; 2
    38e0:	11 f0       	breq	.+4      	; 0x38e6 <_ZN16PololuQTRSensors9calibrateEh+0x2a>
    38e2:	11 23       	and	r17, r17
    38e4:	49 f4       	brne	.+18     	; 0x38f8 <_ZN16PololuQTRSensors9calibrateEh+0x3c>
    38e6:	ae 01       	movw	r20, r28
    38e8:	4a 5f       	subi	r20, 0xFA	; 250
    38ea:	5f 4f       	sbci	r21, 0xFF	; 255
    38ec:	ce 01       	movw	r24, r28
    38ee:	24 96       	adiw	r28, 0x04	; 4
    38f0:	be 01       	movw	r22, r28
    38f2:	20 e0       	ldi	r18, 0x00	; 0
    38f4:	0e 94 5c 1b 	call	0x36b8	; 0x36b8 <_ZN16PololuQTRSensors16calibrateOnOrOffEPPjS1_h>
    38f8:	df 91       	pop	r29
    38fa:	cf 91       	pop	r28
    38fc:	1f 91       	pop	r17
    38fe:	08 95       	ret

00003900 <qtr_calibrate>:
    3900:	68 2f       	mov	r22, r24
    3902:	80 91 c1 02 	lds	r24, 0x02C1
    3906:	90 91 c2 02 	lds	r25, 0x02C2
    390a:	0e 94 5e 1c 	call	0x38bc	; 0x38bc <_ZN16PololuQTRSensors9calibrateEh>
    390e:	08 95       	ret

00003910 <qtr_analog_init>:
    3910:	a0 e0       	ldi	r26, 0x00	; 0
    3912:	b0 e0       	ldi	r27, 0x00	; 0
    3914:	ee e8       	ldi	r30, 0x8E	; 142
    3916:	fc e1       	ldi	r31, 0x1C	; 28
    3918:	0c 94 68 1d 	jmp	0x3ad0	; 0x3ad0 <__prologue_saves__+0x16>
    391c:	8c 01       	movw	r16, r24
    391e:	f6 2e       	mov	r15, r22
    3920:	e4 2e       	mov	r14, r20
    3922:	d2 2e       	mov	r13, r18
    3924:	83 e2       	ldi	r24, 0x23	; 35
    3926:	90 e0       	ldi	r25, 0x00	; 0
    3928:	0e 94 9a 1d 	call	0x3b34	; 0x3b34 <malloc>
    392c:	ec 01       	movw	r28, r24
    392e:	00 97       	sbiw	r24, 0x00	; 0
    3930:	11 f4       	brne	.+4      	; 0x3936 <qtr_analog_init+0x26>
    3932:	80 e0       	ldi	r24, 0x00	; 0
    3934:	0b c0       	rjmp	.+22     	; 0x394c <qtr_analog_init+0x3c>
    3936:	b8 01       	movw	r22, r16
    3938:	4f 2d       	mov	r20, r15
    393a:	2e 2d       	mov	r18, r14
    393c:	0d 2d       	mov	r16, r13
    393e:	0e 94 7c 18 	call	0x30f8	; 0x30f8 <_ZN22PololuQTRSensorsAnalog4initEPhhhh>
    3942:	d0 93 c2 02 	sts	0x02C2, r29
    3946:	c0 93 c1 02 	sts	0x02C1, r28
    394a:	81 e0       	ldi	r24, 0x01	; 1
    394c:	cd b7       	in	r28, 0x3d	; 61
    394e:	de b7       	in	r29, 0x3e	; 62
    3950:	e7 e0       	ldi	r30, 0x07	; 7
    3952:	0c 94 84 1d 	jmp	0x3b08	; 0x3b08 <__epilogue_restores__+0x16>

00003956 <qtr_rc_init>:
    3956:	a0 e0       	ldi	r26, 0x00	; 0
    3958:	b0 e0       	ldi	r27, 0x00	; 0
    395a:	e1 eb       	ldi	r30, 0xB1	; 177
    395c:	fc e1       	ldi	r31, 0x1C	; 28
    395e:	0c 94 67 1d 	jmp	0x3ace	; 0x3ace <__prologue_saves__+0x14>
    3962:	8c 01       	movw	r16, r24
    3964:	d6 2e       	mov	r13, r22
    3966:	7a 01       	movw	r14, r20
    3968:	c2 2e       	mov	r12, r18
    396a:	84 e4       	ldi	r24, 0x44	; 68
    396c:	90 e0       	ldi	r25, 0x00	; 0
    396e:	0e 94 9a 1d 	call	0x3b34	; 0x3b34 <malloc>
    3972:	ec 01       	movw	r28, r24
    3974:	00 97       	sbiw	r24, 0x00	; 0
    3976:	11 f4       	brne	.+4      	; 0x397c <qtr_rc_init+0x26>
    3978:	80 e0       	ldi	r24, 0x00	; 0
    397a:	0b c0       	rjmp	.+22     	; 0x3992 <qtr_rc_init+0x3c>
    397c:	b8 01       	movw	r22, r16
    397e:	4d 2d       	mov	r20, r13
    3980:	97 01       	movw	r18, r14
    3982:	0c 2d       	mov	r16, r12
    3984:	0e 94 53 17 	call	0x2ea6	; 0x2ea6 <_ZN18PololuQTRSensorsRC4initEPhhjh>
    3988:	d0 93 c2 02 	sts	0x02C2, r29
    398c:	c0 93 c1 02 	sts	0x02C1, r28
    3990:	81 e0       	ldi	r24, 0x01	; 1
    3992:	cd b7       	in	r28, 0x3d	; 61
    3994:	de b7       	in	r29, 0x3e	; 62
    3996:	e8 e0       	ldi	r30, 0x08	; 8
    3998:	0c 94 83 1d 	jmp	0x3b06	; 0x3b06 <__epilogue_restores__+0x14>

0000399c <__mulsi3>:
    399c:	62 9f       	mul	r22, r18
    399e:	d0 01       	movw	r26, r0
    39a0:	73 9f       	mul	r23, r19
    39a2:	f0 01       	movw	r30, r0
    39a4:	82 9f       	mul	r24, r18
    39a6:	e0 0d       	add	r30, r0
    39a8:	f1 1d       	adc	r31, r1
    39aa:	64 9f       	mul	r22, r20
    39ac:	e0 0d       	add	r30, r0
    39ae:	f1 1d       	adc	r31, r1
    39b0:	92 9f       	mul	r25, r18
    39b2:	f0 0d       	add	r31, r0
    39b4:	83 9f       	mul	r24, r19
    39b6:	f0 0d       	add	r31, r0
    39b8:	74 9f       	mul	r23, r20
    39ba:	f0 0d       	add	r31, r0
    39bc:	65 9f       	mul	r22, r21
    39be:	f0 0d       	add	r31, r0
    39c0:	99 27       	eor	r25, r25
    39c2:	72 9f       	mul	r23, r18
    39c4:	b0 0d       	add	r27, r0
    39c6:	e1 1d       	adc	r30, r1
    39c8:	f9 1f       	adc	r31, r25
    39ca:	63 9f       	mul	r22, r19
    39cc:	b0 0d       	add	r27, r0
    39ce:	e1 1d       	adc	r30, r1
    39d0:	f9 1f       	adc	r31, r25
    39d2:	bd 01       	movw	r22, r26
    39d4:	cf 01       	movw	r24, r30
    39d6:	11 24       	eor	r1, r1
    39d8:	08 95       	ret

000039da <__udivmodqi4>:
    39da:	99 1b       	sub	r25, r25
    39dc:	79 e0       	ldi	r23, 0x09	; 9
    39de:	04 c0       	rjmp	.+8      	; 0x39e8 <__udivmodqi4_ep>

000039e0 <__udivmodqi4_loop>:
    39e0:	99 1f       	adc	r25, r25
    39e2:	96 17       	cp	r25, r22
    39e4:	08 f0       	brcs	.+2      	; 0x39e8 <__udivmodqi4_ep>
    39e6:	96 1b       	sub	r25, r22

000039e8 <__udivmodqi4_ep>:
    39e8:	88 1f       	adc	r24, r24
    39ea:	7a 95       	dec	r23
    39ec:	c9 f7       	brne	.-14     	; 0x39e0 <__udivmodqi4_loop>
    39ee:	80 95       	com	r24
    39f0:	08 95       	ret

000039f2 <__udivmodhi4>:
    39f2:	aa 1b       	sub	r26, r26
    39f4:	bb 1b       	sub	r27, r27
    39f6:	51 e1       	ldi	r21, 0x11	; 17
    39f8:	07 c0       	rjmp	.+14     	; 0x3a08 <__udivmodhi4_ep>

000039fa <__udivmodhi4_loop>:
    39fa:	aa 1f       	adc	r26, r26
    39fc:	bb 1f       	adc	r27, r27
    39fe:	a6 17       	cp	r26, r22
    3a00:	b7 07       	cpc	r27, r23
    3a02:	10 f0       	brcs	.+4      	; 0x3a08 <__udivmodhi4_ep>
    3a04:	a6 1b       	sub	r26, r22
    3a06:	b7 0b       	sbc	r27, r23

00003a08 <__udivmodhi4_ep>:
    3a08:	88 1f       	adc	r24, r24
    3a0a:	99 1f       	adc	r25, r25
    3a0c:	5a 95       	dec	r21
    3a0e:	a9 f7       	brne	.-22     	; 0x39fa <__udivmodhi4_loop>
    3a10:	80 95       	com	r24
    3a12:	90 95       	com	r25
    3a14:	bc 01       	movw	r22, r24
    3a16:	cd 01       	movw	r24, r26
    3a18:	08 95       	ret

00003a1a <__divmodhi4>:
    3a1a:	97 fb       	bst	r25, 7
    3a1c:	09 2e       	mov	r0, r25
    3a1e:	07 26       	eor	r0, r23
    3a20:	0a d0       	rcall	.+20     	; 0x3a36 <__divmodhi4_neg1>
    3a22:	77 fd       	sbrc	r23, 7
    3a24:	04 d0       	rcall	.+8      	; 0x3a2e <__divmodhi4_neg2>
    3a26:	e5 df       	rcall	.-54     	; 0x39f2 <__udivmodhi4>
    3a28:	06 d0       	rcall	.+12     	; 0x3a36 <__divmodhi4_neg1>
    3a2a:	00 20       	and	r0, r0
    3a2c:	1a f4       	brpl	.+6      	; 0x3a34 <__divmodhi4_exit>

00003a2e <__divmodhi4_neg2>:
    3a2e:	70 95       	com	r23
    3a30:	61 95       	neg	r22
    3a32:	7f 4f       	sbci	r23, 0xFF	; 255

00003a34 <__divmodhi4_exit>:
    3a34:	08 95       	ret

00003a36 <__divmodhi4_neg1>:
    3a36:	f6 f7       	brtc	.-4      	; 0x3a34 <__divmodhi4_exit>
    3a38:	90 95       	com	r25
    3a3a:	81 95       	neg	r24
    3a3c:	9f 4f       	sbci	r25, 0xFF	; 255
    3a3e:	08 95       	ret

00003a40 <__udivmodsi4>:
    3a40:	a1 e2       	ldi	r26, 0x21	; 33
    3a42:	1a 2e       	mov	r1, r26
    3a44:	aa 1b       	sub	r26, r26
    3a46:	bb 1b       	sub	r27, r27
    3a48:	fd 01       	movw	r30, r26
    3a4a:	0d c0       	rjmp	.+26     	; 0x3a66 <__udivmodsi4_ep>

00003a4c <__udivmodsi4_loop>:
    3a4c:	aa 1f       	adc	r26, r26
    3a4e:	bb 1f       	adc	r27, r27
    3a50:	ee 1f       	adc	r30, r30
    3a52:	ff 1f       	adc	r31, r31
    3a54:	a2 17       	cp	r26, r18
    3a56:	b3 07       	cpc	r27, r19
    3a58:	e4 07       	cpc	r30, r20
    3a5a:	f5 07       	cpc	r31, r21
    3a5c:	20 f0       	brcs	.+8      	; 0x3a66 <__udivmodsi4_ep>
    3a5e:	a2 1b       	sub	r26, r18
    3a60:	b3 0b       	sbc	r27, r19
    3a62:	e4 0b       	sbc	r30, r20
    3a64:	f5 0b       	sbc	r31, r21

00003a66 <__udivmodsi4_ep>:
    3a66:	66 1f       	adc	r22, r22
    3a68:	77 1f       	adc	r23, r23
    3a6a:	88 1f       	adc	r24, r24
    3a6c:	99 1f       	adc	r25, r25
    3a6e:	1a 94       	dec	r1
    3a70:	69 f7       	brne	.-38     	; 0x3a4c <__udivmodsi4_loop>
    3a72:	60 95       	com	r22
    3a74:	70 95       	com	r23
    3a76:	80 95       	com	r24
    3a78:	90 95       	com	r25
    3a7a:	9b 01       	movw	r18, r22
    3a7c:	ac 01       	movw	r20, r24
    3a7e:	bd 01       	movw	r22, r26
    3a80:	cf 01       	movw	r24, r30
    3a82:	08 95       	ret

00003a84 <__divmodsi4>:
    3a84:	97 fb       	bst	r25, 7
    3a86:	09 2e       	mov	r0, r25
    3a88:	05 26       	eor	r0, r21
    3a8a:	0e d0       	rcall	.+28     	; 0x3aa8 <__divmodsi4_neg1>
    3a8c:	57 fd       	sbrc	r21, 7
    3a8e:	04 d0       	rcall	.+8      	; 0x3a98 <__divmodsi4_neg2>
    3a90:	d7 df       	rcall	.-82     	; 0x3a40 <__udivmodsi4>
    3a92:	0a d0       	rcall	.+20     	; 0x3aa8 <__divmodsi4_neg1>
    3a94:	00 1c       	adc	r0, r0
    3a96:	38 f4       	brcc	.+14     	; 0x3aa6 <__divmodsi4_exit>

00003a98 <__divmodsi4_neg2>:
    3a98:	50 95       	com	r21
    3a9a:	40 95       	com	r20
    3a9c:	30 95       	com	r19
    3a9e:	21 95       	neg	r18
    3aa0:	3f 4f       	sbci	r19, 0xFF	; 255
    3aa2:	4f 4f       	sbci	r20, 0xFF	; 255
    3aa4:	5f 4f       	sbci	r21, 0xFF	; 255

00003aa6 <__divmodsi4_exit>:
    3aa6:	08 95       	ret

00003aa8 <__divmodsi4_neg1>:
    3aa8:	f6 f7       	brtc	.-4      	; 0x3aa6 <__divmodsi4_exit>
    3aaa:	90 95       	com	r25
    3aac:	80 95       	com	r24
    3aae:	70 95       	com	r23
    3ab0:	61 95       	neg	r22
    3ab2:	7f 4f       	sbci	r23, 0xFF	; 255
    3ab4:	8f 4f       	sbci	r24, 0xFF	; 255
    3ab6:	9f 4f       	sbci	r25, 0xFF	; 255
    3ab8:	08 95       	ret

00003aba <__prologue_saves__>:
    3aba:	2f 92       	push	r2
    3abc:	3f 92       	push	r3
    3abe:	4f 92       	push	r4
    3ac0:	5f 92       	push	r5
    3ac2:	6f 92       	push	r6
    3ac4:	7f 92       	push	r7
    3ac6:	8f 92       	push	r8
    3ac8:	9f 92       	push	r9
    3aca:	af 92       	push	r10
    3acc:	bf 92       	push	r11
    3ace:	cf 92       	push	r12
    3ad0:	df 92       	push	r13
    3ad2:	ef 92       	push	r14
    3ad4:	ff 92       	push	r15
    3ad6:	0f 93       	push	r16
    3ad8:	1f 93       	push	r17
    3ada:	cf 93       	push	r28
    3adc:	df 93       	push	r29
    3ade:	cd b7       	in	r28, 0x3d	; 61
    3ae0:	de b7       	in	r29, 0x3e	; 62
    3ae2:	ca 1b       	sub	r28, r26
    3ae4:	db 0b       	sbc	r29, r27
    3ae6:	0f b6       	in	r0, 0x3f	; 63
    3ae8:	f8 94       	cli
    3aea:	de bf       	out	0x3e, r29	; 62
    3aec:	0f be       	out	0x3f, r0	; 63
    3aee:	cd bf       	out	0x3d, r28	; 61
    3af0:	09 94       	ijmp

00003af2 <__epilogue_restores__>:
    3af2:	2a 88       	ldd	r2, Y+18	; 0x12
    3af4:	39 88       	ldd	r3, Y+17	; 0x11
    3af6:	48 88       	ldd	r4, Y+16	; 0x10
    3af8:	5f 84       	ldd	r5, Y+15	; 0x0f
    3afa:	6e 84       	ldd	r6, Y+14	; 0x0e
    3afc:	7d 84       	ldd	r7, Y+13	; 0x0d
    3afe:	8c 84       	ldd	r8, Y+12	; 0x0c
    3b00:	9b 84       	ldd	r9, Y+11	; 0x0b
    3b02:	aa 84       	ldd	r10, Y+10	; 0x0a
    3b04:	b9 84       	ldd	r11, Y+9	; 0x09
    3b06:	c8 84       	ldd	r12, Y+8	; 0x08
    3b08:	df 80       	ldd	r13, Y+7	; 0x07
    3b0a:	ee 80       	ldd	r14, Y+6	; 0x06
    3b0c:	fd 80       	ldd	r15, Y+5	; 0x05
    3b0e:	0c 81       	ldd	r16, Y+4	; 0x04
    3b10:	1b 81       	ldd	r17, Y+3	; 0x03
    3b12:	aa 81       	ldd	r26, Y+2	; 0x02
    3b14:	b9 81       	ldd	r27, Y+1	; 0x01
    3b16:	ce 0f       	add	r28, r30
    3b18:	d1 1d       	adc	r29, r1
    3b1a:	0f b6       	in	r0, 0x3f	; 63
    3b1c:	f8 94       	cli
    3b1e:	de bf       	out	0x3e, r29	; 62
    3b20:	0f be       	out	0x3f, r0	; 63
    3b22:	cd bf       	out	0x3d, r28	; 61
    3b24:	ed 01       	movw	r28, r26
    3b26:	08 95       	ret

00003b28 <__tablejump2__>:
    3b28:	ee 0f       	add	r30, r30
    3b2a:	ff 1f       	adc	r31, r31

00003b2c <__tablejump__>:
    3b2c:	05 90       	lpm	r0, Z+
    3b2e:	f4 91       	lpm	r31, Z+
    3b30:	e0 2d       	mov	r30, r0
    3b32:	09 94       	ijmp

00003b34 <malloc>:
    3b34:	cf 93       	push	r28
    3b36:	df 93       	push	r29
    3b38:	bc 01       	movw	r22, r24
    3b3a:	82 30       	cpi	r24, 0x02	; 2
    3b3c:	91 05       	cpc	r25, r1
    3b3e:	10 f4       	brcc	.+4      	; 0x3b44 <malloc+0x10>
    3b40:	62 e0       	ldi	r22, 0x02	; 2
    3b42:	70 e0       	ldi	r23, 0x00	; 0
    3b44:	a0 91 c5 02 	lds	r26, 0x02C5
    3b48:	b0 91 c6 02 	lds	r27, 0x02C6
    3b4c:	ed 01       	movw	r28, r26
    3b4e:	e0 e0       	ldi	r30, 0x00	; 0
    3b50:	f0 e0       	ldi	r31, 0x00	; 0
    3b52:	40 e0       	ldi	r20, 0x00	; 0
    3b54:	50 e0       	ldi	r21, 0x00	; 0
    3b56:	21 c0       	rjmp	.+66     	; 0x3b9a <malloc+0x66>
    3b58:	88 81       	ld	r24, Y
    3b5a:	99 81       	ldd	r25, Y+1	; 0x01
    3b5c:	86 17       	cp	r24, r22
    3b5e:	97 07       	cpc	r25, r23
    3b60:	69 f4       	brne	.+26     	; 0x3b7c <malloc+0x48>
    3b62:	8a 81       	ldd	r24, Y+2	; 0x02
    3b64:	9b 81       	ldd	r25, Y+3	; 0x03
    3b66:	30 97       	sbiw	r30, 0x00	; 0
    3b68:	19 f0       	breq	.+6      	; 0x3b70 <malloc+0x3c>
    3b6a:	93 83       	std	Z+3, r25	; 0x03
    3b6c:	82 83       	std	Z+2, r24	; 0x02
    3b6e:	04 c0       	rjmp	.+8      	; 0x3b78 <malloc+0x44>
    3b70:	90 93 c6 02 	sts	0x02C6, r25
    3b74:	80 93 c5 02 	sts	0x02C5, r24
    3b78:	fe 01       	movw	r30, r28
    3b7a:	34 c0       	rjmp	.+104    	; 0x3be4 <malloc+0xb0>
    3b7c:	68 17       	cp	r22, r24
    3b7e:	79 07       	cpc	r23, r25
    3b80:	38 f4       	brcc	.+14     	; 0x3b90 <malloc+0x5c>
    3b82:	41 15       	cp	r20, r1
    3b84:	51 05       	cpc	r21, r1
    3b86:	19 f0       	breq	.+6      	; 0x3b8e <malloc+0x5a>
    3b88:	84 17       	cp	r24, r20
    3b8a:	95 07       	cpc	r25, r21
    3b8c:	08 f4       	brcc	.+2      	; 0x3b90 <malloc+0x5c>
    3b8e:	ac 01       	movw	r20, r24
    3b90:	fe 01       	movw	r30, r28
    3b92:	8a 81       	ldd	r24, Y+2	; 0x02
    3b94:	9b 81       	ldd	r25, Y+3	; 0x03
    3b96:	9c 01       	movw	r18, r24
    3b98:	e9 01       	movw	r28, r18
    3b9a:	20 97       	sbiw	r28, 0x00	; 0
    3b9c:	e9 f6       	brne	.-70     	; 0x3b58 <malloc+0x24>
    3b9e:	41 15       	cp	r20, r1
    3ba0:	51 05       	cpc	r21, r1
    3ba2:	a9 f1       	breq	.+106    	; 0x3c0e <malloc+0xda>
    3ba4:	ca 01       	movw	r24, r20
    3ba6:	86 1b       	sub	r24, r22
    3ba8:	97 0b       	sbc	r25, r23
    3baa:	04 97       	sbiw	r24, 0x04	; 4
    3bac:	08 f4       	brcc	.+2      	; 0x3bb0 <malloc+0x7c>
    3bae:	ba 01       	movw	r22, r20
    3bb0:	e0 e0       	ldi	r30, 0x00	; 0
    3bb2:	f0 e0       	ldi	r31, 0x00	; 0
    3bb4:	2a c0       	rjmp	.+84     	; 0x3c0a <malloc+0xd6>
    3bb6:	8d 91       	ld	r24, X+
    3bb8:	9c 91       	ld	r25, X
    3bba:	11 97       	sbiw	r26, 0x01	; 1
    3bbc:	84 17       	cp	r24, r20
    3bbe:	95 07       	cpc	r25, r21
    3bc0:	f9 f4       	brne	.+62     	; 0x3c00 <malloc+0xcc>
    3bc2:	64 17       	cp	r22, r20
    3bc4:	75 07       	cpc	r23, r21
    3bc6:	81 f4       	brne	.+32     	; 0x3be8 <malloc+0xb4>
    3bc8:	12 96       	adiw	r26, 0x02	; 2
    3bca:	8d 91       	ld	r24, X+
    3bcc:	9c 91       	ld	r25, X
    3bce:	13 97       	sbiw	r26, 0x03	; 3
    3bd0:	30 97       	sbiw	r30, 0x00	; 0
    3bd2:	19 f0       	breq	.+6      	; 0x3bda <malloc+0xa6>
    3bd4:	93 83       	std	Z+3, r25	; 0x03
    3bd6:	82 83       	std	Z+2, r24	; 0x02
    3bd8:	04 c0       	rjmp	.+8      	; 0x3be2 <malloc+0xae>
    3bda:	90 93 c6 02 	sts	0x02C6, r25
    3bde:	80 93 c5 02 	sts	0x02C5, r24
    3be2:	fd 01       	movw	r30, r26
    3be4:	32 96       	adiw	r30, 0x02	; 2
    3be6:	4f c0       	rjmp	.+158    	; 0x3c86 <malloc+0x152>
    3be8:	ca 01       	movw	r24, r20
    3bea:	86 1b       	sub	r24, r22
    3bec:	97 0b       	sbc	r25, r23
    3bee:	fd 01       	movw	r30, r26
    3bf0:	e8 0f       	add	r30, r24
    3bf2:	f9 1f       	adc	r31, r25
    3bf4:	61 93       	st	Z+, r22
    3bf6:	71 93       	st	Z+, r23
    3bf8:	02 97       	sbiw	r24, 0x02	; 2
    3bfa:	8d 93       	st	X+, r24
    3bfc:	9c 93       	st	X, r25
    3bfe:	43 c0       	rjmp	.+134    	; 0x3c86 <malloc+0x152>
    3c00:	fd 01       	movw	r30, r26
    3c02:	82 81       	ldd	r24, Z+2	; 0x02
    3c04:	93 81       	ldd	r25, Z+3	; 0x03
    3c06:	9c 01       	movw	r18, r24
    3c08:	d9 01       	movw	r26, r18
    3c0a:	10 97       	sbiw	r26, 0x00	; 0
    3c0c:	a1 f6       	brne	.-88     	; 0x3bb6 <malloc+0x82>
    3c0e:	80 91 c3 02 	lds	r24, 0x02C3
    3c12:	90 91 c4 02 	lds	r25, 0x02C4
    3c16:	89 2b       	or	r24, r25
    3c18:	41 f4       	brne	.+16     	; 0x3c2a <malloc+0xf6>
    3c1a:	80 91 4b 02 	lds	r24, 0x024B
    3c1e:	90 91 4c 02 	lds	r25, 0x024C
    3c22:	90 93 c4 02 	sts	0x02C4, r25
    3c26:	80 93 c3 02 	sts	0x02C3, r24
    3c2a:	40 91 4d 02 	lds	r20, 0x024D
    3c2e:	50 91 4e 02 	lds	r21, 0x024E
    3c32:	41 15       	cp	r20, r1
    3c34:	51 05       	cpc	r21, r1
    3c36:	41 f4       	brne	.+16     	; 0x3c48 <malloc+0x114>
    3c38:	4d b7       	in	r20, 0x3d	; 61
    3c3a:	5e b7       	in	r21, 0x3e	; 62
    3c3c:	80 91 49 02 	lds	r24, 0x0249
    3c40:	90 91 4a 02 	lds	r25, 0x024A
    3c44:	48 1b       	sub	r20, r24
    3c46:	59 0b       	sbc	r21, r25
    3c48:	20 91 c3 02 	lds	r18, 0x02C3
    3c4c:	30 91 c4 02 	lds	r19, 0x02C4
    3c50:	24 17       	cp	r18, r20
    3c52:	35 07       	cpc	r19, r21
    3c54:	b0 f4       	brcc	.+44     	; 0x3c82 <malloc+0x14e>
    3c56:	ca 01       	movw	r24, r20
    3c58:	82 1b       	sub	r24, r18
    3c5a:	93 0b       	sbc	r25, r19
    3c5c:	86 17       	cp	r24, r22
    3c5e:	97 07       	cpc	r25, r23
    3c60:	80 f0       	brcs	.+32     	; 0x3c82 <malloc+0x14e>
    3c62:	ab 01       	movw	r20, r22
    3c64:	4e 5f       	subi	r20, 0xFE	; 254
    3c66:	5f 4f       	sbci	r21, 0xFF	; 255
    3c68:	84 17       	cp	r24, r20
    3c6a:	95 07       	cpc	r25, r21
    3c6c:	50 f0       	brcs	.+20     	; 0x3c82 <malloc+0x14e>
    3c6e:	42 0f       	add	r20, r18
    3c70:	53 1f       	adc	r21, r19
    3c72:	50 93 c4 02 	sts	0x02C4, r21
    3c76:	40 93 c3 02 	sts	0x02C3, r20
    3c7a:	f9 01       	movw	r30, r18
    3c7c:	61 93       	st	Z+, r22
    3c7e:	71 93       	st	Z+, r23
    3c80:	02 c0       	rjmp	.+4      	; 0x3c86 <malloc+0x152>
    3c82:	e0 e0       	ldi	r30, 0x00	; 0
    3c84:	f0 e0       	ldi	r31, 0x00	; 0
    3c86:	cf 01       	movw	r24, r30
    3c88:	df 91       	pop	r29
    3c8a:	cf 91       	pop	r28
    3c8c:	08 95       	ret

00003c8e <free>:
    3c8e:	cf 93       	push	r28
    3c90:	df 93       	push	r29
    3c92:	00 97       	sbiw	r24, 0x00	; 0
    3c94:	09 f4       	brne	.+2      	; 0x3c98 <free+0xa>
    3c96:	50 c0       	rjmp	.+160    	; 0x3d38 <free+0xaa>
    3c98:	ec 01       	movw	r28, r24
    3c9a:	22 97       	sbiw	r28, 0x02	; 2
    3c9c:	1b 82       	std	Y+3, r1	; 0x03
    3c9e:	1a 82       	std	Y+2, r1	; 0x02
    3ca0:	a0 91 c5 02 	lds	r26, 0x02C5
    3ca4:	b0 91 c6 02 	lds	r27, 0x02C6
    3ca8:	10 97       	sbiw	r26, 0x00	; 0
    3caa:	09 f1       	breq	.+66     	; 0x3cee <free+0x60>
    3cac:	40 e0       	ldi	r20, 0x00	; 0
    3cae:	50 e0       	ldi	r21, 0x00	; 0
    3cb0:	ac 17       	cp	r26, r28
    3cb2:	bd 07       	cpc	r27, r29
    3cb4:	08 f1       	brcs	.+66     	; 0x3cf8 <free+0x6a>
    3cb6:	bb 83       	std	Y+3, r27	; 0x03
    3cb8:	aa 83       	std	Y+2, r26	; 0x02
    3cba:	fe 01       	movw	r30, r28
    3cbc:	21 91       	ld	r18, Z+
    3cbe:	31 91       	ld	r19, Z+
    3cc0:	e2 0f       	add	r30, r18
    3cc2:	f3 1f       	adc	r31, r19
    3cc4:	ae 17       	cp	r26, r30
    3cc6:	bf 07       	cpc	r27, r31
    3cc8:	79 f4       	brne	.+30     	; 0x3ce8 <free+0x5a>
    3cca:	8d 91       	ld	r24, X+
    3ccc:	9c 91       	ld	r25, X
    3cce:	11 97       	sbiw	r26, 0x01	; 1
    3cd0:	28 0f       	add	r18, r24
    3cd2:	39 1f       	adc	r19, r25
    3cd4:	2e 5f       	subi	r18, 0xFE	; 254
    3cd6:	3f 4f       	sbci	r19, 0xFF	; 255
    3cd8:	39 83       	std	Y+1, r19	; 0x01
    3cda:	28 83       	st	Y, r18
    3cdc:	12 96       	adiw	r26, 0x02	; 2
    3cde:	8d 91       	ld	r24, X+
    3ce0:	9c 91       	ld	r25, X
    3ce2:	13 97       	sbiw	r26, 0x03	; 3
    3ce4:	9b 83       	std	Y+3, r25	; 0x03
    3ce6:	8a 83       	std	Y+2, r24	; 0x02
    3ce8:	41 15       	cp	r20, r1
    3cea:	51 05       	cpc	r21, r1
    3cec:	71 f4       	brne	.+28     	; 0x3d0a <free+0x7c>
    3cee:	d0 93 c6 02 	sts	0x02C6, r29
    3cf2:	c0 93 c5 02 	sts	0x02C5, r28
    3cf6:	20 c0       	rjmp	.+64     	; 0x3d38 <free+0xaa>
    3cf8:	12 96       	adiw	r26, 0x02	; 2
    3cfa:	8d 91       	ld	r24, X+
    3cfc:	9c 91       	ld	r25, X
    3cfe:	13 97       	sbiw	r26, 0x03	; 3
    3d00:	ad 01       	movw	r20, r26
    3d02:	00 97       	sbiw	r24, 0x00	; 0
    3d04:	11 f0       	breq	.+4      	; 0x3d0a <free+0x7c>
    3d06:	dc 01       	movw	r26, r24
    3d08:	d3 cf       	rjmp	.-90     	; 0x3cb0 <free+0x22>
    3d0a:	fa 01       	movw	r30, r20
    3d0c:	d3 83       	std	Z+3, r29	; 0x03
    3d0e:	c2 83       	std	Z+2, r28	; 0x02
    3d10:	21 91       	ld	r18, Z+
    3d12:	31 91       	ld	r19, Z+
    3d14:	e2 0f       	add	r30, r18
    3d16:	f3 1f       	adc	r31, r19
    3d18:	ce 17       	cp	r28, r30
    3d1a:	df 07       	cpc	r29, r31
    3d1c:	69 f4       	brne	.+26     	; 0x3d38 <free+0xaa>
    3d1e:	88 81       	ld	r24, Y
    3d20:	99 81       	ldd	r25, Y+1	; 0x01
    3d22:	28 0f       	add	r18, r24
    3d24:	39 1f       	adc	r19, r25
    3d26:	2e 5f       	subi	r18, 0xFE	; 254
    3d28:	3f 4f       	sbci	r19, 0xFF	; 255
    3d2a:	fa 01       	movw	r30, r20
    3d2c:	31 83       	std	Z+1, r19	; 0x01
    3d2e:	20 83       	st	Z, r18
    3d30:	8a 81       	ldd	r24, Y+2	; 0x02
    3d32:	9b 81       	ldd	r25, Y+3	; 0x03
    3d34:	93 83       	std	Z+3, r25	; 0x03
    3d36:	82 83       	std	Z+2, r24	; 0x02
    3d38:	df 91       	pop	r29
    3d3a:	cf 91       	pop	r28
    3d3c:	08 95       	ret

00003d3e <fdevopen>:
    3d3e:	0f 93       	push	r16
    3d40:	1f 93       	push	r17
    3d42:	cf 93       	push	r28
    3d44:	df 93       	push	r29
    3d46:	8c 01       	movw	r16, r24
    3d48:	eb 01       	movw	r28, r22
    3d4a:	00 97       	sbiw	r24, 0x00	; 0
    3d4c:	31 f4       	brne	.+12     	; 0x3d5a <fdevopen+0x1c>
    3d4e:	61 15       	cp	r22, r1
    3d50:	71 05       	cpc	r23, r1
    3d52:	19 f4       	brne	.+6      	; 0x3d5a <fdevopen+0x1c>
    3d54:	20 e0       	ldi	r18, 0x00	; 0
    3d56:	30 e0       	ldi	r19, 0x00	; 0
    3d58:	38 c0       	rjmp	.+112    	; 0x3dca <fdevopen+0x8c>
    3d5a:	81 e0       	ldi	r24, 0x01	; 1
    3d5c:	90 e0       	ldi	r25, 0x00	; 0
    3d5e:	6e e0       	ldi	r22, 0x0E	; 14
    3d60:	70 e0       	ldi	r23, 0x00	; 0
    3d62:	0e 94 eb 1e 	call	0x3dd6	; 0x3dd6 <calloc>
    3d66:	fc 01       	movw	r30, r24
    3d68:	9c 01       	movw	r18, r24
    3d6a:	00 97       	sbiw	r24, 0x00	; 0
    3d6c:	71 f1       	breq	.+92     	; 0x3dca <fdevopen+0x8c>
    3d6e:	80 e8       	ldi	r24, 0x80	; 128
    3d70:	83 83       	std	Z+3, r24	; 0x03
    3d72:	20 97       	sbiw	r28, 0x00	; 0
    3d74:	71 f0       	breq	.+28     	; 0x3d92 <fdevopen+0x54>
    3d76:	d3 87       	std	Z+11, r29	; 0x0b
    3d78:	c2 87       	std	Z+10, r28	; 0x0a
    3d7a:	81 e8       	ldi	r24, 0x81	; 129
    3d7c:	83 83       	std	Z+3, r24	; 0x03
    3d7e:	80 91 c7 02 	lds	r24, 0x02C7
    3d82:	90 91 c8 02 	lds	r25, 0x02C8
    3d86:	89 2b       	or	r24, r25
    3d88:	21 f4       	brne	.+8      	; 0x3d92 <fdevopen+0x54>
    3d8a:	f0 93 c8 02 	sts	0x02C8, r31
    3d8e:	e0 93 c7 02 	sts	0x02C7, r30
    3d92:	01 15       	cp	r16, r1
    3d94:	11 05       	cpc	r17, r1
    3d96:	c9 f0       	breq	.+50     	; 0x3dca <fdevopen+0x8c>
    3d98:	11 87       	std	Z+9, r17	; 0x09
    3d9a:	00 87       	std	Z+8, r16	; 0x08
    3d9c:	83 81       	ldd	r24, Z+3	; 0x03
    3d9e:	82 60       	ori	r24, 0x02	; 2
    3da0:	83 83       	std	Z+3, r24	; 0x03
    3da2:	80 91 c9 02 	lds	r24, 0x02C9
    3da6:	90 91 ca 02 	lds	r25, 0x02CA
    3daa:	89 2b       	or	r24, r25
    3dac:	71 f4       	brne	.+28     	; 0x3dca <fdevopen+0x8c>
    3dae:	f0 93 ca 02 	sts	0x02CA, r31
    3db2:	e0 93 c9 02 	sts	0x02C9, r30
    3db6:	80 91 cb 02 	lds	r24, 0x02CB
    3dba:	90 91 cc 02 	lds	r25, 0x02CC
    3dbe:	89 2b       	or	r24, r25
    3dc0:	21 f4       	brne	.+8      	; 0x3dca <fdevopen+0x8c>
    3dc2:	f0 93 cc 02 	sts	0x02CC, r31
    3dc6:	e0 93 cb 02 	sts	0x02CB, r30
    3dca:	c9 01       	movw	r24, r18
    3dcc:	df 91       	pop	r29
    3dce:	cf 91       	pop	r28
    3dd0:	1f 91       	pop	r17
    3dd2:	0f 91       	pop	r16
    3dd4:	08 95       	ret

00003dd6 <calloc>:
    3dd6:	0f 93       	push	r16
    3dd8:	1f 93       	push	r17
    3dda:	cf 93       	push	r28
    3ddc:	df 93       	push	r29
    3dde:	68 9f       	mul	r22, r24
    3de0:	80 01       	movw	r16, r0
    3de2:	69 9f       	mul	r22, r25
    3de4:	10 0d       	add	r17, r0
    3de6:	78 9f       	mul	r23, r24
    3de8:	10 0d       	add	r17, r0
    3dea:	11 24       	eor	r1, r1
    3dec:	c8 01       	movw	r24, r16
    3dee:	0e 94 9a 1d 	call	0x3b34	; 0x3b34 <malloc>
    3df2:	ec 01       	movw	r28, r24
    3df4:	00 97       	sbiw	r24, 0x00	; 0
    3df6:	29 f0       	breq	.+10     	; 0x3e02 <calloc+0x2c>
    3df8:	60 e0       	ldi	r22, 0x00	; 0
    3dfa:	70 e0       	ldi	r23, 0x00	; 0
    3dfc:	a8 01       	movw	r20, r16
    3dfe:	0e 94 07 1f 	call	0x3e0e	; 0x3e0e <memset>
    3e02:	ce 01       	movw	r24, r28
    3e04:	df 91       	pop	r29
    3e06:	cf 91       	pop	r28
    3e08:	1f 91       	pop	r17
    3e0a:	0f 91       	pop	r16
    3e0c:	08 95       	ret

00003e0e <memset>:
    3e0e:	dc 01       	movw	r26, r24
    3e10:	01 c0       	rjmp	.+2      	; 0x3e14 <memset+0x6>
    3e12:	6d 93       	st	X+, r22
    3e14:	41 50       	subi	r20, 0x01	; 1
    3e16:	50 40       	sbci	r21, 0x00	; 0
    3e18:	e0 f7       	brcc	.-8      	; 0x3e12 <memset+0x4>
    3e1a:	08 95       	ret

00003e1c <__do_global_dtors>:
    3e1c:	10 e0       	ldi	r17, 0x00	; 0
    3e1e:	c2 e8       	ldi	r28, 0x82	; 130
    3e20:	d0 e0       	ldi	r29, 0x00	; 0
    3e22:	04 c0       	rjmp	.+8      	; 0x3e2c <.do_global_dtors_start>

00003e24 <.do_global_dtors_loop>:
    3e24:	fe 01       	movw	r30, r28
    3e26:	0e 94 96 1d 	call	0x3b2c	; 0x3b2c <__tablejump__>
    3e2a:	22 96       	adiw	r28, 0x02	; 2

00003e2c <.do_global_dtors_start>:
    3e2c:	c4 38       	cpi	r28, 0x84	; 132
    3e2e:	d1 07       	cpc	r29, r17
    3e30:	c9 f7       	brne	.-14     	; 0x3e24 <.do_global_dtors_loop>
    3e32:	f8 94       	cli

00003e34 <__stop_program>:
    3e34:	ff cf       	rjmp	.-2      	; 0x3e34 <__stop_program>
