
bomb-squad.elf:     file format elf32-avr

Sections:
Idx Name          Size      VMA       LMA       File off  Algn
  0 .data         00000136  00800100  00002ee8  00002f7c  2**0
                  CONTENTS, ALLOC, LOAD, DATA
  1 .text         00002ee8  00000000  00000000  00000094  2**1
                  CONTENTS, ALLOC, LOAD, READONLY, CODE
  2 .bss          00000035  00800236  00800236  000030b2  2**0
                  ALLOC
  3 .debug_aranges 00000640  00000000  00000000  000030b2  2**0
                  CONTENTS, READONLY, DEBUGGING
  4 .debug_pubnames 000013be  00000000  00000000  000036f2  2**0
                  CONTENTS, READONLY, DEBUGGING
  5 .debug_info   00004aff  00000000  00000000  00004ab0  2**0
                  CONTENTS, READONLY, DEBUGGING
  6 .debug_abbrev 00001db6  00000000  00000000  000095af  2**0
                  CONTENTS, READONLY, DEBUGGING
  7 .debug_line   000039f4  00000000  00000000  0000b365  2**0
                  CONTENTS, READONLY, DEBUGGING
  8 .debug_frame  00000bd0  00000000  00000000  0000ed5c  2**2
                  CONTENTS, READONLY, DEBUGGING
  9 .debug_str    00001f70  00000000  00000000  0000f92c  2**0
                  CONTENTS, READONLY, DEBUGGING
 10 .debug_loc    00002140  00000000  00000000  0001189c  2**0
                  CONTENTS, READONLY, DEBUGGING
 11 .debug_ranges 00000570  00000000  00000000  000139dc  2**0
                  CONTENTS, READONLY, DEBUGGING

Disassembly of section .text:

00000000 <__vectors>:
       0:	0c 94 40 00 	jmp	0x80	; 0x80 <__ctors_end>
       4:	0c 94 5d 00 	jmp	0xba	; 0xba <__bad_interrupt>
       8:	0c 94 5d 00 	jmp	0xba	; 0xba <__bad_interrupt>
       c:	0c 94 5d 00 	jmp	0xba	; 0xba <__bad_interrupt>
      10:	0c 94 5d 00 	jmp	0xba	; 0xba <__bad_interrupt>
      14:	0c 94 5d 00 	jmp	0xba	; 0xba <__bad_interrupt>
      18:	0c 94 5d 00 	jmp	0xba	; 0xba <__bad_interrupt>
      1c:	0c 94 5d 00 	jmp	0xba	; 0xba <__bad_interrupt>
      20:	0c 94 5d 00 	jmp	0xba	; 0xba <__bad_interrupt>
      24:	0c 94 3a 14 	jmp	0x2874	; 0x2874 <__vector_9>
      28:	0c 94 5d 00 	jmp	0xba	; 0xba <__bad_interrupt>
      2c:	0c 94 5d 00 	jmp	0xba	; 0xba <__bad_interrupt>
      30:	0c 94 5d 00 	jmp	0xba	; 0xba <__bad_interrupt>
      34:	0c 94 b7 0c 	jmp	0x196e	; 0x196e <__vector_13>
      38:	0c 94 5d 00 	jmp	0xba	; 0xba <__bad_interrupt>
      3c:	0c 94 5d 00 	jmp	0xba	; 0xba <__bad_interrupt>
      40:	0c 94 5d 00 	jmp	0xba	; 0xba <__bad_interrupt>
      44:	0c 94 5d 00 	jmp	0xba	; 0xba <__bad_interrupt>
      48:	0c 94 5d 00 	jmp	0xba	; 0xba <__bad_interrupt>
      4c:	0c 94 5d 00 	jmp	0xba	; 0xba <__bad_interrupt>
      50:	0c 94 5d 00 	jmp	0xba	; 0xba <__bad_interrupt>
      54:	0c 94 5d 00 	jmp	0xba	; 0xba <__bad_interrupt>
      58:	0c 94 5d 00 	jmp	0xba	; 0xba <__bad_interrupt>
      5c:	0c 94 5d 00 	jmp	0xba	; 0xba <__bad_interrupt>
      60:	0c 94 5d 00 	jmp	0xba	; 0xba <__bad_interrupt>
      64:	0c 94 5d 00 	jmp	0xba	; 0xba <__bad_interrupt>
      68:	d7 09       	sbc	r29, r7
      6a:	dd 09       	sbc	r29, r13
      6c:	e0 09       	sbc	r30, r0
      6e:	e3 09       	sbc	r30, r3
      70:	e6 09       	sbc	r30, r6
      72:	e9 09       	sbc	r30, r9
      74:	ec 09       	sbc	r30, r12
      76:	ef 09       	sbc	r30, r15
      78:	f2 09       	sbc	r31, r2
      7a:	f5 09       	sbc	r31, r5
      7c:	f8 09       	sbc	r31, r8
      7e:	fb 09       	sbc	r31, r11

00000080 <__ctors_end>:
      80:	11 24       	eor	r1, r1
      82:	1f be       	out	0x3f, r1	; 63
      84:	cf ef       	ldi	r28, 0xFF	; 255
      86:	d4 e0       	ldi	r29, 0x04	; 4
      88:	de bf       	out	0x3e, r29	; 62
      8a:	cd bf       	out	0x3d, r28	; 61

0000008c <__do_copy_data>:
      8c:	12 e0       	ldi	r17, 0x02	; 2
      8e:	a0 e0       	ldi	r26, 0x00	; 0
      90:	b1 e0       	ldi	r27, 0x01	; 1
      92:	e8 ee       	ldi	r30, 0xE8	; 232
      94:	fe e2       	ldi	r31, 0x2E	; 46
      96:	02 c0       	rjmp	.+4      	; 0x9c <.do_copy_data_start>

00000098 <.do_copy_data_loop>:
      98:	05 90       	lpm	r0, Z+
      9a:	0d 92       	st	X+, r0

0000009c <.do_copy_data_start>:
      9c:	a6 33       	cpi	r26, 0x36	; 54
      9e:	b1 07       	cpc	r27, r17
      a0:	d9 f7       	brne	.-10     	; 0x98 <.do_copy_data_loop>

000000a2 <__do_clear_bss>:
      a2:	12 e0       	ldi	r17, 0x02	; 2
      a4:	a6 e3       	ldi	r26, 0x36	; 54
      a6:	b2 e0       	ldi	r27, 0x02	; 2
      a8:	01 c0       	rjmp	.+2      	; 0xac <.do_clear_bss_start>

000000aa <.do_clear_bss_loop>:
      aa:	1d 92       	st	X+, r1

000000ac <.do_clear_bss_start>:
      ac:	ab 36       	cpi	r26, 0x6B	; 107
      ae:	b1 07       	cpc	r27, r17
      b0:	e1 f7       	brne	.-8      	; 0xaa <.do_clear_bss_loop>
      b2:	0e 94 97 02 	call	0x52e	; 0x52e <main>
      b6:	0c 94 72 17 	jmp	0x2ee4	; 0x2ee4 <_exit>

000000ba <__bad_interrupt>:
      ba:	0c 94 00 00 	jmp	0	; 0x0 <__vectors>

000000be <init_sensors>:
static inline void set_analog_mode(unsigned char mode)
{
	if (mode == MODE_10_BIT)
		ADMUX &= ~(1 << ADLAR);	// right-adjust result (ADC has result)
	else
		ADMUX |= 1 << ADLAR;		// left-adjust result (ADCH has result)	
      be:	ec e7       	ldi	r30, 0x7C	; 124
      c0:	f0 e0       	ldi	r31, 0x00	; 0
      c2:	80 81       	ld	r24, Z
      c4:	80 62       	ori	r24, 0x20	; 32
      c6:	80 83       	st	Z, r24
//Initializes the digital sensors
//MODE_8_BIT => 0=far away, 150=close
void init_sensors()
{
	set_analog_mode(MODE_8_BIT);
	DDRC &= ~(1<< PORTC5);
      c8:	3d 98       	cbi	0x07, 5	; 7
	PORTC &= ~(1<< PORTC5);
      ca:	45 98       	cbi	0x08, 5	; 8
}
      cc:	08 95       	ret

000000ce <read_right>:
}

//Read right sensor data
int read_right()
{
	return analog_read(SENSOR_RIGHT);
      ce:	85 e0       	ldi	r24, 0x05	; 5
      d0:	0e 94 2c 07 	call	0xe58	; 0xe58 <analog_read>
}
      d4:	08 95       	ret

000000d6 <read_left>:
}

//Read left sensor data
int read_left()
{
	return analog_read(SENSOR_LEFT);
      d6:	86 e0       	ldi	r24, 0x06	; 6
      d8:	0e 94 2c 07 	call	0xe58	; 0xe58 <analog_read>
}
      dc:	08 95       	ret

000000de <read_front>:
}

//Read forward sensor data
int read_front()
{
	return analog_read(SENSOR_FRONT);
      de:	87 e0       	ldi	r24, 0x07	; 7
      e0:	0e 94 2c 07 	call	0xe58	; 0xe58 <analog_read>
}
      e4:	08 95       	ret

000000e6 <read_sensor>:
	}
}

int read_sensor(int sensor)
{
	return analog_read(sensor);
      e6:	0e 94 2c 07 	call	0xe58	; 0xe58 <analog_read>
}
      ea:	08 95       	ret

000000ec <turn_left_in_place>:
}

// Turn to the left in place
void turn_left_in_place()
{
	set_motors(-50, 50);
      ec:	8e ec       	ldi	r24, 0xCE	; 206
      ee:	9f ef       	ldi	r25, 0xFF	; 255
      f0:	62 e3       	ldi	r22, 0x32	; 50
      f2:	70 e0       	ldi	r23, 0x00	; 0
      f4:	0e 94 2d 12 	call	0x245a	; 0x245a <set_motors>
}
      f8:	08 95       	ret

000000fa <turn_right_in_place>:
}

// Turn to the right in place
void turn_right_in_place()
{
	set_motors(50, -50);
      fa:	82 e3       	ldi	r24, 0x32	; 50
      fc:	90 e0       	ldi	r25, 0x00	; 0
      fe:	6e ec       	ldi	r22, 0xCE	; 206
     100:	7f ef       	ldi	r23, 0xFF	; 255
     102:	0e 94 2d 12 	call	0x245a	; 0x245a <set_motors>
}
     106:	08 95       	ret

00000108 <back_up_right>:
}

// Back up slightly to the right
void back_up_right()
{
	set_motors(-90,-50);
     108:	86 ea       	ldi	r24, 0xA6	; 166
     10a:	9f ef       	ldi	r25, 0xFF	; 255
     10c:	6e ec       	ldi	r22, 0xCE	; 206
     10e:	7f ef       	ldi	r23, 0xFF	; 255
     110:	0e 94 2d 12 	call	0x245a	; 0x245a <set_motors>
}
     114:	08 95       	ret

00000116 <back_up_left>:
}

// Back up slightly to the left
void back_up_left()
{
	set_motors(-50,-90);
     116:	8e ec       	ldi	r24, 0xCE	; 206
     118:	9f ef       	ldi	r25, 0xFF	; 255
     11a:	66 ea       	ldi	r22, 0xA6	; 166
     11c:	7f ef       	ldi	r23, 0xFF	; 255
     11e:	0e 94 2d 12 	call	0x245a	; 0x245a <set_motors>
}
     122:	08 95       	ret

00000124 <halt>:
}

//Stop both motors
void halt()
{
	set_motors(0,0);
     124:	80 e0       	ldi	r24, 0x00	; 0
     126:	90 e0       	ldi	r25, 0x00	; 0
     128:	60 e0       	ldi	r22, 0x00	; 0
     12a:	70 e0       	ldi	r23, 0x00	; 0
     12c:	0e 94 2d 12 	call	0x245a	; 0x245a <set_motors>
}
     130:	08 95       	ret

00000132 <print_num_xy>:
	lcd_goto_xy(row,col);
	print(message);
}

void print_num_xy( int row, int col, long num, int doClear)
{
     132:	af 92       	push	r10
     134:	bf 92       	push	r11
     136:	cf 92       	push	r12
     138:	df 92       	push	r13
     13a:	ef 92       	push	r14
     13c:	ff 92       	push	r15
     13e:	0f 93       	push	r16
     140:	1f 93       	push	r17
     142:	b8 2e       	mov	r11, r24
     144:	a6 2e       	mov	r10, r22
     146:	69 01       	movw	r12, r18
     148:	7a 01       	movw	r14, r20
	if(doClear)
     14a:	01 2b       	or	r16, r17
     14c:	11 f0       	breq	.+4      	; 0x152 <print_num_xy+0x20>
	{
		clear();
     14e:	0e 94 ff 0e 	call	0x1dfe	; 0x1dfe <clear>
	}
	lcd_goto_xy(row,col);
     152:	8b 2d       	mov	r24, r11
     154:	6a 2d       	mov	r22, r10
     156:	0e 94 cf 0e 	call	0x1d9e	; 0x1d9e <lcd_goto_xy>
	print_long(num);
     15a:	c7 01       	movw	r24, r14
     15c:	b6 01       	movw	r22, r12
     15e:	0e 94 ca 0f 	call	0x1f94	; 0x1f94 <print_long>
}
     162:	1f 91       	pop	r17
     164:	0f 91       	pop	r16
     166:	ff 90       	pop	r15
     168:	ef 90       	pop	r14
     16a:	df 90       	pop	r13
     16c:	cf 90       	pop	r12
     16e:	bf 90       	pop	r11
     170:	af 90       	pop	r10
     172:	08 95       	ret

00000174 <print_xy>:
{
	return analog_read(SENSOR_RIGHT);
}

void print_xy( int row, int col, char *message, int doClear)
{
     174:	0f 93       	push	r16
     176:	1f 93       	push	r17
     178:	cf 93       	push	r28
     17a:	df 93       	push	r29
     17c:	18 2f       	mov	r17, r24
     17e:	06 2f       	mov	r16, r22
     180:	ea 01       	movw	r28, r20
	if(doClear)
     182:	23 2b       	or	r18, r19
     184:	11 f0       	breq	.+4      	; 0x18a <print_xy+0x16>
	{
		clear();
     186:	0e 94 ff 0e 	call	0x1dfe	; 0x1dfe <clear>
	}
	lcd_goto_xy(row,col);
     18a:	81 2f       	mov	r24, r17
     18c:	60 2f       	mov	r22, r16
     18e:	0e 94 cf 0e 	call	0x1d9e	; 0x1d9e <lcd_goto_xy>
	print(message);
     192:	ce 01       	movw	r24, r28
     194:	0e 94 eb 0f 	call	0x1fd6	; 0x1fd6 <print>
}
     198:	df 91       	pop	r29
     19a:	cf 91       	pop	r28
     19c:	1f 91       	pop	r17
     19e:	0f 91       	pop	r16
     1a0:	08 95       	ret

000001a2 <count_down>:
	return pdata;
}

//Display a countdown for count, increment by one second
void count_down(int count)
{
     1a2:	af 92       	push	r10
     1a4:	bf 92       	push	r11
     1a6:	cf 92       	push	r12
     1a8:	df 92       	push	r13
     1aa:	ef 92       	push	r14
     1ac:	ff 92       	push	r15
     1ae:	0f 93       	push	r16
     1b0:	1f 93       	push	r17
     1b2:	cf 93       	push	r28
     1b4:	df 93       	push	r29
     1b6:	ec 01       	movw	r28, r24
	clear();
     1b8:	0e 94 ff 0e 	call	0x1dfe	; 0x1dfe <clear>
     1bc:	ee 24       	eor	r14, r14
     1be:	ff 24       	eor	r15, r15
     1c0:	87 01       	movw	r16, r14
	while(count > 0)
	{
		lcd_goto_xy(0,0);
		print_long(count);
     1c2:	5e 01       	movw	r10, r28
     1c4:	cc 24       	eor	r12, r12
     1c6:	b7 fc       	sbrc	r11, 7
     1c8:	c0 94       	com	r12
     1ca:	dc 2c       	mov	r13, r12
     1cc:	17 c0       	rjmp	.+46     	; 0x1fc <count_down+0x5a>
void count_down(int count)
{
	clear();
	while(count > 0)
	{
		lcd_goto_xy(0,0);
     1ce:	80 e0       	ldi	r24, 0x00	; 0
     1d0:	60 e0       	ldi	r22, 0x00	; 0
     1d2:	0e 94 cf 0e 	call	0x1d9e	; 0x1d9e <lcd_goto_xy>
		print_long(count);
     1d6:	c8 01       	movw	r24, r16
     1d8:	b7 01       	movw	r22, r14
     1da:	6a 0d       	add	r22, r10
     1dc:	7b 1d       	adc	r23, r11
     1de:	8c 1d       	adc	r24, r12
     1e0:	9d 1d       	adc	r25, r13
     1e2:	0e 94 ca 0f 	call	0x1f94	; 0x1f94 <print_long>
		delay_ms(1000);
     1e6:	88 ee       	ldi	r24, 0xE8	; 232
     1e8:	93 e0       	ldi	r25, 0x03	; 3
     1ea:	0e 94 74 14 	call	0x28e8	; 0x28e8 <delay_ms>
		clear();
     1ee:	0e 94 ff 0e 	call	0x1dfe	; 0x1dfe <clear>
     1f2:	08 94       	sec
     1f4:	e1 08       	sbc	r14, r1
     1f6:	f1 08       	sbc	r15, r1
     1f8:	01 09       	sbc	r16, r1
     1fa:	11 09       	sbc	r17, r1
	return pdata;
}

//Display a countdown for count, increment by one second
void count_down(int count)
{
     1fc:	ce 01       	movw	r24, r28
     1fe:	8e 0d       	add	r24, r14
     200:	9f 1d       	adc	r25, r15
	clear();
	while(count > 0)
     202:	18 16       	cp	r1, r24
     204:	19 06       	cpc	r1, r25
     206:	1c f3       	brlt	.-58     	; 0x1ce <count_down+0x2c>
		print_long(count);
		delay_ms(1000);
		clear();
		count--;
	}
}
     208:	df 91       	pop	r29
     20a:	cf 91       	pop	r28
     20c:	1f 91       	pop	r17
     20e:	0f 91       	pop	r16
     210:	ff 90       	pop	r15
     212:	ef 90       	pop	r14
     214:	df 90       	pop	r13
     216:	cf 90       	pop	r12
     218:	bf 90       	pop	r11
     21a:	af 90       	pop	r10
     21c:	08 95       	ret

0000021e <scan_360>:
	set_motors(-50, 50);
}

//Scans 360 degree and reports an array of distance data
int* scan_360(int sensor)
{
     21e:	ef 92       	push	r14
     220:	ff 92       	push	r15
     222:	0f 93       	push	r16
     224:	1f 93       	push	r17
     226:	df 93       	push	r29
     228:	cf 93       	push	r28
     22a:	cd b7       	in	r28, 0x3d	; 61
     22c:	de b7       	in	r29, 0x3e	; 62
     22e:	e2 97       	sbiw	r28, 0x32	; 50
     230:	0f b6       	in	r0, 0x3f	; 63
     232:	f8 94       	cli
     234:	de bf       	out	0x3e, r29	; 62
     236:	0f be       	out	0x3f, r0	; 63
     238:	cd bf       	out	0x3d, r28	; 61
     23a:	8e 01       	movw	r16, r28
     23c:	0f 5f       	subi	r16, 0xFF	; 255
     23e:	1f 4f       	sbci	r17, 0xFF	; 255
	int i, *pdata, data[25];
	int power = 40;

	for(i=0; i<25; i++)
     240:	83 e3       	ldi	r24, 0x33	; 51
     242:	e8 2e       	mov	r14, r24
     244:	f1 2c       	mov	r15, r1
     246:	ec 0e       	add	r14, r28
     248:	fd 1e       	adc	r15, r29
	{
		// rotate LEFT 15 degrees then stop
		int delay = (DELAY_PER_ANGLE_PER_POWER * 15)/power;
		set_motors(-power,power);
     24a:	88 ed       	ldi	r24, 0xD8	; 216
     24c:	9f ef       	ldi	r25, 0xFF	; 255
     24e:	68 e2       	ldi	r22, 0x28	; 40
     250:	70 e0       	ldi	r23, 0x00	; 0
     252:	0e 94 2d 12 	call	0x245a	; 0x245a <set_motors>
		delay_ms(delay);
     256:	82 e5       	ldi	r24, 0x52	; 82
     258:	90 e0       	ldi	r25, 0x00	; 0
     25a:	0e 94 74 14 	call	0x28e8	; 0x28e8 <delay_ms>
		set_motors(0,0);
     25e:	80 e0       	ldi	r24, 0x00	; 0
     260:	90 e0       	ldi	r25, 0x00	; 0
     262:	60 e0       	ldi	r22, 0x00	; 0
     264:	70 e0       	ldi	r23, 0x00	; 0
     266:	0e 94 2d 12 	call	0x245a	; 0x245a <set_motors>

		// scan forward and store value
		data[i] = analog_read(SENSOR_FRONT);
     26a:	87 e0       	ldi	r24, 0x07	; 7
     26c:	0e 94 2c 07 	call	0xe58	; 0xe58 <analog_read>
     270:	f8 01       	movw	r30, r16
     272:	81 93       	st	Z+, r24
     274:	91 93       	st	Z+, r25
     276:	8f 01       	movw	r16, r30
int* scan_360(int sensor)
{
	int i, *pdata, data[25];
	int power = 40;

	for(i=0; i<25; i++)
     278:	ee 15       	cp	r30, r14
     27a:	ff 05       	cpc	r31, r15
     27c:	31 f7       	brne	.-52     	; 0x24a <scan_360+0x2c>
		data[i] = analog_read(SENSOR_FRONT);
	}

	pdata = &data[0];
	return pdata;
}
     27e:	ce 01       	movw	r24, r28
     280:	01 96       	adiw	r24, 0x01	; 1
     282:	e2 96       	adiw	r28, 0x32	; 50
     284:	0f b6       	in	r0, 0x3f	; 63
     286:	f8 94       	cli
     288:	de bf       	out	0x3e, r29	; 62
     28a:	0f be       	out	0x3f, r0	; 63
     28c:	cd bf       	out	0x3d, r28	; 61
     28e:	cf 91       	pop	r28
     290:	df 91       	pop	r29
     292:	1f 91       	pop	r17
     294:	0f 91       	pop	r16
     296:	ff 90       	pop	r15
     298:	ef 90       	pop	r14
     29a:	08 95       	ret

0000029c <turn_right>:
	set_motors(0,0);
}

//Turn the robot to right
void turn_right(int power, int angle)
{
     29c:	af 92       	push	r10
     29e:	bf 92       	push	r11
     2a0:	cf 92       	push	r12
     2a2:	df 92       	push	r13
     2a4:	ef 92       	push	r14
     2a6:	ff 92       	push	r15
     2a8:	0f 93       	push	r16
     2aa:	1f 93       	push	r17
     2ac:	5c 01       	movw	r10, r24
     2ae:	7b 01       	movw	r14, r22
	int delay = (DELAY_PER_ANGLE_PER_POWER * angle)/power;

	set_motors(power,-power);
     2b0:	66 27       	eor	r22, r22
     2b2:	77 27       	eor	r23, r23
     2b4:	68 1b       	sub	r22, r24
     2b6:	79 0b       	sbc	r23, r25
     2b8:	0e 94 2d 12 	call	0x245a	; 0x245a <set_motors>
	delay_ms(delay);
     2bc:	00 27       	eor	r16, r16
     2be:	f7 fc       	sbrc	r15, 7
     2c0:	00 95       	com	r16
     2c2:	10 2f       	mov	r17, r16
     2c4:	c8 01       	movw	r24, r16
     2c6:	b7 01       	movw	r22, r14
     2c8:	0e 94 85 04 	call	0x90a	; 0x90a <__floatsisf>
     2cc:	28 e4       	ldi	r18, 0x48	; 72
     2ce:	31 ee       	ldi	r19, 0xE1	; 225
     2d0:	4a e5       	ldi	r20, 0x5A	; 90
     2d2:	53 e4       	ldi	r21, 0x43	; 67
     2d4:	0e 94 df 02 	call	0x5be	; 0x5be <__mulsf3>
     2d8:	7b 01       	movw	r14, r22
     2da:	8c 01       	movw	r16, r24
     2dc:	cc 24       	eor	r12, r12
     2de:	b7 fc       	sbrc	r11, 7
     2e0:	c0 94       	com	r12
     2e2:	dc 2c       	mov	r13, r12
     2e4:	c6 01       	movw	r24, r12
     2e6:	b5 01       	movw	r22, r10
     2e8:	0e 94 85 04 	call	0x90a	; 0x90a <__floatsisf>
     2ec:	9b 01       	movw	r18, r22
     2ee:	ac 01       	movw	r20, r24
     2f0:	c8 01       	movw	r24, r16
     2f2:	b7 01       	movw	r22, r14
     2f4:	0e 94 d9 03 	call	0x7b2	; 0x7b2 <__divsf3>
     2f8:	0e 94 e3 04 	call	0x9c6	; 0x9c6 <__fixsfsi>
     2fc:	dc 01       	movw	r26, r24
     2fe:	cb 01       	movw	r24, r22
     300:	0e 94 74 14 	call	0x28e8	; 0x28e8 <delay_ms>
	set_motors(0,0);
     304:	80 e0       	ldi	r24, 0x00	; 0
     306:	90 e0       	ldi	r25, 0x00	; 0
     308:	60 e0       	ldi	r22, 0x00	; 0
     30a:	70 e0       	ldi	r23, 0x00	; 0
     30c:	0e 94 2d 12 	call	0x245a	; 0x245a <set_motors>
}
     310:	1f 91       	pop	r17
     312:	0f 91       	pop	r16
     314:	ff 90       	pop	r15
     316:	ef 90       	pop	r14
     318:	df 90       	pop	r13
     31a:	cf 90       	pop	r12
     31c:	bf 90       	pop	r11
     31e:	af 90       	pop	r10
     320:	08 95       	ret

00000322 <turn_left>:
	set_motors(0,0);
}

//Turn the robot to left
void turn_left(int power, int angle)
{
     322:	af 92       	push	r10
     324:	bf 92       	push	r11
     326:	cf 92       	push	r12
     328:	df 92       	push	r13
     32a:	ef 92       	push	r14
     32c:	ff 92       	push	r15
     32e:	0f 93       	push	r16
     330:	1f 93       	push	r17
     332:	5c 01       	movw	r10, r24
     334:	7b 01       	movw	r14, r22
	int delay = (DELAY_PER_ANGLE_PER_POWER * angle)/power;

	set_motors(-power,power);
     336:	88 27       	eor	r24, r24
     338:	99 27       	eor	r25, r25
     33a:	8a 19       	sub	r24, r10
     33c:	9b 09       	sbc	r25, r11
     33e:	b5 01       	movw	r22, r10
     340:	0e 94 2d 12 	call	0x245a	; 0x245a <set_motors>
	delay_ms(delay);
     344:	00 27       	eor	r16, r16
     346:	f7 fc       	sbrc	r15, 7
     348:	00 95       	com	r16
     34a:	10 2f       	mov	r17, r16
     34c:	c8 01       	movw	r24, r16
     34e:	b7 01       	movw	r22, r14
     350:	0e 94 85 04 	call	0x90a	; 0x90a <__floatsisf>
     354:	28 e4       	ldi	r18, 0x48	; 72
     356:	31 ee       	ldi	r19, 0xE1	; 225
     358:	4a e5       	ldi	r20, 0x5A	; 90
     35a:	53 e4       	ldi	r21, 0x43	; 67
     35c:	0e 94 df 02 	call	0x5be	; 0x5be <__mulsf3>
     360:	7b 01       	movw	r14, r22
     362:	8c 01       	movw	r16, r24
     364:	cc 24       	eor	r12, r12
     366:	b7 fc       	sbrc	r11, 7
     368:	c0 94       	com	r12
     36a:	dc 2c       	mov	r13, r12
     36c:	c6 01       	movw	r24, r12
     36e:	b5 01       	movw	r22, r10
     370:	0e 94 85 04 	call	0x90a	; 0x90a <__floatsisf>
     374:	9b 01       	movw	r18, r22
     376:	ac 01       	movw	r20, r24
     378:	c8 01       	movw	r24, r16
     37a:	b7 01       	movw	r22, r14
     37c:	0e 94 d9 03 	call	0x7b2	; 0x7b2 <__divsf3>
     380:	0e 94 e3 04 	call	0x9c6	; 0x9c6 <__fixsfsi>
     384:	dc 01       	movw	r26, r24
     386:	cb 01       	movw	r24, r22
     388:	0e 94 74 14 	call	0x28e8	; 0x28e8 <delay_ms>
	set_motors(0,0);
     38c:	80 e0       	ldi	r24, 0x00	; 0
     38e:	90 e0       	ldi	r25, 0x00	; 0
     390:	60 e0       	ldi	r22, 0x00	; 0
     392:	70 e0       	ldi	r23, 0x00	; 0
     394:	0e 94 2d 12 	call	0x245a	; 0x245a <set_motors>
}
     398:	1f 91       	pop	r17
     39a:	0f 91       	pop	r16
     39c:	ff 90       	pop	r15
     39e:	ef 90       	pop	r14
     3a0:	df 90       	pop	r13
     3a2:	cf 90       	pop	r12
     3a4:	bf 90       	pop	r11
     3a6:	af 90       	pop	r10
     3a8:	08 95       	ret

000003aa <dash>:
	set_motors(0,0);
}

//Dash forward
void dash(int power, int delay)
{
     3aa:	0f 93       	push	r16
     3ac:	1f 93       	push	r17
     3ae:	9c 01       	movw	r18, r24
     3b0:	8b 01       	movw	r16, r22
	set_motors(power,power);
     3b2:	b9 01       	movw	r22, r18
     3b4:	0e 94 2d 12 	call	0x245a	; 0x245a <set_motors>
	delay_ms(delay);
     3b8:	c8 01       	movw	r24, r16
     3ba:	0e 94 74 14 	call	0x28e8	; 0x28e8 <delay_ms>
	set_motors(0,0);
     3be:	80 e0       	ldi	r24, 0x00	; 0
     3c0:	90 e0       	ldi	r25, 0x00	; 0
     3c2:	60 e0       	ldi	r22, 0x00	; 0
     3c4:	70 e0       	ldi	r23, 0x00	; 0
     3c6:	0e 94 2d 12 	call	0x245a	; 0x245a <set_motors>
}
     3ca:	1f 91       	pop	r17
     3cc:	0f 91       	pop	r16
     3ce:	08 95       	ret

000003d0 <get_int_from_user>:
	while(!button_is_pressed(BUTTON_B));
	delay_ms(500);
}

int get_int_from_user(char *msg, int default_value, int increment)
{
     3d0:	cf 92       	push	r12
     3d2:	df 92       	push	r13
     3d4:	ef 92       	push	r14
     3d6:	ff 92       	push	r15
     3d8:	0f 93       	push	r16
     3da:	1f 93       	push	r17
     3dc:	cf 93       	push	r28
     3de:	df 93       	push	r29
     3e0:	7c 01       	movw	r14, r24
     3e2:	8a 01       	movw	r16, r20
     3e4:	eb 01       	movw	r28, r22
		{
			value = -32000 + (32000 % increment);
		}
		if(value > 32000)
		{
			value = 32000 - (32000 % increment);
     3e6:	c1 2c       	mov	r12, r1
     3e8:	9d e7       	ldi	r25, 0x7D	; 125
     3ea:	d9 2e       	mov	r13, r25
{
	int value = default_value;

	while(1)
	{
		clear();
     3ec:	0e 94 ff 0e 	call	0x1dfe	; 0x1dfe <clear>

		// print name
		lcd_goto_xy(0,0);
     3f0:	80 e0       	ldi	r24, 0x00	; 0
     3f2:	60 e0       	ldi	r22, 0x00	; 0
     3f4:	0e 94 cf 0e 	call	0x1d9e	; 0x1d9e <lcd_goto_xy>
		print(msg);
     3f8:	c7 01       	movw	r24, r14
     3fa:	0e 94 eb 0f 	call	0x1fd6	; 0x1fd6 <print>
		print("=?");
     3fe:	80 e0       	ldi	r24, 0x00	; 0
     400:	91 e0       	ldi	r25, 0x01	; 1
     402:	0e 94 eb 0f 	call	0x1fd6	; 0x1fd6 <print>

		// print current value
		lcd_goto_xy(0,1);
     406:	80 e0       	ldi	r24, 0x00	; 0
     408:	61 e0       	ldi	r22, 0x01	; 1
     40a:	0e 94 cf 0e 	call	0x1d9e	; 0x1d9e <lcd_goto_xy>
		print_long(value);
     40e:	be 01       	movw	r22, r28
     410:	88 27       	eor	r24, r24
     412:	77 fd       	sbrc	r23, 7
     414:	80 95       	com	r24
     416:	98 2f       	mov	r25, r24
     418:	0e 94 ca 0f 	call	0x1f94	; 0x1f94 <print_long>
		lcd_show_cursor(CURSOR_BLINKING);
     41c:	81 e0       	ldi	r24, 0x01	; 1
     41e:	0e 94 ad 0e 	call	0x1d5a	; 0x1d5a <lcd_show_cursor>

		// wait for all buttons to be released, then a press
		while(button_is_pressed(ANY_BUTTON));
     422:	82 e3       	ldi	r24, 0x32	; 50
     424:	0e 94 62 12 	call	0x24c4	; 0x24c4 <button_is_pressed>
     428:	88 23       	and	r24, r24
     42a:	d9 f7       	brne	.-10     	; 0x422 <get_int_from_user+0x52>
		char button = wait_for_button_press(ANY_BUTTON);
     42c:	82 e3       	ldi	r24, 0x32	; 50
     42e:	0e 94 16 14 	call	0x282c	; 0x282c <wait_for_button_press>

		if(button & BUTTON_A)
     432:	81 ff       	sbrs	r24, 1
     434:	07 c0       	rjmp	.+14     	; 0x444 <get_int_from_user+0x74>
		{
			play("!c32");
     436:	83 e0       	ldi	r24, 0x03	; 3
     438:	91 e0       	ldi	r25, 0x01	; 1
     43a:	0e 94 b4 0c 	call	0x1968	; 0x1968 <play>
			value = value - increment;
     43e:	c0 1b       	sub	r28, r16
     440:	d1 0b       	sbc	r29, r17
     442:	20 c0       	rjmp	.+64     	; 0x484 <get_int_from_user+0xb4>
		}
		else if(button & BUTTON_B)
     444:	84 ff       	sbrs	r24, 4
     446:	16 c0       	rjmp	.+44     	; 0x474 <get_int_from_user+0xa4>
		{
			lcd_hide_cursor();
     448:	0e 94 a2 0e 	call	0x1d44	; 0x1d44 <lcd_hide_cursor>
			clear();
     44c:	0e 94 ff 0e 	call	0x1dfe	; 0x1dfe <clear>
			play("!e32");
     450:	88 e0       	ldi	r24, 0x08	; 8
     452:	91 e0       	ldi	r25, 0x01	; 1
     454:	0e 94 b4 0c 	call	0x1968	; 0x1968 <play>
			delay_ms(100);
     458:	84 e6       	ldi	r24, 0x64	; 100
     45a:	90 e0       	ldi	r25, 0x00	; 0
     45c:	0e 94 74 14 	call	0x28e8	; 0x28e8 <delay_ms>
		if(value > 32000)
		{
			value = 32000 - (32000 % increment);
		}
	}
}
     460:	ce 01       	movw	r24, r28
     462:	df 91       	pop	r29
     464:	cf 91       	pop	r28
     466:	1f 91       	pop	r17
     468:	0f 91       	pop	r16
     46a:	ff 90       	pop	r15
     46c:	ef 90       	pop	r14
     46e:	df 90       	pop	r13
     470:	cf 90       	pop	r12
     472:	08 95       	ret
			clear();
			play("!e32");
			delay_ms(100);
			return value;
		}
		else if(button & BUTTON_C)
     474:	85 ff       	sbrs	r24, 5
     476:	06 c0       	rjmp	.+12     	; 0x484 <get_int_from_user+0xb4>
		{
			play("!g32");
     478:	8d e0       	ldi	r24, 0x0D	; 13
     47a:	91 e0       	ldi	r25, 0x01	; 1
     47c:	0e 94 b4 0c 	call	0x1968	; 0x1968 <play>
			value = value + increment;
     480:	c0 0f       	add	r28, r16
     482:	d1 1f       	adc	r29, r17
		}

		if(value < -32000)
     484:	83 e8       	ldi	r24, 0x83	; 131
     486:	c0 30       	cpi	r28, 0x00	; 0
     488:	d8 07       	cpc	r29, r24
     48a:	4c f4       	brge	.+18     	; 0x49e <get_int_from_user+0xce>
		{
			value = -32000 + (32000 % increment);
     48c:	80 e0       	ldi	r24, 0x00	; 0
     48e:	9d e7       	ldi	r25, 0x7D	; 125
     490:	b8 01       	movw	r22, r16
     492:	0e 94 71 15 	call	0x2ae2	; 0x2ae2 <__divmodhi4>
     496:	ec 01       	movw	r28, r24
     498:	c0 50       	subi	r28, 0x00	; 0
     49a:	dd 47       	sbci	r29, 0x7D	; 125
     49c:	a7 cf       	rjmp	.-178    	; 0x3ec <get_int_from_user+0x1c>
		}
		if(value > 32000)
     49e:	8d e7       	ldi	r24, 0x7D	; 125
     4a0:	c1 30       	cpi	r28, 0x01	; 1
     4a2:	d8 07       	cpc	r29, r24
     4a4:	0c f4       	brge	.+2      	; 0x4a8 <get_int_from_user+0xd8>
     4a6:	a2 cf       	rjmp	.-188    	; 0x3ec <get_int_from_user+0x1c>
		{
			value = 32000 - (32000 % increment);
     4a8:	80 e0       	ldi	r24, 0x00	; 0
     4aa:	9d e7       	ldi	r25, 0x7D	; 125
     4ac:	b8 01       	movw	r22, r16
     4ae:	0e 94 71 15 	call	0x2ae2	; 0x2ae2 <__divmodhi4>
     4b2:	e6 01       	movw	r28, r12
     4b4:	c8 1b       	sub	r28, r24
     4b6:	d9 0b       	sbc	r29, r25
     4b8:	99 cf       	rjmp	.-206    	; 0x3ec <get_int_from_user+0x1c>

000004ba <wait_with_message>:
	PORTC &= ~(1<< PORTC5);
}

//Displays a message and waits for B button to press
void wait_with_message(char *str)
{
     4ba:	0f 93       	push	r16
     4bc:	1f 93       	push	r17
     4be:	8c 01       	movw	r16, r24
	 play_frequency(200, 50, 14);
     4c0:	88 ec       	ldi	r24, 0xC8	; 200
     4c2:	90 e0       	ldi	r25, 0x00	; 0
     4c4:	62 e3       	ldi	r22, 0x32	; 50
     4c6:	70 e0       	ldi	r23, 0x00	; 0
     4c8:	4e e0       	ldi	r20, 0x0E	; 14
     4ca:	0e 94 a6 09 	call	0x134c	; 0x134c <play_frequency>
	 delay_ms(75);
     4ce:	8b e4       	ldi	r24, 0x4B	; 75
     4d0:	90 e0       	ldi	r25, 0x00	; 0
     4d2:	0e 94 74 14 	call	0x28e8	; 0x28e8 <delay_ms>
	 play_frequency(300, 50, 14);
     4d6:	8c e2       	ldi	r24, 0x2C	; 44
     4d8:	91 e0       	ldi	r25, 0x01	; 1
     4da:	62 e3       	ldi	r22, 0x32	; 50
     4dc:	70 e0       	ldi	r23, 0x00	; 0
     4de:	4e e0       	ldi	r20, 0x0E	; 14
     4e0:	0e 94 a6 09 	call	0x134c	; 0x134c <play_frequency>

	 play_frequency(200, 50, 14);
     4e4:	88 ec       	ldi	r24, 0xC8	; 200
     4e6:	90 e0       	ldi	r25, 0x00	; 0
     4e8:	62 e3       	ldi	r22, 0x32	; 50
     4ea:	70 e0       	ldi	r23, 0x00	; 0
     4ec:	4e e0       	ldi	r20, 0x0E	; 14
     4ee:	0e 94 a6 09 	call	0x134c	; 0x134c <play_frequency>
	 delay_ms(75);
     4f2:	8b e4       	ldi	r24, 0x4B	; 75
     4f4:	90 e0       	ldi	r25, 0x00	; 0
     4f6:	0e 94 74 14 	call	0x28e8	; 0x28e8 <delay_ms>
	 play_frequency(300, 50, 14);
     4fa:	8c e2       	ldi	r24, 0x2C	; 44
     4fc:	91 e0       	ldi	r25, 0x01	; 1
     4fe:	62 e3       	ldi	r22, 0x32	; 50
     500:	70 e0       	ldi	r23, 0x00	; 0
     502:	4e e0       	ldi	r20, 0x0E	; 14
     504:	0e 94 a6 09 	call	0x134c	; 0x134c <play_frequency>

	lcd_goto_xy(0,0);
     508:	80 e0       	ldi	r24, 0x00	; 0
     50a:	60 e0       	ldi	r22, 0x00	; 0
     50c:	0e 94 cf 0e 	call	0x1d9e	; 0x1d9e <lcd_goto_xy>
	print(str);
     510:	c8 01       	movw	r24, r16
     512:	0e 94 eb 0f 	call	0x1fd6	; 0x1fd6 <print>

	while(!button_is_pressed(BUTTON_B));
     516:	80 e1       	ldi	r24, 0x10	; 16
     518:	0e 94 62 12 	call	0x24c4	; 0x24c4 <button_is_pressed>
     51c:	88 23       	and	r24, r24
     51e:	d9 f3       	breq	.-10     	; 0x516 <__stack+0x17>
	delay_ms(500);
     520:	84 ef       	ldi	r24, 0xF4	; 244
     522:	91 e0       	ldi	r25, 0x01	; 1
     524:	0e 94 74 14 	call	0x28e8	; 0x28e8 <delay_ms>
}
     528:	1f 91       	pop	r17
     52a:	0f 91       	pop	r16
     52c:	08 95       	ret

0000052e <main>:
#include <pololu/3pi.h>
#include <common-libs/commonfunc.h>

int main()
{
     52e:	cf 92       	push	r12
     530:	df 92       	push	r13
     532:	ef 92       	push	r14
     534:	ff 92       	push	r15
     536:	0f 93       	push	r16
     538:	1f 93       	push	r17
     53a:	cf 93       	push	r28
     53c:	df 93       	push	r29
	init_sensors();
     53e:	0e 94 5f 00 	call	0xbe	; 0xbe <init_sensors>
	wait_with_message("Press B");
     542:	82 e1       	ldi	r24, 0x12	; 18
     544:	91 e0       	ldi	r25, 0x01	; 1
     546:	0e 94 5d 02 	call	0x4ba	; 0x4ba <wait_with_message>
	count_down(2);
     54a:	82 e0       	ldi	r24, 0x02	; 2
     54c:	90 e0       	ldi	r25, 0x00	; 0
     54e:	0e 94 d1 00 	call	0x1a2	; 0x1a2 <count_down>
     552:	ee 24       	eor	r14, r14
     554:	ff 24       	eor	r15, r15
			set_point = 1;
			set_motors(25,25);
		}
		else
		{
			set_motors(left_speed + balance,right_speed - balance);
     556:	3e e6       	ldi	r19, 0x6E	; 110
     558:	c3 2e       	mov	r12, r19
     55a:	d1 2c       	mov	r13, r1

	int set_point = 0;

	while(1)
	{
		left = analog_read(6);
     55c:	86 e0       	ldi	r24, 0x06	; 6
     55e:	0e 94 2c 07 	call	0xe58	; 0xe58 <analog_read>
     562:	8c 01       	movw	r16, r24
		right = analog_read(5);
     564:	85 e0       	ldi	r24, 0x05	; 5
     566:	0e 94 2c 07 	call	0xe58	; 0xe58 <analog_read>
     56a:	ec 01       	movw	r28, r24
		front = analog_read(7);
     56c:	87 e0       	ldi	r24, 0x07	; 7
     56e:	0e 94 2c 07 	call	0xe58	; 0xe58 <analog_read>
     572:	9c 01       	movw	r18, r24

		balance = 0;
		if (left > 20 || right > 20)
     574:	05 31       	cpi	r16, 0x15	; 21
     576:	11 05       	cpc	r17, r1
     578:	34 f4       	brge	.+12     	; 0x586 <main+0x58>
     57a:	c5 31       	cpi	r28, 0x15	; 21
     57c:	d1 05       	cpc	r29, r1
     57e:	1c f4       	brge	.+6      	; 0x586 <main+0x58>
     580:	80 e0       	ldi	r24, 0x00	; 0
     582:	90 e0       	ldi	r25, 0x00	; 0
     584:	04 c0       	rjmp	.+8      	; 0x58e <main+0x60>
		{
			balance = right - left - 20;
     586:	ce 01       	movw	r24, r28
     588:	44 97       	sbiw	r24, 0x14	; 20
     58a:	80 1b       	sub	r24, r16
     58c:	91 0b       	sbc	r25, r17
		}

		left_speed = 110;
		right_speed = 110;

		if (set_point == 0 && front > 162)
     58e:	e1 14       	cp	r14, r1
     590:	f1 04       	cpc	r15, r1
     592:	69 f4       	brne	.+26     	; 0x5ae <main+0x80>
     594:	23 3a       	cpi	r18, 0xA3	; 163
     596:	31 05       	cpc	r19, r1
     598:	54 f0       	brlt	.+20     	; 0x5ae <main+0x80>
		{
			set_point = 1;
			set_motors(25,25);
     59a:	89 e1       	ldi	r24, 0x19	; 25
     59c:	90 e0       	ldi	r25, 0x00	; 0
     59e:	69 e1       	ldi	r22, 0x19	; 25
     5a0:	70 e0       	ldi	r23, 0x00	; 0
     5a2:	0e 94 2d 12 	call	0x245a	; 0x245a <set_motors>
     5a6:	21 e0       	ldi	r18, 0x01	; 1
     5a8:	e2 2e       	mov	r14, r18
     5aa:	f1 2c       	mov	r15, r1
     5ac:	d7 cf       	rjmp	.-82     	; 0x55c <main+0x2e>
		}
		else
		{
			set_motors(left_speed + balance,right_speed - balance);
     5ae:	b6 01       	movw	r22, r12
     5b0:	68 1b       	sub	r22, r24
     5b2:	79 0b       	sbc	r23, r25
     5b4:	82 59       	subi	r24, 0x92	; 146
     5b6:	9f 4f       	sbci	r25, 0xFF	; 255
     5b8:	0e 94 2d 12 	call	0x245a	; 0x245a <set_motors>
     5bc:	cf cf       	rjmp	.-98     	; 0x55c <main+0x2e>

000005be <__mulsf3>:
     5be:	a0 e2       	ldi	r26, 0x20	; 32
     5c0:	b0 e0       	ldi	r27, 0x00	; 0
     5c2:	e5 ee       	ldi	r30, 0xE5	; 229
     5c4:	f2 e0       	ldi	r31, 0x02	; 2
     5c6:	0c 94 c1 15 	jmp	0x2b82	; 0x2b82 <__prologue_saves__>
     5ca:	69 83       	std	Y+1, r22	; 0x01
     5cc:	7a 83       	std	Y+2, r23	; 0x02
     5ce:	8b 83       	std	Y+3, r24	; 0x03
     5d0:	9c 83       	std	Y+4, r25	; 0x04
     5d2:	2d 83       	std	Y+5, r18	; 0x05
     5d4:	3e 83       	std	Y+6, r19	; 0x06
     5d6:	4f 83       	std	Y+7, r20	; 0x07
     5d8:	58 87       	std	Y+8, r21	; 0x08
     5da:	ce 01       	movw	r24, r28
     5dc:	01 96       	adiw	r24, 0x01	; 1
     5de:	be 01       	movw	r22, r28
     5e0:	67 5f       	subi	r22, 0xF7	; 247
     5e2:	7f 4f       	sbci	r23, 0xFF	; 255
     5e4:	0e 94 5b 06 	call	0xcb6	; 0xcb6 <__unpack_f>
     5e8:	ce 01       	movw	r24, r28
     5ea:	05 96       	adiw	r24, 0x05	; 5
     5ec:	be 01       	movw	r22, r28
     5ee:	6f 5e       	subi	r22, 0xEF	; 239
     5f0:	7f 4f       	sbci	r23, 0xFF	; 255
     5f2:	0e 94 5b 06 	call	0xcb6	; 0xcb6 <__unpack_f>
     5f6:	99 85       	ldd	r25, Y+9	; 0x09
     5f8:	92 30       	cpi	r25, 0x02	; 2
     5fa:	88 f0       	brcs	.+34     	; 0x61e <__mulsf3+0x60>
     5fc:	89 89       	ldd	r24, Y+17	; 0x11
     5fe:	82 30       	cpi	r24, 0x02	; 2
     600:	c8 f0       	brcs	.+50     	; 0x634 <__mulsf3+0x76>
     602:	94 30       	cpi	r25, 0x04	; 4
     604:	19 f4       	brne	.+6      	; 0x60c <__mulsf3+0x4e>
     606:	82 30       	cpi	r24, 0x02	; 2
     608:	51 f4       	brne	.+20     	; 0x61e <__mulsf3+0x60>
     60a:	04 c0       	rjmp	.+8      	; 0x614 <__mulsf3+0x56>
     60c:	84 30       	cpi	r24, 0x04	; 4
     60e:	29 f4       	brne	.+10     	; 0x61a <__mulsf3+0x5c>
     610:	92 30       	cpi	r25, 0x02	; 2
     612:	81 f4       	brne	.+32     	; 0x634 <__mulsf3+0x76>
     614:	88 e2       	ldi	r24, 0x28	; 40
     616:	91 e0       	ldi	r25, 0x01	; 1
     618:	c6 c0       	rjmp	.+396    	; 0x7a6 <__mulsf3+0x1e8>
     61a:	92 30       	cpi	r25, 0x02	; 2
     61c:	49 f4       	brne	.+18     	; 0x630 <__mulsf3+0x72>
     61e:	20 e0       	ldi	r18, 0x00	; 0
     620:	9a 85       	ldd	r25, Y+10	; 0x0a
     622:	8a 89       	ldd	r24, Y+18	; 0x12
     624:	98 13       	cpse	r25, r24
     626:	21 e0       	ldi	r18, 0x01	; 1
     628:	2a 87       	std	Y+10, r18	; 0x0a
     62a:	ce 01       	movw	r24, r28
     62c:	09 96       	adiw	r24, 0x09	; 9
     62e:	bb c0       	rjmp	.+374    	; 0x7a6 <__mulsf3+0x1e8>
     630:	82 30       	cpi	r24, 0x02	; 2
     632:	49 f4       	brne	.+18     	; 0x646 <__mulsf3+0x88>
     634:	20 e0       	ldi	r18, 0x00	; 0
     636:	9a 85       	ldd	r25, Y+10	; 0x0a
     638:	8a 89       	ldd	r24, Y+18	; 0x12
     63a:	98 13       	cpse	r25, r24
     63c:	21 e0       	ldi	r18, 0x01	; 1
     63e:	2a 8b       	std	Y+18, r18	; 0x12
     640:	ce 01       	movw	r24, r28
     642:	41 96       	adiw	r24, 0x11	; 17
     644:	b0 c0       	rjmp	.+352    	; 0x7a6 <__mulsf3+0x1e8>
     646:	2d 84       	ldd	r2, Y+13	; 0x0d
     648:	3e 84       	ldd	r3, Y+14	; 0x0e
     64a:	4f 84       	ldd	r4, Y+15	; 0x0f
     64c:	58 88       	ldd	r5, Y+16	; 0x10
     64e:	6d 88       	ldd	r6, Y+21	; 0x15
     650:	7e 88       	ldd	r7, Y+22	; 0x16
     652:	8f 88       	ldd	r8, Y+23	; 0x17
     654:	98 8c       	ldd	r9, Y+24	; 0x18
     656:	ee 24       	eor	r14, r14
     658:	ff 24       	eor	r15, r15
     65a:	87 01       	movw	r16, r14
     65c:	aa 24       	eor	r10, r10
     65e:	bb 24       	eor	r11, r11
     660:	65 01       	movw	r12, r10
     662:	40 e0       	ldi	r20, 0x00	; 0
     664:	50 e0       	ldi	r21, 0x00	; 0
     666:	60 e0       	ldi	r22, 0x00	; 0
     668:	70 e0       	ldi	r23, 0x00	; 0
     66a:	e0 e0       	ldi	r30, 0x00	; 0
     66c:	f0 e0       	ldi	r31, 0x00	; 0
     66e:	c1 01       	movw	r24, r2
     670:	81 70       	andi	r24, 0x01	; 1
     672:	90 70       	andi	r25, 0x00	; 0
     674:	89 2b       	or	r24, r25
     676:	e9 f0       	breq	.+58     	; 0x6b2 <__mulsf3+0xf4>
     678:	e6 0c       	add	r14, r6
     67a:	f7 1c       	adc	r15, r7
     67c:	08 1d       	adc	r16, r8
     67e:	19 1d       	adc	r17, r9
     680:	9a 01       	movw	r18, r20
     682:	ab 01       	movw	r20, r22
     684:	2a 0d       	add	r18, r10
     686:	3b 1d       	adc	r19, r11
     688:	4c 1d       	adc	r20, r12
     68a:	5d 1d       	adc	r21, r13
     68c:	80 e0       	ldi	r24, 0x00	; 0
     68e:	90 e0       	ldi	r25, 0x00	; 0
     690:	a0 e0       	ldi	r26, 0x00	; 0
     692:	b0 e0       	ldi	r27, 0x00	; 0
     694:	e6 14       	cp	r14, r6
     696:	f7 04       	cpc	r15, r7
     698:	08 05       	cpc	r16, r8
     69a:	19 05       	cpc	r17, r9
     69c:	20 f4       	brcc	.+8      	; 0x6a6 <__mulsf3+0xe8>
     69e:	81 e0       	ldi	r24, 0x01	; 1
     6a0:	90 e0       	ldi	r25, 0x00	; 0
     6a2:	a0 e0       	ldi	r26, 0x00	; 0
     6a4:	b0 e0       	ldi	r27, 0x00	; 0
     6a6:	ba 01       	movw	r22, r20
     6a8:	a9 01       	movw	r20, r18
     6aa:	48 0f       	add	r20, r24
     6ac:	59 1f       	adc	r21, r25
     6ae:	6a 1f       	adc	r22, r26
     6b0:	7b 1f       	adc	r23, r27
     6b2:	aa 0c       	add	r10, r10
     6b4:	bb 1c       	adc	r11, r11
     6b6:	cc 1c       	adc	r12, r12
     6b8:	dd 1c       	adc	r13, r13
     6ba:	97 fe       	sbrs	r9, 7
     6bc:	08 c0       	rjmp	.+16     	; 0x6ce <__mulsf3+0x110>
     6be:	81 e0       	ldi	r24, 0x01	; 1
     6c0:	90 e0       	ldi	r25, 0x00	; 0
     6c2:	a0 e0       	ldi	r26, 0x00	; 0
     6c4:	b0 e0       	ldi	r27, 0x00	; 0
     6c6:	a8 2a       	or	r10, r24
     6c8:	b9 2a       	or	r11, r25
     6ca:	ca 2a       	or	r12, r26
     6cc:	db 2a       	or	r13, r27
     6ce:	31 96       	adiw	r30, 0x01	; 1
     6d0:	e0 32       	cpi	r30, 0x20	; 32
     6d2:	f1 05       	cpc	r31, r1
     6d4:	49 f0       	breq	.+18     	; 0x6e8 <__mulsf3+0x12a>
     6d6:	66 0c       	add	r6, r6
     6d8:	77 1c       	adc	r7, r7
     6da:	88 1c       	adc	r8, r8
     6dc:	99 1c       	adc	r9, r9
     6de:	56 94       	lsr	r5
     6e0:	47 94       	ror	r4
     6e2:	37 94       	ror	r3
     6e4:	27 94       	ror	r2
     6e6:	c3 cf       	rjmp	.-122    	; 0x66e <__mulsf3+0xb0>
     6e8:	fa 85       	ldd	r31, Y+10	; 0x0a
     6ea:	ea 89       	ldd	r30, Y+18	; 0x12
     6ec:	2b 89       	ldd	r18, Y+19	; 0x13
     6ee:	3c 89       	ldd	r19, Y+20	; 0x14
     6f0:	8b 85       	ldd	r24, Y+11	; 0x0b
     6f2:	9c 85       	ldd	r25, Y+12	; 0x0c
     6f4:	28 0f       	add	r18, r24
     6f6:	39 1f       	adc	r19, r25
     6f8:	2e 5f       	subi	r18, 0xFE	; 254
     6fa:	3f 4f       	sbci	r19, 0xFF	; 255
     6fc:	17 c0       	rjmp	.+46     	; 0x72c <__mulsf3+0x16e>
     6fe:	ca 01       	movw	r24, r20
     700:	81 70       	andi	r24, 0x01	; 1
     702:	90 70       	andi	r25, 0x00	; 0
     704:	89 2b       	or	r24, r25
     706:	61 f0       	breq	.+24     	; 0x720 <__mulsf3+0x162>
     708:	16 95       	lsr	r17
     70a:	07 95       	ror	r16
     70c:	f7 94       	ror	r15
     70e:	e7 94       	ror	r14
     710:	80 e0       	ldi	r24, 0x00	; 0
     712:	90 e0       	ldi	r25, 0x00	; 0
     714:	a0 e0       	ldi	r26, 0x00	; 0
     716:	b0 e8       	ldi	r27, 0x80	; 128
     718:	e8 2a       	or	r14, r24
     71a:	f9 2a       	or	r15, r25
     71c:	0a 2b       	or	r16, r26
     71e:	1b 2b       	or	r17, r27
     720:	76 95       	lsr	r23
     722:	67 95       	ror	r22
     724:	57 95       	ror	r21
     726:	47 95       	ror	r20
     728:	2f 5f       	subi	r18, 0xFF	; 255
     72a:	3f 4f       	sbci	r19, 0xFF	; 255
     72c:	77 fd       	sbrc	r23, 7
     72e:	e7 cf       	rjmp	.-50     	; 0x6fe <__mulsf3+0x140>
     730:	0c c0       	rjmp	.+24     	; 0x74a <__mulsf3+0x18c>
     732:	44 0f       	add	r20, r20
     734:	55 1f       	adc	r21, r21
     736:	66 1f       	adc	r22, r22
     738:	77 1f       	adc	r23, r23
     73a:	17 fd       	sbrc	r17, 7
     73c:	41 60       	ori	r20, 0x01	; 1
     73e:	ee 0c       	add	r14, r14
     740:	ff 1c       	adc	r15, r15
     742:	00 1f       	adc	r16, r16
     744:	11 1f       	adc	r17, r17
     746:	21 50       	subi	r18, 0x01	; 1
     748:	30 40       	sbci	r19, 0x00	; 0
     74a:	40 30       	cpi	r20, 0x00	; 0
     74c:	90 e0       	ldi	r25, 0x00	; 0
     74e:	59 07       	cpc	r21, r25
     750:	90 e0       	ldi	r25, 0x00	; 0
     752:	69 07       	cpc	r22, r25
     754:	90 e4       	ldi	r25, 0x40	; 64
     756:	79 07       	cpc	r23, r25
     758:	60 f3       	brcs	.-40     	; 0x732 <__mulsf3+0x174>
     75a:	2b 8f       	std	Y+27, r18	; 0x1b
     75c:	3c 8f       	std	Y+28, r19	; 0x1c
     75e:	db 01       	movw	r26, r22
     760:	ca 01       	movw	r24, r20
     762:	8f 77       	andi	r24, 0x7F	; 127
     764:	90 70       	andi	r25, 0x00	; 0
     766:	a0 70       	andi	r26, 0x00	; 0
     768:	b0 70       	andi	r27, 0x00	; 0
     76a:	80 34       	cpi	r24, 0x40	; 64
     76c:	91 05       	cpc	r25, r1
     76e:	a1 05       	cpc	r26, r1
     770:	b1 05       	cpc	r27, r1
     772:	61 f4       	brne	.+24     	; 0x78c <__mulsf3+0x1ce>
     774:	47 fd       	sbrc	r20, 7
     776:	0a c0       	rjmp	.+20     	; 0x78c <__mulsf3+0x1ce>
     778:	e1 14       	cp	r14, r1
     77a:	f1 04       	cpc	r15, r1
     77c:	01 05       	cpc	r16, r1
     77e:	11 05       	cpc	r17, r1
     780:	29 f0       	breq	.+10     	; 0x78c <__mulsf3+0x1ce>
     782:	40 5c       	subi	r20, 0xC0	; 192
     784:	5f 4f       	sbci	r21, 0xFF	; 255
     786:	6f 4f       	sbci	r22, 0xFF	; 255
     788:	7f 4f       	sbci	r23, 0xFF	; 255
     78a:	40 78       	andi	r20, 0x80	; 128
     78c:	1a 8e       	std	Y+26, r1	; 0x1a
     78e:	fe 17       	cp	r31, r30
     790:	11 f0       	breq	.+4      	; 0x796 <__mulsf3+0x1d8>
     792:	81 e0       	ldi	r24, 0x01	; 1
     794:	8a 8f       	std	Y+26, r24	; 0x1a
     796:	4d 8f       	std	Y+29, r20	; 0x1d
     798:	5e 8f       	std	Y+30, r21	; 0x1e
     79a:	6f 8f       	std	Y+31, r22	; 0x1f
     79c:	78 a3       	std	Y+32, r23	; 0x20
     79e:	83 e0       	ldi	r24, 0x03	; 3
     7a0:	89 8f       	std	Y+25, r24	; 0x19
     7a2:	ce 01       	movw	r24, r28
     7a4:	49 96       	adiw	r24, 0x19	; 25
     7a6:	0e 94 86 05 	call	0xb0c	; 0xb0c <__pack_f>
     7aa:	a0 96       	adiw	r28, 0x20	; 32
     7ac:	e2 e1       	ldi	r30, 0x12	; 18
     7ae:	0c 94 dd 15 	jmp	0x2bba	; 0x2bba <__epilogue_restores__>

000007b2 <__divsf3>:
     7b2:	a8 e1       	ldi	r26, 0x18	; 24
     7b4:	b0 e0       	ldi	r27, 0x00	; 0
     7b6:	ef ed       	ldi	r30, 0xDF	; 223
     7b8:	f3 e0       	ldi	r31, 0x03	; 3
     7ba:	0c 94 c9 15 	jmp	0x2b92	; 0x2b92 <__prologue_saves__+0x10>
     7be:	69 83       	std	Y+1, r22	; 0x01
     7c0:	7a 83       	std	Y+2, r23	; 0x02
     7c2:	8b 83       	std	Y+3, r24	; 0x03
     7c4:	9c 83       	std	Y+4, r25	; 0x04
     7c6:	2d 83       	std	Y+5, r18	; 0x05
     7c8:	3e 83       	std	Y+6, r19	; 0x06
     7ca:	4f 83       	std	Y+7, r20	; 0x07
     7cc:	58 87       	std	Y+8, r21	; 0x08
     7ce:	b9 e0       	ldi	r27, 0x09	; 9
     7d0:	eb 2e       	mov	r14, r27
     7d2:	f1 2c       	mov	r15, r1
     7d4:	ec 0e       	add	r14, r28
     7d6:	fd 1e       	adc	r15, r29
     7d8:	ce 01       	movw	r24, r28
     7da:	01 96       	adiw	r24, 0x01	; 1
     7dc:	b7 01       	movw	r22, r14
     7de:	0e 94 5b 06 	call	0xcb6	; 0xcb6 <__unpack_f>
     7e2:	8e 01       	movw	r16, r28
     7e4:	0f 5e       	subi	r16, 0xEF	; 239
     7e6:	1f 4f       	sbci	r17, 0xFF	; 255
     7e8:	ce 01       	movw	r24, r28
     7ea:	05 96       	adiw	r24, 0x05	; 5
     7ec:	b8 01       	movw	r22, r16
     7ee:	0e 94 5b 06 	call	0xcb6	; 0xcb6 <__unpack_f>
     7f2:	29 85       	ldd	r18, Y+9	; 0x09
     7f4:	22 30       	cpi	r18, 0x02	; 2
     7f6:	08 f4       	brcc	.+2      	; 0x7fa <__divsf3+0x48>
     7f8:	7e c0       	rjmp	.+252    	; 0x8f6 <__divsf3+0x144>
     7fa:	39 89       	ldd	r19, Y+17	; 0x11
     7fc:	32 30       	cpi	r19, 0x02	; 2
     7fe:	10 f4       	brcc	.+4      	; 0x804 <__divsf3+0x52>
     800:	b8 01       	movw	r22, r16
     802:	7c c0       	rjmp	.+248    	; 0x8fc <__divsf3+0x14a>
     804:	8a 85       	ldd	r24, Y+10	; 0x0a
     806:	9a 89       	ldd	r25, Y+18	; 0x12
     808:	89 27       	eor	r24, r25
     80a:	8a 87       	std	Y+10, r24	; 0x0a
     80c:	24 30       	cpi	r18, 0x04	; 4
     80e:	11 f0       	breq	.+4      	; 0x814 <__divsf3+0x62>
     810:	22 30       	cpi	r18, 0x02	; 2
     812:	31 f4       	brne	.+12     	; 0x820 <__divsf3+0x6e>
     814:	23 17       	cp	r18, r19
     816:	09 f0       	breq	.+2      	; 0x81a <__divsf3+0x68>
     818:	6e c0       	rjmp	.+220    	; 0x8f6 <__divsf3+0x144>
     81a:	68 e2       	ldi	r22, 0x28	; 40
     81c:	71 e0       	ldi	r23, 0x01	; 1
     81e:	6e c0       	rjmp	.+220    	; 0x8fc <__divsf3+0x14a>
     820:	34 30       	cpi	r19, 0x04	; 4
     822:	39 f4       	brne	.+14     	; 0x832 <__divsf3+0x80>
     824:	1d 86       	std	Y+13, r1	; 0x0d
     826:	1e 86       	std	Y+14, r1	; 0x0e
     828:	1f 86       	std	Y+15, r1	; 0x0f
     82a:	18 8a       	std	Y+16, r1	; 0x10
     82c:	1c 86       	std	Y+12, r1	; 0x0c
     82e:	1b 86       	std	Y+11, r1	; 0x0b
     830:	04 c0       	rjmp	.+8      	; 0x83a <__divsf3+0x88>
     832:	32 30       	cpi	r19, 0x02	; 2
     834:	21 f4       	brne	.+8      	; 0x83e <__divsf3+0x8c>
     836:	84 e0       	ldi	r24, 0x04	; 4
     838:	89 87       	std	Y+9, r24	; 0x09
     83a:	b7 01       	movw	r22, r14
     83c:	5f c0       	rjmp	.+190    	; 0x8fc <__divsf3+0x14a>
     83e:	2b 85       	ldd	r18, Y+11	; 0x0b
     840:	3c 85       	ldd	r19, Y+12	; 0x0c
     842:	8b 89       	ldd	r24, Y+19	; 0x13
     844:	9c 89       	ldd	r25, Y+20	; 0x14
     846:	28 1b       	sub	r18, r24
     848:	39 0b       	sbc	r19, r25
     84a:	3c 87       	std	Y+12, r19	; 0x0c
     84c:	2b 87       	std	Y+11, r18	; 0x0b
     84e:	ed 84       	ldd	r14, Y+13	; 0x0d
     850:	fe 84       	ldd	r15, Y+14	; 0x0e
     852:	0f 85       	ldd	r16, Y+15	; 0x0f
     854:	18 89       	ldd	r17, Y+16	; 0x10
     856:	ad 88       	ldd	r10, Y+21	; 0x15
     858:	be 88       	ldd	r11, Y+22	; 0x16
     85a:	cf 88       	ldd	r12, Y+23	; 0x17
     85c:	d8 8c       	ldd	r13, Y+24	; 0x18
     85e:	ea 14       	cp	r14, r10
     860:	fb 04       	cpc	r15, r11
     862:	0c 05       	cpc	r16, r12
     864:	1d 05       	cpc	r17, r13
     866:	40 f4       	brcc	.+16     	; 0x878 <__divsf3+0xc6>
     868:	ee 0c       	add	r14, r14
     86a:	ff 1c       	adc	r15, r15
     86c:	00 1f       	adc	r16, r16
     86e:	11 1f       	adc	r17, r17
     870:	21 50       	subi	r18, 0x01	; 1
     872:	30 40       	sbci	r19, 0x00	; 0
     874:	3c 87       	std	Y+12, r19	; 0x0c
     876:	2b 87       	std	Y+11, r18	; 0x0b
     878:	20 e0       	ldi	r18, 0x00	; 0
     87a:	30 e0       	ldi	r19, 0x00	; 0
     87c:	40 e0       	ldi	r20, 0x00	; 0
     87e:	50 e0       	ldi	r21, 0x00	; 0
     880:	80 e0       	ldi	r24, 0x00	; 0
     882:	90 e0       	ldi	r25, 0x00	; 0
     884:	a0 e0       	ldi	r26, 0x00	; 0
     886:	b0 e4       	ldi	r27, 0x40	; 64
     888:	60 e0       	ldi	r22, 0x00	; 0
     88a:	70 e0       	ldi	r23, 0x00	; 0
     88c:	ea 14       	cp	r14, r10
     88e:	fb 04       	cpc	r15, r11
     890:	0c 05       	cpc	r16, r12
     892:	1d 05       	cpc	r17, r13
     894:	40 f0       	brcs	.+16     	; 0x8a6 <__divsf3+0xf4>
     896:	28 2b       	or	r18, r24
     898:	39 2b       	or	r19, r25
     89a:	4a 2b       	or	r20, r26
     89c:	5b 2b       	or	r21, r27
     89e:	ea 18       	sub	r14, r10
     8a0:	fb 08       	sbc	r15, r11
     8a2:	0c 09       	sbc	r16, r12
     8a4:	1d 09       	sbc	r17, r13
     8a6:	b6 95       	lsr	r27
     8a8:	a7 95       	ror	r26
     8aa:	97 95       	ror	r25
     8ac:	87 95       	ror	r24
     8ae:	ee 0c       	add	r14, r14
     8b0:	ff 1c       	adc	r15, r15
     8b2:	00 1f       	adc	r16, r16
     8b4:	11 1f       	adc	r17, r17
     8b6:	6f 5f       	subi	r22, 0xFF	; 255
     8b8:	7f 4f       	sbci	r23, 0xFF	; 255
     8ba:	6f 31       	cpi	r22, 0x1F	; 31
     8bc:	71 05       	cpc	r23, r1
     8be:	31 f7       	brne	.-52     	; 0x88c <__divsf3+0xda>
     8c0:	da 01       	movw	r26, r20
     8c2:	c9 01       	movw	r24, r18
     8c4:	8f 77       	andi	r24, 0x7F	; 127
     8c6:	90 70       	andi	r25, 0x00	; 0
     8c8:	a0 70       	andi	r26, 0x00	; 0
     8ca:	b0 70       	andi	r27, 0x00	; 0
     8cc:	80 34       	cpi	r24, 0x40	; 64
     8ce:	91 05       	cpc	r25, r1
     8d0:	a1 05       	cpc	r26, r1
     8d2:	b1 05       	cpc	r27, r1
     8d4:	61 f4       	brne	.+24     	; 0x8ee <__divsf3+0x13c>
     8d6:	27 fd       	sbrc	r18, 7
     8d8:	0a c0       	rjmp	.+20     	; 0x8ee <__divsf3+0x13c>
     8da:	e1 14       	cp	r14, r1
     8dc:	f1 04       	cpc	r15, r1
     8de:	01 05       	cpc	r16, r1
     8e0:	11 05       	cpc	r17, r1
     8e2:	29 f0       	breq	.+10     	; 0x8ee <__divsf3+0x13c>
     8e4:	20 5c       	subi	r18, 0xC0	; 192
     8e6:	3f 4f       	sbci	r19, 0xFF	; 255
     8e8:	4f 4f       	sbci	r20, 0xFF	; 255
     8ea:	5f 4f       	sbci	r21, 0xFF	; 255
     8ec:	20 78       	andi	r18, 0x80	; 128
     8ee:	2d 87       	std	Y+13, r18	; 0x0d
     8f0:	3e 87       	std	Y+14, r19	; 0x0e
     8f2:	4f 87       	std	Y+15, r20	; 0x0f
     8f4:	58 8b       	std	Y+16, r21	; 0x10
     8f6:	be 01       	movw	r22, r28
     8f8:	67 5f       	subi	r22, 0xF7	; 247
     8fa:	7f 4f       	sbci	r23, 0xFF	; 255
     8fc:	cb 01       	movw	r24, r22
     8fe:	0e 94 86 05 	call	0xb0c	; 0xb0c <__pack_f>
     902:	68 96       	adiw	r28, 0x18	; 24
     904:	ea e0       	ldi	r30, 0x0A	; 10
     906:	0c 94 e5 15 	jmp	0x2bca	; 0x2bca <__epilogue_restores__+0x10>

0000090a <__floatsisf>:
     90a:	a8 e0       	ldi	r26, 0x08	; 8
     90c:	b0 e0       	ldi	r27, 0x00	; 0
     90e:	eb e8       	ldi	r30, 0x8B	; 139
     910:	f4 e0       	ldi	r31, 0x04	; 4
     912:	0c 94 ca 15 	jmp	0x2b94	; 0x2b94 <__prologue_saves__+0x12>
     916:	9b 01       	movw	r18, r22
     918:	ac 01       	movw	r20, r24
     91a:	83 e0       	ldi	r24, 0x03	; 3
     91c:	89 83       	std	Y+1, r24	; 0x01
     91e:	da 01       	movw	r26, r20
     920:	c9 01       	movw	r24, r18
     922:	88 27       	eor	r24, r24
     924:	b7 fd       	sbrc	r27, 7
     926:	83 95       	inc	r24
     928:	99 27       	eor	r25, r25
     92a:	aa 27       	eor	r26, r26
     92c:	bb 27       	eor	r27, r27
     92e:	b8 2e       	mov	r11, r24
     930:	21 15       	cp	r18, r1
     932:	31 05       	cpc	r19, r1
     934:	41 05       	cpc	r20, r1
     936:	51 05       	cpc	r21, r1
     938:	19 f4       	brne	.+6      	; 0x940 <__floatsisf+0x36>
     93a:	82 e0       	ldi	r24, 0x02	; 2
     93c:	89 83       	std	Y+1, r24	; 0x01
     93e:	3a c0       	rjmp	.+116    	; 0x9b4 <__floatsisf+0xaa>
     940:	88 23       	and	r24, r24
     942:	a9 f0       	breq	.+42     	; 0x96e <__floatsisf+0x64>
     944:	20 30       	cpi	r18, 0x00	; 0
     946:	80 e0       	ldi	r24, 0x00	; 0
     948:	38 07       	cpc	r19, r24
     94a:	80 e0       	ldi	r24, 0x00	; 0
     94c:	48 07       	cpc	r20, r24
     94e:	80 e8       	ldi	r24, 0x80	; 128
     950:	58 07       	cpc	r21, r24
     952:	29 f4       	brne	.+10     	; 0x95e <__floatsisf+0x54>
     954:	60 e0       	ldi	r22, 0x00	; 0
     956:	70 e0       	ldi	r23, 0x00	; 0
     958:	80 e0       	ldi	r24, 0x00	; 0
     95a:	9f ec       	ldi	r25, 0xCF	; 207
     95c:	30 c0       	rjmp	.+96     	; 0x9be <__floatsisf+0xb4>
     95e:	ee 24       	eor	r14, r14
     960:	ff 24       	eor	r15, r15
     962:	87 01       	movw	r16, r14
     964:	e2 1a       	sub	r14, r18
     966:	f3 0a       	sbc	r15, r19
     968:	04 0b       	sbc	r16, r20
     96a:	15 0b       	sbc	r17, r21
     96c:	02 c0       	rjmp	.+4      	; 0x972 <__floatsisf+0x68>
     96e:	79 01       	movw	r14, r18
     970:	8a 01       	movw	r16, r20
     972:	8e e1       	ldi	r24, 0x1E	; 30
     974:	c8 2e       	mov	r12, r24
     976:	d1 2c       	mov	r13, r1
     978:	dc 82       	std	Y+4, r13	; 0x04
     97a:	cb 82       	std	Y+3, r12	; 0x03
     97c:	ed 82       	std	Y+5, r14	; 0x05
     97e:	fe 82       	std	Y+6, r15	; 0x06
     980:	0f 83       	std	Y+7, r16	; 0x07
     982:	18 87       	std	Y+8, r17	; 0x08
     984:	c8 01       	movw	r24, r16
     986:	b7 01       	movw	r22, r14
     988:	0e 94 37 05 	call	0xa6e	; 0xa6e <__clzsi2>
     98c:	01 97       	sbiw	r24, 0x01	; 1
     98e:	18 16       	cp	r1, r24
     990:	19 06       	cpc	r1, r25
     992:	84 f4       	brge	.+32     	; 0x9b4 <__floatsisf+0xaa>
     994:	08 2e       	mov	r0, r24
     996:	04 c0       	rjmp	.+8      	; 0x9a0 <__floatsisf+0x96>
     998:	ee 0c       	add	r14, r14
     99a:	ff 1c       	adc	r15, r15
     99c:	00 1f       	adc	r16, r16
     99e:	11 1f       	adc	r17, r17
     9a0:	0a 94       	dec	r0
     9a2:	d2 f7       	brpl	.-12     	; 0x998 <__floatsisf+0x8e>
     9a4:	ed 82       	std	Y+5, r14	; 0x05
     9a6:	fe 82       	std	Y+6, r15	; 0x06
     9a8:	0f 83       	std	Y+7, r16	; 0x07
     9aa:	18 87       	std	Y+8, r17	; 0x08
     9ac:	c8 1a       	sub	r12, r24
     9ae:	d9 0a       	sbc	r13, r25
     9b0:	dc 82       	std	Y+4, r13	; 0x04
     9b2:	cb 82       	std	Y+3, r12	; 0x03
     9b4:	ba 82       	std	Y+2, r11	; 0x02
     9b6:	ce 01       	movw	r24, r28
     9b8:	01 96       	adiw	r24, 0x01	; 1
     9ba:	0e 94 86 05 	call	0xb0c	; 0xb0c <__pack_f>
     9be:	28 96       	adiw	r28, 0x08	; 8
     9c0:	e9 e0       	ldi	r30, 0x09	; 9
     9c2:	0c 94 e6 15 	jmp	0x2bcc	; 0x2bcc <__epilogue_restores__+0x12>

000009c6 <__fixsfsi>:
     9c6:	ac e0       	ldi	r26, 0x0C	; 12
     9c8:	b0 e0       	ldi	r27, 0x00	; 0
     9ca:	e9 ee       	ldi	r30, 0xE9	; 233
     9cc:	f4 e0       	ldi	r31, 0x04	; 4
     9ce:	0c 94 d1 15 	jmp	0x2ba2	; 0x2ba2 <__prologue_saves__+0x20>
     9d2:	69 83       	std	Y+1, r22	; 0x01
     9d4:	7a 83       	std	Y+2, r23	; 0x02
     9d6:	8b 83       	std	Y+3, r24	; 0x03
     9d8:	9c 83       	std	Y+4, r25	; 0x04
     9da:	ce 01       	movw	r24, r28
     9dc:	01 96       	adiw	r24, 0x01	; 1
     9de:	be 01       	movw	r22, r28
     9e0:	6b 5f       	subi	r22, 0xFB	; 251
     9e2:	7f 4f       	sbci	r23, 0xFF	; 255
     9e4:	0e 94 5b 06 	call	0xcb6	; 0xcb6 <__unpack_f>
     9e8:	8d 81       	ldd	r24, Y+5	; 0x05
     9ea:	82 30       	cpi	r24, 0x02	; 2
     9ec:	61 f1       	breq	.+88     	; 0xa46 <__fixsfsi+0x80>
     9ee:	82 30       	cpi	r24, 0x02	; 2
     9f0:	50 f1       	brcs	.+84     	; 0xa46 <__fixsfsi+0x80>
     9f2:	84 30       	cpi	r24, 0x04	; 4
     9f4:	21 f4       	brne	.+8      	; 0x9fe <__fixsfsi+0x38>
     9f6:	8e 81       	ldd	r24, Y+6	; 0x06
     9f8:	88 23       	and	r24, r24
     9fa:	51 f1       	breq	.+84     	; 0xa50 <__fixsfsi+0x8a>
     9fc:	2e c0       	rjmp	.+92     	; 0xa5a <__fixsfsi+0x94>
     9fe:	2f 81       	ldd	r18, Y+7	; 0x07
     a00:	38 85       	ldd	r19, Y+8	; 0x08
     a02:	37 fd       	sbrc	r19, 7
     a04:	20 c0       	rjmp	.+64     	; 0xa46 <__fixsfsi+0x80>
     a06:	6e 81       	ldd	r22, Y+6	; 0x06
     a08:	2f 31       	cpi	r18, 0x1F	; 31
     a0a:	31 05       	cpc	r19, r1
     a0c:	1c f0       	brlt	.+6      	; 0xa14 <__fixsfsi+0x4e>
     a0e:	66 23       	and	r22, r22
     a10:	f9 f0       	breq	.+62     	; 0xa50 <__fixsfsi+0x8a>
     a12:	23 c0       	rjmp	.+70     	; 0xa5a <__fixsfsi+0x94>
     a14:	8e e1       	ldi	r24, 0x1E	; 30
     a16:	90 e0       	ldi	r25, 0x00	; 0
     a18:	82 1b       	sub	r24, r18
     a1a:	93 0b       	sbc	r25, r19
     a1c:	29 85       	ldd	r18, Y+9	; 0x09
     a1e:	3a 85       	ldd	r19, Y+10	; 0x0a
     a20:	4b 85       	ldd	r20, Y+11	; 0x0b
     a22:	5c 85       	ldd	r21, Y+12	; 0x0c
     a24:	04 c0       	rjmp	.+8      	; 0xa2e <__fixsfsi+0x68>
     a26:	56 95       	lsr	r21
     a28:	47 95       	ror	r20
     a2a:	37 95       	ror	r19
     a2c:	27 95       	ror	r18
     a2e:	8a 95       	dec	r24
     a30:	d2 f7       	brpl	.-12     	; 0xa26 <__fixsfsi+0x60>
     a32:	66 23       	and	r22, r22
     a34:	b1 f0       	breq	.+44     	; 0xa62 <__fixsfsi+0x9c>
     a36:	50 95       	com	r21
     a38:	40 95       	com	r20
     a3a:	30 95       	com	r19
     a3c:	21 95       	neg	r18
     a3e:	3f 4f       	sbci	r19, 0xFF	; 255
     a40:	4f 4f       	sbci	r20, 0xFF	; 255
     a42:	5f 4f       	sbci	r21, 0xFF	; 255
     a44:	0e c0       	rjmp	.+28     	; 0xa62 <__fixsfsi+0x9c>
     a46:	20 e0       	ldi	r18, 0x00	; 0
     a48:	30 e0       	ldi	r19, 0x00	; 0
     a4a:	40 e0       	ldi	r20, 0x00	; 0
     a4c:	50 e0       	ldi	r21, 0x00	; 0
     a4e:	09 c0       	rjmp	.+18     	; 0xa62 <__fixsfsi+0x9c>
     a50:	2f ef       	ldi	r18, 0xFF	; 255
     a52:	3f ef       	ldi	r19, 0xFF	; 255
     a54:	4f ef       	ldi	r20, 0xFF	; 255
     a56:	5f e7       	ldi	r21, 0x7F	; 127
     a58:	04 c0       	rjmp	.+8      	; 0xa62 <__fixsfsi+0x9c>
     a5a:	20 e0       	ldi	r18, 0x00	; 0
     a5c:	30 e0       	ldi	r19, 0x00	; 0
     a5e:	40 e0       	ldi	r20, 0x00	; 0
     a60:	50 e8       	ldi	r21, 0x80	; 128
     a62:	b9 01       	movw	r22, r18
     a64:	ca 01       	movw	r24, r20
     a66:	2c 96       	adiw	r28, 0x0c	; 12
     a68:	e2 e0       	ldi	r30, 0x02	; 2
     a6a:	0c 94 ed 15 	jmp	0x2bda	; 0x2bda <__epilogue_restores__+0x20>

00000a6e <__clzsi2>:
     a6e:	ef 92       	push	r14
     a70:	ff 92       	push	r15
     a72:	0f 93       	push	r16
     a74:	1f 93       	push	r17
     a76:	7b 01       	movw	r14, r22
     a78:	8c 01       	movw	r16, r24
     a7a:	80 e0       	ldi	r24, 0x00	; 0
     a7c:	e8 16       	cp	r14, r24
     a7e:	80 e0       	ldi	r24, 0x00	; 0
     a80:	f8 06       	cpc	r15, r24
     a82:	81 e0       	ldi	r24, 0x01	; 1
     a84:	08 07       	cpc	r16, r24
     a86:	80 e0       	ldi	r24, 0x00	; 0
     a88:	18 07       	cpc	r17, r24
     a8a:	88 f4       	brcc	.+34     	; 0xaae <__clzsi2+0x40>
     a8c:	8f ef       	ldi	r24, 0xFF	; 255
     a8e:	e8 16       	cp	r14, r24
     a90:	f1 04       	cpc	r15, r1
     a92:	01 05       	cpc	r16, r1
     a94:	11 05       	cpc	r17, r1
     a96:	31 f0       	breq	.+12     	; 0xaa4 <__clzsi2+0x36>
     a98:	28 f0       	brcs	.+10     	; 0xaa4 <__clzsi2+0x36>
     a9a:	88 e0       	ldi	r24, 0x08	; 8
     a9c:	90 e0       	ldi	r25, 0x00	; 0
     a9e:	a0 e0       	ldi	r26, 0x00	; 0
     aa0:	b0 e0       	ldi	r27, 0x00	; 0
     aa2:	17 c0       	rjmp	.+46     	; 0xad2 <__clzsi2+0x64>
     aa4:	80 e0       	ldi	r24, 0x00	; 0
     aa6:	90 e0       	ldi	r25, 0x00	; 0
     aa8:	a0 e0       	ldi	r26, 0x00	; 0
     aaa:	b0 e0       	ldi	r27, 0x00	; 0
     aac:	12 c0       	rjmp	.+36     	; 0xad2 <__clzsi2+0x64>
     aae:	80 e0       	ldi	r24, 0x00	; 0
     ab0:	e8 16       	cp	r14, r24
     ab2:	80 e0       	ldi	r24, 0x00	; 0
     ab4:	f8 06       	cpc	r15, r24
     ab6:	80 e0       	ldi	r24, 0x00	; 0
     ab8:	08 07       	cpc	r16, r24
     aba:	81 e0       	ldi	r24, 0x01	; 1
     abc:	18 07       	cpc	r17, r24
     abe:	28 f0       	brcs	.+10     	; 0xaca <__clzsi2+0x5c>
     ac0:	88 e1       	ldi	r24, 0x18	; 24
     ac2:	90 e0       	ldi	r25, 0x00	; 0
     ac4:	a0 e0       	ldi	r26, 0x00	; 0
     ac6:	b0 e0       	ldi	r27, 0x00	; 0
     ac8:	04 c0       	rjmp	.+8      	; 0xad2 <__clzsi2+0x64>
     aca:	80 e1       	ldi	r24, 0x10	; 16
     acc:	90 e0       	ldi	r25, 0x00	; 0
     ace:	a0 e0       	ldi	r26, 0x00	; 0
     ad0:	b0 e0       	ldi	r27, 0x00	; 0
     ad2:	20 e2       	ldi	r18, 0x20	; 32
     ad4:	30 e0       	ldi	r19, 0x00	; 0
     ad6:	40 e0       	ldi	r20, 0x00	; 0
     ad8:	50 e0       	ldi	r21, 0x00	; 0
     ada:	28 1b       	sub	r18, r24
     adc:	39 0b       	sbc	r19, r25
     ade:	4a 0b       	sbc	r20, r26
     ae0:	5b 0b       	sbc	r21, r27
     ae2:	04 c0       	rjmp	.+8      	; 0xaec <__clzsi2+0x7e>
     ae4:	16 95       	lsr	r17
     ae6:	07 95       	ror	r16
     ae8:	f7 94       	ror	r15
     aea:	e7 94       	ror	r14
     aec:	8a 95       	dec	r24
     aee:	d2 f7       	brpl	.-12     	; 0xae4 <__clzsi2+0x76>
     af0:	f7 01       	movw	r30, r14
     af2:	e0 5d       	subi	r30, 0xD0	; 208
     af4:	fe 4f       	sbci	r31, 0xFE	; 254
     af6:	80 81       	ld	r24, Z
     af8:	28 1b       	sub	r18, r24
     afa:	31 09       	sbc	r19, r1
     afc:	41 09       	sbc	r20, r1
     afe:	51 09       	sbc	r21, r1
     b00:	c9 01       	movw	r24, r18
     b02:	1f 91       	pop	r17
     b04:	0f 91       	pop	r16
     b06:	ff 90       	pop	r15
     b08:	ef 90       	pop	r14
     b0a:	08 95       	ret

00000b0c <__pack_f>:
     b0c:	df 92       	push	r13
     b0e:	ef 92       	push	r14
     b10:	ff 92       	push	r15
     b12:	0f 93       	push	r16
     b14:	1f 93       	push	r17
     b16:	fc 01       	movw	r30, r24
     b18:	e4 80       	ldd	r14, Z+4	; 0x04
     b1a:	f5 80       	ldd	r15, Z+5	; 0x05
     b1c:	06 81       	ldd	r16, Z+6	; 0x06
     b1e:	17 81       	ldd	r17, Z+7	; 0x07
     b20:	d1 80       	ldd	r13, Z+1	; 0x01
     b22:	80 81       	ld	r24, Z
     b24:	82 30       	cpi	r24, 0x02	; 2
     b26:	48 f4       	brcc	.+18     	; 0xb3a <__pack_f+0x2e>
     b28:	80 e0       	ldi	r24, 0x00	; 0
     b2a:	90 e0       	ldi	r25, 0x00	; 0
     b2c:	a0 e1       	ldi	r26, 0x10	; 16
     b2e:	b0 e0       	ldi	r27, 0x00	; 0
     b30:	e8 2a       	or	r14, r24
     b32:	f9 2a       	or	r15, r25
     b34:	0a 2b       	or	r16, r26
     b36:	1b 2b       	or	r17, r27
     b38:	a5 c0       	rjmp	.+330    	; 0xc84 <__pack_f+0x178>
     b3a:	84 30       	cpi	r24, 0x04	; 4
     b3c:	09 f4       	brne	.+2      	; 0xb40 <__pack_f+0x34>
     b3e:	9f c0       	rjmp	.+318    	; 0xc7e <__pack_f+0x172>
     b40:	82 30       	cpi	r24, 0x02	; 2
     b42:	21 f4       	brne	.+8      	; 0xb4c <__pack_f+0x40>
     b44:	ee 24       	eor	r14, r14
     b46:	ff 24       	eor	r15, r15
     b48:	87 01       	movw	r16, r14
     b4a:	05 c0       	rjmp	.+10     	; 0xb56 <__pack_f+0x4a>
     b4c:	e1 14       	cp	r14, r1
     b4e:	f1 04       	cpc	r15, r1
     b50:	01 05       	cpc	r16, r1
     b52:	11 05       	cpc	r17, r1
     b54:	19 f4       	brne	.+6      	; 0xb5c <__pack_f+0x50>
     b56:	e0 e0       	ldi	r30, 0x00	; 0
     b58:	f0 e0       	ldi	r31, 0x00	; 0
     b5a:	96 c0       	rjmp	.+300    	; 0xc88 <__pack_f+0x17c>
     b5c:	62 81       	ldd	r22, Z+2	; 0x02
     b5e:	73 81       	ldd	r23, Z+3	; 0x03
     b60:	9f ef       	ldi	r25, 0xFF	; 255
     b62:	62 38       	cpi	r22, 0x82	; 130
     b64:	79 07       	cpc	r23, r25
     b66:	0c f0       	brlt	.+2      	; 0xb6a <__pack_f+0x5e>
     b68:	5b c0       	rjmp	.+182    	; 0xc20 <__pack_f+0x114>
     b6a:	22 e8       	ldi	r18, 0x82	; 130
     b6c:	3f ef       	ldi	r19, 0xFF	; 255
     b6e:	26 1b       	sub	r18, r22
     b70:	37 0b       	sbc	r19, r23
     b72:	2a 31       	cpi	r18, 0x1A	; 26
     b74:	31 05       	cpc	r19, r1
     b76:	2c f0       	brlt	.+10     	; 0xb82 <__pack_f+0x76>
     b78:	20 e0       	ldi	r18, 0x00	; 0
     b7a:	30 e0       	ldi	r19, 0x00	; 0
     b7c:	40 e0       	ldi	r20, 0x00	; 0
     b7e:	50 e0       	ldi	r21, 0x00	; 0
     b80:	2a c0       	rjmp	.+84     	; 0xbd6 <__pack_f+0xca>
     b82:	b8 01       	movw	r22, r16
     b84:	a7 01       	movw	r20, r14
     b86:	02 2e       	mov	r0, r18
     b88:	04 c0       	rjmp	.+8      	; 0xb92 <__pack_f+0x86>
     b8a:	76 95       	lsr	r23
     b8c:	67 95       	ror	r22
     b8e:	57 95       	ror	r21
     b90:	47 95       	ror	r20
     b92:	0a 94       	dec	r0
     b94:	d2 f7       	brpl	.-12     	; 0xb8a <__pack_f+0x7e>
     b96:	81 e0       	ldi	r24, 0x01	; 1
     b98:	90 e0       	ldi	r25, 0x00	; 0
     b9a:	a0 e0       	ldi	r26, 0x00	; 0
     b9c:	b0 e0       	ldi	r27, 0x00	; 0
     b9e:	04 c0       	rjmp	.+8      	; 0xba8 <__pack_f+0x9c>
     ba0:	88 0f       	add	r24, r24
     ba2:	99 1f       	adc	r25, r25
     ba4:	aa 1f       	adc	r26, r26
     ba6:	bb 1f       	adc	r27, r27
     ba8:	2a 95       	dec	r18
     baa:	d2 f7       	brpl	.-12     	; 0xba0 <__pack_f+0x94>
     bac:	01 97       	sbiw	r24, 0x01	; 1
     bae:	a1 09       	sbc	r26, r1
     bb0:	b1 09       	sbc	r27, r1
     bb2:	8e 21       	and	r24, r14
     bb4:	9f 21       	and	r25, r15
     bb6:	a0 23       	and	r26, r16
     bb8:	b1 23       	and	r27, r17
     bba:	00 97       	sbiw	r24, 0x00	; 0
     bbc:	a1 05       	cpc	r26, r1
     bbe:	b1 05       	cpc	r27, r1
     bc0:	21 f0       	breq	.+8      	; 0xbca <__pack_f+0xbe>
     bc2:	81 e0       	ldi	r24, 0x01	; 1
     bc4:	90 e0       	ldi	r25, 0x00	; 0
     bc6:	a0 e0       	ldi	r26, 0x00	; 0
     bc8:	b0 e0       	ldi	r27, 0x00	; 0
     bca:	9a 01       	movw	r18, r20
     bcc:	ab 01       	movw	r20, r22
     bce:	28 2b       	or	r18, r24
     bd0:	39 2b       	or	r19, r25
     bd2:	4a 2b       	or	r20, r26
     bd4:	5b 2b       	or	r21, r27
     bd6:	da 01       	movw	r26, r20
     bd8:	c9 01       	movw	r24, r18
     bda:	8f 77       	andi	r24, 0x7F	; 127
     bdc:	90 70       	andi	r25, 0x00	; 0
     bde:	a0 70       	andi	r26, 0x00	; 0
     be0:	b0 70       	andi	r27, 0x00	; 0
     be2:	80 34       	cpi	r24, 0x40	; 64
     be4:	91 05       	cpc	r25, r1
     be6:	a1 05       	cpc	r26, r1
     be8:	b1 05       	cpc	r27, r1
     bea:	39 f4       	brne	.+14     	; 0xbfa <__pack_f+0xee>
     bec:	27 ff       	sbrs	r18, 7
     bee:	09 c0       	rjmp	.+18     	; 0xc02 <__pack_f+0xf6>
     bf0:	20 5c       	subi	r18, 0xC0	; 192
     bf2:	3f 4f       	sbci	r19, 0xFF	; 255
     bf4:	4f 4f       	sbci	r20, 0xFF	; 255
     bf6:	5f 4f       	sbci	r21, 0xFF	; 255
     bf8:	04 c0       	rjmp	.+8      	; 0xc02 <__pack_f+0xf6>
     bfa:	21 5c       	subi	r18, 0xC1	; 193
     bfc:	3f 4f       	sbci	r19, 0xFF	; 255
     bfe:	4f 4f       	sbci	r20, 0xFF	; 255
     c00:	5f 4f       	sbci	r21, 0xFF	; 255
     c02:	e0 e0       	ldi	r30, 0x00	; 0
     c04:	f0 e0       	ldi	r31, 0x00	; 0
     c06:	20 30       	cpi	r18, 0x00	; 0
     c08:	a0 e0       	ldi	r26, 0x00	; 0
     c0a:	3a 07       	cpc	r19, r26
     c0c:	a0 e0       	ldi	r26, 0x00	; 0
     c0e:	4a 07       	cpc	r20, r26
     c10:	a0 e4       	ldi	r26, 0x40	; 64
     c12:	5a 07       	cpc	r21, r26
     c14:	10 f0       	brcs	.+4      	; 0xc1a <__pack_f+0x10e>
     c16:	e1 e0       	ldi	r30, 0x01	; 1
     c18:	f0 e0       	ldi	r31, 0x00	; 0
     c1a:	79 01       	movw	r14, r18
     c1c:	8a 01       	movw	r16, r20
     c1e:	27 c0       	rjmp	.+78     	; 0xc6e <__pack_f+0x162>
     c20:	60 38       	cpi	r22, 0x80	; 128
     c22:	71 05       	cpc	r23, r1
     c24:	64 f5       	brge	.+88     	; 0xc7e <__pack_f+0x172>
     c26:	fb 01       	movw	r30, r22
     c28:	e1 58       	subi	r30, 0x81	; 129
     c2a:	ff 4f       	sbci	r31, 0xFF	; 255
     c2c:	d8 01       	movw	r26, r16
     c2e:	c7 01       	movw	r24, r14
     c30:	8f 77       	andi	r24, 0x7F	; 127
     c32:	90 70       	andi	r25, 0x00	; 0
     c34:	a0 70       	andi	r26, 0x00	; 0
     c36:	b0 70       	andi	r27, 0x00	; 0
     c38:	80 34       	cpi	r24, 0x40	; 64
     c3a:	91 05       	cpc	r25, r1
     c3c:	a1 05       	cpc	r26, r1
     c3e:	b1 05       	cpc	r27, r1
     c40:	39 f4       	brne	.+14     	; 0xc50 <__pack_f+0x144>
     c42:	e7 fe       	sbrs	r14, 7
     c44:	0d c0       	rjmp	.+26     	; 0xc60 <__pack_f+0x154>
     c46:	80 e4       	ldi	r24, 0x40	; 64
     c48:	90 e0       	ldi	r25, 0x00	; 0
     c4a:	a0 e0       	ldi	r26, 0x00	; 0
     c4c:	b0 e0       	ldi	r27, 0x00	; 0
     c4e:	04 c0       	rjmp	.+8      	; 0xc58 <__pack_f+0x14c>
     c50:	8f e3       	ldi	r24, 0x3F	; 63
     c52:	90 e0       	ldi	r25, 0x00	; 0
     c54:	a0 e0       	ldi	r26, 0x00	; 0
     c56:	b0 e0       	ldi	r27, 0x00	; 0
     c58:	e8 0e       	add	r14, r24
     c5a:	f9 1e       	adc	r15, r25
     c5c:	0a 1f       	adc	r16, r26
     c5e:	1b 1f       	adc	r17, r27
     c60:	17 ff       	sbrs	r17, 7
     c62:	05 c0       	rjmp	.+10     	; 0xc6e <__pack_f+0x162>
     c64:	16 95       	lsr	r17
     c66:	07 95       	ror	r16
     c68:	f7 94       	ror	r15
     c6a:	e7 94       	ror	r14
     c6c:	31 96       	adiw	r30, 0x01	; 1
     c6e:	87 e0       	ldi	r24, 0x07	; 7
     c70:	16 95       	lsr	r17
     c72:	07 95       	ror	r16
     c74:	f7 94       	ror	r15
     c76:	e7 94       	ror	r14
     c78:	8a 95       	dec	r24
     c7a:	d1 f7       	brne	.-12     	; 0xc70 <__pack_f+0x164>
     c7c:	05 c0       	rjmp	.+10     	; 0xc88 <__pack_f+0x17c>
     c7e:	ee 24       	eor	r14, r14
     c80:	ff 24       	eor	r15, r15
     c82:	87 01       	movw	r16, r14
     c84:	ef ef       	ldi	r30, 0xFF	; 255
     c86:	f0 e0       	ldi	r31, 0x00	; 0
     c88:	6e 2f       	mov	r22, r30
     c8a:	67 95       	ror	r22
     c8c:	66 27       	eor	r22, r22
     c8e:	67 95       	ror	r22
     c90:	90 2f       	mov	r25, r16
     c92:	9f 77       	andi	r25, 0x7F	; 127
     c94:	d7 94       	ror	r13
     c96:	dd 24       	eor	r13, r13
     c98:	d7 94       	ror	r13
     c9a:	8e 2f       	mov	r24, r30
     c9c:	86 95       	lsr	r24
     c9e:	49 2f       	mov	r20, r25
     ca0:	46 2b       	or	r20, r22
     ca2:	58 2f       	mov	r21, r24
     ca4:	5d 29       	or	r21, r13
     ca6:	b7 01       	movw	r22, r14
     ca8:	ca 01       	movw	r24, r20
     caa:	1f 91       	pop	r17
     cac:	0f 91       	pop	r16
     cae:	ff 90       	pop	r15
     cb0:	ef 90       	pop	r14
     cb2:	df 90       	pop	r13
     cb4:	08 95       	ret

00000cb6 <__unpack_f>:
     cb6:	fc 01       	movw	r30, r24
     cb8:	db 01       	movw	r26, r22
     cba:	40 81       	ld	r20, Z
     cbc:	51 81       	ldd	r21, Z+1	; 0x01
     cbe:	22 81       	ldd	r18, Z+2	; 0x02
     cc0:	62 2f       	mov	r22, r18
     cc2:	6f 77       	andi	r22, 0x7F	; 127
     cc4:	70 e0       	ldi	r23, 0x00	; 0
     cc6:	22 1f       	adc	r18, r18
     cc8:	22 27       	eor	r18, r18
     cca:	22 1f       	adc	r18, r18
     ccc:	93 81       	ldd	r25, Z+3	; 0x03
     cce:	89 2f       	mov	r24, r25
     cd0:	88 0f       	add	r24, r24
     cd2:	82 2b       	or	r24, r18
     cd4:	28 2f       	mov	r18, r24
     cd6:	30 e0       	ldi	r19, 0x00	; 0
     cd8:	99 1f       	adc	r25, r25
     cda:	99 27       	eor	r25, r25
     cdc:	99 1f       	adc	r25, r25
     cde:	11 96       	adiw	r26, 0x01	; 1
     ce0:	9c 93       	st	X, r25
     ce2:	11 97       	sbiw	r26, 0x01	; 1
     ce4:	21 15       	cp	r18, r1
     ce6:	31 05       	cpc	r19, r1
     ce8:	a9 f5       	brne	.+106    	; 0xd54 <__unpack_f+0x9e>
     cea:	41 15       	cp	r20, r1
     cec:	51 05       	cpc	r21, r1
     cee:	61 05       	cpc	r22, r1
     cf0:	71 05       	cpc	r23, r1
     cf2:	11 f4       	brne	.+4      	; 0xcf8 <__unpack_f+0x42>
     cf4:	82 e0       	ldi	r24, 0x02	; 2
     cf6:	37 c0       	rjmp	.+110    	; 0xd66 <__unpack_f+0xb0>
     cf8:	82 e8       	ldi	r24, 0x82	; 130
     cfa:	9f ef       	ldi	r25, 0xFF	; 255
     cfc:	13 96       	adiw	r26, 0x03	; 3
     cfe:	9c 93       	st	X, r25
     d00:	8e 93       	st	-X, r24
     d02:	12 97       	sbiw	r26, 0x02	; 2
     d04:	9a 01       	movw	r18, r20
     d06:	ab 01       	movw	r20, r22
     d08:	67 e0       	ldi	r22, 0x07	; 7
     d0a:	22 0f       	add	r18, r18
     d0c:	33 1f       	adc	r19, r19
     d0e:	44 1f       	adc	r20, r20
     d10:	55 1f       	adc	r21, r21
     d12:	6a 95       	dec	r22
     d14:	d1 f7       	brne	.-12     	; 0xd0a <__unpack_f+0x54>
     d16:	83 e0       	ldi	r24, 0x03	; 3
     d18:	8c 93       	st	X, r24
     d1a:	0d c0       	rjmp	.+26     	; 0xd36 <__unpack_f+0x80>
     d1c:	22 0f       	add	r18, r18
     d1e:	33 1f       	adc	r19, r19
     d20:	44 1f       	adc	r20, r20
     d22:	55 1f       	adc	r21, r21
     d24:	12 96       	adiw	r26, 0x02	; 2
     d26:	8d 91       	ld	r24, X+
     d28:	9c 91       	ld	r25, X
     d2a:	13 97       	sbiw	r26, 0x03	; 3
     d2c:	01 97       	sbiw	r24, 0x01	; 1
     d2e:	13 96       	adiw	r26, 0x03	; 3
     d30:	9c 93       	st	X, r25
     d32:	8e 93       	st	-X, r24
     d34:	12 97       	sbiw	r26, 0x02	; 2
     d36:	20 30       	cpi	r18, 0x00	; 0
     d38:	80 e0       	ldi	r24, 0x00	; 0
     d3a:	38 07       	cpc	r19, r24
     d3c:	80 e0       	ldi	r24, 0x00	; 0
     d3e:	48 07       	cpc	r20, r24
     d40:	80 e4       	ldi	r24, 0x40	; 64
     d42:	58 07       	cpc	r21, r24
     d44:	58 f3       	brcs	.-42     	; 0xd1c <__unpack_f+0x66>
     d46:	14 96       	adiw	r26, 0x04	; 4
     d48:	2d 93       	st	X+, r18
     d4a:	3d 93       	st	X+, r19
     d4c:	4d 93       	st	X+, r20
     d4e:	5c 93       	st	X, r21
     d50:	17 97       	sbiw	r26, 0x07	; 7
     d52:	08 95       	ret
     d54:	2f 3f       	cpi	r18, 0xFF	; 255
     d56:	31 05       	cpc	r19, r1
     d58:	79 f4       	brne	.+30     	; 0xd78 <__unpack_f+0xc2>
     d5a:	41 15       	cp	r20, r1
     d5c:	51 05       	cpc	r21, r1
     d5e:	61 05       	cpc	r22, r1
     d60:	71 05       	cpc	r23, r1
     d62:	19 f4       	brne	.+6      	; 0xd6a <__unpack_f+0xb4>
     d64:	84 e0       	ldi	r24, 0x04	; 4
     d66:	8c 93       	st	X, r24
     d68:	08 95       	ret
     d6a:	64 ff       	sbrs	r22, 4
     d6c:	03 c0       	rjmp	.+6      	; 0xd74 <__unpack_f+0xbe>
     d6e:	81 e0       	ldi	r24, 0x01	; 1
     d70:	8c 93       	st	X, r24
     d72:	12 c0       	rjmp	.+36     	; 0xd98 <__unpack_f+0xe2>
     d74:	1c 92       	st	X, r1
     d76:	10 c0       	rjmp	.+32     	; 0xd98 <__unpack_f+0xe2>
     d78:	2f 57       	subi	r18, 0x7F	; 127
     d7a:	30 40       	sbci	r19, 0x00	; 0
     d7c:	13 96       	adiw	r26, 0x03	; 3
     d7e:	3c 93       	st	X, r19
     d80:	2e 93       	st	-X, r18
     d82:	12 97       	sbiw	r26, 0x02	; 2
     d84:	83 e0       	ldi	r24, 0x03	; 3
     d86:	8c 93       	st	X, r24
     d88:	87 e0       	ldi	r24, 0x07	; 7
     d8a:	44 0f       	add	r20, r20
     d8c:	55 1f       	adc	r21, r21
     d8e:	66 1f       	adc	r22, r22
     d90:	77 1f       	adc	r23, r23
     d92:	8a 95       	dec	r24
     d94:	d1 f7       	brne	.-12     	; 0xd8a <__unpack_f+0xd4>
     d96:	70 64       	ori	r23, 0x40	; 64
     d98:	14 96       	adiw	r26, 0x04	; 4
     d9a:	4d 93       	st	X+, r20
     d9c:	5d 93       	st	X+, r21
     d9e:	6d 93       	st	X+, r22
     da0:	7c 93       	st	X, r23
     da2:	17 97       	sbiw	r26, 0x07	; 7
     da4:	08 95       	ret

00000da6 <analog_conversion_result>:
     da6:	80 91 7c 00 	lds	r24, 0x007C
     daa:	85 ff       	sbrs	r24, 5
     dac:	05 c0       	rjmp	.+10     	; 0xdb8 <analog_conversion_result+0x12>
     dae:	80 91 79 00 	lds	r24, 0x0079
     db2:	28 2f       	mov	r18, r24
     db4:	30 e0       	ldi	r19, 0x00	; 0
     db6:	04 c0       	rjmp	.+8      	; 0xdc0 <analog_conversion_result+0x1a>
     db8:	20 91 78 00 	lds	r18, 0x0078
     dbc:	30 91 79 00 	lds	r19, 0x0079
     dc0:	c9 01       	movw	r24, r18
     dc2:	08 95       	ret

00000dc4 <set_millivolt_calibration>:
     dc4:	90 93 1b 01 	sts	0x011B, r25
     dc8:	80 93 1a 01 	sts	0x011A, r24
     dcc:	08 95       	ret

00000dce <_ZN15OrangutanAnalogC2Ev>:
     dce:	08 95       	ret

00000dd0 <_ZN15OrangutanAnalogC1Ev>:
     dd0:	08 95       	ret

00000dd2 <_ZN15OrangutanAnalog16conversionResultEv>:
     dd2:	80 91 7c 00 	lds	r24, 0x007C
     dd6:	85 ff       	sbrs	r24, 5
     dd8:	05 c0       	rjmp	.+10     	; 0xde4 <_ZN15OrangutanAnalog16conversionResultEv+0x12>
     dda:	80 91 79 00 	lds	r24, 0x0079
     dde:	28 2f       	mov	r18, r24
     de0:	30 e0       	ldi	r19, 0x00	; 0
     de2:	04 c0       	rjmp	.+8      	; 0xdec <_ZN15OrangutanAnalog16conversionResultEv+0x1a>
     de4:	20 91 78 00 	lds	r18, 0x0078
     de8:	30 91 79 00 	lds	r19, 0x0079
     dec:	c9 01       	movw	r24, r18
     dee:	08 95       	ret

00000df0 <_ZN15OrangutanAnalog15startConversionEhh>:
     df0:	28 2f       	mov	r18, r24
     df2:	80 32       	cpi	r24, 0x20	; 32
     df4:	b0 f4       	brcc	.+44     	; 0xe22 <_ZN15OrangutanAnalog15startConversionEhh+0x32>
     df6:	87 e8       	ldi	r24, 0x87	; 135
     df8:	80 93 7a 00 	sts	0x007A, r24
     dfc:	80 91 7c 00 	lds	r24, 0x007C
     e00:	98 2f       	mov	r25, r24
     e02:	90 64       	ori	r25, 0x40	; 64
     e04:	66 23       	and	r22, r22
     e06:	11 f0       	breq	.+4      	; 0xe0c <_ZN15OrangutanAnalog15startConversionEhh+0x1c>
     e08:	80 6c       	ori	r24, 0xC0	; 192
     e0a:	02 c0       	rjmp	.+4      	; 0xe10 <_ZN15OrangutanAnalog15startConversionEhh+0x20>
     e0c:	89 2f       	mov	r24, r25
     e0e:	8f 77       	andi	r24, 0x7F	; 127
     e10:	80 7e       	andi	r24, 0xE0	; 224
     e12:	82 2b       	or	r24, r18
     e14:	80 93 7c 00 	sts	0x007C, r24
     e18:	80 91 7a 00 	lds	r24, 0x007A
     e1c:	80 64       	ori	r24, 0x40	; 64
     e1e:	80 93 7a 00 	sts	0x007A, r24
     e22:	08 95       	ret

00000e24 <start_analog_conversion>:
     e24:	60 e0       	ldi	r22, 0x00	; 0
     e26:	0e 94 f8 06 	call	0xdf0	; 0xdf0 <_ZN15OrangutanAnalog15startConversionEhh>
     e2a:	08 95       	ret

00000e2c <_ZN15OrangutanAnalog4readEh>:
     e2c:	60 e0       	ldi	r22, 0x00	; 0
     e2e:	0e 94 f8 06 	call	0xdf0	; 0xdf0 <_ZN15OrangutanAnalog15startConversionEhh>
     e32:	80 91 7a 00 	lds	r24, 0x007A
     e36:	86 fd       	sbrc	r24, 6
     e38:	fc cf       	rjmp	.-8      	; 0xe32 <_ZN15OrangutanAnalog4readEh+0x6>
     e3a:	80 91 7c 00 	lds	r24, 0x007C
     e3e:	85 ff       	sbrs	r24, 5
     e40:	05 c0       	rjmp	.+10     	; 0xe4c <_ZN15OrangutanAnalog4readEh+0x20>
     e42:	80 91 79 00 	lds	r24, 0x0079
     e46:	28 2f       	mov	r18, r24
     e48:	30 e0       	ldi	r19, 0x00	; 0
     e4a:	04 c0       	rjmp	.+8      	; 0xe54 <_ZN15OrangutanAnalog4readEh+0x28>
     e4c:	20 91 78 00 	lds	r18, 0x0078
     e50:	30 91 79 00 	lds	r19, 0x0079
     e54:	c9 01       	movw	r24, r18
     e56:	08 95       	ret

00000e58 <analog_read>:
     e58:	0e 94 16 07 	call	0xe2c	; 0xe2c <_ZN15OrangutanAnalog4readEh>
     e5c:	08 95       	ret

00000e5e <_ZN15OrangutanAnalog11readAverageEhj>:
     e5e:	ef 92       	push	r14
     e60:	ff 92       	push	r15
     e62:	0f 93       	push	r16
     e64:	1f 93       	push	r17
     e66:	cf 93       	push	r28
     e68:	df 93       	push	r29
     e6a:	eb 01       	movw	r28, r22
     e6c:	60 e0       	ldi	r22, 0x00	; 0
     e6e:	0e 94 f8 06 	call	0xdf0	; 0xdf0 <_ZN15OrangutanAnalog15startConversionEhh>
     e72:	80 91 7a 00 	lds	r24, 0x007A
     e76:	86 fd       	sbrc	r24, 6
     e78:	fc cf       	rjmp	.-8      	; 0xe72 <_ZN15OrangutanAnalog11readAverageEhj+0x14>
     e7a:	9e 01       	movw	r18, r28
     e7c:	ee 24       	eor	r14, r14
     e7e:	ff 24       	eor	r15, r15
     e80:	87 01       	movw	r16, r14
     e82:	80 91 7a 00 	lds	r24, 0x007A
     e86:	80 64       	ori	r24, 0x40	; 64
     e88:	80 93 7a 00 	sts	0x007A, r24
     e8c:	80 91 7a 00 	lds	r24, 0x007A
     e90:	86 fd       	sbrc	r24, 6
     e92:	fc cf       	rjmp	.-8      	; 0xe8c <_ZN15OrangutanAnalog11readAverageEhj+0x2e>
     e94:	80 91 7c 00 	lds	r24, 0x007C
     e98:	85 ff       	sbrs	r24, 5
     e9a:	04 c0       	rjmp	.+8      	; 0xea4 <_ZN15OrangutanAnalog11readAverageEhj+0x46>
     e9c:	80 91 79 00 	lds	r24, 0x0079
     ea0:	90 e0       	ldi	r25, 0x00	; 0
     ea2:	04 c0       	rjmp	.+8      	; 0xeac <_ZN15OrangutanAnalog11readAverageEhj+0x4e>
     ea4:	80 91 78 00 	lds	r24, 0x0078
     ea8:	90 91 79 00 	lds	r25, 0x0079
     eac:	a0 e0       	ldi	r26, 0x00	; 0
     eae:	b0 e0       	ldi	r27, 0x00	; 0
     eb0:	e8 0e       	add	r14, r24
     eb2:	f9 1e       	adc	r15, r25
     eb4:	0a 1f       	adc	r16, r26
     eb6:	1b 1f       	adc	r17, r27
     eb8:	21 50       	subi	r18, 0x01	; 1
     eba:	30 40       	sbci	r19, 0x00	; 0
     ebc:	11 f7       	brne	.-60     	; 0xe82 <_ZN15OrangutanAnalog11readAverageEhj+0x24>
     ebe:	ce 01       	movw	r24, r28
     ec0:	96 95       	lsr	r25
     ec2:	87 95       	ror	r24
     ec4:	c0 34       	cpi	r28, 0x40	; 64
     ec6:	d1 05       	cpc	r29, r1
     ec8:	40 f4       	brcc	.+16     	; 0xeda <_ZN15OrangutanAnalog11readAverageEhj+0x7c>
     eca:	8e 0d       	add	r24, r14
     ecc:	9f 1d       	adc	r25, r15
     ece:	6c 2f       	mov	r22, r28
     ed0:	70 e0       	ldi	r23, 0x00	; 0
     ed2:	0e 94 5d 15 	call	0x2aba	; 0x2aba <__udivmodhi4>
     ed6:	9b 01       	movw	r18, r22
     ed8:	0d c0       	rjmp	.+26     	; 0xef4 <_ZN15OrangutanAnalog11readAverageEhj+0x96>
     eda:	a0 e0       	ldi	r26, 0x00	; 0
     edc:	b0 e0       	ldi	r27, 0x00	; 0
     ede:	e8 0e       	add	r14, r24
     ee0:	f9 1e       	adc	r15, r25
     ee2:	0a 1f       	adc	r16, r26
     ee4:	1b 1f       	adc	r17, r27
     ee6:	9e 01       	movw	r18, r28
     ee8:	40 e0       	ldi	r20, 0x00	; 0
     eea:	50 e0       	ldi	r21, 0x00	; 0
     eec:	c8 01       	movw	r24, r16
     eee:	b7 01       	movw	r22, r14
     ef0:	0e 94 84 15 	call	0x2b08	; 0x2b08 <__udivmodsi4>
     ef4:	c9 01       	movw	r24, r18
     ef6:	cd b7       	in	r28, 0x3d	; 61
     ef8:	de b7       	in	r29, 0x3e	; 62
     efa:	e6 e0       	ldi	r30, 0x06	; 6
     efc:	0c 94 e9 15 	jmp	0x2bd2	; 0x2bd2 <__epilogue_restores__+0x18>

00000f00 <read_trimpot>:
     f00:	87 e0       	ldi	r24, 0x07	; 7
     f02:	64 e1       	ldi	r22, 0x14	; 20
     f04:	70 e0       	ldi	r23, 0x00	; 0
     f06:	0e 94 2f 07 	call	0xe5e	; 0xe5e <_ZN15OrangutanAnalog11readAverageEhj>
     f0a:	08 95       	ret

00000f0c <analog_read_average>:
     f0c:	0e 94 2f 07 	call	0xe5e	; 0xe5e <_ZN15OrangutanAnalog11readAverageEhj>
     f10:	08 95       	ret

00000f12 <_ZN15OrangutanAnalog23setMillivoltCalibrationEj>:
     f12:	90 93 1b 01 	sts	0x011B, r25
     f16:	80 93 1a 01 	sts	0x011A, r24
     f1a:	08 95       	ret

00000f1c <_ZN15OrangutanAnalog17readVCCMillivoltsEv>:
     f1c:	1f 93       	push	r17
     f1e:	10 91 7c 00 	lds	r17, 0x007C
     f22:	80 91 7c 00 	lds	r24, 0x007C
     f26:	8f 7d       	andi	r24, 0xDF	; 223
     f28:	80 93 7c 00 	sts	0x007C, r24
     f2c:	8e e1       	ldi	r24, 0x1E	; 30
     f2e:	64 e1       	ldi	r22, 0x14	; 20
     f30:	70 e0       	ldi	r23, 0x00	; 0
     f32:	0e 94 2f 07 	call	0xe5e	; 0xe5e <_ZN15OrangutanAnalog11readAverageEhj>
     f36:	8e e1       	ldi	r24, 0x1E	; 30
     f38:	64 e1       	ldi	r22, 0x14	; 20
     f3a:	70 e0       	ldi	r23, 0x00	; 0
     f3c:	0e 94 2f 07 	call	0xe5e	; 0xe5e <_ZN15OrangutanAnalog11readAverageEhj>
     f40:	9c 01       	movw	r18, r24
     f42:	15 fd       	sbrc	r17, 5
     f44:	04 c0       	rjmp	.+8      	; 0xf4e <_ZN15OrangutanAnalog17readVCCMillivoltsEv+0x32>
     f46:	80 91 7c 00 	lds	r24, 0x007C
     f4a:	8f 7d       	andi	r24, 0xDF	; 223
     f4c:	03 c0       	rjmp	.+6      	; 0xf54 <_ZN15OrangutanAnalog17readVCCMillivoltsEv+0x38>
     f4e:	80 91 7c 00 	lds	r24, 0x007C
     f52:	80 62       	ori	r24, 0x20	; 32
     f54:	80 93 7c 00 	sts	0x007C, r24
     f58:	b9 01       	movw	r22, r18
     f5a:	76 95       	lsr	r23
     f5c:	67 95       	ror	r22
     f5e:	80 e0       	ldi	r24, 0x00	; 0
     f60:	90 e0       	ldi	r25, 0x00	; 0
     f62:	6c 54       	subi	r22, 0x4C	; 76
     f64:	74 4d       	sbci	r23, 0xD4	; 212
     f66:	8e 4e       	sbci	r24, 0xEE	; 238
     f68:	9f 4f       	sbci	r25, 0xFF	; 255
     f6a:	40 e0       	ldi	r20, 0x00	; 0
     f6c:	50 e0       	ldi	r21, 0x00	; 0
     f6e:	0e 94 84 15 	call	0x2b08	; 0x2b08 <__udivmodsi4>
     f72:	c9 01       	movw	r24, r18
     f74:	1f 91       	pop	r17
     f76:	08 95       	ret

00000f78 <read_vcc_millivolts>:
     f78:	0e 94 8e 07 	call	0xf1c	; 0xf1c <_ZN15OrangutanAnalog17readVCCMillivoltsEv>
     f7c:	08 95       	ret

00000f7e <_ZN15OrangutanAnalog12toMillivoltsEj>:
     f7e:	a0 e0       	ldi	r26, 0x00	; 0
     f80:	b0 e0       	ldi	r27, 0x00	; 0
     f82:	20 91 1a 01 	lds	r18, 0x011A
     f86:	30 91 1b 01 	lds	r19, 0x011B
     f8a:	40 e0       	ldi	r20, 0x00	; 0
     f8c:	50 e0       	ldi	r21, 0x00	; 0
     f8e:	bc 01       	movw	r22, r24
     f90:	cd 01       	movw	r24, r26
     f92:	0e 94 32 15 	call	0x2a64	; 0x2a64 <__mulsi3>
     f96:	9b 01       	movw	r18, r22
     f98:	ac 01       	movw	r20, r24
     f9a:	80 91 7c 00 	lds	r24, 0x007C
     f9e:	85 ff       	sbrs	r24, 5
     fa0:	0b c0       	rjmp	.+22     	; 0xfb8 <_ZN15OrangutanAnalog12toMillivoltsEj+0x3a>
     fa2:	b9 01       	movw	r22, r18
     fa4:	ca 01       	movw	r24, r20
     fa6:	61 58       	subi	r22, 0x81	; 129
     fa8:	7f 4f       	sbci	r23, 0xFF	; 255
     faa:	8f 4f       	sbci	r24, 0xFF	; 255
     fac:	9f 4f       	sbci	r25, 0xFF	; 255
     fae:	2f ef       	ldi	r18, 0xFF	; 255
     fb0:	30 e0       	ldi	r19, 0x00	; 0
     fb2:	40 e0       	ldi	r20, 0x00	; 0
     fb4:	50 e0       	ldi	r21, 0x00	; 0
     fb6:	0a c0       	rjmp	.+20     	; 0xfcc <_ZN15OrangutanAnalog12toMillivoltsEj+0x4e>
     fb8:	b9 01       	movw	r22, r18
     fba:	ca 01       	movw	r24, r20
     fbc:	61 50       	subi	r22, 0x01	; 1
     fbe:	7e 4f       	sbci	r23, 0xFE	; 254
     fc0:	8f 4f       	sbci	r24, 0xFF	; 255
     fc2:	9f 4f       	sbci	r25, 0xFF	; 255
     fc4:	2f ef       	ldi	r18, 0xFF	; 255
     fc6:	33 e0       	ldi	r19, 0x03	; 3
     fc8:	40 e0       	ldi	r20, 0x00	; 0
     fca:	50 e0       	ldi	r21, 0x00	; 0
     fcc:	0e 94 84 15 	call	0x2b08	; 0x2b08 <__udivmodsi4>
     fd0:	c9 01       	movw	r24, r18
     fd2:	08 95       	ret

00000fd4 <_ZN15OrangutanAnalog21readAverageMillivoltsEhj>:
     fd4:	0e 94 2f 07 	call	0xe5e	; 0xe5e <_ZN15OrangutanAnalog11readAverageEhj>
     fd8:	0e 94 bf 07 	call	0xf7e	; 0xf7e <_ZN15OrangutanAnalog12toMillivoltsEj>
     fdc:	08 95       	ret

00000fde <analog_read_average_millivolts>:
     fde:	0e 94 ea 07 	call	0xfd4	; 0xfd4 <_ZN15OrangutanAnalog21readAverageMillivoltsEhj>
     fe2:	08 95       	ret

00000fe4 <_ZN15OrangutanAnalog26conversionResultMillivoltsEv>:
     fe4:	80 91 7c 00 	lds	r24, 0x007C
     fe8:	85 ff       	sbrs	r24, 5
     fea:	06 c0       	rjmp	.+12     	; 0xff8 <_ZN15OrangutanAnalog26conversionResultMillivoltsEv+0x14>
     fec:	80 91 79 00 	lds	r24, 0x0079
     ff0:	90 e0       	ldi	r25, 0x00	; 0
     ff2:	0e 94 bf 07 	call	0xf7e	; 0xf7e <_ZN15OrangutanAnalog12toMillivoltsEj>
     ff6:	08 95       	ret
     ff8:	80 91 78 00 	lds	r24, 0x0078
     ffc:	90 91 79 00 	lds	r25, 0x0079
    1000:	0e 94 bf 07 	call	0xf7e	; 0xf7e <_ZN15OrangutanAnalog12toMillivoltsEj>
    1004:	08 95       	ret

00001006 <_ZN15OrangutanAnalog14readMillivoltsEh>:
    1006:	60 e0       	ldi	r22, 0x00	; 0
    1008:	0e 94 f8 06 	call	0xdf0	; 0xdf0 <_ZN15OrangutanAnalog15startConversionEhh>
    100c:	80 91 7a 00 	lds	r24, 0x007A
    1010:	86 fd       	sbrc	r24, 6
    1012:	fc cf       	rjmp	.-8      	; 0x100c <_ZN15OrangutanAnalog14readMillivoltsEh+0x6>
    1014:	0e 94 f2 07 	call	0xfe4	; 0xfe4 <_ZN15OrangutanAnalog26conversionResultMillivoltsEv>
    1018:	08 95       	ret

0000101a <analog_read_millivolts>:
    101a:	0e 94 03 08 	call	0x1006	; 0x1006 <_ZN15OrangutanAnalog14readMillivoltsEh>
    101e:	08 95       	ret

00001020 <analog_conversion_result_millivolts>:
    1020:	0e 94 f2 07 	call	0xfe4	; 0xfe4 <_ZN15OrangutanAnalog26conversionResultMillivoltsEv>
    1024:	08 95       	ret

00001026 <read_trimpot_millivolts>:
    1026:	87 e0       	ldi	r24, 0x07	; 7
    1028:	64 e1       	ldi	r22, 0x14	; 20
    102a:	70 e0       	ldi	r23, 0x00	; 0
    102c:	0e 94 2f 07 	call	0xe5e	; 0xe5e <_ZN15OrangutanAnalog11readAverageEhj>
    1030:	0e 94 bf 07 	call	0xf7e	; 0xf7e <_ZN15OrangutanAnalog12toMillivoltsEj>
    1034:	08 95       	ret

00001036 <to_millivolts>:
    1036:	0e 94 bf 07 	call	0xf7e	; 0xf7e <_ZN15OrangutanAnalog12toMillivoltsEj>
    103a:	08 95       	ret

0000103c <_ZN15OrangutanAnalog16readTemperatureFEv>:
    103c:	1f 93       	push	r17
    103e:	10 91 7c 00 	lds	r17, 0x007C
    1042:	80 91 7c 00 	lds	r24, 0x007C
    1046:	8f 7d       	andi	r24, 0xDF	; 223
    1048:	80 93 7c 00 	sts	0x007C, r24
    104c:	86 e0       	ldi	r24, 0x06	; 6
    104e:	64 e1       	ldi	r22, 0x14	; 20
    1050:	70 e0       	ldi	r23, 0x00	; 0
    1052:	0e 94 ea 07 	call	0xfd4	; 0xfd4 <_ZN15OrangutanAnalog21readAverageMillivoltsEhj>
    1056:	9c 01       	movw	r18, r24
    1058:	15 fd       	sbrc	r17, 5
    105a:	04 c0       	rjmp	.+8      	; 0x1064 <_ZN15OrangutanAnalog16readTemperatureFEv+0x28>
    105c:	80 91 7c 00 	lds	r24, 0x007C
    1060:	8f 7d       	andi	r24, 0xDF	; 223
    1062:	03 c0       	rjmp	.+6      	; 0x106a <_ZN15OrangutanAnalog16readTemperatureFEv+0x2e>
    1064:	80 91 7c 00 	lds	r24, 0x007C
    1068:	80 62       	ori	r24, 0x20	; 32
    106a:	80 93 7c 00 	sts	0x007C, r24
    106e:	c9 01       	movw	r24, r18
    1070:	88 0f       	add	r24, r24
    1072:	99 1f       	adc	r25, r25
    1074:	82 0f       	add	r24, r18
    1076:	93 1f       	adc	r25, r19
    1078:	88 0f       	add	r24, r24
    107a:	99 1f       	adc	r25, r25
    107c:	88 0f       	add	r24, r24
    107e:	99 1f       	adc	r25, r25
    1080:	8a 57       	subi	r24, 0x7A	; 122
    1082:	92 40       	sbci	r25, 0x02	; 2
    1084:	6d e0       	ldi	r22, 0x0D	; 13
    1086:	70 e0       	ldi	r23, 0x00	; 0
    1088:	0e 94 71 15 	call	0x2ae2	; 0x2ae2 <__divmodhi4>
    108c:	cb 01       	movw	r24, r22
    108e:	1f 91       	pop	r17
    1090:	08 95       	ret

00001092 <read_temperature_f>:
    1092:	0e 94 1e 08 	call	0x103c	; 0x103c <_ZN15OrangutanAnalog16readTemperatureFEv>
    1096:	08 95       	ret

00001098 <_ZN15OrangutanAnalog16readTemperatureCEv>:
    1098:	1f 93       	push	r17
    109a:	10 91 7c 00 	lds	r17, 0x007C
    109e:	80 91 7c 00 	lds	r24, 0x007C
    10a2:	8f 7d       	andi	r24, 0xDF	; 223
    10a4:	80 93 7c 00 	sts	0x007C, r24
    10a8:	86 e0       	ldi	r24, 0x06	; 6
    10aa:	64 e1       	ldi	r22, 0x14	; 20
    10ac:	70 e0       	ldi	r23, 0x00	; 0
    10ae:	0e 94 ea 07 	call	0xfd4	; 0xfd4 <_ZN15OrangutanAnalog21readAverageMillivoltsEhj>
    10b2:	9c 01       	movw	r18, r24
    10b4:	15 fd       	sbrc	r17, 5
    10b6:	04 c0       	rjmp	.+8      	; 0x10c0 <_ZN15OrangutanAnalog16readTemperatureCEv+0x28>
    10b8:	80 91 7c 00 	lds	r24, 0x007C
    10bc:	8f 7d       	andi	r24, 0xDF	; 223
    10be:	03 c0       	rjmp	.+6      	; 0x10c6 <_ZN15OrangutanAnalog16readTemperatureCEv+0x2e>
    10c0:	80 91 7c 00 	lds	r24, 0x007C
    10c4:	80 62       	ori	r24, 0x20	; 32
    10c6:	80 93 7c 00 	sts	0x007C, r24
    10ca:	84 e1       	ldi	r24, 0x14	; 20
    10cc:	90 e0       	ldi	r25, 0x00	; 0
    10ce:	ac 01       	movw	r20, r24
    10d0:	24 9f       	mul	r18, r20
    10d2:	c0 01       	movw	r24, r0
    10d4:	25 9f       	mul	r18, r21
    10d6:	90 0d       	add	r25, r0
    10d8:	34 9f       	mul	r19, r20
    10da:	90 0d       	add	r25, r0
    10dc:	11 24       	eor	r1, r1
    10de:	8e 52       	subi	r24, 0x2E	; 46
    10e0:	9f 41       	sbci	r25, 0x1F	; 31
    10e2:	67 e2       	ldi	r22, 0x27	; 39
    10e4:	70 e0       	ldi	r23, 0x00	; 0
    10e6:	0e 94 71 15 	call	0x2ae2	; 0x2ae2 <__divmodhi4>
    10ea:	cb 01       	movw	r24, r22
    10ec:	1f 91       	pop	r17
    10ee:	08 95       	ret

000010f0 <read_temperature_c>:
    10f0:	0e 94 4c 08 	call	0x1098	; 0x1098 <_ZN15OrangutanAnalog16readTemperatureCEv>
    10f4:	08 95       	ret

000010f6 <_ZN15OrangutanAnalog25readBatteryMillivolts_3piEv>:
    10f6:	1f 93       	push	r17
    10f8:	10 91 7c 00 	lds	r17, 0x007C
    10fc:	80 91 7c 00 	lds	r24, 0x007C
    1100:	8f 7d       	andi	r24, 0xDF	; 223
    1102:	80 93 7c 00 	sts	0x007C, r24
    1106:	86 e0       	ldi	r24, 0x06	; 6
    1108:	6a e0       	ldi	r22, 0x0A	; 10
    110a:	70 e0       	ldi	r23, 0x00	; 0
    110c:	0e 94 ea 07 	call	0xfd4	; 0xfd4 <_ZN15OrangutanAnalog21readAverageMillivoltsEhj>
    1110:	ac 01       	movw	r20, r24
    1112:	15 fd       	sbrc	r17, 5
    1114:	04 c0       	rjmp	.+8      	; 0x111e <_ZN15OrangutanAnalog25readBatteryMillivolts_3piEv+0x28>
    1116:	80 91 7c 00 	lds	r24, 0x007C
    111a:	8f 7d       	andi	r24, 0xDF	; 223
    111c:	03 c0       	rjmp	.+6      	; 0x1124 <_ZN15OrangutanAnalog25readBatteryMillivolts_3piEv+0x2e>
    111e:	80 91 7c 00 	lds	r24, 0x007C
    1122:	80 62       	ori	r24, 0x20	; 32
    1124:	80 93 7c 00 	sts	0x007C, r24
    1128:	9a 01       	movw	r18, r20
    112a:	22 0f       	add	r18, r18
    112c:	33 1f       	adc	r19, r19
    112e:	24 0f       	add	r18, r20
    1130:	35 1f       	adc	r19, r21
    1132:	2f 5f       	subi	r18, 0xFF	; 255
    1134:	3f 4f       	sbci	r19, 0xFF	; 255
    1136:	36 95       	lsr	r19
    1138:	27 95       	ror	r18
    113a:	c9 01       	movw	r24, r18
    113c:	1f 91       	pop	r17
    113e:	08 95       	ret

00001140 <read_battery_millivolts_3pi>:
    1140:	0e 94 7b 08 	call	0x10f6	; 0x10f6 <_ZN15OrangutanAnalog25readBatteryMillivolts_3piEv>
    1144:	08 95       	ret

00001146 <_ZN15OrangutanAnalog24readBatteryMillivolts_SVEv>:
    1146:	1f 93       	push	r17
    1148:	10 91 7c 00 	lds	r17, 0x007C
    114c:	80 91 7c 00 	lds	r24, 0x007C
    1150:	8f 7d       	andi	r24, 0xDF	; 223
    1152:	80 93 7c 00 	sts	0x007C, r24
    1156:	86 e0       	ldi	r24, 0x06	; 6
    1158:	6a e0       	ldi	r22, 0x0A	; 10
    115a:	70 e0       	ldi	r23, 0x00	; 0
    115c:	0e 94 ea 07 	call	0xfd4	; 0xfd4 <_ZN15OrangutanAnalog21readAverageMillivoltsEhj>
    1160:	ac 01       	movw	r20, r24
    1162:	15 fd       	sbrc	r17, 5
    1164:	04 c0       	rjmp	.+8      	; 0x116e <_ZN15OrangutanAnalog24readBatteryMillivolts_SVEv+0x28>
    1166:	80 91 7c 00 	lds	r24, 0x007C
    116a:	8f 7d       	andi	r24, 0xDF	; 223
    116c:	03 c0       	rjmp	.+6      	; 0x1174 <_ZN15OrangutanAnalog24readBatteryMillivolts_SVEv+0x2e>
    116e:	80 91 7c 00 	lds	r24, 0x007C
    1172:	80 62       	ori	r24, 0x20	; 32
    1174:	80 93 7c 00 	sts	0x007C, r24
    1178:	9a 01       	movw	r18, r20
    117a:	22 0f       	add	r18, r18
    117c:	33 1f       	adc	r19, r19
    117e:	24 0f       	add	r18, r20
    1180:	35 1f       	adc	r19, r21
    1182:	c9 01       	movw	r24, r18
    1184:	1f 91       	pop	r17
    1186:	08 95       	ret

00001188 <read_battery_millivolts_sv168>:
    1188:	0e 94 a3 08 	call	0x1146	; 0x1146 <_ZN15OrangutanAnalog24readBatteryMillivolts_SVEv>
    118c:	08 95       	ret

0000118e <read_battery_millivolts_sv>:
    118e:	0e 94 a3 08 	call	0x1146	; 0x1146 <_ZN15OrangutanAnalog24readBatteryMillivolts_SVEv>
    1192:	08 95       	ret

00001194 <_ZN15OrangutanBuzzerC2Ev>:
    1194:	08 95       	ret

00001196 <_ZN15OrangutanBuzzerC1Ev>:
    1196:	08 95       	ret

00001198 <is_playing>:
    1198:	80 91 27 01 	lds	r24, 0x0127
    119c:	88 23       	and	r24, r24
    119e:	39 f0       	breq	.+14     	; 0x11ae <is_playing+0x16>
    11a0:	20 e0       	ldi	r18, 0x00	; 0
    11a2:	80 91 54 02 	lds	r24, 0x0254
    11a6:	90 91 55 02 	lds	r25, 0x0255
    11aa:	89 2b       	or	r24, r25
    11ac:	09 f0       	breq	.+2      	; 0x11b0 <is_playing+0x18>
    11ae:	21 e0       	ldi	r18, 0x01	; 1
    11b0:	82 2f       	mov	r24, r18
    11b2:	08 95       	ret

000011b4 <_ZN15OrangutanBuzzer5init2Ev>:
    11b4:	10 92 6f 00 	sts	0x006F, r1
    11b8:	83 e2       	ldi	r24, 0x23	; 35
    11ba:	80 93 80 00 	sts	0x0080, r24
    11be:	81 e1       	ldi	r24, 0x11	; 17
    11c0:	80 93 81 00 	sts	0x0081, r24
    11c4:	10 92 82 00 	sts	0x0082, r1
    11c8:	80 e1       	ldi	r24, 0x10	; 16
    11ca:	97 e2       	ldi	r25, 0x27	; 39
    11cc:	90 93 89 00 	sts	0x0089, r25
    11d0:	80 93 88 00 	sts	0x0088, r24
    11d4:	10 92 8b 00 	sts	0x008B, r1
    11d8:	10 92 8a 00 	sts	0x008A, r1
    11dc:	22 9a       	sbi	0x04, 2	; 4
    11de:	78 94       	sei
    11e0:	08 95       	ret

000011e2 <_ZN15OrangutanBuzzer13playFrequencyEjjh>:
    11e2:	a0 e0       	ldi	r26, 0x00	; 0
    11e4:	b0 e0       	ldi	r27, 0x00	; 0
    11e6:	e7 ef       	ldi	r30, 0xF7	; 247
    11e8:	f8 e0       	ldi	r31, 0x08	; 8
    11ea:	0c 94 c9 15 	jmp	0x2b92	; 0x2b92 <__prologue_saves__+0x10>
    11ee:	8c 01       	movw	r16, r24
    11f0:	5b 01       	movw	r10, r22
    11f2:	c4 2e       	mov	r12, r20
    11f4:	80 91 53 02 	lds	r24, 0x0253
    11f8:	88 23       	and	r24, r24
    11fa:	29 f4       	brne	.+10     	; 0x1206 <_ZN15OrangutanBuzzer13playFrequencyEjjh+0x24>
    11fc:	81 e0       	ldi	r24, 0x01	; 1
    11fe:	80 93 53 02 	sts	0x0253, r24
    1202:	0e 94 da 08 	call	0x11b4	; 0x11b4 <_ZN15OrangutanBuzzer5init2Ev>
    1206:	10 92 27 01 	sts	0x0127, r1
    120a:	17 fd       	sbrc	r17, 7
    120c:	03 c0       	rjmp	.+6      	; 0x1214 <_ZN15OrangutanBuzzer13playFrequencyEjjh+0x32>
    120e:	dd 24       	eor	r13, r13
    1210:	d3 94       	inc	r13
    1212:	03 c0       	rjmp	.+6      	; 0x121a <_ZN15OrangutanBuzzer13playFrequencyEjjh+0x38>
    1214:	1f 77       	andi	r17, 0x7F	; 127
    1216:	2a e0       	ldi	r18, 0x0A	; 10
    1218:	d2 2e       	mov	r13, r18
    121a:	80 91 81 00 	lds	r24, 0x0081
    121e:	e8 2e       	mov	r14, r24
    1220:	ff 24       	eor	r15, r15
    1222:	88 ef       	ldi	r24, 0xF8	; 248
    1224:	e8 22       	and	r14, r24
    1226:	ff 24       	eor	r15, r15
    1228:	88 ec       	ldi	r24, 0xC8	; 200
    122a:	d8 9e       	mul	r13, r24
    122c:	c0 01       	movw	r24, r0
    122e:	11 24       	eor	r1, r1
    1230:	80 17       	cp	r24, r16
    1232:	91 07       	cpc	r25, r17
    1234:	c8 f4       	brcc	.+50     	; 0x1268 <_ZN15OrangutanBuzzer13playFrequencyEjjh+0x86>
    1236:	e8 01       	movw	r28, r16
    1238:	97 e2       	ldi	r25, 0x27	; 39
    123a:	01 31       	cpi	r16, 0x11	; 17
    123c:	19 07       	cpc	r17, r25
    123e:	10 f0       	brcs	.+4      	; 0x1244 <_ZN15OrangutanBuzzer13playFrequencyEjjh+0x62>
    1240:	c0 e1       	ldi	r28, 0x10	; 16
    1242:	d7 e2       	ldi	r29, 0x27	; 39
    1244:	be 01       	movw	r22, r28
    1246:	76 95       	lsr	r23
    1248:	67 95       	ror	r22
    124a:	80 e0       	ldi	r24, 0x00	; 0
    124c:	90 e0       	ldi	r25, 0x00	; 0
    124e:	60 58       	subi	r22, 0x80	; 128
    1250:	79 46       	sbci	r23, 0x69	; 105
    1252:	87 46       	sbci	r24, 0x67	; 103
    1254:	9f 4f       	sbci	r25, 0xFF	; 255
    1256:	9e 01       	movw	r18, r28
    1258:	40 e0       	ldi	r20, 0x00	; 0
    125a:	50 e0       	ldi	r21, 0x00	; 0
    125c:	0e 94 84 15 	call	0x2b08	; 0x2b08 <__udivmodsi4>
    1260:	89 01       	movw	r16, r18
    1262:	81 e0       	ldi	r24, 0x01	; 1
    1264:	90 e0       	ldi	r25, 0x00	; 0
    1266:	25 c0       	rjmp	.+74     	; 0x12b2 <_ZN15OrangutanBuzzer13playFrequencyEjjh+0xd0>
    1268:	88 e2       	ldi	r24, 0x28	; 40
    126a:	d8 9e       	mul	r13, r24
    126c:	80 2d       	mov	r24, r0
    126e:	11 24       	eor	r1, r1
    1270:	c8 2f       	mov	r28, r24
    1272:	d0 e0       	ldi	r29, 0x00	; 0
    1274:	c0 17       	cp	r28, r16
    1276:	d1 07       	cpc	r29, r17
    1278:	08 f4       	brcc	.+2      	; 0x127c <_ZN15OrangutanBuzzer13playFrequencyEjjh+0x9a>
    127a:	e8 01       	movw	r28, r16
    127c:	be 01       	movw	r22, r28
    127e:	76 95       	lsr	r23
    1280:	67 95       	ror	r22
    1282:	9e 01       	movw	r18, r28
    1284:	40 e0       	ldi	r20, 0x00	; 0
    1286:	50 e0       	ldi	r21, 0x00	; 0
    1288:	9a e0       	ldi	r25, 0x0A	; 10
    128a:	d9 16       	cp	r13, r25
    128c:	39 f4       	brne	.+14     	; 0x129c <_ZN15OrangutanBuzzer13playFrequencyEjjh+0xba>
    128e:	80 e0       	ldi	r24, 0x00	; 0
    1290:	90 e0       	ldi	r25, 0x00	; 0
    1292:	60 5e       	subi	r22, 0xE0	; 224
    1294:	73 44       	sbci	r23, 0x43	; 67
    1296:	81 44       	sbci	r24, 0x41	; 65
    1298:	9f 4f       	sbci	r25, 0xFF	; 255
    129a:	06 c0       	rjmp	.+12     	; 0x12a8 <_ZN15OrangutanBuzzer13playFrequencyEjjh+0xc6>
    129c:	80 e0       	ldi	r24, 0x00	; 0
    129e:	90 e0       	ldi	r25, 0x00	; 0
    12a0:	60 53       	subi	r22, 0x30	; 48
    12a2:	7d 4e       	sbci	r23, 0xED	; 237
    12a4:	8c 4e       	sbci	r24, 0xEC	; 236
    12a6:	9f 4f       	sbci	r25, 0xFF	; 255
    12a8:	0e 94 84 15 	call	0x2b08	; 0x2b08 <__udivmodsi4>
    12ac:	89 01       	movw	r16, r18
    12ae:	82 e0       	ldi	r24, 0x02	; 2
    12b0:	90 e0       	ldi	r25, 0x00	; 0
    12b2:	e8 2a       	or	r14, r24
    12b4:	f9 2a       	or	r15, r25
    12b6:	9a e0       	ldi	r25, 0x0A	; 10
    12b8:	d9 16       	cp	r13, r25
    12ba:	39 f4       	brne	.+14     	; 0x12ca <_ZN15OrangutanBuzzer13playFrequencyEjjh+0xe8>
    12bc:	ce 01       	movw	r24, r28
    12be:	05 96       	adiw	r24, 0x05	; 5
    12c0:	6a e0       	ldi	r22, 0x0A	; 10
    12c2:	70 e0       	ldi	r23, 0x00	; 0
    12c4:	0e 94 5d 15 	call	0x2aba	; 0x2aba <__udivmodhi4>
    12c8:	eb 01       	movw	r28, r22
    12ca:	83 e0       	ldi	r24, 0x03	; 3
    12cc:	c8 3e       	cpi	r28, 0xE8	; 232
    12ce:	d8 07       	cpc	r29, r24
    12d0:	11 f4       	brne	.+4      	; 0x12d6 <_ZN15OrangutanBuzzer13playFrequencyEjjh+0xf4>
    12d2:	b5 01       	movw	r22, r10
    12d4:	0f c0       	rjmp	.+30     	; 0x12f4 <_ZN15OrangutanBuzzer13playFrequencyEjjh+0x112>
    12d6:	be 01       	movw	r22, r28
    12d8:	80 e0       	ldi	r24, 0x00	; 0
    12da:	90 e0       	ldi	r25, 0x00	; 0
    12dc:	95 01       	movw	r18, r10
    12de:	40 e0       	ldi	r20, 0x00	; 0
    12e0:	50 e0       	ldi	r21, 0x00	; 0
    12e2:	0e 94 32 15 	call	0x2a64	; 0x2a64 <__mulsi3>
    12e6:	28 ee       	ldi	r18, 0xE8	; 232
    12e8:	33 e0       	ldi	r19, 0x03	; 3
    12ea:	40 e0       	ldi	r20, 0x00	; 0
    12ec:	50 e0       	ldi	r21, 0x00	; 0
    12ee:	0e 94 a6 15 	call	0x2b4c	; 0x2b4c <__divmodsi4>
    12f2:	b9 01       	movw	r22, r18
    12f4:	10 92 6f 00 	sts	0x006F, r1
    12f8:	e0 92 81 00 	sts	0x0081, r14
    12fc:	10 93 89 00 	sts	0x0089, r17
    1300:	00 93 88 00 	sts	0x0088, r16
    1304:	e0 91 88 00 	lds	r30, 0x0088
    1308:	f0 91 89 00 	lds	r31, 0x0089
    130c:	ac 2d       	mov	r26, r12
    130e:	a0 31       	cpi	r26, 0x10	; 16
    1310:	08 f0       	brcs	.+2      	; 0x1314 <_ZN15OrangutanBuzzer13playFrequencyEjjh+0x132>
    1312:	af e0       	ldi	r26, 0x0F	; 15
    1314:	80 e1       	ldi	r24, 0x10	; 16
    1316:	90 e0       	ldi	r25, 0x00	; 0
    1318:	8a 1b       	sub	r24, r26
    131a:	91 09       	sbc	r25, r1
    131c:	02 c0       	rjmp	.+4      	; 0x1322 <_ZN15OrangutanBuzzer13playFrequencyEjjh+0x140>
    131e:	f6 95       	lsr	r31
    1320:	e7 95       	ror	r30
    1322:	8a 95       	dec	r24
    1324:	e2 f7       	brpl	.-8      	; 0x131e <_ZN15OrangutanBuzzer13playFrequencyEjjh+0x13c>
    1326:	f0 93 8b 00 	sts	0x008B, r31
    132a:	e0 93 8a 00 	sts	0x008A, r30
    132e:	70 93 3b 02 	sts	0x023B, r23
    1332:	60 93 3a 02 	sts	0x023A, r22
    1336:	86 b3       	in	r24, 0x16	; 22
    1338:	8f ef       	ldi	r24, 0xFF	; 255
    133a:	86 bb       	out	0x16, r24	; 22
    133c:	81 e0       	ldi	r24, 0x01	; 1
    133e:	80 93 6f 00 	sts	0x006F, r24
    1342:	cd b7       	in	r28, 0x3d	; 61
    1344:	de b7       	in	r29, 0x3e	; 62
    1346:	ea e0       	ldi	r30, 0x0A	; 10
    1348:	0c 94 e5 15 	jmp	0x2bca	; 0x2bca <__epilogue_restores__+0x10>

0000134c <play_frequency>:
    134c:	0e 94 f1 08 	call	0x11e2	; 0x11e2 <_ZN15OrangutanBuzzer13playFrequencyEjjh>
    1350:	08 95       	ret

00001352 <_ZN15OrangutanBuzzer8playNoteEhjh>:
    1352:	cf 93       	push	r28
    1354:	df 93       	push	r29
    1356:	eb 01       	movw	r28, r22
    1358:	8f 3f       	cpi	r24, 0xFF	; 255
    135a:	11 f0       	breq	.+4      	; 0x1360 <_ZN15OrangutanBuzzer8playNoteEhjh+0xe>
    135c:	44 23       	and	r20, r20
    135e:	29 f4       	brne	.+10     	; 0x136a <_ZN15OrangutanBuzzer8playNoteEhjh+0x18>
    1360:	88 ee       	ldi	r24, 0xE8	; 232
    1362:	93 e0       	ldi	r25, 0x03	; 3
    1364:	be 01       	movw	r22, r28
    1366:	40 e0       	ldi	r20, 0x00	; 0
    1368:	67 c0       	rjmp	.+206    	; 0x1438 <_ZN15OrangutanBuzzer8playNoteEhjh+0xe6>
    136a:	81 31       	cpi	r24, 0x11	; 17
    136c:	10 f4       	brcc	.+4      	; 0x1372 <_ZN15OrangutanBuzzer8playNoteEhjh+0x20>
    136e:	20 e0       	ldi	r18, 0x00	; 0
    1370:	05 c0       	rjmp	.+10     	; 0x137c <_ZN15OrangutanBuzzer8playNoteEhjh+0x2a>
    1372:	28 2f       	mov	r18, r24
    1374:	20 51       	subi	r18, 0x10	; 16
    1376:	20 36       	cpi	r18, 0x60	; 96
    1378:	08 f0       	brcs	.+2      	; 0x137c <_ZN15OrangutanBuzzer8playNoteEhjh+0x2a>
    137a:	2f e5       	ldi	r18, 0x5F	; 95
    137c:	82 2f       	mov	r24, r18
    137e:	6c e0       	ldi	r22, 0x0C	; 12
    1380:	0e 94 51 15 	call	0x2aa2	; 0x2aa2 <__udivmodqi4>
    1384:	38 2f       	mov	r19, r24
    1386:	68 2f       	mov	r22, r24
    1388:	70 e0       	ldi	r23, 0x00	; 0
    138a:	84 ef       	ldi	r24, 0xF4	; 244
    138c:	9f ef       	ldi	r25, 0xFF	; 255
    138e:	68 9f       	mul	r22, r24
    1390:	f0 01       	movw	r30, r0
    1392:	69 9f       	mul	r22, r25
    1394:	f0 0d       	add	r31, r0
    1396:	78 9f       	mul	r23, r24
    1398:	f0 0d       	add	r31, r0
    139a:	11 24       	eor	r1, r1
    139c:	e2 0f       	add	r30, r18
    139e:	f1 1d       	adc	r31, r1
    13a0:	ec 30       	cpi	r30, 0x0C	; 12
    13a2:	f1 05       	cpc	r31, r1
    13a4:	38 f4       	brcc	.+14     	; 0x13b4 <_ZN15OrangutanBuzzer8playNoteEhjh+0x62>
    13a6:	ec 5c       	subi	r30, 0xCC	; 204
    13a8:	ff 4f       	sbci	r31, 0xFF	; 255
    13aa:	0c 94 f8 15 	jmp	0x2bf0	; 0x2bf0 <__tablejump2__>
    13ae:	8c e9       	ldi	r24, 0x9C	; 156
    13b0:	91 e0       	ldi	r25, 0x01	; 1
    13b2:	23 c0       	rjmp	.+70     	; 0x13fa <_ZN15OrangutanBuzzer8playNoteEhjh+0xa8>
    13b4:	80 e0       	ldi	r24, 0x00	; 0
    13b6:	90 e0       	ldi	r25, 0x00	; 0
    13b8:	20 c0       	rjmp	.+64     	; 0x13fa <_ZN15OrangutanBuzzer8playNoteEhjh+0xa8>
    13ba:	85 eb       	ldi	r24, 0xB5	; 181
    13bc:	91 e0       	ldi	r25, 0x01	; 1
    13be:	1d c0       	rjmp	.+58     	; 0x13fa <_ZN15OrangutanBuzzer8playNoteEhjh+0xa8>
    13c0:	8f ec       	ldi	r24, 0xCF	; 207
    13c2:	91 e0       	ldi	r25, 0x01	; 1
    13c4:	1a c0       	rjmp	.+52     	; 0x13fa <_ZN15OrangutanBuzzer8playNoteEhjh+0xa8>
    13c6:	8a ee       	ldi	r24, 0xEA	; 234
    13c8:	91 e0       	ldi	r25, 0x01	; 1
    13ca:	17 c0       	rjmp	.+46     	; 0x13fa <_ZN15OrangutanBuzzer8playNoteEhjh+0xa8>
    13cc:	87 e0       	ldi	r24, 0x07	; 7
    13ce:	92 e0       	ldi	r25, 0x02	; 2
    13d0:	14 c0       	rjmp	.+40     	; 0x13fa <_ZN15OrangutanBuzzer8playNoteEhjh+0xa8>
    13d2:	86 e2       	ldi	r24, 0x26	; 38
    13d4:	92 e0       	ldi	r25, 0x02	; 2
    13d6:	11 c0       	rjmp	.+34     	; 0x13fa <_ZN15OrangutanBuzzer8playNoteEhjh+0xa8>
    13d8:	87 e4       	ldi	r24, 0x47	; 71
    13da:	92 e0       	ldi	r25, 0x02	; 2
    13dc:	0e c0       	rjmp	.+28     	; 0x13fa <_ZN15OrangutanBuzzer8playNoteEhjh+0xa8>
    13de:	89 e6       	ldi	r24, 0x69	; 105
    13e0:	92 e0       	ldi	r25, 0x02	; 2
    13e2:	0b c0       	rjmp	.+22     	; 0x13fa <_ZN15OrangutanBuzzer8playNoteEhjh+0xa8>
    13e4:	8e e8       	ldi	r24, 0x8E	; 142
    13e6:	92 e0       	ldi	r25, 0x02	; 2
    13e8:	08 c0       	rjmp	.+16     	; 0x13fa <_ZN15OrangutanBuzzer8playNoteEhjh+0xa8>
    13ea:	85 eb       	ldi	r24, 0xB5	; 181
    13ec:	92 e0       	ldi	r25, 0x02	; 2
    13ee:	05 c0       	rjmp	.+10     	; 0x13fa <_ZN15OrangutanBuzzer8playNoteEhjh+0xa8>
    13f0:	8e ed       	ldi	r24, 0xDE	; 222
    13f2:	92 e0       	ldi	r25, 0x02	; 2
    13f4:	02 c0       	rjmp	.+4      	; 0x13fa <_ZN15OrangutanBuzzer8playNoteEhjh+0xa8>
    13f6:	8a e0       	ldi	r24, 0x0A	; 10
    13f8:	93 e0       	ldi	r25, 0x03	; 3
    13fa:	37 30       	cpi	r19, 0x07	; 7
    13fc:	71 f0       	breq	.+28     	; 0x141a <_ZN15OrangutanBuzzer8playNoteEhjh+0xc8>
    13fe:	02 c0       	rjmp	.+4      	; 0x1404 <_ZN15OrangutanBuzzer8playNoteEhjh+0xb2>
    1400:	88 0f       	add	r24, r24
    1402:	99 1f       	adc	r25, r25
    1404:	6a 95       	dec	r22
    1406:	e2 f7       	brpl	.-8      	; 0x1400 <_ZN15OrangutanBuzzer8playNoteEhjh+0xae>
    1408:	32 30       	cpi	r19, 0x02	; 2
    140a:	20 f0       	brcs	.+8      	; 0x1414 <_ZN15OrangutanBuzzer8playNoteEhjh+0xc2>
    140c:	05 96       	adiw	r24, 0x05	; 5
    140e:	6a e0       	ldi	r22, 0x0A	; 10
    1410:	70 e0       	ldi	r23, 0x00	; 0
    1412:	0b c0       	rjmp	.+22     	; 0x142a <_ZN15OrangutanBuzzer8playNoteEhjh+0xd8>
    1414:	80 50       	subi	r24, 0x00	; 0
    1416:	90 48       	sbci	r25, 0x80	; 128
    1418:	0b c0       	rjmp	.+22     	; 0x1430 <_ZN15OrangutanBuzzer8playNoteEhjh+0xde>
    141a:	36 e0       	ldi	r19, 0x06	; 6
    141c:	88 0f       	add	r24, r24
    141e:	99 1f       	adc	r25, r25
    1420:	3a 95       	dec	r19
    1422:	e1 f7       	brne	.-8      	; 0x141c <_ZN15OrangutanBuzzer8playNoteEhjh+0xca>
    1424:	02 96       	adiw	r24, 0x02	; 2
    1426:	65 e0       	ldi	r22, 0x05	; 5
    1428:	70 e0       	ldi	r23, 0x00	; 0
    142a:	0e 94 5d 15 	call	0x2aba	; 0x2aba <__udivmodhi4>
    142e:	cb 01       	movw	r24, r22
    1430:	40 31       	cpi	r20, 0x10	; 16
    1432:	08 f0       	brcs	.+2      	; 0x1436 <_ZN15OrangutanBuzzer8playNoteEhjh+0xe4>
    1434:	4f e0       	ldi	r20, 0x0F	; 15
    1436:	be 01       	movw	r22, r28
    1438:	0e 94 f1 08 	call	0x11e2	; 0x11e2 <_ZN15OrangutanBuzzer13playFrequencyEjjh>
    143c:	df 91       	pop	r29
    143e:	cf 91       	pop	r28
    1440:	08 95       	ret

00001442 <play_note>:
    1442:	0e 94 a9 09 	call	0x1352	; 0x1352 <_ZN15OrangutanBuzzer8playNoteEhjh>
    1446:	08 95       	ret

00001448 <_ZN15OrangutanBuzzer9isPlayingEv>:
    1448:	80 91 27 01 	lds	r24, 0x0127
    144c:	88 23       	and	r24, r24
    144e:	39 f0       	breq	.+14     	; 0x145e <_ZN15OrangutanBuzzer9isPlayingEv+0x16>
    1450:	20 e0       	ldi	r18, 0x00	; 0
    1452:	80 91 54 02 	lds	r24, 0x0254
    1456:	90 91 55 02 	lds	r25, 0x0255
    145a:	89 2b       	or	r24, r25
    145c:	09 f0       	breq	.+2      	; 0x1460 <_ZN15OrangutanBuzzer9isPlayingEv+0x18>
    145e:	21 e0       	ldi	r18, 0x01	; 1
    1460:	82 2f       	mov	r24, r18
    1462:	08 95       	ret

00001464 <_ZN15OrangutanBuzzer11stopPlayingEv>:
    1464:	10 92 6f 00 	sts	0x006F, r1
    1468:	e1 e8       	ldi	r30, 0x81	; 129
    146a:	f0 e0       	ldi	r31, 0x00	; 0
    146c:	80 81       	ld	r24, Z
    146e:	88 7f       	andi	r24, 0xF8	; 248
    1470:	81 60       	ori	r24, 0x01	; 1
    1472:	80 83       	st	Z, r24
    1474:	80 e1       	ldi	r24, 0x10	; 16
    1476:	97 e2       	ldi	r25, 0x27	; 39
    1478:	90 93 89 00 	sts	0x0089, r25
    147c:	80 93 88 00 	sts	0x0088, r24
    1480:	10 92 8b 00 	sts	0x008B, r1
    1484:	10 92 8a 00 	sts	0x008A, r1
    1488:	81 e0       	ldi	r24, 0x01	; 1
    148a:	80 93 27 01 	sts	0x0127, r24
    148e:	10 92 55 02 	sts	0x0255, r1
    1492:	10 92 54 02 	sts	0x0254, r1
    1496:	08 95       	ret

00001498 <stop_playing>:
    1498:	0e 94 32 0a 	call	0x1464	; 0x1464 <_ZN15OrangutanBuzzer11stopPlayingEv>
    149c:	08 95       	ret

0000149e <_ZL16currentCharacterv>:
    149e:	30 91 38 02 	lds	r19, 0x0238
    14a2:	e0 91 54 02 	lds	r30, 0x0254
    14a6:	f0 91 55 02 	lds	r31, 0x0255
    14aa:	33 23       	and	r19, r19
    14ac:	11 f0       	breq	.+4      	; 0x14b2 <_ZL16currentCharacterv+0x14>
    14ae:	24 91       	lpm	r18, Z+
    14b0:	01 c0       	rjmp	.+2      	; 0x14b4 <_ZL16currentCharacterv+0x16>
    14b2:	20 81       	ld	r18, Z
    14b4:	82 2f       	mov	r24, r18
    14b6:	81 54       	subi	r24, 0x41	; 65
    14b8:	8a 31       	cpi	r24, 0x1A	; 26
    14ba:	08 f4       	brcc	.+2      	; 0x14be <_ZL16currentCharacterv+0x20>
    14bc:	20 5e       	subi	r18, 0xE0	; 224
    14be:	20 32       	cpi	r18, 0x20	; 32
    14c0:	59 f4       	brne	.+22     	; 0x14d8 <_ZL16currentCharacterv+0x3a>
    14c2:	80 91 54 02 	lds	r24, 0x0254
    14c6:	90 91 55 02 	lds	r25, 0x0255
    14ca:	01 96       	adiw	r24, 0x01	; 1
    14cc:	90 93 55 02 	sts	0x0255, r25
    14d0:	80 93 54 02 	sts	0x0254, r24
    14d4:	01 97       	sbiw	r24, 0x01	; 1
    14d6:	29 f7       	brne	.-54     	; 0x14a2 <_ZL16currentCharacterv+0x4>
    14d8:	82 2f       	mov	r24, r18
    14da:	08 95       	ret

000014dc <_ZL9getNumberv>:
    14dc:	cf 93       	push	r28
    14de:	df 93       	push	r29
    14e0:	0e 94 4f 0a 	call	0x149e	; 0x149e <_ZL16currentCharacterv>
    14e4:	28 2f       	mov	r18, r24
    14e6:	c0 e0       	ldi	r28, 0x00	; 0
    14e8:	d0 e0       	ldi	r29, 0x00	; 0
    14ea:	1d c0       	rjmp	.+58     	; 0x1526 <_ZL9getNumberv+0x4a>
    14ec:	ce 01       	movw	r24, r28
    14ee:	53 e0       	ldi	r21, 0x03	; 3
    14f0:	88 0f       	add	r24, r24
    14f2:	99 1f       	adc	r25, r25
    14f4:	5a 95       	dec	r21
    14f6:	e1 f7       	brne	.-8      	; 0x14f0 <_ZL9getNumberv+0x14>
    14f8:	cc 0f       	add	r28, r28
    14fa:	dd 1f       	adc	r29, r29
    14fc:	c8 0f       	add	r28, r24
    14fe:	d9 1f       	adc	r29, r25
    1500:	82 2f       	mov	r24, r18
    1502:	99 27       	eor	r25, r25
    1504:	87 fd       	sbrc	r24, 7
    1506:	90 95       	com	r25
    1508:	c8 0f       	add	r28, r24
    150a:	d9 1f       	adc	r29, r25
    150c:	e0 97       	sbiw	r28, 0x30	; 48
    150e:	80 91 54 02 	lds	r24, 0x0254
    1512:	90 91 55 02 	lds	r25, 0x0255
    1516:	01 96       	adiw	r24, 0x01	; 1
    1518:	90 93 55 02 	sts	0x0255, r25
    151c:	80 93 54 02 	sts	0x0254, r24
    1520:	0e 94 4f 0a 	call	0x149e	; 0x149e <_ZL16currentCharacterv>
    1524:	28 2f       	mov	r18, r24
    1526:	82 2f       	mov	r24, r18
    1528:	80 53       	subi	r24, 0x30	; 48
    152a:	8a 30       	cpi	r24, 0x0A	; 10
    152c:	f8 f2       	brcs	.-66     	; 0x14ec <_ZL9getNumberv+0x10>
    152e:	ce 01       	movw	r24, r28
    1530:	df 91       	pop	r29
    1532:	cf 91       	pop	r28
    1534:	08 95       	ret

00001536 <_ZL8nextNotev>:
    1536:	a0 e0       	ldi	r26, 0x00	; 0
    1538:	b0 e0       	ldi	r27, 0x00	; 0
    153a:	e1 ea       	ldi	r30, 0xA1	; 161
    153c:	fa e0       	ldi	r31, 0x0A	; 10
    153e:	0c 94 c7 15 	jmp	0x2b8e	; 0x2b8e <__prologue_saves__+0xc>
    1542:	80 90 1c 01 	lds	r8, 0x011C
    1546:	b0 90 36 02 	lds	r11, 0x0236
    154a:	bb 20       	and	r11, r11
    154c:	21 f0       	breq	.+8      	; 0x1556 <_ZL8nextNotev+0x20>
    154e:	60 91 37 02 	lds	r22, 0x0237
    1552:	66 23       	and	r22, r22
    1554:	99 f4       	brne	.+38     	; 0x157c <_ZL8nextNotev+0x46>
    1556:	a0 90 37 02 	lds	r10, 0x0237
    155a:	00 91 21 01 	lds	r16, 0x0121
    155e:	10 91 22 01 	lds	r17, 0x0122
    1562:	e0 90 1d 01 	lds	r14, 0x011D
    1566:	f0 90 1e 01 	lds	r15, 0x011E
    156a:	c0 91 1f 01 	lds	r28, 0x011F
    156e:	d0 91 20 01 	lds	r29, 0x0120
    1572:	c0 90 23 01 	lds	r12, 0x0123
    1576:	d0 90 24 01 	lds	r13, 0x0124
    157a:	08 c1       	rjmp	.+528    	; 0x178c <_ZL8nextNotev+0x256>
    157c:	8f ef       	ldi	r24, 0xFF	; 255
    157e:	70 e0       	ldi	r23, 0x00	; 0
    1580:	40 e0       	ldi	r20, 0x00	; 0
    1582:	0e 94 a9 09 	call	0x1352	; 0x1352 <_ZN15OrangutanBuzzer8playNoteEhjh>
    1586:	10 92 37 02 	sts	0x0237, r1
    158a:	cb c1       	rjmp	.+918    	; 0x1922 <_ZL8nextNotev+0x3ec>
    158c:	94 e0       	ldi	r25, 0x04	; 4
    158e:	89 2e       	mov	r8, r25
    1590:	bb 24       	eor	r11, r11
    1592:	04 ef       	ldi	r16, 0xF4	; 244
    1594:	11 e0       	ldi	r17, 0x01	; 1
    1596:	84 e0       	ldi	r24, 0x04	; 4
    1598:	e8 2e       	mov	r14, r24
    159a:	f1 2c       	mov	r15, r1
    159c:	c0 ed       	ldi	r28, 0xD0	; 208
    159e:	d7 e0       	ldi	r29, 0x07	; 7
    15a0:	b4 e0       	ldi	r27, 0x04	; 4
    15a2:	9b 2e       	mov	r9, r27
    15a4:	af e0       	ldi	r26, 0x0F	; 15
    15a6:	ca 2e       	mov	r12, r26
    15a8:	d1 2c       	mov	r13, r1
    15aa:	0e 94 4f 0a 	call	0x149e	; 0x149e <_ZL16currentCharacterv>
    15ae:	28 2f       	mov	r18, r24
    15b0:	80 91 54 02 	lds	r24, 0x0254
    15b4:	90 91 55 02 	lds	r25, 0x0255
    15b8:	01 96       	adiw	r24, 0x01	; 1
    15ba:	90 93 55 02 	sts	0x0255, r25
    15be:	80 93 54 02 	sts	0x0254, r24
    15c2:	26 36       	cpi	r18, 0x66	; 102
    15c4:	09 f4       	brne	.+2      	; 0x15c8 <_ZL8nextNotev+0x92>
    15c6:	98 c0       	rjmp	.+304    	; 0x16f8 <_ZL8nextNotev+0x1c2>
    15c8:	27 36       	cpi	r18, 0x67	; 103
    15ca:	cc f4       	brge	.+50     	; 0x15fe <_ZL8nextNotev+0xc8>
    15cc:	22 36       	cpi	r18, 0x62	; 98
    15ce:	a1 f1       	breq	.+104    	; 0x1638 <_ZL8nextNotev+0x102>
    15d0:	23 36       	cpi	r18, 0x63	; 99
    15d2:	74 f4       	brge	.+28     	; 0x15f0 <_ZL8nextNotev+0xba>
    15d4:	2e 33       	cpi	r18, 0x3E	; 62
    15d6:	61 f1       	breq	.+88     	; 0x1630 <_ZL8nextNotev+0xfa>
    15d8:	2f 33       	cpi	r18, 0x3F	; 63
    15da:	34 f4       	brge	.+12     	; 0x15e8 <_ZL8nextNotev+0xb2>
    15dc:	21 32       	cpi	r18, 0x21	; 33
    15de:	b1 f2       	breq	.-84     	; 0x158c <_ZL8nextNotev+0x56>
    15e0:	2c 33       	cpi	r18, 0x3C	; 60
    15e2:	09 f0       	breq	.+2      	; 0x15e6 <_ZL8nextNotev+0xb0>
    15e4:	0b c1       	rjmp	.+534    	; 0x17fc <_ZL8nextNotev+0x2c6>
    15e6:	26 c0       	rjmp	.+76     	; 0x1634 <_ZL8nextNotev+0xfe>
    15e8:	21 36       	cpi	r18, 0x61	; 97
    15ea:	09 f0       	breq	.+2      	; 0x15ee <_ZL8nextNotev+0xb8>
    15ec:	07 c1       	rjmp	.+526    	; 0x17fc <_ZL8nextNotev+0x2c6>
    15ee:	21 c1       	rjmp	.+578    	; 0x1832 <_ZL8nextNotev+0x2fc>
    15f0:	24 36       	cpi	r18, 0x64	; 100
    15f2:	09 f4       	brne	.+2      	; 0x15f6 <_ZL8nextNotev+0xc0>
    15f4:	51 c0       	rjmp	.+162    	; 0x1698 <_ZL8nextNotev+0x162>
    15f6:	25 36       	cpi	r18, 0x65	; 101
    15f8:	0c f0       	brlt	.+2      	; 0x15fc <_ZL8nextNotev+0xc6>
    15fa:	66 c0       	rjmp	.+204    	; 0x16c8 <_ZL8nextNotev+0x192>
    15fc:	35 c0       	rjmp	.+106    	; 0x1668 <_ZL8nextNotev+0x132>
    15fe:	2f 36       	cpi	r18, 0x6F	; 111
    1600:	09 f4       	brne	.+2      	; 0x1604 <_ZL8nextNotev+0xce>
    1602:	c1 c0       	rjmp	.+386    	; 0x1786 <_ZL8nextNotev+0x250>
    1604:	20 37       	cpi	r18, 0x70	; 112
    1606:	54 f4       	brge	.+20     	; 0x161c <_ZL8nextNotev+0xe6>
    1608:	2c 36       	cpi	r18, 0x6C	; 108
    160a:	09 f4       	brne	.+2      	; 0x160e <_ZL8nextNotev+0xd8>
    160c:	a5 c0       	rjmp	.+330    	; 0x1758 <_ZL8nextNotev+0x222>
    160e:	2d 36       	cpi	r18, 0x6D	; 109
    1610:	09 f4       	brne	.+2      	; 0x1614 <_ZL8nextNotev+0xde>
    1612:	a6 c0       	rjmp	.+332    	; 0x1760 <_ZL8nextNotev+0x22a>
    1614:	27 36       	cpi	r18, 0x67	; 103
    1616:	09 f0       	breq	.+2      	; 0x161a <_ZL8nextNotev+0xe4>
    1618:	f1 c0       	rjmp	.+482    	; 0x17fc <_ZL8nextNotev+0x2c6>
    161a:	86 c0       	rjmp	.+268    	; 0x1728 <_ZL8nextNotev+0x1f2>
    161c:	24 37       	cpi	r18, 0x74	; 116
    161e:	09 f4       	brne	.+2      	; 0x1622 <_ZL8nextNotev+0xec>
    1620:	d1 c0       	rjmp	.+418    	; 0x17c4 <_ZL8nextNotev+0x28e>
    1622:	26 37       	cpi	r18, 0x76	; 118
    1624:	09 f4       	brne	.+2      	; 0x1628 <_ZL8nextNotev+0xf2>
    1626:	e6 c0       	rjmp	.+460    	; 0x17f4 <_ZL8nextNotev+0x2be>
    1628:	22 37       	cpi	r18, 0x72	; 114
    162a:	09 f0       	breq	.+2      	; 0x162e <_ZL8nextNotev+0xf8>
    162c:	e7 c0       	rjmp	.+462    	; 0x17fc <_ZL8nextNotev+0x2c6>
    162e:	b0 c0       	rjmp	.+352    	; 0x1790 <_ZL8nextNotev+0x25a>
    1630:	83 94       	inc	r8
    1632:	bb cf       	rjmp	.-138    	; 0x15aa <_ZL8nextNotev+0x74>
    1634:	8a 94       	dec	r8
    1636:	b9 cf       	rjmp	.-142    	; 0x15aa <_ZL8nextNotev+0x74>
    1638:	a0 92 37 02 	sts	0x0237, r10
    163c:	b0 92 36 02 	sts	0x0236, r11
    1640:	10 93 22 01 	sts	0x0122, r17
    1644:	00 93 21 01 	sts	0x0121, r16
    1648:	f0 92 1e 01 	sts	0x011E, r15
    164c:	e0 92 1d 01 	sts	0x011D, r14
    1650:	d0 93 20 01 	sts	0x0120, r29
    1654:	c0 93 1f 01 	sts	0x011F, r28
    1658:	90 92 1c 01 	sts	0x011C, r9
    165c:	d0 92 24 01 	sts	0x0124, r13
    1660:	c0 92 23 01 	sts	0x0123, r12
    1664:	2b e0       	ldi	r18, 0x0B	; 11
    1666:	fc c0       	rjmp	.+504    	; 0x1860 <_ZL8nextNotev+0x32a>
    1668:	a0 92 37 02 	sts	0x0237, r10
    166c:	b0 92 36 02 	sts	0x0236, r11
    1670:	10 93 22 01 	sts	0x0122, r17
    1674:	00 93 21 01 	sts	0x0121, r16
    1678:	f0 92 1e 01 	sts	0x011E, r15
    167c:	e0 92 1d 01 	sts	0x011D, r14
    1680:	d0 93 20 01 	sts	0x0120, r29
    1684:	c0 93 1f 01 	sts	0x011F, r28
    1688:	90 92 1c 01 	sts	0x011C, r9
    168c:	d0 92 24 01 	sts	0x0124, r13
    1690:	c0 92 23 01 	sts	0x0123, r12
    1694:	20 e0       	ldi	r18, 0x00	; 0
    1696:	e4 c0       	rjmp	.+456    	; 0x1860 <_ZL8nextNotev+0x32a>
    1698:	a0 92 37 02 	sts	0x0237, r10
    169c:	b0 92 36 02 	sts	0x0236, r11
    16a0:	10 93 22 01 	sts	0x0122, r17
    16a4:	00 93 21 01 	sts	0x0121, r16
    16a8:	f0 92 1e 01 	sts	0x011E, r15
    16ac:	e0 92 1d 01 	sts	0x011D, r14
    16b0:	d0 93 20 01 	sts	0x0120, r29
    16b4:	c0 93 1f 01 	sts	0x011F, r28
    16b8:	90 92 1c 01 	sts	0x011C, r9
    16bc:	d0 92 24 01 	sts	0x0124, r13
    16c0:	c0 92 23 01 	sts	0x0123, r12
    16c4:	22 e0       	ldi	r18, 0x02	; 2
    16c6:	cc c0       	rjmp	.+408    	; 0x1860 <_ZL8nextNotev+0x32a>
    16c8:	a0 92 37 02 	sts	0x0237, r10
    16cc:	b0 92 36 02 	sts	0x0236, r11
    16d0:	10 93 22 01 	sts	0x0122, r17
    16d4:	00 93 21 01 	sts	0x0121, r16
    16d8:	f0 92 1e 01 	sts	0x011E, r15
    16dc:	e0 92 1d 01 	sts	0x011D, r14
    16e0:	d0 93 20 01 	sts	0x0120, r29
    16e4:	c0 93 1f 01 	sts	0x011F, r28
    16e8:	90 92 1c 01 	sts	0x011C, r9
    16ec:	d0 92 24 01 	sts	0x0124, r13
    16f0:	c0 92 23 01 	sts	0x0123, r12
    16f4:	24 e0       	ldi	r18, 0x04	; 4
    16f6:	b4 c0       	rjmp	.+360    	; 0x1860 <_ZL8nextNotev+0x32a>
    16f8:	a0 92 37 02 	sts	0x0237, r10
    16fc:	b0 92 36 02 	sts	0x0236, r11
    1700:	10 93 22 01 	sts	0x0122, r17
    1704:	00 93 21 01 	sts	0x0121, r16
    1708:	f0 92 1e 01 	sts	0x011E, r15
    170c:	e0 92 1d 01 	sts	0x011D, r14
    1710:	d0 93 20 01 	sts	0x0120, r29
    1714:	c0 93 1f 01 	sts	0x011F, r28
    1718:	90 92 1c 01 	sts	0x011C, r9
    171c:	d0 92 24 01 	sts	0x0124, r13
    1720:	c0 92 23 01 	sts	0x0123, r12
    1724:	25 e0       	ldi	r18, 0x05	; 5
    1726:	9c c0       	rjmp	.+312    	; 0x1860 <_ZL8nextNotev+0x32a>
    1728:	a0 92 37 02 	sts	0x0237, r10
    172c:	b0 92 36 02 	sts	0x0236, r11
    1730:	10 93 22 01 	sts	0x0122, r17
    1734:	00 93 21 01 	sts	0x0121, r16
    1738:	f0 92 1e 01 	sts	0x011E, r15
    173c:	e0 92 1d 01 	sts	0x011D, r14
    1740:	d0 93 20 01 	sts	0x0120, r29
    1744:	c0 93 1f 01 	sts	0x011F, r28
    1748:	90 92 1c 01 	sts	0x011C, r9
    174c:	d0 92 24 01 	sts	0x0124, r13
    1750:	c0 92 23 01 	sts	0x0123, r12
    1754:	27 e0       	ldi	r18, 0x07	; 7
    1756:	84 c0       	rjmp	.+264    	; 0x1860 <_ZL8nextNotev+0x32a>
    1758:	0e 94 6e 0a 	call	0x14dc	; 0x14dc <_ZL9getNumberv>
    175c:	7c 01       	movw	r14, r24
    175e:	44 c0       	rjmp	.+136    	; 0x17e8 <_ZL8nextNotev+0x2b2>
    1760:	0e 94 4f 0a 	call	0x149e	; 0x149e <_ZL16currentCharacterv>
    1764:	8c 36       	cpi	r24, 0x6C	; 108
    1766:	11 f4       	brne	.+4      	; 0x176c <_ZL8nextNotev+0x236>
    1768:	bb 24       	eor	r11, r11
    176a:	03 c0       	rjmp	.+6      	; 0x1772 <_ZL8nextNotev+0x23c>
    176c:	aa 24       	eor	r10, r10
    176e:	bb 24       	eor	r11, r11
    1770:	b3 94       	inc	r11
    1772:	80 91 54 02 	lds	r24, 0x0254
    1776:	90 91 55 02 	lds	r25, 0x0255
    177a:	01 96       	adiw	r24, 0x01	; 1
    177c:	90 93 55 02 	sts	0x0255, r25
    1780:	80 93 54 02 	sts	0x0254, r24
    1784:	12 cf       	rjmp	.-476    	; 0x15aa <_ZL8nextNotev+0x74>
    1786:	0e 94 6e 0a 	call	0x14dc	; 0x14dc <_ZL9getNumberv>
    178a:	88 2e       	mov	r8, r24
    178c:	98 2c       	mov	r9, r8
    178e:	0d cf       	rjmp	.-486    	; 0x15aa <_ZL8nextNotev+0x74>
    1790:	a0 92 37 02 	sts	0x0237, r10
    1794:	b0 92 36 02 	sts	0x0236, r11
    1798:	10 93 22 01 	sts	0x0122, r17
    179c:	00 93 21 01 	sts	0x0121, r16
    17a0:	f0 92 1e 01 	sts	0x011E, r15
    17a4:	e0 92 1d 01 	sts	0x011D, r14
    17a8:	d0 93 20 01 	sts	0x0120, r29
    17ac:	c0 93 1f 01 	sts	0x011F, r28
    17b0:	90 92 1c 01 	sts	0x011C, r9
    17b4:	d0 92 24 01 	sts	0x0124, r13
    17b8:	c0 92 23 01 	sts	0x0123, r12
    17bc:	20 e0       	ldi	r18, 0x00	; 0
    17be:	ff 24       	eor	r15, r15
    17c0:	f3 94       	inc	r15
    17c2:	4f c0       	rjmp	.+158    	; 0x1862 <_ZL8nextNotev+0x32c>
    17c4:	0e 94 6e 0a 	call	0x14dc	; 0x14dc <_ZL9getNumberv>
    17c8:	bc 01       	movw	r22, r24
    17ca:	80 ec       	ldi	r24, 0xC0	; 192
    17cc:	9d e5       	ldi	r25, 0x5D	; 93
    17ce:	0e 94 5d 15 	call	0x2aba	; 0x2aba <__udivmodhi4>
    17d2:	cb 01       	movw	r24, r22
    17d4:	eb 01       	movw	r28, r22
    17d6:	f3 e0       	ldi	r31, 0x03	; 3
    17d8:	cc 0f       	add	r28, r28
    17da:	dd 1f       	adc	r29, r29
    17dc:	fa 95       	dec	r31
    17de:	e1 f7       	brne	.-8      	; 0x17d8 <_ZL8nextNotev+0x2a2>
    17e0:	88 0f       	add	r24, r24
    17e2:	99 1f       	adc	r25, r25
    17e4:	c8 0f       	add	r28, r24
    17e6:	d9 1f       	adc	r29, r25
    17e8:	ce 01       	movw	r24, r28
    17ea:	b7 01       	movw	r22, r14
    17ec:	0e 94 5d 15 	call	0x2aba	; 0x2aba <__udivmodhi4>
    17f0:	8b 01       	movw	r16, r22
    17f2:	db ce       	rjmp	.-586    	; 0x15aa <_ZL8nextNotev+0x74>
    17f4:	0e 94 6e 0a 	call	0x14dc	; 0x14dc <_ZL9getNumberv>
    17f8:	6c 01       	movw	r12, r24
    17fa:	d7 ce       	rjmp	.-594    	; 0x15aa <_ZL8nextNotev+0x74>
    17fc:	a0 92 37 02 	sts	0x0237, r10
    1800:	b0 92 36 02 	sts	0x0236, r11
    1804:	10 93 22 01 	sts	0x0122, r17
    1808:	00 93 21 01 	sts	0x0121, r16
    180c:	f0 92 1e 01 	sts	0x011E, r15
    1810:	e0 92 1d 01 	sts	0x011D, r14
    1814:	d0 93 20 01 	sts	0x0120, r29
    1818:	c0 93 1f 01 	sts	0x011F, r28
    181c:	90 92 1c 01 	sts	0x011C, r9
    1820:	d0 92 24 01 	sts	0x0124, r13
    1824:	c0 92 23 01 	sts	0x0123, r12
    1828:	10 92 55 02 	sts	0x0255, r1
    182c:	10 92 54 02 	sts	0x0254, r1
    1830:	78 c0       	rjmp	.+240    	; 0x1922 <_ZL8nextNotev+0x3ec>
    1832:	a0 92 37 02 	sts	0x0237, r10
    1836:	b0 92 36 02 	sts	0x0236, r11
    183a:	10 93 22 01 	sts	0x0122, r17
    183e:	00 93 21 01 	sts	0x0121, r16
    1842:	f0 92 1e 01 	sts	0x011E, r15
    1846:	e0 92 1d 01 	sts	0x011D, r14
    184a:	d0 93 20 01 	sts	0x0120, r29
    184e:	c0 93 1f 01 	sts	0x011F, r28
    1852:	90 92 1c 01 	sts	0x011C, r9
    1856:	d0 92 24 01 	sts	0x0124, r13
    185a:	c0 92 23 01 	sts	0x0123, r12
    185e:	29 e0       	ldi	r18, 0x09	; 9
    1860:	ff 24       	eor	r15, r15
    1862:	8c e0       	ldi	r24, 0x0C	; 12
    1864:	88 9e       	mul	r8, r24
    1866:	c0 01       	movw	r24, r0
    1868:	11 24       	eor	r1, r1
    186a:	e2 2e       	mov	r14, r18
    186c:	e8 0e       	add	r14, r24
    186e:	0a c0       	rjmp	.+20     	; 0x1884 <_ZL8nextNotev+0x34e>
    1870:	80 91 54 02 	lds	r24, 0x0254
    1874:	90 91 55 02 	lds	r25, 0x0255
    1878:	01 96       	adiw	r24, 0x01	; 1
    187a:	90 93 55 02 	sts	0x0255, r25
    187e:	80 93 54 02 	sts	0x0254, r24
    1882:	e3 94       	inc	r14
    1884:	0e 94 4f 0a 	call	0x149e	; 0x149e <_ZL16currentCharacterv>
    1888:	8b 32       	cpi	r24, 0x2B	; 43
    188a:	91 f3       	breq	.-28     	; 0x1870 <_ZL8nextNotev+0x33a>
    188c:	83 32       	cpi	r24, 0x23	; 35
    188e:	81 f3       	breq	.-32     	; 0x1870 <_ZL8nextNotev+0x33a>
    1890:	0c c0       	rjmp	.+24     	; 0x18aa <_ZL8nextNotev+0x374>
    1892:	80 91 54 02 	lds	r24, 0x0254
    1896:	90 91 55 02 	lds	r25, 0x0255
    189a:	01 96       	adiw	r24, 0x01	; 1
    189c:	90 93 55 02 	sts	0x0255, r25
    18a0:	80 93 54 02 	sts	0x0254, r24
    18a4:	ea 94       	dec	r14
    18a6:	0e 94 4f 0a 	call	0x149e	; 0x149e <_ZL16currentCharacterv>
    18aa:	8d 32       	cpi	r24, 0x2D	; 45
    18ac:	91 f3       	breq	.-28     	; 0x1892 <_ZL8nextNotev+0x35c>
    18ae:	c0 91 21 01 	lds	r28, 0x0121
    18b2:	d0 91 22 01 	lds	r29, 0x0122
    18b6:	81 53       	subi	r24, 0x31	; 49
    18b8:	88 30       	cpi	r24, 0x08	; 8
    18ba:	58 f4       	brcc	.+22     	; 0x18d2 <_ZL8nextNotev+0x39c>
    18bc:	00 91 1f 01 	lds	r16, 0x011F
    18c0:	10 91 20 01 	lds	r17, 0x0120
    18c4:	0e 94 6e 0a 	call	0x14dc	; 0x14dc <_ZL9getNumberv>
    18c8:	bc 01       	movw	r22, r24
    18ca:	c8 01       	movw	r24, r16
    18cc:	0e 94 5d 15 	call	0x2aba	; 0x2aba <__udivmodhi4>
    18d0:	eb 01       	movw	r28, r22
    18d2:	8e 01       	movw	r16, r28
    18d4:	0b c0       	rjmp	.+22     	; 0x18ec <_ZL8nextNotev+0x3b6>
    18d6:	80 91 54 02 	lds	r24, 0x0254
    18da:	90 91 55 02 	lds	r25, 0x0255
    18de:	01 96       	adiw	r24, 0x01	; 1
    18e0:	90 93 55 02 	sts	0x0255, r25
    18e4:	80 93 54 02 	sts	0x0254, r24
    18e8:	c0 0f       	add	r28, r16
    18ea:	d1 1f       	adc	r29, r17
    18ec:	16 95       	lsr	r17
    18ee:	07 95       	ror	r16
    18f0:	0e 94 4f 0a 	call	0x149e	; 0x149e <_ZL16currentCharacterv>
    18f4:	8e 32       	cpi	r24, 0x2E	; 46
    18f6:	79 f3       	breq	.-34     	; 0x18d6 <_ZL8nextNotev+0x3a0>
    18f8:	80 91 36 02 	lds	r24, 0x0236
    18fc:	88 23       	and	r24, r24
    18fe:	39 f0       	breq	.+14     	; 0x190e <_ZL8nextNotev+0x3d8>
    1900:	ce 01       	movw	r24, r28
    1902:	96 95       	lsr	r25
    1904:	87 95       	ror	r24
    1906:	80 93 37 02 	sts	0x0237, r24
    190a:	c8 1b       	sub	r28, r24
    190c:	d1 09       	sbc	r29, r1
    190e:	ff 20       	and	r15, r15
    1910:	11 f0       	breq	.+4      	; 0x1916 <_ZL8nextNotev+0x3e0>
    1912:	ee 24       	eor	r14, r14
    1914:	ea 94       	dec	r14
    1916:	8e 2d       	mov	r24, r14
    1918:	be 01       	movw	r22, r28
    191a:	40 91 23 01 	lds	r20, 0x0123
    191e:	0e 94 a9 09 	call	0x1352	; 0x1352 <_ZN15OrangutanBuzzer8playNoteEhjh>
    1922:	cd b7       	in	r28, 0x3d	; 61
    1924:	de b7       	in	r29, 0x3e	; 62
    1926:	ec e0       	ldi	r30, 0x0C	; 12
    1928:	0c 94 e3 15 	jmp	0x2bc6	; 0x2bc6 <__epilogue_restores__+0xc>

0000192c <_ZN15OrangutanBuzzer20playFromProgramSpaceEPKc>:
    192c:	10 92 6f 00 	sts	0x006F, r1
    1930:	90 93 55 02 	sts	0x0255, r25
    1934:	80 93 54 02 	sts	0x0254, r24
    1938:	81 e0       	ldi	r24, 0x01	; 1
    193a:	80 93 38 02 	sts	0x0238, r24
    193e:	10 92 37 02 	sts	0x0237, r1
    1942:	0e 94 9b 0a 	call	0x1536	; 0x1536 <_ZL8nextNotev>
    1946:	08 95       	ret

00001948 <play_from_program_space>:
    1948:	0e 94 96 0c 	call	0x192c	; 0x192c <_ZN15OrangutanBuzzer20playFromProgramSpaceEPKc>
    194c:	08 95       	ret

0000194e <_ZN15OrangutanBuzzer4playEPKc>:
    194e:	10 92 6f 00 	sts	0x006F, r1
    1952:	90 93 55 02 	sts	0x0255, r25
    1956:	80 93 54 02 	sts	0x0254, r24
    195a:	10 92 38 02 	sts	0x0238, r1
    195e:	10 92 37 02 	sts	0x0237, r1
    1962:	0e 94 9b 0a 	call	0x1536	; 0x1536 <_ZL8nextNotev>
    1966:	08 95       	ret

00001968 <play>:
    1968:	0e 94 a7 0c 	call	0x194e	; 0x194e <_ZN15OrangutanBuzzer4playEPKc>
    196c:	08 95       	ret

0000196e <__vector_13>:
    196e:	1f 92       	push	r1
    1970:	0f 92       	push	r0
    1972:	0f b6       	in	r0, 0x3f	; 63
    1974:	0f 92       	push	r0
    1976:	11 24       	eor	r1, r1
    1978:	2f 93       	push	r18
    197a:	3f 93       	push	r19
    197c:	4f 93       	push	r20
    197e:	5f 93       	push	r21
    1980:	6f 93       	push	r22
    1982:	7f 93       	push	r23
    1984:	8f 93       	push	r24
    1986:	9f 93       	push	r25
    1988:	af 93       	push	r26
    198a:	bf 93       	push	r27
    198c:	ef 93       	push	r30
    198e:	ff 93       	push	r31
    1990:	80 91 3a 02 	lds	r24, 0x023A
    1994:	90 91 3b 02 	lds	r25, 0x023B
    1998:	01 97       	sbiw	r24, 0x01	; 1
    199a:	90 93 3b 02 	sts	0x023B, r25
    199e:	80 93 3a 02 	sts	0x023A, r24
    19a2:	01 96       	adiw	r24, 0x01	; 1
    19a4:	11 f5       	brne	.+68     	; 0x19ea <__vector_13+0x7c>
    19a6:	10 92 6f 00 	sts	0x006F, r1
    19aa:	78 94       	sei
    19ac:	80 91 81 00 	lds	r24, 0x0081
    19b0:	88 7f       	andi	r24, 0xF8	; 248
    19b2:	81 60       	ori	r24, 0x01	; 1
    19b4:	80 93 81 00 	sts	0x0081, r24
    19b8:	80 e1       	ldi	r24, 0x10	; 16
    19ba:	97 e2       	ldi	r25, 0x27	; 39
    19bc:	90 93 89 00 	sts	0x0089, r25
    19c0:	80 93 88 00 	sts	0x0088, r24
    19c4:	10 92 8b 00 	sts	0x008B, r1
    19c8:	10 92 8a 00 	sts	0x008A, r1
    19cc:	81 e0       	ldi	r24, 0x01	; 1
    19ce:	80 93 27 01 	sts	0x0127, r24
    19d2:	80 91 54 02 	lds	r24, 0x0254
    19d6:	90 91 55 02 	lds	r25, 0x0255
    19da:	89 2b       	or	r24, r25
    19dc:	31 f0       	breq	.+12     	; 0x19ea <__vector_13+0x7c>
    19de:	80 91 39 02 	lds	r24, 0x0239
    19e2:	88 23       	and	r24, r24
    19e4:	11 f4       	brne	.+4      	; 0x19ea <__vector_13+0x7c>
    19e6:	0e 94 9b 0a 	call	0x1536	; 0x1536 <_ZL8nextNotev>
    19ea:	ff 91       	pop	r31
    19ec:	ef 91       	pop	r30
    19ee:	bf 91       	pop	r27
    19f0:	af 91       	pop	r26
    19f2:	9f 91       	pop	r25
    19f4:	8f 91       	pop	r24
    19f6:	7f 91       	pop	r23
    19f8:	6f 91       	pop	r22
    19fa:	5f 91       	pop	r21
    19fc:	4f 91       	pop	r20
    19fe:	3f 91       	pop	r19
    1a00:	2f 91       	pop	r18
    1a02:	0f 90       	pop	r0
    1a04:	0f be       	out	0x3f, r0	; 63
    1a06:	0f 90       	pop	r0
    1a08:	1f 90       	pop	r1
    1a0a:	18 95       	reti

00001a0c <_ZN15OrangutanBuzzer9playCheckEv>:
    1a0c:	10 92 6f 00 	sts	0x006F, r1
    1a10:	80 91 27 01 	lds	r24, 0x0127
    1a14:	88 23       	and	r24, r24
    1a16:	41 f0       	breq	.+16     	; 0x1a28 <_ZN15OrangutanBuzzer9playCheckEv+0x1c>
    1a18:	80 91 54 02 	lds	r24, 0x0254
    1a1c:	90 91 55 02 	lds	r25, 0x0255
    1a20:	89 2b       	or	r24, r25
    1a22:	11 f0       	breq	.+4      	; 0x1a28 <_ZN15OrangutanBuzzer9playCheckEv+0x1c>
    1a24:	0e 94 9b 0a 	call	0x1536	; 0x1536 <_ZL8nextNotev>
    1a28:	81 e0       	ldi	r24, 0x01	; 1
    1a2a:	80 93 6f 00 	sts	0x006F, r24
    1a2e:	20 e0       	ldi	r18, 0x00	; 0
    1a30:	80 91 54 02 	lds	r24, 0x0254
    1a34:	90 91 55 02 	lds	r25, 0x0255
    1a38:	89 2b       	or	r24, r25
    1a3a:	09 f0       	breq	.+2      	; 0x1a3e <_ZN15OrangutanBuzzer9playCheckEv+0x32>
    1a3c:	21 e0       	ldi	r18, 0x01	; 1
    1a3e:	82 2f       	mov	r24, r18
    1a40:	08 95       	ret

00001a42 <_ZN15OrangutanBuzzer8playModeEh>:
    1a42:	80 93 39 02 	sts	0x0239, r24
    1a46:	88 23       	and	r24, r24
    1a48:	11 f4       	brne	.+4      	; 0x1a4e <_ZN15OrangutanBuzzer8playModeEh+0xc>
    1a4a:	0e 94 06 0d 	call	0x1a0c	; 0x1a0c <_ZN15OrangutanBuzzer9playCheckEv>
    1a4e:	08 95       	ret

00001a50 <play_mode>:
    1a50:	0e 94 21 0d 	call	0x1a42	; 0x1a42 <_ZN15OrangutanBuzzer8playModeEh>
    1a54:	08 95       	ret

00001a56 <play_check>:
    1a56:	0e 94 06 0d 	call	0x1a0c	; 0x1a0c <_ZN15OrangutanBuzzer9playCheckEv>
    1a5a:	08 95       	ret

00001a5c <_ZN12OrangutanLCDC2Ev>:
    1a5c:	08 95       	ret

00001a5e <_ZN12OrangutanLCDC1Ev>:
    1a5e:	08 95       	ret

00001a60 <void_getchar>:
    1a60:	80 e0       	ldi	r24, 0x00	; 0
    1a62:	90 e0       	ldi	r25, 0x00	; 0
    1a64:	08 95       	ret

00001a66 <_ZN12OrangutanLCD8busyWaitEv>:
    1a66:	ef 92       	push	r14
    1a68:	ff 92       	push	r15
    1a6a:	0f 93       	push	r16
    1a6c:	1f 93       	push	r17
    1a6e:	6a b1       	in	r22, 0x0a	; 10
    1a70:	57 98       	cbi	0x0a, 7	; 10
    1a72:	5a 98       	cbi	0x0b, 2	; 11
    1a74:	28 9a       	sbi	0x05, 0	; 5
    1a76:	e0 90 40 02 	lds	r14, 0x0240
    1a7a:	f0 90 41 02 	lds	r15, 0x0241
    1a7e:	00 91 42 02 	lds	r16, 0x0242
    1a82:	10 91 43 02 	lds	r17, 0x0243
    1a86:	20 e0       	ldi	r18, 0x00	; 0
    1a88:	30 e0       	ldi	r19, 0x00	; 0
    1a8a:	41 e0       	ldi	r20, 0x01	; 1
    1a8c:	50 e0       	ldi	r21, 0x00	; 0
    1a8e:	ca 01       	movw	r24, r20
    1a90:	6f 93       	push	r22
    1a92:	64 e0       	ldi	r22, 0x04	; 4
    1a94:	6a 95       	dec	r22
    1a96:	f1 f7       	brne	.-4      	; 0x1a94 <_ZN12OrangutanLCD8busyWaitEv+0x2e>
    1a98:	6f 91       	pop	r22
    1a9a:	01 97       	sbiw	r24, 0x01	; 1
    1a9c:	c9 f7       	brne	.-14     	; 0x1a90 <_ZN12OrangutanLCD8busyWaitEv+0x2a>
    1a9e:	5c 9a       	sbi	0x0b, 4	; 11
    1aa0:	ca 01       	movw	r24, r20
    1aa2:	6f 93       	push	r22
    1aa4:	64 e0       	ldi	r22, 0x04	; 4
    1aa6:	6a 95       	dec	r22
    1aa8:	f1 f7       	brne	.-4      	; 0x1aa6 <_ZN12OrangutanLCD8busyWaitEv+0x40>
    1aaa:	6f 91       	pop	r22
    1aac:	01 97       	sbiw	r24, 0x01	; 1
    1aae:	c9 f7       	brne	.-14     	; 0x1aa2 <_ZN12OrangutanLCD8busyWaitEv+0x3c>
    1ab0:	89 b1       	in	r24, 0x09	; 9
    1ab2:	5c 98       	cbi	0x0b, 4	; 11
    1ab4:	fa 01       	movw	r30, r20
    1ab6:	6f 93       	push	r22
    1ab8:	64 e0       	ldi	r22, 0x04	; 4
    1aba:	6a 95       	dec	r22
    1abc:	f1 f7       	brne	.-4      	; 0x1aba <_ZN12OrangutanLCD8busyWaitEv+0x54>
    1abe:	6f 91       	pop	r22
    1ac0:	31 97       	sbiw	r30, 0x01	; 1
    1ac2:	c9 f7       	brne	.-14     	; 0x1ab6 <_ZN12OrangutanLCD8busyWaitEv+0x50>
    1ac4:	5c 9a       	sbi	0x0b, 4	; 11
    1ac6:	fa 01       	movw	r30, r20
    1ac8:	6f 93       	push	r22
    1aca:	64 e0       	ldi	r22, 0x04	; 4
    1acc:	6a 95       	dec	r22
    1ace:	f1 f7       	brne	.-4      	; 0x1acc <_ZN12OrangutanLCD8busyWaitEv+0x66>
    1ad0:	6f 91       	pop	r22
    1ad2:	31 97       	sbiw	r30, 0x01	; 1
    1ad4:	c9 f7       	brne	.-14     	; 0x1ac8 <_ZN12OrangutanLCD8busyWaitEv+0x62>
    1ad6:	5c 98       	cbi	0x0b, 4	; 11
    1ad8:	87 ff       	sbrs	r24, 7
    1ada:	0b c0       	rjmp	.+22     	; 0x1af2 <_ZN12OrangutanLCD8busyWaitEv+0x8c>
    1adc:	2c 5f       	subi	r18, 0xFC	; 252
    1ade:	3f 4f       	sbci	r19, 0xFF	; 255
    1ae0:	c9 01       	movw	r24, r18
    1ae2:	a0 e0       	ldi	r26, 0x00	; 0
    1ae4:	b0 e0       	ldi	r27, 0x00	; 0
    1ae6:	8e 15       	cp	r24, r14
    1ae8:	9f 05       	cpc	r25, r15
    1aea:	a0 07       	cpc	r26, r16
    1aec:	b1 07       	cpc	r27, r17
    1aee:	08 f4       	brcc	.+2      	; 0x1af2 <_ZN12OrangutanLCD8busyWaitEv+0x8c>
    1af0:	ce cf       	rjmp	.-100    	; 0x1a8e <_ZN12OrangutanLCD8busyWaitEv+0x28>
    1af2:	6a b9       	out	0x0a, r22	; 10
    1af4:	1f 91       	pop	r17
    1af6:	0f 91       	pop	r16
    1af8:	ff 90       	pop	r15
    1afa:	ef 90       	pop	r14
    1afc:	08 95       	ret

00001afe <_ZN12OrangutanLCD8sendDataEh>:
    1afe:	65 b1       	in	r22, 0x05	; 5
    1b00:	90 e0       	ldi	r25, 0x00	; 0
    1b02:	ac 01       	movw	r20, r24
    1b04:	41 70       	andi	r20, 0x01	; 1
    1b06:	50 70       	andi	r21, 0x00	; 0
    1b08:	44 0f       	add	r20, r20
    1b0a:	55 1f       	adc	r21, r21
    1b0c:	9c 01       	movw	r18, r24
    1b0e:	26 70       	andi	r18, 0x06	; 6
    1b10:	30 70       	andi	r19, 0x00	; 0
    1b12:	53 e0       	ldi	r21, 0x03	; 3
    1b14:	22 0f       	add	r18, r18
    1b16:	33 1f       	adc	r19, r19
    1b18:	5a 95       	dec	r21
    1b1a:	e1 f7       	brne	.-8      	; 0x1b14 <_ZN12OrangutanLCD8sendDataEh+0x16>
    1b1c:	42 2b       	or	r20, r18
    1b1e:	6d 7c       	andi	r22, 0xCD	; 205
    1b20:	46 2b       	or	r20, r22
    1b22:	45 b9       	out	0x05, r20	; 5
    1b24:	2b b1       	in	r18, 0x0b	; 11
    1b26:	88 70       	andi	r24, 0x08	; 8
    1b28:	90 70       	andi	r25, 0x00	; 0
    1b2a:	34 e0       	ldi	r19, 0x04	; 4
    1b2c:	88 0f       	add	r24, r24
    1b2e:	99 1f       	adc	r25, r25
    1b30:	3a 95       	dec	r19
    1b32:	e1 f7       	brne	.-8      	; 0x1b2c <_ZN12OrangutanLCD8sendDataEh+0x2e>
    1b34:	2f 77       	andi	r18, 0x7F	; 127
    1b36:	28 2b       	or	r18, r24
    1b38:	2b b9       	out	0x0b, r18	; 11
    1b3a:	5c 9a       	sbi	0x0b, 4	; 11
    1b3c:	81 e0       	ldi	r24, 0x01	; 1
    1b3e:	90 e0       	ldi	r25, 0x00	; 0
    1b40:	fc 01       	movw	r30, r24
    1b42:	6f 93       	push	r22
    1b44:	64 e0       	ldi	r22, 0x04	; 4
    1b46:	6a 95       	dec	r22
    1b48:	f1 f7       	brne	.-4      	; 0x1b46 <_ZN12OrangutanLCD8sendDataEh+0x48>
    1b4a:	6f 91       	pop	r22
    1b4c:	31 97       	sbiw	r30, 0x01	; 1
    1b4e:	c9 f7       	brne	.-14     	; 0x1b42 <_ZN12OrangutanLCD8sendDataEh+0x44>
    1b50:	5c 98       	cbi	0x0b, 4	; 11
    1b52:	6f 93       	push	r22
    1b54:	64 e0       	ldi	r22, 0x04	; 4
    1b56:	6a 95       	dec	r22
    1b58:	f1 f7       	brne	.-4      	; 0x1b56 <_ZN12OrangutanLCD8sendDataEh+0x58>
    1b5a:	6f 91       	pop	r22
    1b5c:	01 97       	sbiw	r24, 0x01	; 1
    1b5e:	c9 f7       	brne	.-14     	; 0x1b52 <_ZN12OrangutanLCD8sendDataEh+0x54>
    1b60:	08 95       	ret

00001b62 <_ZN12OrangutanLCD10initPrintfEv>:
    1b62:	80 91 3c 02 	lds	r24, 0x023C
    1b66:	90 91 3d 02 	lds	r25, 0x023D
    1b6a:	00 97       	sbiw	r24, 0x00	; 0
    1b6c:	11 f0       	breq	.+4      	; 0x1b72 <_ZN12OrangutanLCD10initPrintfEv+0x10>
    1b6e:	0e 94 ab 16 	call	0x2d56	; 0x2d56 <free>
    1b72:	80 91 25 01 	lds	r24, 0x0125
    1b76:	90 e0       	ldi	r25, 0x00	; 0
    1b78:	01 97       	sbiw	r24, 0x01	; 1
    1b7a:	20 91 26 01 	lds	r18, 0x0126
    1b7e:	30 e0       	ldi	r19, 0x00	; 0
    1b80:	ac 01       	movw	r20, r24
    1b82:	42 9f       	mul	r20, r18
    1b84:	c0 01       	movw	r24, r0
    1b86:	43 9f       	mul	r20, r19
    1b88:	90 0d       	add	r25, r0
    1b8a:	52 9f       	mul	r21, r18
    1b8c:	90 0d       	add	r25, r0
    1b8e:	11 24       	eor	r1, r1
    1b90:	0e 94 fe 15 	call	0x2bfc	; 0x2bfc <malloc>
    1b94:	90 93 3d 02 	sts	0x023D, r25
    1b98:	80 93 3c 02 	sts	0x023C, r24
    1b9c:	00 97       	sbiw	r24, 0x00	; 0
    1b9e:	29 f1       	breq	.+74     	; 0x1bea <_ZN12OrangutanLCD10initPrintfEv+0x88>
    1ba0:	60 e0       	ldi	r22, 0x00	; 0
    1ba2:	70 e2       	ldi	r23, 0x20	; 32
    1ba4:	08 c0       	rjmp	.+16     	; 0x1bb6 <_ZN12OrangutanLCD10initPrintfEv+0x54>
    1ba6:	e0 91 3c 02 	lds	r30, 0x023C
    1baa:	f0 91 3d 02 	lds	r31, 0x023D
    1bae:	e4 0f       	add	r30, r20
    1bb0:	f5 1f       	adc	r31, r21
    1bb2:	70 83       	st	Z, r23
    1bb4:	6f 5f       	subi	r22, 0xFF	; 255
    1bb6:	46 2f       	mov	r20, r22
    1bb8:	50 e0       	ldi	r21, 0x00	; 0
    1bba:	80 91 25 01 	lds	r24, 0x0125
    1bbe:	90 e0       	ldi	r25, 0x00	; 0
    1bc0:	01 97       	sbiw	r24, 0x01	; 1
    1bc2:	20 91 26 01 	lds	r18, 0x0126
    1bc6:	30 e0       	ldi	r19, 0x00	; 0
    1bc8:	fc 01       	movw	r30, r24
    1bca:	e2 9f       	mul	r30, r18
    1bcc:	c0 01       	movw	r24, r0
    1bce:	e3 9f       	mul	r30, r19
    1bd0:	90 0d       	add	r25, r0
    1bd2:	f2 9f       	mul	r31, r18
    1bd4:	90 0d       	add	r25, r0
    1bd6:	11 24       	eor	r1, r1
    1bd8:	48 17       	cp	r20, r24
    1bda:	59 07       	cpc	r21, r25
    1bdc:	24 f3       	brlt	.-56     	; 0x1ba6 <_ZN12OrangutanLCD10initPrintfEv+0x44>
    1bde:	84 ef       	ldi	r24, 0xF4	; 244
    1be0:	9f e0       	ldi	r25, 0x0F	; 15
    1be2:	60 e3       	ldi	r22, 0x30	; 48
    1be4:	7d e0       	ldi	r23, 0x0D	; 13
    1be6:	0e 94 03 17 	call	0x2e06	; 0x2e06 <fdevopen>
    1bea:	08 95       	ret

00001bec <_ZN12OrangutanLCD10initPrintfEhh>:
    1bec:	80 93 26 01 	sts	0x0126, r24
    1bf0:	60 93 25 01 	sts	0x0125, r22
    1bf4:	0e 94 b1 0d 	call	0x1b62	; 0x1b62 <_ZN12OrangutanLCD10initPrintfEv>
    1bf8:	08 95       	ret

00001bfa <lcd_init_printf_with_dimensions>:
    1bfa:	80 93 26 01 	sts	0x0126, r24
    1bfe:	60 93 25 01 	sts	0x0125, r22
    1c02:	0e 94 b1 0d 	call	0x1b62	; 0x1b62 <_ZN12OrangutanLCD10initPrintfEv>
    1c06:	08 95       	ret

00001c08 <lcd_init_printf>:
    1c08:	0e 94 b1 0d 	call	0x1b62	; 0x1b62 <_ZN12OrangutanLCD10initPrintfEv>
    1c0c:	08 95       	ret

00001c0e <_ZN12OrangutanLCD5init2Ev>:
    1c0e:	80 e1       	ldi	r24, 0x10	; 16
    1c10:	97 e2       	ldi	r25, 0x27	; 39
    1c12:	a0 e0       	ldi	r26, 0x00	; 0
    1c14:	b0 e0       	ldi	r27, 0x00	; 0
    1c16:	80 93 40 02 	sts	0x0240, r24
    1c1a:	90 93 41 02 	sts	0x0241, r25
    1c1e:	a0 93 42 02 	sts	0x0242, r26
    1c22:	b0 93 43 02 	sts	0x0243, r27
    1c26:	52 9a       	sbi	0x0a, 2	; 10
    1c28:	20 9a       	sbi	0x04, 0	; 4
    1c2a:	54 9a       	sbi	0x0a, 4	; 10
    1c2c:	8e e1       	ldi	r24, 0x1E	; 30
    1c2e:	90 e0       	ldi	r25, 0x00	; 0
    1c30:	0e 94 97 14 	call	0x292e	; 0x292e <_ZN13OrangutanTime17delayMillisecondsEj>
    1c34:	83 e0       	ldi	r24, 0x03	; 3
    1c36:	0e 94 3a 11 	call	0x2274	; 0x2274 <_ZN12OrangutanLCD13send_4bit_cmdEh>
    1c3a:	86 e0       	ldi	r24, 0x06	; 6
    1c3c:	90 e0       	ldi	r25, 0x00	; 0
    1c3e:	0e 94 97 14 	call	0x292e	; 0x292e <_ZN13OrangutanTime17delayMillisecondsEj>
    1c42:	83 e0       	ldi	r24, 0x03	; 3
    1c44:	0e 94 3a 11 	call	0x2274	; 0x2274 <_ZN12OrangutanLCD13send_4bit_cmdEh>
    1c48:	82 e0       	ldi	r24, 0x02	; 2
    1c4a:	90 e0       	ldi	r25, 0x00	; 0
    1c4c:	0e 94 97 14 	call	0x292e	; 0x292e <_ZN13OrangutanTime17delayMillisecondsEj>
    1c50:	83 e0       	ldi	r24, 0x03	; 3
    1c52:	0e 94 3a 11 	call	0x2274	; 0x2274 <_ZN12OrangutanLCD13send_4bit_cmdEh>
    1c56:	82 e0       	ldi	r24, 0x02	; 2
    1c58:	90 e0       	ldi	r25, 0x00	; 0
    1c5a:	0e 94 97 14 	call	0x292e	; 0x292e <_ZN13OrangutanTime17delayMillisecondsEj>
    1c5e:	82 e0       	ldi	r24, 0x02	; 2
    1c60:	0e 94 3a 11 	call	0x2274	; 0x2274 <_ZN12OrangutanLCD13send_4bit_cmdEh>
    1c64:	82 e0       	ldi	r24, 0x02	; 2
    1c66:	90 e0       	ldi	r25, 0x00	; 0
    1c68:	0e 94 97 14 	call	0x292e	; 0x292e <_ZN13OrangutanTime17delayMillisecondsEj>
    1c6c:	88 e2       	ldi	r24, 0x28	; 40
    1c6e:	0e 94 84 0e 	call	0x1d08	; 0x1d08 <_ZN12OrangutanLCD8send_cmdEh>
    1c72:	88 e0       	ldi	r24, 0x08	; 8
    1c74:	0e 94 84 0e 	call	0x1d08	; 0x1d08 <_ZN12OrangutanLCD8send_cmdEh>
    1c78:	81 e0       	ldi	r24, 0x01	; 1
    1c7a:	0e 94 84 0e 	call	0x1d08	; 0x1d08 <_ZN12OrangutanLCD8send_cmdEh>
    1c7e:	86 e0       	ldi	r24, 0x06	; 6
    1c80:	0e 94 84 0e 	call	0x1d08	; 0x1d08 <_ZN12OrangutanLCD8send_cmdEh>
    1c84:	8c e0       	ldi	r24, 0x0C	; 12
    1c86:	0e 94 84 0e 	call	0x1d08	; 0x1d08 <_ZN12OrangutanLCD8send_cmdEh>
    1c8a:	08 95       	ret

00001c8c <_ZN12OrangutanLCD4initEv>:
    1c8c:	80 91 44 02 	lds	r24, 0x0244
    1c90:	88 23       	and	r24, r24
    1c92:	29 f4       	brne	.+10     	; 0x1c9e <_ZN12OrangutanLCD4initEv+0x12>
    1c94:	81 e0       	ldi	r24, 0x01	; 1
    1c96:	80 93 44 02 	sts	0x0244, r24
    1c9a:	0e 94 07 0e 	call	0x1c0e	; 0x1c0e <_ZN12OrangutanLCD5init2Ev>
    1c9e:	08 95       	ret

00001ca0 <_ZN12OrangutanLCD4sendEhhh>:
    1ca0:	bf 92       	push	r11
    1ca2:	cf 92       	push	r12
    1ca4:	df 92       	push	r13
    1ca6:	ef 92       	push	r14
    1ca8:	ff 92       	push	r15
    1caa:	0f 93       	push	r16
    1cac:	1f 93       	push	r17
    1cae:	08 2f       	mov	r16, r24
    1cb0:	16 2f       	mov	r17, r22
    1cb2:	f4 2e       	mov	r15, r20
    1cb4:	0e 94 46 0e 	call	0x1c8c	; 0x1c8c <_ZN12OrangutanLCD4initEv>
    1cb8:	0e 94 33 0d 	call	0x1a66	; 0x1a66 <_ZN12OrangutanLCD8busyWaitEv>
    1cbc:	b4 b0       	in	r11, 0x04	; 4
    1cbe:	c5 b0       	in	r12, 0x05	; 5
    1cc0:	da b0       	in	r13, 0x0a	; 10
    1cc2:	eb b0       	in	r14, 0x0b	; 11
    1cc4:	28 98       	cbi	0x05, 0	; 5
    1cc6:	11 23       	and	r17, r17
    1cc8:	11 f0       	breq	.+4      	; 0x1cce <_ZN12OrangutanLCD4sendEhhh+0x2e>
    1cca:	5a 9a       	sbi	0x0b, 2	; 11
    1ccc:	01 c0       	rjmp	.+2      	; 0x1cd0 <_ZN12OrangutanLCD4sendEhhh+0x30>
    1cce:	5a 98       	cbi	0x0b, 2	; 11
    1cd0:	84 b1       	in	r24, 0x04	; 4
    1cd2:	82 63       	ori	r24, 0x32	; 50
    1cd4:	84 b9       	out	0x04, r24	; 4
    1cd6:	57 9a       	sbi	0x0a, 7	; 10
    1cd8:	81 e0       	ldi	r24, 0x01	; 1
    1cda:	f8 16       	cp	r15, r24
    1cdc:	29 f0       	breq	.+10     	; 0x1ce8 <_ZN12OrangutanLCD4sendEhhh+0x48>
    1cde:	80 2f       	mov	r24, r16
    1ce0:	82 95       	swap	r24
    1ce2:	8f 70       	andi	r24, 0x0F	; 15
    1ce4:	0e 94 7f 0d 	call	0x1afe	; 0x1afe <_ZN12OrangutanLCD8sendDataEh>
    1ce8:	80 2f       	mov	r24, r16
    1cea:	8f 70       	andi	r24, 0x0F	; 15
    1cec:	0e 94 7f 0d 	call	0x1afe	; 0x1afe <_ZN12OrangutanLCD8sendDataEh>
    1cf0:	da b8       	out	0x0a, r13	; 10
    1cf2:	eb b8       	out	0x0b, r14	; 11
    1cf4:	b4 b8       	out	0x04, r11	; 4
    1cf6:	c5 b8       	out	0x05, r12	; 5
    1cf8:	1f 91       	pop	r17
    1cfa:	0f 91       	pop	r16
    1cfc:	ff 90       	pop	r15
    1cfe:	ef 90       	pop	r14
    1d00:	df 90       	pop	r13
    1d02:	cf 90       	pop	r12
    1d04:	bf 90       	pop	r11
    1d06:	08 95       	ret

00001d08 <_ZN12OrangutanLCD8send_cmdEh>:
    1d08:	60 e0       	ldi	r22, 0x00	; 0
    1d0a:	42 e0       	ldi	r20, 0x02	; 2
    1d0c:	0e 94 50 0e 	call	0x1ca0	; 0x1ca0 <_ZN12OrangutanLCD4sendEhhh>
    1d10:	08 95       	ret

00001d12 <_ZN12OrangutanLCD10moveCursorEhh>:
    1d12:	0f 93       	push	r16
    1d14:	1f 93       	push	r17
    1d16:	08 2f       	mov	r16, r24
    1d18:	16 2f       	mov	r17, r22
    1d1a:	08 c0       	rjmp	.+16     	; 0x1d2c <_ZN12OrangutanLCD10moveCursorEhh+0x1a>
    1d1c:	00 23       	and	r16, r16
    1d1e:	11 f4       	brne	.+4      	; 0x1d24 <_ZN12OrangutanLCD10moveCursorEhh+0x12>
    1d20:	80 e1       	ldi	r24, 0x10	; 16
    1d22:	01 c0       	rjmp	.+2      	; 0x1d26 <_ZN12OrangutanLCD10moveCursorEhh+0x14>
    1d24:	84 e1       	ldi	r24, 0x14	; 20
    1d26:	0e 94 84 0e 	call	0x1d08	; 0x1d08 <_ZN12OrangutanLCD8send_cmdEh>
    1d2a:	11 50       	subi	r17, 0x01	; 1
    1d2c:	11 23       	and	r17, r17
    1d2e:	b1 f7       	brne	.-20     	; 0x1d1c <_ZN12OrangutanLCD10moveCursorEhh+0xa>
    1d30:	1f 91       	pop	r17
    1d32:	0f 91       	pop	r16
    1d34:	08 95       	ret

00001d36 <lcd_move_cursor>:
    1d36:	0e 94 89 0e 	call	0x1d12	; 0x1d12 <_ZN12OrangutanLCD10moveCursorEhh>
    1d3a:	08 95       	ret

00001d3c <_ZN12OrangutanLCD10hideCursorEv>:
    1d3c:	8c e0       	ldi	r24, 0x0C	; 12
    1d3e:	0e 94 84 0e 	call	0x1d08	; 0x1d08 <_ZN12OrangutanLCD8send_cmdEh>
    1d42:	08 95       	ret

00001d44 <lcd_hide_cursor>:
    1d44:	0e 94 9e 0e 	call	0x1d3c	; 0x1d3c <_ZN12OrangutanLCD10hideCursorEv>
    1d48:	08 95       	ret

00001d4a <_ZN12OrangutanLCD10showCursorEh>:
    1d4a:	81 30       	cpi	r24, 0x01	; 1
    1d4c:	11 f4       	brne	.+4      	; 0x1d52 <_ZN12OrangutanLCD10showCursorEh+0x8>
    1d4e:	8f e0       	ldi	r24, 0x0F	; 15
    1d50:	01 c0       	rjmp	.+2      	; 0x1d54 <_ZN12OrangutanLCD10showCursorEh+0xa>
    1d52:	8e e0       	ldi	r24, 0x0E	; 14
    1d54:	0e 94 84 0e 	call	0x1d08	; 0x1d08 <_ZN12OrangutanLCD8send_cmdEh>
    1d58:	08 95       	ret

00001d5a <lcd_show_cursor>:
    1d5a:	0e 94 a5 0e 	call	0x1d4a	; 0x1d4a <_ZN12OrangutanLCD10showCursorEh>
    1d5e:	08 95       	ret

00001d60 <_ZN12OrangutanLCD6gotoXYEhh>:
    1d60:	a4 e0       	ldi	r26, 0x04	; 4
    1d62:	b0 e0       	ldi	r27, 0x00	; 0
    1d64:	e6 eb       	ldi	r30, 0xB6	; 182
    1d66:	fe e0       	ldi	r31, 0x0E	; 14
    1d68:	0c 94 cf 15 	jmp	0x2b9e	; 0x2b9e <__prologue_saves__+0x1c>
    1d6c:	18 2f       	mov	r17, r24
    1d6e:	06 2f       	mov	r16, r22
    1d70:	80 e8       	ldi	r24, 0x80	; 128
    1d72:	89 83       	std	Y+1, r24	; 0x01
    1d74:	80 ec       	ldi	r24, 0xC0	; 192
    1d76:	8a 83       	std	Y+2, r24	; 0x02
    1d78:	84 e9       	ldi	r24, 0x94	; 148
    1d7a:	8b 83       	std	Y+3, r24	; 0x03
    1d7c:	84 ed       	ldi	r24, 0xD4	; 212
    1d7e:	8c 83       	std	Y+4, r24	; 0x04
    1d80:	fe 01       	movw	r30, r28
    1d82:	e6 0f       	add	r30, r22
    1d84:	f1 1d       	adc	r31, r1
    1d86:	81 81       	ldd	r24, Z+1	; 0x01
    1d88:	81 0f       	add	r24, r17
    1d8a:	0e 94 84 0e 	call	0x1d08	; 0x1d08 <_ZN12OrangutanLCD8send_cmdEh>
    1d8e:	10 93 3f 02 	sts	0x023F, r17
    1d92:	00 93 3e 02 	sts	0x023E, r16
    1d96:	24 96       	adiw	r28, 0x04	; 4
    1d98:	e4 e0       	ldi	r30, 0x04	; 4
    1d9a:	0c 94 eb 15 	jmp	0x2bd6	; 0x2bd6 <__epilogue_restores__+0x1c>

00001d9e <lcd_goto_xy>:
    1d9e:	0e 94 b0 0e 	call	0x1d60	; 0x1d60 <_ZN12OrangutanLCD6gotoXYEhh>
    1da2:	08 95       	ret

00001da4 <_ZN12OrangutanLCD5clearEv>:
    1da4:	81 e0       	ldi	r24, 0x01	; 1
    1da6:	0e 94 84 0e 	call	0x1d08	; 0x1d08 <_ZN12OrangutanLCD8send_cmdEh>
    1daa:	80 91 3c 02 	lds	r24, 0x023C
    1dae:	90 91 3d 02 	lds	r25, 0x023D
    1db2:	89 2b       	or	r24, r25
    1db4:	19 f1       	breq	.+70     	; 0x1dfc <_ZN12OrangutanLCD5clearEv+0x58>
    1db6:	60 e0       	ldi	r22, 0x00	; 0
    1db8:	70 e2       	ldi	r23, 0x20	; 32
    1dba:	08 c0       	rjmp	.+16     	; 0x1dcc <_ZN12OrangutanLCD5clearEv+0x28>
    1dbc:	e0 91 3c 02 	lds	r30, 0x023C
    1dc0:	f0 91 3d 02 	lds	r31, 0x023D
    1dc4:	e4 0f       	add	r30, r20
    1dc6:	f5 1f       	adc	r31, r21
    1dc8:	70 83       	st	Z, r23
    1dca:	6f 5f       	subi	r22, 0xFF	; 255
    1dcc:	46 2f       	mov	r20, r22
    1dce:	50 e0       	ldi	r21, 0x00	; 0
    1dd0:	80 91 25 01 	lds	r24, 0x0125
    1dd4:	90 e0       	ldi	r25, 0x00	; 0
    1dd6:	01 97       	sbiw	r24, 0x01	; 1
    1dd8:	20 91 26 01 	lds	r18, 0x0126
    1ddc:	30 e0       	ldi	r19, 0x00	; 0
    1dde:	fc 01       	movw	r30, r24
    1de0:	e2 9f       	mul	r30, r18
    1de2:	c0 01       	movw	r24, r0
    1de4:	e3 9f       	mul	r30, r19
    1de6:	90 0d       	add	r25, r0
    1de8:	f2 9f       	mul	r31, r18
    1dea:	90 0d       	add	r25, r0
    1dec:	11 24       	eor	r1, r1
    1dee:	48 17       	cp	r20, r24
    1df0:	59 07       	cpc	r21, r25
    1df2:	24 f3       	brlt	.-56     	; 0x1dbc <_ZN12OrangutanLCD5clearEv+0x18>
    1df4:	10 92 3f 02 	sts	0x023F, r1
    1df8:	10 92 3e 02 	sts	0x023E, r1
    1dfc:	08 95       	ret

00001dfe <clear>:
    1dfe:	0e 94 d2 0e 	call	0x1da4	; 0x1da4 <_ZN12OrangutanLCD5clearEv>
    1e02:	08 95       	ret

00001e04 <_ZN12OrangutanLCD9send_dataEh>:
    1e04:	61 e0       	ldi	r22, 0x01	; 1
    1e06:	42 e0       	ldi	r20, 0x02	; 2
    1e08:	0e 94 50 0e 	call	0x1ca0	; 0x1ca0 <_ZN12OrangutanLCD4sendEhhh>
    1e0c:	08 95       	ret

00001e0e <_ZN12OrangutanLCD11printBinaryEh>:
    1e0e:	0f 93       	push	r16
    1e10:	1f 93       	push	r17
    1e12:	cf 93       	push	r28
    1e14:	df 93       	push	r29
    1e16:	00 e0       	ldi	r16, 0x00	; 0
    1e18:	10 e8       	ldi	r17, 0x80	; 128
    1e1a:	c8 2f       	mov	r28, r24
    1e1c:	d0 e0       	ldi	r29, 0x00	; 0
    1e1e:	81 2f       	mov	r24, r17
    1e20:	90 e0       	ldi	r25, 0x00	; 0
    1e22:	8c 23       	and	r24, r28
    1e24:	9d 23       	and	r25, r29
    1e26:	89 2b       	or	r24, r25
    1e28:	11 f0       	breq	.+4      	; 0x1e2e <_ZN12OrangutanLCD11printBinaryEh+0x20>
    1e2a:	81 e3       	ldi	r24, 0x31	; 49
    1e2c:	01 c0       	rjmp	.+2      	; 0x1e30 <_ZN12OrangutanLCD11printBinaryEh+0x22>
    1e2e:	80 e3       	ldi	r24, 0x30	; 48
    1e30:	0e 94 02 0f 	call	0x1e04	; 0x1e04 <_ZN12OrangutanLCD9send_dataEh>
    1e34:	0f 5f       	subi	r16, 0xFF	; 255
    1e36:	08 30       	cpi	r16, 0x08	; 8
    1e38:	11 f0       	breq	.+4      	; 0x1e3e <_ZN12OrangutanLCD11printBinaryEh+0x30>
    1e3a:	16 95       	lsr	r17
    1e3c:	f0 cf       	rjmp	.-32     	; 0x1e1e <_ZN12OrangutanLCD11printBinaryEh+0x10>
    1e3e:	df 91       	pop	r29
    1e40:	cf 91       	pop	r28
    1e42:	1f 91       	pop	r17
    1e44:	0f 91       	pop	r16
    1e46:	08 95       	ret

00001e48 <print_binary>:
    1e48:	0e 94 07 0f 	call	0x1e0e	; 0x1e0e <_ZN12OrangutanLCD11printBinaryEh>
    1e4c:	08 95       	ret

00001e4e <_ZN12OrangutanLCD14printHexNibbleEh>:
    1e4e:	8a 30       	cpi	r24, 0x0A	; 10
    1e50:	10 f4       	brcc	.+4      	; 0x1e56 <_ZN12OrangutanLCD14printHexNibbleEh+0x8>
    1e52:	80 5d       	subi	r24, 0xD0	; 208
    1e54:	01 c0       	rjmp	.+2      	; 0x1e58 <_ZN12OrangutanLCD14printHexNibbleEh+0xa>
    1e56:	89 5c       	subi	r24, 0xC9	; 201
    1e58:	0e 94 02 0f 	call	0x1e04	; 0x1e04 <_ZN12OrangutanLCD9send_dataEh>
    1e5c:	08 95       	ret

00001e5e <_ZN12OrangutanLCD8printHexEh>:
    1e5e:	1f 93       	push	r17
    1e60:	18 2f       	mov	r17, r24
    1e62:	82 95       	swap	r24
    1e64:	8f 70       	andi	r24, 0x0F	; 15
    1e66:	0e 94 27 0f 	call	0x1e4e	; 0x1e4e <_ZN12OrangutanLCD14printHexNibbleEh>
    1e6a:	81 2f       	mov	r24, r17
    1e6c:	8f 70       	andi	r24, 0x0F	; 15
    1e6e:	0e 94 27 0f 	call	0x1e4e	; 0x1e4e <_ZN12OrangutanLCD14printHexNibbleEh>
    1e72:	1f 91       	pop	r17
    1e74:	08 95       	ret

00001e76 <_ZN12OrangutanLCD8printHexEj>:
    1e76:	1f 93       	push	r17
    1e78:	18 2f       	mov	r17, r24
    1e7a:	89 2f       	mov	r24, r25
    1e7c:	0e 94 2f 0f 	call	0x1e5e	; 0x1e5e <_ZN12OrangutanLCD8printHexEh>
    1e80:	81 2f       	mov	r24, r17
    1e82:	0e 94 2f 0f 	call	0x1e5e	; 0x1e5e <_ZN12OrangutanLCD8printHexEh>
    1e86:	1f 91       	pop	r17
    1e88:	08 95       	ret

00001e8a <print_hex>:
    1e8a:	0e 94 3b 0f 	call	0x1e76	; 0x1e76 <_ZN12OrangutanLCD8printHexEj>
    1e8e:	08 95       	ret

00001e90 <print_hex_byte>:
    1e90:	0e 94 2f 0f 	call	0x1e5e	; 0x1e5e <_ZN12OrangutanLCD8printHexEh>
    1e94:	08 95       	ret

00001e96 <_ZN12OrangutanLCD5printEm>:
    1e96:	6f 92       	push	r6
    1e98:	7f 92       	push	r7
    1e9a:	8f 92       	push	r8
    1e9c:	9f 92       	push	r9
    1e9e:	af 92       	push	r10
    1ea0:	bf 92       	push	r11
    1ea2:	cf 92       	push	r12
    1ea4:	df 92       	push	r13
    1ea6:	ff 92       	push	r15
    1ea8:	0f 93       	push	r16
    1eaa:	df 93       	push	r29
    1eac:	cf 93       	push	r28
    1eae:	cd b7       	in	r28, 0x3d	; 61
    1eb0:	de b7       	in	r29, 0x3e	; 62
    1eb2:	2a 97       	sbiw	r28, 0x0a	; 10
    1eb4:	0f b6       	in	r0, 0x3f	; 63
    1eb6:	f8 94       	cli
    1eb8:	de bf       	out	0x3e, r29	; 62
    1eba:	0f be       	out	0x3f, r0	; 63
    1ebc:	cd bf       	out	0x3d, r28	; 61
    1ebe:	5b 01       	movw	r10, r22
    1ec0:	6c 01       	movw	r12, r24
    1ec2:	0a e0       	ldi	r16, 0x0A	; 10
    1ec4:	3e 01       	movw	r6, r28
    1ec6:	08 94       	sec
    1ec8:	61 1c       	adc	r6, r1
    1eca:	71 1c       	adc	r7, r1
    1ecc:	fa 2c       	mov	r15, r10
    1ece:	c6 01       	movw	r24, r12
    1ed0:	b5 01       	movw	r22, r10
    1ed2:	2a e0       	ldi	r18, 0x0A	; 10
    1ed4:	30 e0       	ldi	r19, 0x00	; 0
    1ed6:	40 e0       	ldi	r20, 0x00	; 0
    1ed8:	50 e0       	ldi	r21, 0x00	; 0
    1eda:	0e 94 84 15 	call	0x2b08	; 0x2b08 <__udivmodsi4>
    1ede:	c9 01       	movw	r24, r18
    1ee0:	da 01       	movw	r26, r20
    1ee2:	5c 01       	movw	r10, r24
    1ee4:	6d 01       	movw	r12, r26
    1ee6:	01 50       	subi	r16, 0x01	; 1
    1ee8:	43 01       	movw	r8, r6
    1eea:	80 0e       	add	r8, r16
    1eec:	91 1c       	adc	r9, r1
    1eee:	80 e3       	ldi	r24, 0x30	; 48
    1ef0:	f8 0e       	add	r15, r24
    1ef2:	c6 01       	movw	r24, r12
    1ef4:	b5 01       	movw	r22, r10
    1ef6:	2a e0       	ldi	r18, 0x0A	; 10
    1ef8:	30 e0       	ldi	r19, 0x00	; 0
    1efa:	40 e0       	ldi	r20, 0x00	; 0
    1efc:	50 e0       	ldi	r21, 0x00	; 0
    1efe:	0e 94 32 15 	call	0x2a64	; 0x2a64 <__mulsi3>
    1f02:	f6 1a       	sub	r15, r22
    1f04:	f4 01       	movw	r30, r8
    1f06:	f0 82       	st	Z, r15
    1f08:	a1 14       	cp	r10, r1
    1f0a:	b1 04       	cpc	r11, r1
    1f0c:	c1 04       	cpc	r12, r1
    1f0e:	d1 04       	cpc	r13, r1
    1f10:	e9 f6       	brne	.-70     	; 0x1ecc <_ZN12OrangutanLCD5printEm+0x36>
    1f12:	08 c0       	rjmp	.+16     	; 0x1f24 <_ZN12OrangutanLCD5printEm+0x8e>
    1f14:	f6 01       	movw	r30, r12
    1f16:	e0 0f       	add	r30, r16
    1f18:	f1 1d       	adc	r31, r1
    1f1a:	80 81       	ld	r24, Z
    1f1c:	0e 94 02 0f 	call	0x1e04	; 0x1e04 <_ZN12OrangutanLCD9send_dataEh>
    1f20:	0f 5f       	subi	r16, 0xFF	; 255
    1f22:	04 c0       	rjmp	.+8      	; 0x1f2c <_ZN12OrangutanLCD5printEm+0x96>
    1f24:	6e 01       	movw	r12, r28
    1f26:	08 94       	sec
    1f28:	c1 1c       	adc	r12, r1
    1f2a:	d1 1c       	adc	r13, r1
    1f2c:	0a 30       	cpi	r16, 0x0A	; 10
    1f2e:	90 f3       	brcs	.-28     	; 0x1f14 <_ZN12OrangutanLCD5printEm+0x7e>
    1f30:	2a 96       	adiw	r28, 0x0a	; 10
    1f32:	0f b6       	in	r0, 0x3f	; 63
    1f34:	f8 94       	cli
    1f36:	de bf       	out	0x3e, r29	; 62
    1f38:	0f be       	out	0x3f, r0	; 63
    1f3a:	cd bf       	out	0x3d, r28	; 61
    1f3c:	cf 91       	pop	r28
    1f3e:	df 91       	pop	r29
    1f40:	0f 91       	pop	r16
    1f42:	ff 90       	pop	r15
    1f44:	df 90       	pop	r13
    1f46:	cf 90       	pop	r12
    1f48:	bf 90       	pop	r11
    1f4a:	af 90       	pop	r10
    1f4c:	9f 90       	pop	r9
    1f4e:	8f 90       	pop	r8
    1f50:	7f 90       	pop	r7
    1f52:	6f 90       	pop	r6
    1f54:	08 95       	ret

00001f56 <print_unsigned_long>:
    1f56:	0e 94 4b 0f 	call	0x1e96	; 0x1e96 <_ZN12OrangutanLCD5printEm>
    1f5a:	08 95       	ret

00001f5c <_ZN12OrangutanLCD5printEl>:
    1f5c:	ef 92       	push	r14
    1f5e:	ff 92       	push	r15
    1f60:	0f 93       	push	r16
    1f62:	1f 93       	push	r17
    1f64:	7b 01       	movw	r14, r22
    1f66:	8c 01       	movw	r16, r24
    1f68:	97 ff       	sbrs	r25, 7
    1f6a:	0b c0       	rjmp	.+22     	; 0x1f82 <_ZN12OrangutanLCD5printEl+0x26>
    1f6c:	10 95       	com	r17
    1f6e:	00 95       	com	r16
    1f70:	f0 94       	com	r15
    1f72:	e0 94       	com	r14
    1f74:	e1 1c       	adc	r14, r1
    1f76:	f1 1c       	adc	r15, r1
    1f78:	01 1d       	adc	r16, r1
    1f7a:	11 1d       	adc	r17, r1
    1f7c:	8d e2       	ldi	r24, 0x2D	; 45
    1f7e:	0e 94 02 0f 	call	0x1e04	; 0x1e04 <_ZN12OrangutanLCD9send_dataEh>
    1f82:	c8 01       	movw	r24, r16
    1f84:	b7 01       	movw	r22, r14
    1f86:	0e 94 4b 0f 	call	0x1e96	; 0x1e96 <_ZN12OrangutanLCD5printEm>
    1f8a:	1f 91       	pop	r17
    1f8c:	0f 91       	pop	r16
    1f8e:	ff 90       	pop	r15
    1f90:	ef 90       	pop	r14
    1f92:	08 95       	ret

00001f94 <print_long>:
    1f94:	0e 94 ae 0f 	call	0x1f5c	; 0x1f5c <_ZN12OrangutanLCD5printEl>
    1f98:	08 95       	ret

00001f9a <_ZN12OrangutanLCD21printFromProgramSpaceEPKc>:
    1f9a:	cf 93       	push	r28
    1f9c:	df 93       	push	r29
    1f9e:	ec 01       	movw	r28, r24
    1fa0:	03 c0       	rjmp	.+6      	; 0x1fa8 <_ZN12OrangutanLCD21printFromProgramSpaceEPKc+0xe>
    1fa2:	0e 94 02 0f 	call	0x1e04	; 0x1e04 <_ZN12OrangutanLCD9send_dataEh>
    1fa6:	21 96       	adiw	r28, 0x01	; 1
    1fa8:	fe 01       	movw	r30, r28
    1faa:	84 91       	lpm	r24, Z+
    1fac:	88 23       	and	r24, r24
    1fae:	c9 f7       	brne	.-14     	; 0x1fa2 <_ZN12OrangutanLCD21printFromProgramSpaceEPKc+0x8>
    1fb0:	df 91       	pop	r29
    1fb2:	cf 91       	pop	r28
    1fb4:	08 95       	ret

00001fb6 <print_from_program_space>:
    1fb6:	0e 94 cd 0f 	call	0x1f9a	; 0x1f9a <_ZN12OrangutanLCD21printFromProgramSpaceEPKc>
    1fba:	08 95       	ret

00001fbc <_ZN12OrangutanLCD5printEPKc>:
    1fbc:	cf 93       	push	r28
    1fbe:	df 93       	push	r29
    1fc0:	ec 01       	movw	r28, r24
    1fc2:	03 c0       	rjmp	.+6      	; 0x1fca <_ZN12OrangutanLCD5printEPKc+0xe>
    1fc4:	21 96       	adiw	r28, 0x01	; 1
    1fc6:	0e 94 02 0f 	call	0x1e04	; 0x1e04 <_ZN12OrangutanLCD9send_dataEh>
    1fca:	88 81       	ld	r24, Y
    1fcc:	88 23       	and	r24, r24
    1fce:	d1 f7       	brne	.-12     	; 0x1fc4 <_ZN12OrangutanLCD5printEPKc+0x8>
    1fd0:	df 91       	pop	r29
    1fd2:	cf 91       	pop	r28
    1fd4:	08 95       	ret

00001fd6 <print>:
    1fd6:	0e 94 de 0f 	call	0x1fbc	; 0x1fbc <_ZN12OrangutanLCD5printEPKc>
    1fda:	08 95       	ret

00001fdc <_ZN12OrangutanLCD5printEc>:
    1fdc:	0e 94 02 0f 	call	0x1e04	; 0x1e04 <_ZN12OrangutanLCD9send_dataEh>
    1fe0:	08 95       	ret

00001fe2 <print_character>:
    1fe2:	0e 94 02 0f 	call	0x1e04	; 0x1e04 <_ZN12OrangutanLCD9send_dataEh>
    1fe6:	08 95       	ret

00001fe8 <lcd_putchar>:
    1fe8:	a0 e0       	ldi	r26, 0x00	; 0
    1fea:	b0 e0       	ldi	r27, 0x00	; 0
    1fec:	ea ef       	ldi	r30, 0xFA	; 250
    1fee:	ff e0       	ldi	r31, 0x0F	; 15
    1ff0:	0c 94 cb 15 	jmp	0x2b96	; 0x2b96 <__prologue_saves__+0x14>
    1ff4:	e8 2e       	mov	r14, r24
    1ff6:	80 91 3c 02 	lds	r24, 0x023C
    1ffa:	90 91 3d 02 	lds	r25, 0x023D
    1ffe:	89 2b       	or	r24, r25
    2000:	09 f4       	brne	.+2      	; 0x2004 <lcd_putchar+0x1c>
    2002:	05 c1       	rjmp	.+522    	; 0x220e <lcd_putchar+0x226>
    2004:	2a e0       	ldi	r18, 0x0A	; 10
    2006:	e2 16       	cp	r14, r18
    2008:	09 f4       	brne	.+2      	; 0x200c <lcd_putchar+0x24>
    200a:	46 c0       	rjmp	.+140    	; 0x2098 <lcd_putchar+0xb0>
    200c:	38 e0       	ldi	r19, 0x08	; 8
    200e:	e3 16       	cp	r14, r19
    2010:	c9 f4       	brne	.+50     	; 0x2044 <lcd_putchar+0x5c>
    2012:	80 91 3f 02 	lds	r24, 0x023F
    2016:	81 50       	subi	r24, 0x01	; 1
    2018:	80 93 3f 02 	sts	0x023F, r24
    201c:	8f 3f       	cpi	r24, 0xFF	; 255
    201e:	51 f4       	brne	.+20     	; 0x2034 <lcd_putchar+0x4c>
    2020:	80 91 3e 02 	lds	r24, 0x023E
    2024:	81 50       	subi	r24, 0x01	; 1
    2026:	80 93 3e 02 	sts	0x023E, r24
    202a:	80 91 26 01 	lds	r24, 0x0126
    202e:	81 50       	subi	r24, 0x01	; 1
    2030:	80 93 3f 02 	sts	0x023F, r24
    2034:	80 91 3e 02 	lds	r24, 0x023E
    2038:	8f 3f       	cpi	r24, 0xFF	; 255
    203a:	09 f0       	breq	.+2      	; 0x203e <lcd_putchar+0x56>
    203c:	e2 c0       	rjmp	.+452    	; 0x2202 <lcd_putchar+0x21a>
    203e:	10 92 3e 02 	sts	0x023E, r1
    2042:	dd c0       	rjmp	.+442    	; 0x21fe <lcd_putchar+0x216>
    2044:	8e 2d       	mov	r24, r14
    2046:	0e 94 02 0f 	call	0x1e04	; 0x1e04 <_ZN12OrangutanLCD9send_dataEh>
    204a:	20 91 3e 02 	lds	r18, 0x023E
    204e:	22 23       	and	r18, r18
    2050:	c9 f0       	breq	.+50     	; 0x2084 <lcd_putchar+0x9c>
    2052:	30 e0       	ldi	r19, 0x00	; 0
    2054:	21 50       	subi	r18, 0x01	; 1
    2056:	30 40       	sbci	r19, 0x00	; 0
    2058:	80 91 26 01 	lds	r24, 0x0126
    205c:	90 e0       	ldi	r25, 0x00	; 0
    205e:	ac 01       	movw	r20, r24
    2060:	24 9f       	mul	r18, r20
    2062:	c0 01       	movw	r24, r0
    2064:	25 9f       	mul	r18, r21
    2066:	90 0d       	add	r25, r0
    2068:	34 9f       	mul	r19, r20
    206a:	90 0d       	add	r25, r0
    206c:	11 24       	eor	r1, r1
    206e:	20 91 3f 02 	lds	r18, 0x023F
    2072:	e0 91 3c 02 	lds	r30, 0x023C
    2076:	f0 91 3d 02 	lds	r31, 0x023D
    207a:	e8 0f       	add	r30, r24
    207c:	f9 1f       	adc	r31, r25
    207e:	e2 0f       	add	r30, r18
    2080:	f1 1d       	adc	r31, r1
    2082:	e0 82       	st	Z, r14
    2084:	80 91 3f 02 	lds	r24, 0x023F
    2088:	8f 5f       	subi	r24, 0xFF	; 255
    208a:	80 93 3f 02 	sts	0x023F, r24
    208e:	90 91 26 01 	lds	r25, 0x0126
    2092:	89 17       	cp	r24, r25
    2094:	09 f0       	breq	.+2      	; 0x2098 <lcd_putchar+0xb0>
    2096:	bb c0       	rjmp	.+374    	; 0x220e <lcd_putchar+0x226>
    2098:	40 91 3e 02 	lds	r20, 0x023E
    209c:	24 2f       	mov	r18, r20
    209e:	30 e0       	ldi	r19, 0x00	; 0
    20a0:	80 91 25 01 	lds	r24, 0x0125
    20a4:	90 e0       	ldi	r25, 0x00	; 0
    20a6:	01 97       	sbiw	r24, 0x01	; 1
    20a8:	28 17       	cp	r18, r24
    20aa:	39 07       	cpc	r19, r25
    20ac:	09 f0       	breq	.+2      	; 0x20b0 <lcd_putchar+0xc8>
    20ae:	a4 c0       	rjmp	.+328    	; 0x21f8 <lcd_putchar+0x210>
    20b0:	c0 e0       	ldi	r28, 0x00	; 0
    20b2:	d0 e0       	ldi	r29, 0x00	; 0
    20b4:	44 c0       	rjmp	.+136    	; 0x213e <lcd_putchar+0x156>
    20b6:	80 e0       	ldi	r24, 0x00	; 0
    20b8:	6c 2f       	mov	r22, r28
    20ba:	0e 94 b0 0e 	call	0x1d60	; 0x1d60 <_ZN12OrangutanLCD6gotoXYEhh>
    20be:	ff 24       	eor	r15, r15
    20c0:	6e 01       	movw	r12, r28
    20c2:	08 94       	sec
    20c4:	c1 1c       	adc	r12, r1
    20c6:	d1 1c       	adc	r13, r1
    20c8:	35 c0       	rjmp	.+106    	; 0x2134 <lcd_putchar+0x14c>
    20ca:	0f 2d       	mov	r16, r15
    20cc:	10 e0       	ldi	r17, 0x00	; 0
    20ce:	90 e0       	ldi	r25, 0x00	; 0
    20d0:	9c 01       	movw	r18, r24
    20d2:	c2 9f       	mul	r28, r18
    20d4:	c0 01       	movw	r24, r0
    20d6:	c3 9f       	mul	r28, r19
    20d8:	90 0d       	add	r25, r0
    20da:	d2 9f       	mul	r29, r18
    20dc:	90 0d       	add	r25, r0
    20de:	11 24       	eor	r1, r1
    20e0:	e0 91 3c 02 	lds	r30, 0x023C
    20e4:	f0 91 3d 02 	lds	r31, 0x023D
    20e8:	e0 0f       	add	r30, r16
    20ea:	f1 1f       	adc	r31, r17
    20ec:	e8 0f       	add	r30, r24
    20ee:	f9 1f       	adc	r31, r25
    20f0:	80 81       	ld	r24, Z
    20f2:	0e 94 02 0f 	call	0x1e04	; 0x1e04 <_ZN12OrangutanLCD9send_dataEh>
    20f6:	e0 91 3c 02 	lds	r30, 0x023C
    20fa:	f0 91 3d 02 	lds	r31, 0x023D
    20fe:	80 91 26 01 	lds	r24, 0x0126
    2102:	90 e0       	ldi	r25, 0x00	; 0
    2104:	c8 9f       	mul	r28, r24
    2106:	d0 01       	movw	r26, r0
    2108:	c9 9f       	mul	r28, r25
    210a:	b0 0d       	add	r27, r0
    210c:	d8 9f       	mul	r29, r24
    210e:	b0 0d       	add	r27, r0
    2110:	11 24       	eor	r1, r1
    2112:	e0 0f       	add	r30, r16
    2114:	f1 1f       	adc	r31, r17
    2116:	ae 0f       	add	r26, r30
    2118:	bf 1f       	adc	r27, r31
    211a:	ac 01       	movw	r20, r24
    211c:	c4 9e       	mul	r12, r20
    211e:	c0 01       	movw	r24, r0
    2120:	c5 9e       	mul	r12, r21
    2122:	90 0d       	add	r25, r0
    2124:	d4 9e       	mul	r13, r20
    2126:	90 0d       	add	r25, r0
    2128:	11 24       	eor	r1, r1
    212a:	e8 0f       	add	r30, r24
    212c:	f9 1f       	adc	r31, r25
    212e:	80 81       	ld	r24, Z
    2130:	8c 93       	st	X, r24
    2132:	f3 94       	inc	r15
    2134:	80 91 26 01 	lds	r24, 0x0126
    2138:	f8 16       	cp	r15, r24
    213a:	38 f2       	brcs	.-114    	; 0x20ca <lcd_putchar+0xe2>
    213c:	e6 01       	movw	r28, r12
    213e:	60 91 25 01 	lds	r22, 0x0125
    2142:	86 2f       	mov	r24, r22
    2144:	90 e0       	ldi	r25, 0x00	; 0
    2146:	02 97       	sbiw	r24, 0x02	; 2
    2148:	c8 17       	cp	r28, r24
    214a:	d9 07       	cpc	r29, r25
    214c:	0c f4       	brge	.+2      	; 0x2150 <lcd_putchar+0x168>
    214e:	b3 cf       	rjmp	.-154    	; 0x20b6 <lcd_putchar+0xce>
    2150:	62 30       	cpi	r22, 0x02	; 2
    2152:	08 f4       	brcc	.+2      	; 0x2156 <lcd_putchar+0x16e>
    2154:	40 c0       	rjmp	.+128    	; 0x21d6 <lcd_putchar+0x1ee>
    2156:	62 50       	subi	r22, 0x02	; 2
    2158:	80 e0       	ldi	r24, 0x00	; 0
    215a:	0e 94 b0 0e 	call	0x1d60	; 0x1d60 <_ZN12OrangutanLCD6gotoXYEhh>
    215e:	ff 24       	eor	r15, r15
    2160:	e0 e2       	ldi	r30, 0x20	; 32
    2162:	de 2e       	mov	r13, r30
    2164:	34 c0       	rjmp	.+104    	; 0x21ce <lcd_putchar+0x1e6>
    2166:	0f 2d       	mov	r16, r15
    2168:	10 e0       	ldi	r17, 0x00	; 0
    216a:	80 91 25 01 	lds	r24, 0x0125
    216e:	90 e0       	ldi	r25, 0x00	; 0
    2170:	02 97       	sbiw	r24, 0x02	; 2
    2172:	30 e0       	ldi	r19, 0x00	; 0
    2174:	ac 01       	movw	r20, r24
    2176:	42 9f       	mul	r20, r18
    2178:	c0 01       	movw	r24, r0
    217a:	43 9f       	mul	r20, r19
    217c:	90 0d       	add	r25, r0
    217e:	52 9f       	mul	r21, r18
    2180:	90 0d       	add	r25, r0
    2182:	11 24       	eor	r1, r1
    2184:	e0 91 3c 02 	lds	r30, 0x023C
    2188:	f0 91 3d 02 	lds	r31, 0x023D
    218c:	e0 0f       	add	r30, r16
    218e:	f1 1f       	adc	r31, r17
    2190:	e8 0f       	add	r30, r24
    2192:	f9 1f       	adc	r31, r25
    2194:	80 81       	ld	r24, Z
    2196:	0e 94 02 0f 	call	0x1e04	; 0x1e04 <_ZN12OrangutanLCD9send_dataEh>
    219a:	20 91 25 01 	lds	r18, 0x0125
    219e:	30 e0       	ldi	r19, 0x00	; 0
    21a0:	22 50       	subi	r18, 0x02	; 2
    21a2:	30 40       	sbci	r19, 0x00	; 0
    21a4:	80 91 26 01 	lds	r24, 0x0126
    21a8:	90 e0       	ldi	r25, 0x00	; 0
    21aa:	ac 01       	movw	r20, r24
    21ac:	24 9f       	mul	r18, r20
    21ae:	c0 01       	movw	r24, r0
    21b0:	25 9f       	mul	r18, r21
    21b2:	90 0d       	add	r25, r0
    21b4:	34 9f       	mul	r19, r20
    21b6:	90 0d       	add	r25, r0
    21b8:	11 24       	eor	r1, r1
    21ba:	e0 91 3c 02 	lds	r30, 0x023C
    21be:	f0 91 3d 02 	lds	r31, 0x023D
    21c2:	e0 0f       	add	r30, r16
    21c4:	f1 1f       	adc	r31, r17
    21c6:	e8 0f       	add	r30, r24
    21c8:	f9 1f       	adc	r31, r25
    21ca:	d0 82       	st	Z, r13
    21cc:	f3 94       	inc	r15
    21ce:	20 91 26 01 	lds	r18, 0x0126
    21d2:	f2 16       	cp	r15, r18
    21d4:	40 f2       	brcs	.-112    	; 0x2166 <lcd_putchar+0x17e>
    21d6:	60 91 25 01 	lds	r22, 0x0125
    21da:	61 50       	subi	r22, 0x01	; 1
    21dc:	80 e0       	ldi	r24, 0x00	; 0
    21de:	0e 94 b0 0e 	call	0x1d60	; 0x1d60 <_ZN12OrangutanLCD6gotoXYEhh>
    21e2:	00 e0       	ldi	r16, 0x00	; 0
    21e4:	04 c0       	rjmp	.+8      	; 0x21ee <lcd_putchar+0x206>
    21e6:	80 e2       	ldi	r24, 0x20	; 32
    21e8:	0e 94 02 0f 	call	0x1e04	; 0x1e04 <_ZN12OrangutanLCD9send_dataEh>
    21ec:	0f 5f       	subi	r16, 0xFF	; 255
    21ee:	80 91 26 01 	lds	r24, 0x0126
    21f2:	08 17       	cp	r16, r24
    21f4:	c0 f3       	brcs	.-16     	; 0x21e6 <lcd_putchar+0x1fe>
    21f6:	03 c0       	rjmp	.+6      	; 0x21fe <lcd_putchar+0x216>
    21f8:	4f 5f       	subi	r20, 0xFF	; 255
    21fa:	40 93 3e 02 	sts	0x023E, r20
    21fe:	10 92 3f 02 	sts	0x023F, r1
    2202:	80 91 3f 02 	lds	r24, 0x023F
    2206:	60 91 3e 02 	lds	r22, 0x023E
    220a:	0e 94 b0 0e 	call	0x1d60	; 0x1d60 <_ZN12OrangutanLCD6gotoXYEhh>
    220e:	2e 2d       	mov	r18, r14
    2210:	33 27       	eor	r19, r19
    2212:	27 fd       	sbrc	r18, 7
    2214:	30 95       	com	r19
    2216:	c9 01       	movw	r24, r18
    2218:	cd b7       	in	r28, 0x3d	; 61
    221a:	de b7       	in	r29, 0x3e	; 62
    221c:	e8 e0       	ldi	r30, 0x08	; 8
    221e:	0c 94 e7 15 	jmp	0x2bce	; 0x2bce <__epilogue_restores__+0x14>

00002222 <_ZN12OrangutanLCD19loadCustomCharacterEPKch>:
    2222:	ef 92       	push	r14
    2224:	ff 92       	push	r15
    2226:	0f 93       	push	r16
    2228:	1f 93       	push	r17
    222a:	cf 93       	push	r28
    222c:	df 93       	push	r29
    222e:	7c 01       	movw	r14, r24
    2230:	06 2f       	mov	r16, r22
    2232:	10 e0       	ldi	r17, 0x00	; 0
    2234:	f3 e0       	ldi	r31, 0x03	; 3
    2236:	00 0f       	add	r16, r16
    2238:	11 1f       	adc	r17, r17
    223a:	fa 95       	dec	r31
    223c:	e1 f7       	brne	.-8      	; 0x2236 <_ZN12OrangutanLCD19loadCustomCharacterEPKch+0x14>
    223e:	c0 e0       	ldi	r28, 0x00	; 0
    2240:	d0 e0       	ldi	r29, 0x00	; 0
    2242:	9e 01       	movw	r18, r28
    2244:	20 0f       	add	r18, r16
    2246:	82 2f       	mov	r24, r18
    2248:	80 64       	ori	r24, 0x40	; 64
    224a:	0e 94 84 0e 	call	0x1d08	; 0x1d08 <_ZN12OrangutanLCD8send_cmdEh>
    224e:	f7 01       	movw	r30, r14
    2250:	ec 0f       	add	r30, r28
    2252:	fd 1f       	adc	r31, r29
    2254:	e4 91       	lpm	r30, Z+
    2256:	8e 2f       	mov	r24, r30
    2258:	0e 94 02 0f 	call	0x1e04	; 0x1e04 <_ZN12OrangutanLCD9send_dataEh>
    225c:	21 96       	adiw	r28, 0x01	; 1
    225e:	c8 30       	cpi	r28, 0x08	; 8
    2260:	d1 05       	cpc	r29, r1
    2262:	79 f7       	brne	.-34     	; 0x2242 <_ZN12OrangutanLCD19loadCustomCharacterEPKch+0x20>
    2264:	cd b7       	in	r28, 0x3d	; 61
    2266:	de b7       	in	r29, 0x3e	; 62
    2268:	e6 e0       	ldi	r30, 0x06	; 6
    226a:	0c 94 e9 15 	jmp	0x2bd2	; 0x2bd2 <__epilogue_restores__+0x18>

0000226e <lcd_load_custom_character>:
    226e:	0e 94 11 11 	call	0x2222	; 0x2222 <_ZN12OrangutanLCD19loadCustomCharacterEPKch>
    2272:	08 95       	ret

00002274 <_ZN12OrangutanLCD13send_4bit_cmdEh>:
    2274:	60 e0       	ldi	r22, 0x00	; 0
    2276:	41 e0       	ldi	r20, 0x01	; 1
    2278:	0e 94 50 0e 	call	0x1ca0	; 0x1ca0 <_ZN12OrangutanLCD4sendEhhh>
    227c:	08 95       	ret

0000227e <_ZN12OrangutanLCD6scrollEhhj>:
    227e:	0f 93       	push	r16
    2280:	1f 93       	push	r17
    2282:	cf 93       	push	r28
    2284:	df 93       	push	r29
    2286:	08 2f       	mov	r16, r24
    2288:	16 2f       	mov	r17, r22
    228a:	ea 01       	movw	r28, r20
    228c:	0b c0       	rjmp	.+22     	; 0x22a4 <_ZN12OrangutanLCD6scrollEhhj+0x26>
    228e:	00 23       	and	r16, r16
    2290:	11 f4       	brne	.+4      	; 0x2296 <_ZN12OrangutanLCD6scrollEhhj+0x18>
    2292:	88 e1       	ldi	r24, 0x18	; 24
    2294:	01 c0       	rjmp	.+2      	; 0x2298 <_ZN12OrangutanLCD6scrollEhhj+0x1a>
    2296:	8c e1       	ldi	r24, 0x1C	; 28
    2298:	0e 94 84 0e 	call	0x1d08	; 0x1d08 <_ZN12OrangutanLCD8send_cmdEh>
    229c:	ce 01       	movw	r24, r28
    229e:	0e 94 97 14 	call	0x292e	; 0x292e <_ZN13OrangutanTime17delayMillisecondsEj>
    22a2:	11 50       	subi	r17, 0x01	; 1
    22a4:	11 23       	and	r17, r17
    22a6:	99 f7       	brne	.-26     	; 0x228e <_ZN12OrangutanLCD6scrollEhhj+0x10>
    22a8:	df 91       	pop	r29
    22aa:	cf 91       	pop	r28
    22ac:	1f 91       	pop	r17
    22ae:	0f 91       	pop	r16
    22b0:	08 95       	ret

000022b2 <lcd_scroll>:
    22b2:	0e 94 3f 11 	call	0x227e	; 0x227e <_ZN12OrangutanLCD6scrollEhhj>
    22b6:	08 95       	ret

000022b8 <_ZN16OrangutanDigital9setOutputEhh>:
    22b8:	28 2f       	mov	r18, r24
    22ba:	88 30       	cpi	r24, 0x08	; 8
    22bc:	68 f4       	brcc	.+26     	; 0x22d8 <_ZN16OrangutanDigital9setOutputEhh+0x20>
    22be:	81 e0       	ldi	r24, 0x01	; 1
    22c0:	90 e0       	ldi	r25, 0x00	; 0
    22c2:	02 c0       	rjmp	.+4      	; 0x22c8 <_ZN16OrangutanDigital9setOutputEhh+0x10>
    22c4:	88 0f       	add	r24, r24
    22c6:	99 1f       	adc	r25, r25
    22c8:	2a 95       	dec	r18
    22ca:	e2 f7       	brpl	.-8      	; 0x22c4 <_ZN16OrangutanDigital9setOutputEhh+0xc>
    22cc:	28 2f       	mov	r18, r24
    22ce:	aa e2       	ldi	r26, 0x2A	; 42
    22d0:	b0 e0       	ldi	r27, 0x00	; 0
    22d2:	eb e2       	ldi	r30, 0x2B	; 43
    22d4:	f0 e0       	ldi	r31, 0x00	; 0
    22d6:	29 c0       	rjmp	.+82     	; 0x232a <_ZN16OrangutanDigital9setOutputEhh+0x72>
    22d8:	8e 30       	cpi	r24, 0x0E	; 14
    22da:	80 f4       	brcc	.+32     	; 0x22fc <_ZN16OrangutanDigital9setOutputEhh+0x44>
    22dc:	30 e0       	ldi	r19, 0x00	; 0
    22de:	28 50       	subi	r18, 0x08	; 8
    22e0:	30 40       	sbci	r19, 0x00	; 0
    22e2:	81 e0       	ldi	r24, 0x01	; 1
    22e4:	90 e0       	ldi	r25, 0x00	; 0
    22e6:	02 c0       	rjmp	.+4      	; 0x22ec <_ZN16OrangutanDigital9setOutputEhh+0x34>
    22e8:	88 0f       	add	r24, r24
    22ea:	99 1f       	adc	r25, r25
    22ec:	2a 95       	dec	r18
    22ee:	e2 f7       	brpl	.-8      	; 0x22e8 <_ZN16OrangutanDigital9setOutputEhh+0x30>
    22f0:	28 2f       	mov	r18, r24
    22f2:	a4 e2       	ldi	r26, 0x24	; 36
    22f4:	b0 e0       	ldi	r27, 0x00	; 0
    22f6:	e5 e2       	ldi	r30, 0x25	; 37
    22f8:	f0 e0       	ldi	r31, 0x00	; 0
    22fa:	17 c0       	rjmp	.+46     	; 0x232a <_ZN16OrangutanDigital9setOutputEhh+0x72>
    22fc:	85 31       	cpi	r24, 0x15	; 21
    22fe:	30 f0       	brcs	.+12     	; 0x230c <_ZN16OrangutanDigital9setOutputEhh+0x54>
    2300:	20 e0       	ldi	r18, 0x00	; 0
    2302:	a0 e0       	ldi	r26, 0x00	; 0
    2304:	b0 e0       	ldi	r27, 0x00	; 0
    2306:	e0 e0       	ldi	r30, 0x00	; 0
    2308:	f0 e0       	ldi	r31, 0x00	; 0
    230a:	0f c0       	rjmp	.+30     	; 0x232a <_ZN16OrangutanDigital9setOutputEhh+0x72>
    230c:	30 e0       	ldi	r19, 0x00	; 0
    230e:	2e 50       	subi	r18, 0x0E	; 14
    2310:	30 40       	sbci	r19, 0x00	; 0
    2312:	81 e0       	ldi	r24, 0x01	; 1
    2314:	90 e0       	ldi	r25, 0x00	; 0
    2316:	02 c0       	rjmp	.+4      	; 0x231c <_ZN16OrangutanDigital9setOutputEhh+0x64>
    2318:	88 0f       	add	r24, r24
    231a:	99 1f       	adc	r25, r25
    231c:	2a 95       	dec	r18
    231e:	e2 f7       	brpl	.-8      	; 0x2318 <_ZN16OrangutanDigital9setOutputEhh+0x60>
    2320:	28 2f       	mov	r18, r24
    2322:	a7 e2       	ldi	r26, 0x27	; 39
    2324:	b0 e0       	ldi	r27, 0x00	; 0
    2326:	e8 e2       	ldi	r30, 0x28	; 40
    2328:	f0 e0       	ldi	r31, 0x00	; 0
    232a:	6f 3f       	cpi	r22, 0xFF	; 255
    232c:	19 f4       	brne	.+6      	; 0x2334 <_ZN16OrangutanDigital9setOutputEhh+0x7c>
    232e:	80 81       	ld	r24, Z
    2330:	82 27       	eor	r24, r18
    2332:	09 c0       	rjmp	.+18     	; 0x2346 <_ZN16OrangutanDigital9setOutputEhh+0x8e>
    2334:	66 23       	and	r22, r22
    2336:	19 f0       	breq	.+6      	; 0x233e <_ZN16OrangutanDigital9setOutputEhh+0x86>
    2338:	80 81       	ld	r24, Z
    233a:	82 2b       	or	r24, r18
    233c:	04 c0       	rjmp	.+8      	; 0x2346 <_ZN16OrangutanDigital9setOutputEhh+0x8e>
    233e:	90 81       	ld	r25, Z
    2340:	82 2f       	mov	r24, r18
    2342:	80 95       	com	r24
    2344:	89 23       	and	r24, r25
    2346:	80 83       	st	Z, r24
    2348:	8c 91       	ld	r24, X
    234a:	82 2b       	or	r24, r18
    234c:	8c 93       	st	X, r24
    234e:	08 95       	ret

00002350 <_ZN15OrangutanMotorsC2Ev>:
    2350:	08 95       	ret

00002352 <_ZN15OrangutanMotorsC1Ev>:
    2352:	08 95       	ret

00002354 <_ZN15OrangutanMotors5init2Ev>:
    2354:	e0 eb       	ldi	r30, 0xB0	; 176
    2356:	f0 e0       	ldi	r31, 0x00	; 0
    2358:	83 ef       	ldi	r24, 0xF3	; 243
    235a:	80 83       	st	Z, r24
    235c:	80 81       	ld	r24, Z
    235e:	84 bd       	out	0x24, r24	; 36
    2360:	e1 eb       	ldi	r30, 0xB1	; 177
    2362:	f0 e0       	ldi	r31, 0x00	; 0
    2364:	82 e0       	ldi	r24, 0x02	; 2
    2366:	80 83       	st	Z, r24
    2368:	80 81       	ld	r24, Z
    236a:	85 bd       	out	0x25, r24	; 37
    236c:	e4 eb       	ldi	r30, 0xB4	; 180
    236e:	f0 e0       	ldi	r31, 0x00	; 0
    2370:	10 82       	st	Z, r1
    2372:	80 81       	ld	r24, Z
    2374:	e3 eb       	ldi	r30, 0xB3	; 179
    2376:	f0 e0       	ldi	r31, 0x00	; 0
    2378:	80 83       	st	Z, r24
    237a:	80 81       	ld	r24, Z
    237c:	88 bd       	out	0x28, r24	; 40
    237e:	88 b5       	in	r24, 0x28	; 40
    2380:	87 bd       	out	0x27, r24	; 39
    2382:	86 e0       	ldi	r24, 0x06	; 6
    2384:	60 e0       	ldi	r22, 0x00	; 0
    2386:	0e 94 5c 11 	call	0x22b8	; 0x22b8 <_ZN16OrangutanDigital9setOutputEhh>
    238a:	85 e0       	ldi	r24, 0x05	; 5
    238c:	60 e0       	ldi	r22, 0x00	; 0
    238e:	0e 94 5c 11 	call	0x22b8	; 0x22b8 <_ZN16OrangutanDigital9setOutputEhh>
    2392:	8b e0       	ldi	r24, 0x0B	; 11
    2394:	60 e0       	ldi	r22, 0x00	; 0
    2396:	0e 94 5c 11 	call	0x22b8	; 0x22b8 <_ZN16OrangutanDigital9setOutputEhh>
    239a:	83 e0       	ldi	r24, 0x03	; 3
    239c:	60 e0       	ldi	r22, 0x00	; 0
    239e:	0e 94 5c 11 	call	0x22b8	; 0x22b8 <_ZN16OrangutanDigital9setOutputEhh>
    23a2:	08 95       	ret

000023a4 <_ZN15OrangutanMotors4initEv>:
    23a4:	80 91 45 02 	lds	r24, 0x0245
    23a8:	88 23       	and	r24, r24
    23aa:	29 f4       	brne	.+10     	; 0x23b6 <_ZN15OrangutanMotors4initEv+0x12>
    23ac:	81 e0       	ldi	r24, 0x01	; 1
    23ae:	80 93 45 02 	sts	0x0245, r24
    23b2:	0e 94 aa 11 	call	0x2354	; 0x2354 <_ZN15OrangutanMotors5init2Ev>
    23b6:	08 95       	ret

000023b8 <_ZN15OrangutanMotors10setM1SpeedEi>:
    23b8:	cf 93       	push	r28
    23ba:	df 93       	push	r29
    23bc:	ec 01       	movw	r28, r24
    23be:	0e 94 d2 11 	call	0x23a4	; 0x23a4 <_ZN15OrangutanMotors4initEv>
    23c2:	d7 fd       	sbrc	r29, 7
    23c4:	02 c0       	rjmp	.+4      	; 0x23ca <_ZN15OrangutanMotors10setM1SpeedEi+0x12>
    23c6:	20 e0       	ldi	r18, 0x00	; 0
    23c8:	04 c0       	rjmp	.+8      	; 0x23d2 <_ZN15OrangutanMotors10setM1SpeedEi+0x1a>
    23ca:	d0 95       	com	r29
    23cc:	c1 95       	neg	r28
    23ce:	df 4f       	sbci	r29, 0xFF	; 255
    23d0:	21 e0       	ldi	r18, 0x01	; 1
    23d2:	ce 01       	movw	r24, r28
    23d4:	cf 3f       	cpi	r28, 0xFF	; 255
    23d6:	d1 05       	cpc	r29, r1
    23d8:	19 f0       	breq	.+6      	; 0x23e0 <_ZN15OrangutanMotors10setM1SpeedEi+0x28>
    23da:	14 f0       	brlt	.+4      	; 0x23e0 <_ZN15OrangutanMotors10setM1SpeedEi+0x28>
    23dc:	8f ef       	ldi	r24, 0xFF	; 255
    23de:	90 e0       	ldi	r25, 0x00	; 0
    23e0:	22 23       	and	r18, r18
    23e2:	19 f0       	breq	.+6      	; 0x23ea <_ZN15OrangutanMotors10setM1SpeedEi+0x32>
    23e4:	18 bc       	out	0x28, r1	; 40
    23e6:	87 bd       	out	0x27, r24	; 39
    23e8:	02 c0       	rjmp	.+4      	; 0x23ee <_ZN15OrangutanMotors10setM1SpeedEi+0x36>
    23ea:	88 bd       	out	0x28, r24	; 40
    23ec:	17 bc       	out	0x27, r1	; 39
    23ee:	df 91       	pop	r29
    23f0:	cf 91       	pop	r28
    23f2:	08 95       	ret

000023f4 <set_m1_speed>:
    23f4:	0e 94 dc 11 	call	0x23b8	; 0x23b8 <_ZN15OrangutanMotors10setM1SpeedEi>
    23f8:	08 95       	ret

000023fa <_ZN15OrangutanMotors10setM2SpeedEi>:
    23fa:	cf 93       	push	r28
    23fc:	df 93       	push	r29
    23fe:	ec 01       	movw	r28, r24
    2400:	0e 94 d2 11 	call	0x23a4	; 0x23a4 <_ZN15OrangutanMotors4initEv>
    2404:	d7 fd       	sbrc	r29, 7
    2406:	02 c0       	rjmp	.+4      	; 0x240c <_ZN15OrangutanMotors10setM2SpeedEi+0x12>
    2408:	20 e0       	ldi	r18, 0x00	; 0
    240a:	04 c0       	rjmp	.+8      	; 0x2414 <_ZN15OrangutanMotors10setM2SpeedEi+0x1a>
    240c:	d0 95       	com	r29
    240e:	c1 95       	neg	r28
    2410:	df 4f       	sbci	r29, 0xFF	; 255
    2412:	21 e0       	ldi	r18, 0x01	; 1
    2414:	ce 01       	movw	r24, r28
    2416:	cf 3f       	cpi	r28, 0xFF	; 255
    2418:	d1 05       	cpc	r29, r1
    241a:	19 f0       	breq	.+6      	; 0x2422 <_ZN15OrangutanMotors10setM2SpeedEi+0x28>
    241c:	14 f0       	brlt	.+4      	; 0x2422 <_ZN15OrangutanMotors10setM2SpeedEi+0x28>
    241e:	8f ef       	ldi	r24, 0xFF	; 255
    2420:	90 e0       	ldi	r25, 0x00	; 0
    2422:	22 23       	and	r18, r18
    2424:	29 f0       	breq	.+10     	; 0x2430 <_ZN15OrangutanMotors10setM2SpeedEi+0x36>
    2426:	10 92 b4 00 	sts	0x00B4, r1
    242a:	80 93 b3 00 	sts	0x00B3, r24
    242e:	04 c0       	rjmp	.+8      	; 0x2438 <_ZN15OrangutanMotors10setM2SpeedEi+0x3e>
    2430:	80 93 b4 00 	sts	0x00B4, r24
    2434:	10 92 b3 00 	sts	0x00B3, r1
    2438:	df 91       	pop	r29
    243a:	cf 91       	pop	r28
    243c:	08 95       	ret

0000243e <set_m2_speed>:
    243e:	0e 94 fd 11 	call	0x23fa	; 0x23fa <_ZN15OrangutanMotors10setM2SpeedEi>
    2442:	08 95       	ret

00002444 <_ZN15OrangutanMotors9setSpeedsEii>:
    2444:	0f 93       	push	r16
    2446:	1f 93       	push	r17
    2448:	8b 01       	movw	r16, r22
    244a:	0e 94 dc 11 	call	0x23b8	; 0x23b8 <_ZN15OrangutanMotors10setM1SpeedEi>
    244e:	c8 01       	movw	r24, r16
    2450:	0e 94 fd 11 	call	0x23fa	; 0x23fa <_ZN15OrangutanMotors10setM2SpeedEi>
    2454:	1f 91       	pop	r17
    2456:	0f 91       	pop	r16
    2458:	08 95       	ret

0000245a <set_motors>:
    245a:	0e 94 22 12 	call	0x2444	; 0x2444 <_ZN15OrangutanMotors9setSpeedsEii>
    245e:	08 95       	ret

00002460 <_ZN20OrangutanPushbuttonsC2Ev>:
    2460:	08 95       	ret

00002462 <_ZN20OrangutanPushbuttonsC1Ev>:
    2462:	08 95       	ret

00002464 <_ZN20OrangutanPushbuttons4initEv>:
    2464:	80 91 46 02 	lds	r24, 0x0246
    2468:	88 23       	and	r24, r24
    246a:	91 f4       	brne	.+36     	; 0x2490 <_ZN20OrangutanPushbuttons4initEv+0x2c>
    246c:	81 e0       	ldi	r24, 0x01	; 1
    246e:	80 93 46 02 	sts	0x0246, r24
    2472:	84 b1       	in	r24, 0x04	; 4
    2474:	8d 7c       	andi	r24, 0xCD	; 205
    2476:	84 b9       	out	0x04, r24	; 4
    2478:	85 b1       	in	r24, 0x05	; 5
    247a:	82 63       	ori	r24, 0x32	; 50
    247c:	85 b9       	out	0x05, r24	; 5
    247e:	85 e0       	ldi	r24, 0x05	; 5
    2480:	90 e0       	ldi	r25, 0x00	; 0
    2482:	6f 93       	push	r22
    2484:	64 e0       	ldi	r22, 0x04	; 4
    2486:	6a 95       	dec	r22
    2488:	f1 f7       	brne	.-4      	; 0x2486 <_ZN20OrangutanPushbuttons4initEv+0x22>
    248a:	6f 91       	pop	r22
    248c:	01 97       	sbiw	r24, 0x01	; 1
    248e:	c9 f7       	brne	.-14     	; 0x2482 <_ZN20OrangutanPushbuttons4initEv+0x1e>
    2490:	08 95       	ret

00002492 <_ZN20OrangutanPushbuttons5init2Ev>:
    2492:	84 b1       	in	r24, 0x04	; 4
    2494:	8d 7c       	andi	r24, 0xCD	; 205
    2496:	84 b9       	out	0x04, r24	; 4
    2498:	85 b1       	in	r24, 0x05	; 5
    249a:	82 63       	ori	r24, 0x32	; 50
    249c:	85 b9       	out	0x05, r24	; 5
    249e:	85 e0       	ldi	r24, 0x05	; 5
    24a0:	90 e0       	ldi	r25, 0x00	; 0
    24a2:	6f 93       	push	r22
    24a4:	64 e0       	ldi	r22, 0x04	; 4
    24a6:	6a 95       	dec	r22
    24a8:	f1 f7       	brne	.-4      	; 0x24a6 <_ZN20OrangutanPushbuttons5init2Ev+0x14>
    24aa:	6f 91       	pop	r22
    24ac:	01 97       	sbiw	r24, 0x01	; 1
    24ae:	c9 f7       	brne	.-14     	; 0x24a2 <_ZN20OrangutanPushbuttons5init2Ev+0x10>
    24b0:	08 95       	ret

000024b2 <_ZN20OrangutanPushbuttons9isPressedEh>:
    24b2:	1f 93       	push	r17
    24b4:	18 2f       	mov	r17, r24
    24b6:	0e 94 32 12 	call	0x2464	; 0x2464 <_ZN20OrangutanPushbuttons4initEv>
    24ba:	83 b1       	in	r24, 0x03	; 3
    24bc:	80 95       	com	r24
    24be:	81 23       	and	r24, r17
    24c0:	1f 91       	pop	r17
    24c2:	08 95       	ret

000024c4 <button_is_pressed>:
    24c4:	0e 94 59 12 	call	0x24b2	; 0x24b2 <_ZN20OrangutanPushbuttons9isPressedEh>
    24c8:	08 95       	ret

000024ca <_ZN20OrangutanPushbuttons25getSingleDebouncedReleaseEh>:
    24ca:	cf 92       	push	r12
    24cc:	df 92       	push	r13
    24ce:	ef 92       	push	r14
    24d0:	ff 92       	push	r15
    24d2:	0f 93       	push	r16
    24d4:	1f 93       	push	r17
    24d6:	c8 2e       	mov	r12, r24
    24d8:	d3 b0       	in	r13, 0x03	; 3
    24da:	0e 94 c8 14 	call	0x2990	; 0x2990 <_ZN13OrangutanTime2msEv>
    24de:	7b 01       	movw	r14, r22
    24e0:	8c 01       	movw	r16, r24
    24e2:	0e 94 32 12 	call	0x2464	; 0x2464 <_ZN20OrangutanPushbuttons4initEv>
    24e6:	80 91 4c 02 	lds	r24, 0x024C
    24ea:	81 30       	cpi	r24, 0x01	; 1
    24ec:	11 f1       	breq	.+68     	; 0x2532 <_ZN20OrangutanPushbuttons25getSingleDebouncedReleaseEh+0x68>
    24ee:	81 30       	cpi	r24, 0x01	; 1
    24f0:	38 f0       	brcs	.+14     	; 0x2500 <_ZN20OrangutanPushbuttons25getSingleDebouncedReleaseEh+0x36>
    24f2:	82 30       	cpi	r24, 0x02	; 2
    24f4:	09 f4       	brne	.+2      	; 0x24f8 <_ZN20OrangutanPushbuttons25getSingleDebouncedReleaseEh+0x2e>
    24f6:	44 c0       	rjmp	.+136    	; 0x2580 <_ZN20OrangutanPushbuttons25getSingleDebouncedReleaseEh+0xb6>
    24f8:	83 30       	cpi	r24, 0x03	; 3
    24fa:	09 f0       	breq	.+2      	; 0x24fe <_ZN20OrangutanPushbuttons25getSingleDebouncedReleaseEh+0x34>
    24fc:	8b c0       	rjmp	.+278    	; 0x2614 <_ZN20OrangutanPushbuttons25getSingleDebouncedReleaseEh+0x14a>
    24fe:	66 c0       	rjmp	.+204    	; 0x25cc <_ZN20OrangutanPushbuttons25getSingleDebouncedReleaseEh+0x102>
    2500:	2c 2d       	mov	r18, r12
    2502:	30 e0       	ldi	r19, 0x00	; 0
    2504:	8d 2d       	mov	r24, r13
    2506:	90 e0       	ldi	r25, 0x00	; 0
    2508:	80 95       	com	r24
    250a:	90 95       	com	r25
    250c:	28 23       	and	r18, r24
    250e:	39 23       	and	r19, r25
    2510:	23 2b       	or	r18, r19
    2512:	09 f4       	brne	.+2      	; 0x2516 <_ZN20OrangutanPushbuttons25getSingleDebouncedReleaseEh+0x4c>
    2514:	7f c0       	rjmp	.+254    	; 0x2614 <_ZN20OrangutanPushbuttons25getSingleDebouncedReleaseEh+0x14a>
    2516:	d0 94       	com	r13
    2518:	dc 20       	and	r13, r12
    251a:	d0 92 47 02 	sts	0x0247, r13
    251e:	e0 92 48 02 	sts	0x0248, r14
    2522:	f0 92 49 02 	sts	0x0249, r15
    2526:	00 93 4a 02 	sts	0x024A, r16
    252a:	10 93 4b 02 	sts	0x024B, r17
    252e:	81 e0       	ldi	r24, 0x01	; 1
    2530:	6f c0       	rjmp	.+222    	; 0x2610 <_ZN20OrangutanPushbuttons25getSingleDebouncedReleaseEh+0x146>
    2532:	80 91 48 02 	lds	r24, 0x0248
    2536:	90 91 49 02 	lds	r25, 0x0249
    253a:	a0 91 4a 02 	lds	r26, 0x024A
    253e:	b0 91 4b 02 	lds	r27, 0x024B
    2542:	e8 1a       	sub	r14, r24
    2544:	f9 0a       	sbc	r15, r25
    2546:	0a 0b       	sbc	r16, r26
    2548:	1b 0b       	sbc	r17, r27
    254a:	8f e0       	ldi	r24, 0x0F	; 15
    254c:	e8 16       	cp	r14, r24
    254e:	f1 04       	cpc	r15, r1
    2550:	01 05       	cpc	r16, r1
    2552:	11 05       	cpc	r17, r1
    2554:	08 f4       	brcc	.+2      	; 0x2558 <_ZN20OrangutanPushbuttons25getSingleDebouncedReleaseEh+0x8e>
    2556:	5e c0       	rjmp	.+188    	; 0x2614 <_ZN20OrangutanPushbuttons25getSingleDebouncedReleaseEh+0x14a>
    2558:	40 91 47 02 	lds	r20, 0x0247
    255c:	8d 2d       	mov	r24, r13
    255e:	90 e0       	ldi	r25, 0x00	; 0
    2560:	80 95       	com	r24
    2562:	90 95       	com	r25
    2564:	24 2f       	mov	r18, r20
    2566:	30 e0       	ldi	r19, 0x00	; 0
    2568:	82 23       	and	r24, r18
    256a:	93 23       	and	r25, r19
    256c:	89 2b       	or	r24, r25
    256e:	59 f1       	breq	.+86     	; 0x25c6 <_ZN20OrangutanPushbuttons25getSingleDebouncedReleaseEh+0xfc>
    2570:	82 e0       	ldi	r24, 0x02	; 2
    2572:	80 93 4c 02 	sts	0x024C, r24
    2576:	d0 94       	com	r13
    2578:	d4 22       	and	r13, r20
    257a:	d0 92 47 02 	sts	0x0247, r13
    257e:	4a c0       	rjmp	.+148    	; 0x2614 <_ZN20OrangutanPushbuttons25getSingleDebouncedReleaseEh+0x14a>
    2580:	40 91 47 02 	lds	r20, 0x0247
    2584:	64 2f       	mov	r22, r20
    2586:	70 e0       	ldi	r23, 0x00	; 0
    2588:	2d 2d       	mov	r18, r13
    258a:	30 e0       	ldi	r19, 0x00	; 0
    258c:	cb 01       	movw	r24, r22
    258e:	82 23       	and	r24, r18
    2590:	93 23       	and	r25, r19
    2592:	89 2b       	or	r24, r25
    2594:	79 f0       	breq	.+30     	; 0x25b4 <_ZN20OrangutanPushbuttons25getSingleDebouncedReleaseEh+0xea>
    2596:	83 e0       	ldi	r24, 0x03	; 3
    2598:	80 93 4c 02 	sts	0x024C, r24
    259c:	4d 21       	and	r20, r13
    259e:	40 93 47 02 	sts	0x0247, r20
    25a2:	e0 92 48 02 	sts	0x0248, r14
    25a6:	f0 92 49 02 	sts	0x0249, r15
    25aa:	00 93 4a 02 	sts	0x024A, r16
    25ae:	10 93 4b 02 	sts	0x024B, r17
    25b2:	30 c0       	rjmp	.+96     	; 0x2614 <_ZN20OrangutanPushbuttons25getSingleDebouncedReleaseEh+0x14a>
    25b4:	8c 2d       	mov	r24, r12
    25b6:	90 e0       	ldi	r25, 0x00	; 0
    25b8:	20 95       	com	r18
    25ba:	30 95       	com	r19
    25bc:	82 23       	and	r24, r18
    25be:	93 23       	and	r25, r19
    25c0:	68 17       	cp	r22, r24
    25c2:	79 07       	cpc	r23, r25
    25c4:	39 f1       	breq	.+78     	; 0x2614 <_ZN20OrangutanPushbuttons25getSingleDebouncedReleaseEh+0x14a>
    25c6:	10 92 4c 02 	sts	0x024C, r1
    25ca:	24 c0       	rjmp	.+72     	; 0x2614 <_ZN20OrangutanPushbuttons25getSingleDebouncedReleaseEh+0x14a>
    25cc:	80 91 48 02 	lds	r24, 0x0248
    25d0:	90 91 49 02 	lds	r25, 0x0249
    25d4:	a0 91 4a 02 	lds	r26, 0x024A
    25d8:	b0 91 4b 02 	lds	r27, 0x024B
    25dc:	e8 1a       	sub	r14, r24
    25de:	f9 0a       	sbc	r15, r25
    25e0:	0a 0b       	sbc	r16, r26
    25e2:	1b 0b       	sbc	r17, r27
    25e4:	8f e0       	ldi	r24, 0x0F	; 15
    25e6:	e8 16       	cp	r14, r24
    25e8:	f1 04       	cpc	r15, r1
    25ea:	01 05       	cpc	r16, r1
    25ec:	11 05       	cpc	r17, r1
    25ee:	90 f0       	brcs	.+36     	; 0x2614 <_ZN20OrangutanPushbuttons25getSingleDebouncedReleaseEh+0x14a>
    25f0:	40 91 47 02 	lds	r20, 0x0247
    25f4:	84 2f       	mov	r24, r20
    25f6:	90 e0       	ldi	r25, 0x00	; 0
    25f8:	2d 2d       	mov	r18, r13
    25fa:	30 e0       	ldi	r19, 0x00	; 0
    25fc:	82 23       	and	r24, r18
    25fe:	93 23       	and	r25, r19
    2600:	89 2b       	or	r24, r25
    2602:	29 f0       	breq	.+10     	; 0x260e <_ZN20OrangutanPushbuttons25getSingleDebouncedReleaseEh+0x144>
    2604:	10 92 4c 02 	sts	0x024C, r1
    2608:	84 2f       	mov	r24, r20
    260a:	8d 21       	and	r24, r13
    260c:	04 c0       	rjmp	.+8      	; 0x2616 <_ZN20OrangutanPushbuttons25getSingleDebouncedReleaseEh+0x14c>
    260e:	82 e0       	ldi	r24, 0x02	; 2
    2610:	80 93 4c 02 	sts	0x024C, r24
    2614:	80 e0       	ldi	r24, 0x00	; 0
    2616:	1f 91       	pop	r17
    2618:	0f 91       	pop	r16
    261a:	ff 90       	pop	r15
    261c:	ef 90       	pop	r14
    261e:	df 90       	pop	r13
    2620:	cf 90       	pop	r12
    2622:	08 95       	ret

00002624 <get_single_debounced_button_release>:
    2624:	0e 94 65 12 	call	0x24ca	; 0x24ca <_ZN20OrangutanPushbuttons25getSingleDebouncedReleaseEh>
    2628:	08 95       	ret

0000262a <_ZN20OrangutanPushbuttons23getSingleDebouncedPressEh>:
    262a:	cf 92       	push	r12
    262c:	df 92       	push	r13
    262e:	ef 92       	push	r14
    2630:	ff 92       	push	r15
    2632:	0f 93       	push	r16
    2634:	1f 93       	push	r17
    2636:	c8 2e       	mov	r12, r24
    2638:	d3 b0       	in	r13, 0x03	; 3
    263a:	d0 94       	com	r13
    263c:	0e 94 c8 14 	call	0x2990	; 0x2990 <_ZN13OrangutanTime2msEv>
    2640:	7b 01       	movw	r14, r22
    2642:	8c 01       	movw	r16, r24
    2644:	0e 94 32 12 	call	0x2464	; 0x2464 <_ZN20OrangutanPushbuttons4initEv>
    2648:	80 91 52 02 	lds	r24, 0x0252
    264c:	81 30       	cpi	r24, 0x01	; 1
    264e:	11 f1       	breq	.+68     	; 0x2694 <_ZN20OrangutanPushbuttons23getSingleDebouncedPressEh+0x6a>
    2650:	81 30       	cpi	r24, 0x01	; 1
    2652:	38 f0       	brcs	.+14     	; 0x2662 <_ZN20OrangutanPushbuttons23getSingleDebouncedPressEh+0x38>
    2654:	82 30       	cpi	r24, 0x02	; 2
    2656:	09 f4       	brne	.+2      	; 0x265a <_ZN20OrangutanPushbuttons23getSingleDebouncedPressEh+0x30>
    2658:	44 c0       	rjmp	.+136    	; 0x26e2 <_ZN20OrangutanPushbuttons23getSingleDebouncedPressEh+0xb8>
    265a:	83 30       	cpi	r24, 0x03	; 3
    265c:	09 f0       	breq	.+2      	; 0x2660 <_ZN20OrangutanPushbuttons23getSingleDebouncedPressEh+0x36>
    265e:	8b c0       	rjmp	.+278    	; 0x2776 <_ZN20OrangutanPushbuttons23getSingleDebouncedPressEh+0x14c>
    2660:	66 c0       	rjmp	.+204    	; 0x272e <_ZN20OrangutanPushbuttons23getSingleDebouncedPressEh+0x104>
    2662:	2c 2d       	mov	r18, r12
    2664:	30 e0       	ldi	r19, 0x00	; 0
    2666:	8d 2d       	mov	r24, r13
    2668:	90 e0       	ldi	r25, 0x00	; 0
    266a:	80 95       	com	r24
    266c:	90 95       	com	r25
    266e:	28 23       	and	r18, r24
    2670:	39 23       	and	r19, r25
    2672:	23 2b       	or	r18, r19
    2674:	09 f4       	brne	.+2      	; 0x2678 <_ZN20OrangutanPushbuttons23getSingleDebouncedPressEh+0x4e>
    2676:	7f c0       	rjmp	.+254    	; 0x2776 <_ZN20OrangutanPushbuttons23getSingleDebouncedPressEh+0x14c>
    2678:	d0 94       	com	r13
    267a:	dc 20       	and	r13, r12
    267c:	d0 92 4d 02 	sts	0x024D, r13
    2680:	e0 92 4e 02 	sts	0x024E, r14
    2684:	f0 92 4f 02 	sts	0x024F, r15
    2688:	00 93 50 02 	sts	0x0250, r16
    268c:	10 93 51 02 	sts	0x0251, r17
    2690:	81 e0       	ldi	r24, 0x01	; 1
    2692:	6f c0       	rjmp	.+222    	; 0x2772 <_ZN20OrangutanPushbuttons23getSingleDebouncedPressEh+0x148>
    2694:	80 91 4e 02 	lds	r24, 0x024E
    2698:	90 91 4f 02 	lds	r25, 0x024F
    269c:	a0 91 50 02 	lds	r26, 0x0250
    26a0:	b0 91 51 02 	lds	r27, 0x0251
    26a4:	e8 1a       	sub	r14, r24
    26a6:	f9 0a       	sbc	r15, r25
    26a8:	0a 0b       	sbc	r16, r26
    26aa:	1b 0b       	sbc	r17, r27
    26ac:	8f e0       	ldi	r24, 0x0F	; 15
    26ae:	e8 16       	cp	r14, r24
    26b0:	f1 04       	cpc	r15, r1
    26b2:	01 05       	cpc	r16, r1
    26b4:	11 05       	cpc	r17, r1
    26b6:	08 f4       	brcc	.+2      	; 0x26ba <_ZN20OrangutanPushbuttons23getSingleDebouncedPressEh+0x90>
    26b8:	5e c0       	rjmp	.+188    	; 0x2776 <_ZN20OrangutanPushbuttons23getSingleDebouncedPressEh+0x14c>
    26ba:	40 91 4d 02 	lds	r20, 0x024D
    26be:	8d 2d       	mov	r24, r13
    26c0:	90 e0       	ldi	r25, 0x00	; 0
    26c2:	80 95       	com	r24
    26c4:	90 95       	com	r25
    26c6:	24 2f       	mov	r18, r20
    26c8:	30 e0       	ldi	r19, 0x00	; 0
    26ca:	82 23       	and	r24, r18
    26cc:	93 23       	and	r25, r19
    26ce:	89 2b       	or	r24, r25
    26d0:	59 f1       	breq	.+86     	; 0x2728 <_ZN20OrangutanPushbuttons23getSingleDebouncedPressEh+0xfe>
    26d2:	82 e0       	ldi	r24, 0x02	; 2
    26d4:	80 93 52 02 	sts	0x0252, r24
    26d8:	d0 94       	com	r13
    26da:	d4 22       	and	r13, r20
    26dc:	d0 92 4d 02 	sts	0x024D, r13
    26e0:	4a c0       	rjmp	.+148    	; 0x2776 <_ZN20OrangutanPushbuttons23getSingleDebouncedPressEh+0x14c>
    26e2:	60 91 4d 02 	lds	r22, 0x024D
    26e6:	2d 2d       	mov	r18, r13
    26e8:	30 e0       	ldi	r19, 0x00	; 0
    26ea:	46 2f       	mov	r20, r22
    26ec:	50 e0       	ldi	r21, 0x00	; 0
    26ee:	c9 01       	movw	r24, r18
    26f0:	84 23       	and	r24, r20
    26f2:	95 23       	and	r25, r21
    26f4:	89 2b       	or	r24, r25
    26f6:	79 f0       	breq	.+30     	; 0x2716 <_ZN20OrangutanPushbuttons23getSingleDebouncedPressEh+0xec>
    26f8:	83 e0       	ldi	r24, 0x03	; 3
    26fa:	80 93 52 02 	sts	0x0252, r24
    26fe:	d6 22       	and	r13, r22
    2700:	d0 92 4d 02 	sts	0x024D, r13
    2704:	e0 92 4e 02 	sts	0x024E, r14
    2708:	f0 92 4f 02 	sts	0x024F, r15
    270c:	00 93 50 02 	sts	0x0250, r16
    2710:	10 93 51 02 	sts	0x0251, r17
    2714:	30 c0       	rjmp	.+96     	; 0x2776 <_ZN20OrangutanPushbuttons23getSingleDebouncedPressEh+0x14c>
    2716:	8c 2d       	mov	r24, r12
    2718:	90 e0       	ldi	r25, 0x00	; 0
    271a:	20 95       	com	r18
    271c:	30 95       	com	r19
    271e:	82 23       	and	r24, r18
    2720:	93 23       	and	r25, r19
    2722:	48 17       	cp	r20, r24
    2724:	59 07       	cpc	r21, r25
    2726:	39 f1       	breq	.+78     	; 0x2776 <_ZN20OrangutanPushbuttons23getSingleDebouncedPressEh+0x14c>
    2728:	10 92 52 02 	sts	0x0252, r1
    272c:	24 c0       	rjmp	.+72     	; 0x2776 <_ZN20OrangutanPushbuttons23getSingleDebouncedPressEh+0x14c>
    272e:	80 91 4e 02 	lds	r24, 0x024E
    2732:	90 91 4f 02 	lds	r25, 0x024F
    2736:	a0 91 50 02 	lds	r26, 0x0250
    273a:	b0 91 51 02 	lds	r27, 0x0251
    273e:	e8 1a       	sub	r14, r24
    2740:	f9 0a       	sbc	r15, r25
    2742:	0a 0b       	sbc	r16, r26
    2744:	1b 0b       	sbc	r17, r27
    2746:	8f e0       	ldi	r24, 0x0F	; 15
    2748:	e8 16       	cp	r14, r24
    274a:	f1 04       	cpc	r15, r1
    274c:	01 05       	cpc	r16, r1
    274e:	11 05       	cpc	r17, r1
    2750:	90 f0       	brcs	.+36     	; 0x2776 <_ZN20OrangutanPushbuttons23getSingleDebouncedPressEh+0x14c>
    2752:	40 91 4d 02 	lds	r20, 0x024D
    2756:	8d 2d       	mov	r24, r13
    2758:	90 e0       	ldi	r25, 0x00	; 0
    275a:	24 2f       	mov	r18, r20
    275c:	30 e0       	ldi	r19, 0x00	; 0
    275e:	82 23       	and	r24, r18
    2760:	93 23       	and	r25, r19
    2762:	89 2b       	or	r24, r25
    2764:	29 f0       	breq	.+10     	; 0x2770 <_ZN20OrangutanPushbuttons23getSingleDebouncedPressEh+0x146>
    2766:	10 92 52 02 	sts	0x0252, r1
    276a:	8d 2d       	mov	r24, r13
    276c:	84 23       	and	r24, r20
    276e:	04 c0       	rjmp	.+8      	; 0x2778 <_ZN20OrangutanPushbuttons23getSingleDebouncedPressEh+0x14e>
    2770:	82 e0       	ldi	r24, 0x02	; 2
    2772:	80 93 52 02 	sts	0x0252, r24
    2776:	80 e0       	ldi	r24, 0x00	; 0
    2778:	1f 91       	pop	r17
    277a:	0f 91       	pop	r16
    277c:	ff 90       	pop	r15
    277e:	ef 90       	pop	r14
    2780:	df 90       	pop	r13
    2782:	cf 90       	pop	r12
    2784:	08 95       	ret

00002786 <get_single_debounced_button_press>:
    2786:	0e 94 15 13 	call	0x262a	; 0x262a <_ZN20OrangutanPushbuttons23getSingleDebouncedPressEh>
    278a:	08 95       	ret

0000278c <_ZN20OrangutanPushbuttons14waitForReleaseEh>:
    278c:	1f 93       	push	r17
    278e:	cf 93       	push	r28
    2790:	df 93       	push	r29
    2792:	18 2f       	mov	r17, r24
    2794:	0e 94 32 12 	call	0x2464	; 0x2464 <_ZN20OrangutanPushbuttons4initEv>
    2798:	c1 2f       	mov	r28, r17
    279a:	d0 e0       	ldi	r29, 0x00	; 0
    279c:	83 b1       	in	r24, 0x03	; 3
    279e:	90 e0       	ldi	r25, 0x00	; 0
    27a0:	8c 23       	and	r24, r28
    27a2:	9d 23       	and	r25, r29
    27a4:	89 2b       	or	r24, r25
    27a6:	d1 f3       	breq	.-12     	; 0x279c <_ZN20OrangutanPushbuttons14waitForReleaseEh+0x10>
    27a8:	8a e0       	ldi	r24, 0x0A	; 10
    27aa:	90 e0       	ldi	r25, 0x00	; 0
    27ac:	0e 94 97 14 	call	0x292e	; 0x292e <_ZN13OrangutanTime17delayMillisecondsEj>
    27b0:	83 b1       	in	r24, 0x03	; 3
    27b2:	90 e0       	ldi	r25, 0x00	; 0
    27b4:	8c 23       	and	r24, r28
    27b6:	9d 23       	and	r25, r29
    27b8:	89 2b       	or	r24, r25
    27ba:	81 f3       	breq	.-32     	; 0x279c <_ZN20OrangutanPushbuttons14waitForReleaseEh+0x10>
    27bc:	83 b1       	in	r24, 0x03	; 3
    27be:	81 23       	and	r24, r17
    27c0:	df 91       	pop	r29
    27c2:	cf 91       	pop	r28
    27c4:	1f 91       	pop	r17
    27c6:	08 95       	ret

000027c8 <wait_for_button_release>:
    27c8:	0e 94 c6 13 	call	0x278c	; 0x278c <_ZN20OrangutanPushbuttons14waitForReleaseEh>
    27cc:	08 95       	ret

000027ce <_ZN20OrangutanPushbuttons12waitForPressEh>:
    27ce:	1f 93       	push	r17
    27d0:	cf 93       	push	r28
    27d2:	df 93       	push	r29
    27d4:	18 2f       	mov	r17, r24
    27d6:	0e 94 32 12 	call	0x2464	; 0x2464 <_ZN20OrangutanPushbuttons4initEv>
    27da:	c1 2f       	mov	r28, r17
    27dc:	d0 e0       	ldi	r29, 0x00	; 0
    27de:	83 b1       	in	r24, 0x03	; 3
    27e0:	90 e0       	ldi	r25, 0x00	; 0
    27e2:	80 95       	com	r24
    27e4:	90 95       	com	r25
    27e6:	8c 23       	and	r24, r28
    27e8:	9d 23       	and	r25, r29
    27ea:	89 2b       	or	r24, r25
    27ec:	c1 f3       	breq	.-16     	; 0x27de <_ZN20OrangutanPushbuttons12waitForPressEh+0x10>
    27ee:	8a e0       	ldi	r24, 0x0A	; 10
    27f0:	90 e0       	ldi	r25, 0x00	; 0
    27f2:	0e 94 97 14 	call	0x292e	; 0x292e <_ZN13OrangutanTime17delayMillisecondsEj>
    27f6:	83 b1       	in	r24, 0x03	; 3
    27f8:	90 e0       	ldi	r25, 0x00	; 0
    27fa:	80 95       	com	r24
    27fc:	90 95       	com	r25
    27fe:	8c 23       	and	r24, r28
    2800:	9d 23       	and	r25, r29
    2802:	89 2b       	or	r24, r25
    2804:	61 f3       	breq	.-40     	; 0x27de <_ZN20OrangutanPushbuttons12waitForPressEh+0x10>
    2806:	83 b1       	in	r24, 0x03	; 3
    2808:	80 95       	com	r24
    280a:	81 23       	and	r24, r17
    280c:	df 91       	pop	r29
    280e:	cf 91       	pop	r28
    2810:	1f 91       	pop	r17
    2812:	08 95       	ret

00002814 <_ZN20OrangutanPushbuttons13waitForButtonEh>:
    2814:	1f 93       	push	r17
    2816:	0e 94 e7 13 	call	0x27ce	; 0x27ce <_ZN20OrangutanPushbuttons12waitForPressEh>
    281a:	18 2f       	mov	r17, r24
    281c:	0e 94 c6 13 	call	0x278c	; 0x278c <_ZN20OrangutanPushbuttons14waitForReleaseEh>
    2820:	81 2f       	mov	r24, r17
    2822:	1f 91       	pop	r17
    2824:	08 95       	ret

00002826 <wait_for_button>:
    2826:	0e 94 0a 14 	call	0x2814	; 0x2814 <_ZN20OrangutanPushbuttons13waitForButtonEh>
    282a:	08 95       	ret

0000282c <wait_for_button_press>:
    282c:	0e 94 e7 13 	call	0x27ce	; 0x27ce <_ZN20OrangutanPushbuttons12waitForPressEh>
    2830:	08 95       	ret

00002832 <_ZN18OrangutanResourcesC2Ev>:
    2832:	08 95       	ret

00002834 <_ZN18OrangutanResourcesC1Ev>:
    2834:	08 95       	ret

00002836 <_ZN18OrangutanResources10getFreeRAMEv>:
    2836:	a2 e0       	ldi	r26, 0x02	; 2
    2838:	b0 e0       	ldi	r27, 0x00	; 0
    283a:	e1 e2       	ldi	r30, 0x21	; 33
    283c:	f4 e1       	ldi	r31, 0x14	; 20
    283e:	0c 94 d1 15 	jmp	0x2ba2	; 0x2ba2 <__prologue_saves__+0x20>
    2842:	20 91 61 02 	lds	r18, 0x0261
    2846:	30 91 62 02 	lds	r19, 0x0262
    284a:	ce 01       	movw	r24, r28
    284c:	01 96       	adiw	r24, 0x01	; 1
    284e:	21 15       	cp	r18, r1
    2850:	31 05       	cpc	r19, r1
    2852:	19 f4       	brne	.+6      	; 0x285a <_ZN18OrangutanResources10getFreeRAMEv+0x24>
    2854:	8b 56       	subi	r24, 0x6B	; 107
    2856:	92 40       	sbci	r25, 0x02	; 2
    2858:	02 c0       	rjmp	.+4      	; 0x285e <_ZN18OrangutanResources10getFreeRAMEv+0x28>
    285a:	82 1b       	sub	r24, r18
    285c:	93 0b       	sbc	r25, r19
    285e:	9a 83       	std	Y+2, r25	; 0x02
    2860:	89 83       	std	Y+1, r24	; 0x01
    2862:	89 81       	ldd	r24, Y+1	; 0x01
    2864:	9a 81       	ldd	r25, Y+2	; 0x02
    2866:	22 96       	adiw	r28, 0x02	; 2
    2868:	e2 e0       	ldi	r30, 0x02	; 2
    286a:	0c 94 ed 15 	jmp	0x2bda	; 0x2bda <__epilogue_restores__+0x20>

0000286e <get_free_ram>:
    286e:	0e 94 1b 14 	call	0x2836	; 0x2836 <_ZN18OrangutanResources10getFreeRAMEv>
    2872:	08 95       	ret

00002874 <__vector_9>:
    2874:	2f 92       	push	r2
    2876:	8f 93       	push	r24
    2878:	9f 93       	push	r25
    287a:	2f b6       	in	r2, 0x3f	; 63
    287c:	80 91 57 02 	lds	r24, 0x0257
    2880:	90 91 58 02 	lds	r25, 0x0258
    2884:	01 96       	adiw	r24, 0x01	; 1
    2886:	80 93 57 02 	sts	0x0257, r24
    288a:	90 93 58 02 	sts	0x0258, r25
    288e:	90 e0       	ldi	r25, 0x00	; 0
    2890:	80 91 59 02 	lds	r24, 0x0259
    2894:	89 1f       	adc	r24, r25
    2896:	80 93 59 02 	sts	0x0259, r24
    289a:	90 91 5f 02 	lds	r25, 0x025F
    289e:	9c 5f       	subi	r25, 0xFC	; 252
    28a0:	90 93 5f 02 	sts	0x025F, r25
    28a4:	80 91 5e 02 	lds	r24, 0x025E
    28a8:	80 51       	subi	r24, 0x10	; 16
    28aa:	97 42       	sbci	r25, 0x27	; 39
    28ac:	c0 f0       	brcs	.+48     	; 0x28de <end>
    28ae:	90 93 5f 02 	sts	0x025F, r25
    28b2:	80 93 5e 02 	sts	0x025E, r24
    28b6:	80 91 5a 02 	lds	r24, 0x025A
    28ba:	90 91 5b 02 	lds	r25, 0x025B
    28be:	01 96       	adiw	r24, 0x01	; 1
    28c0:	80 93 5a 02 	sts	0x025A, r24
    28c4:	90 93 5b 02 	sts	0x025B, r25
    28c8:	90 e0       	ldi	r25, 0x00	; 0
    28ca:	80 91 5c 02 	lds	r24, 0x025C
    28ce:	89 1f       	adc	r24, r25
    28d0:	80 93 5c 02 	sts	0x025C, r24
    28d4:	80 91 5d 02 	lds	r24, 0x025D
    28d8:	89 1f       	adc	r24, r25
    28da:	80 93 5d 02 	sts	0x025D, r24

000028de <end>:
    28de:	2f be       	out	0x3f, r2	; 63
    28e0:	9f 91       	pop	r25
    28e2:	8f 91       	pop	r24
    28e4:	2f 90       	pop	r2
    28e6:	18 95       	reti

000028e8 <delay_ms>:
    28e8:	28 ee       	ldi	r18, 0xE8	; 232
    28ea:	33 e0       	ldi	r19, 0x03	; 3
    28ec:	09 c0       	rjmp	.+18     	; 0x2900 <delay_ms+0x18>
    28ee:	f9 01       	movw	r30, r18
    28f0:	6f 93       	push	r22
    28f2:	64 e0       	ldi	r22, 0x04	; 4
    28f4:	6a 95       	dec	r22
    28f6:	f1 f7       	brne	.-4      	; 0x28f4 <delay_ms+0xc>
    28f8:	6f 91       	pop	r22
    28fa:	31 97       	sbiw	r30, 0x01	; 1
    28fc:	c9 f7       	brne	.-14     	; 0x28f0 <delay_ms+0x8>
    28fe:	01 97       	sbiw	r24, 0x01	; 1
    2900:	00 97       	sbiw	r24, 0x00	; 0
    2902:	a9 f7       	brne	.-22     	; 0x28ee <delay_ms+0x6>
    2904:	08 95       	ret

00002906 <_ZN13OrangutanTime19ticksToMicrosecondsEm>:
    2906:	6f 5f       	subi	r22, 0xFF	; 255
    2908:	7f 4f       	sbci	r23, 0xFF	; 255
    290a:	8f 4f       	sbci	r24, 0xFF	; 255
    290c:	9f 4f       	sbci	r25, 0xFF	; 255
    290e:	66 0f       	add	r22, r22
    2910:	77 1f       	adc	r23, r23
    2912:	88 1f       	adc	r24, r24
    2914:	99 1f       	adc	r25, r25
    2916:	25 e0       	ldi	r18, 0x05	; 5
    2918:	30 e0       	ldi	r19, 0x00	; 0
    291a:	40 e0       	ldi	r20, 0x00	; 0
    291c:	50 e0       	ldi	r21, 0x00	; 0
    291e:	0e 94 84 15 	call	0x2b08	; 0x2b08 <__udivmodsi4>
    2922:	ca 01       	movw	r24, r20
    2924:	b9 01       	movw	r22, r18
    2926:	08 95       	ret

00002928 <ticks_to_microseconds>:
    2928:	0e 94 83 14 	call	0x2906	; 0x2906 <_ZN13OrangutanTime19ticksToMicrosecondsEm>
    292c:	08 95       	ret

0000292e <_ZN13OrangutanTime17delayMillisecondsEj>:
    292e:	28 ee       	ldi	r18, 0xE8	; 232
    2930:	33 e0       	ldi	r19, 0x03	; 3
    2932:	09 c0       	rjmp	.+18     	; 0x2946 <_ZN13OrangutanTime17delayMillisecondsEj+0x18>
    2934:	f9 01       	movw	r30, r18
    2936:	6f 93       	push	r22
    2938:	64 e0       	ldi	r22, 0x04	; 4
    293a:	6a 95       	dec	r22
    293c:	f1 f7       	brne	.-4      	; 0x293a <_ZN13OrangutanTime17delayMillisecondsEj+0xc>
    293e:	6f 91       	pop	r22
    2940:	31 97       	sbiw	r30, 0x01	; 1
    2942:	c9 f7       	brne	.-14     	; 0x2936 <_ZN13OrangutanTime17delayMillisecondsEj+0x8>
    2944:	01 97       	sbiw	r24, 0x01	; 1
    2946:	00 97       	sbiw	r24, 0x00	; 0
    2948:	a9 f7       	brne	.-22     	; 0x2934 <_ZN13OrangutanTime17delayMillisecondsEj+0x6>
    294a:	08 95       	ret

0000294c <_ZN13OrangutanTime5init2Ev>:
    294c:	a0 e7       	ldi	r26, 0x70	; 112
    294e:	b0 e0       	ldi	r27, 0x00	; 0
    2950:	8c 91       	ld	r24, X
    2952:	8e 7f       	andi	r24, 0xFE	; 254
    2954:	8c 93       	st	X, r24
    2956:	e0 eb       	ldi	r30, 0xB0	; 176
    2958:	f0 e0       	ldi	r31, 0x00	; 0
    295a:	80 81       	ld	r24, Z
    295c:	83 60       	ori	r24, 0x03	; 3
    295e:	80 83       	st	Z, r24
    2960:	e1 eb       	ldi	r30, 0xB1	; 177
    2962:	f0 e0       	ldi	r31, 0x00	; 0
    2964:	80 81       	ld	r24, Z
    2966:	80 7f       	andi	r24, 0xF0	; 240
    2968:	80 83       	st	Z, r24
    296a:	80 81       	ld	r24, Z
    296c:	82 60       	ori	r24, 0x02	; 2
    296e:	80 83       	st	Z, r24
    2970:	b8 9a       	sbi	0x17, 0	; 23
    2972:	8c 91       	ld	r24, X
    2974:	81 60       	ori	r24, 0x01	; 1
    2976:	8c 93       	st	X, r24
    2978:	78 94       	sei
    297a:	08 95       	ret

0000297c <_ZN13OrangutanTime4initEv>:
    297c:	80 91 60 02 	lds	r24, 0x0260
    2980:	88 23       	and	r24, r24
    2982:	29 f4       	brne	.+10     	; 0x298e <_ZN13OrangutanTime4initEv+0x12>
    2984:	81 e0       	ldi	r24, 0x01	; 1
    2986:	80 93 60 02 	sts	0x0260, r24
    298a:	0e 94 a6 14 	call	0x294c	; 0x294c <_ZN13OrangutanTime5init2Ev>
    298e:	08 95       	ret

00002990 <_ZN13OrangutanTime2msEv>:
    2990:	0e 94 be 14 	call	0x297c	; 0x297c <_ZN13OrangutanTime4initEv>
    2994:	e0 e7       	ldi	r30, 0x70	; 112
    2996:	f0 e0       	ldi	r31, 0x00	; 0
    2998:	80 81       	ld	r24, Z
    299a:	8e 7f       	andi	r24, 0xFE	; 254
    299c:	80 83       	st	Z, r24
    299e:	20 91 5a 02 	lds	r18, 0x025A
    29a2:	30 91 5b 02 	lds	r19, 0x025B
    29a6:	40 91 5c 02 	lds	r20, 0x025C
    29aa:	50 91 5d 02 	lds	r21, 0x025D
    29ae:	80 81       	ld	r24, Z
    29b0:	81 60       	ori	r24, 0x01	; 1
    29b2:	80 83       	st	Z, r24
    29b4:	b9 01       	movw	r22, r18
    29b6:	ca 01       	movw	r24, r20
    29b8:	08 95       	ret

000029ba <get_ms>:
    29ba:	0e 94 c8 14 	call	0x2990	; 0x2990 <_ZN13OrangutanTime2msEv>
    29be:	08 95       	ret

000029c0 <_ZN13OrangutanTime5ticksEv>:
    29c0:	0e 94 be 14 	call	0x297c	; 0x297c <_ZN13OrangutanTime4initEv>
    29c4:	80 91 70 00 	lds	r24, 0x0070
    29c8:	8e 7f       	andi	r24, 0xFE	; 254
    29ca:	80 93 70 00 	sts	0x0070, r24
    29ce:	60 91 b2 00 	lds	r22, 0x00B2
    29d2:	80 91 56 02 	lds	r24, 0x0256
    29d6:	90 91 57 02 	lds	r25, 0x0257
    29da:	a0 91 58 02 	lds	r26, 0x0258
    29de:	b0 91 59 02 	lds	r27, 0x0259
    29e2:	b8 99       	sbic	0x17, 0	; 23
    29e4:	05 c0       	rjmp	.+10     	; 0x29f0 <_ZN13OrangutanTime5ticksEv+0x30>
    29e6:	26 2f       	mov	r18, r22
    29e8:	30 e0       	ldi	r19, 0x00	; 0
    29ea:	40 e0       	ldi	r20, 0x00	; 0
    29ec:	50 e0       	ldi	r21, 0x00	; 0
    29ee:	11 c0       	rjmp	.+34     	; 0x2a12 <_ZN13OrangutanTime5ticksEv+0x52>
    29f0:	80 91 b2 00 	lds	r24, 0x00B2
    29f4:	20 91 56 02 	lds	r18, 0x0256
    29f8:	30 91 57 02 	lds	r19, 0x0257
    29fc:	40 91 58 02 	lds	r20, 0x0258
    2a00:	50 91 59 02 	lds	r21, 0x0259
    2a04:	20 50       	subi	r18, 0x00	; 0
    2a06:	3f 4f       	sbci	r19, 0xFF	; 255
    2a08:	4f 4f       	sbci	r20, 0xFF	; 255
    2a0a:	5f 4f       	sbci	r21, 0xFF	; 255
    2a0c:	90 e0       	ldi	r25, 0x00	; 0
    2a0e:	a0 e0       	ldi	r26, 0x00	; 0
    2a10:	b0 e0       	ldi	r27, 0x00	; 0
    2a12:	28 2b       	or	r18, r24
    2a14:	39 2b       	or	r19, r25
    2a16:	4a 2b       	or	r20, r26
    2a18:	5b 2b       	or	r21, r27
    2a1a:	80 91 70 00 	lds	r24, 0x0070
    2a1e:	81 60       	ori	r24, 0x01	; 1
    2a20:	80 93 70 00 	sts	0x0070, r24
    2a24:	b9 01       	movw	r22, r18
    2a26:	ca 01       	movw	r24, r20
    2a28:	08 95       	ret

00002a2a <get_ticks>:
    2a2a:	0e 94 e0 14 	call	0x29c0	; 0x29c0 <_ZN13OrangutanTime5ticksEv>
    2a2e:	08 95       	ret

00002a30 <_ZN13OrangutanTime5resetEv>:
    2a30:	0e 94 be 14 	call	0x297c	; 0x297c <_ZN13OrangutanTime4initEv>
    2a34:	e0 e7       	ldi	r30, 0x70	; 112
    2a36:	f0 e0       	ldi	r31, 0x00	; 0
    2a38:	80 81       	ld	r24, Z
    2a3a:	8e 7f       	andi	r24, 0xFE	; 254
    2a3c:	80 83       	st	Z, r24
    2a3e:	10 92 5a 02 	sts	0x025A, r1
    2a42:	10 92 5b 02 	sts	0x025B, r1
    2a46:	10 92 5c 02 	sts	0x025C, r1
    2a4a:	10 92 5d 02 	sts	0x025D, r1
    2a4e:	10 92 5f 02 	sts	0x025F, r1
    2a52:	10 92 5e 02 	sts	0x025E, r1
    2a56:	80 81       	ld	r24, Z
    2a58:	81 60       	ori	r24, 0x01	; 1
    2a5a:	80 83       	st	Z, r24
    2a5c:	08 95       	ret

00002a5e <time_reset>:
    2a5e:	0e 94 18 15 	call	0x2a30	; 0x2a30 <_ZN13OrangutanTime5resetEv>
    2a62:	08 95       	ret

00002a64 <__mulsi3>:
    2a64:	62 9f       	mul	r22, r18
    2a66:	d0 01       	movw	r26, r0
    2a68:	73 9f       	mul	r23, r19
    2a6a:	f0 01       	movw	r30, r0
    2a6c:	82 9f       	mul	r24, r18
    2a6e:	e0 0d       	add	r30, r0
    2a70:	f1 1d       	adc	r31, r1
    2a72:	64 9f       	mul	r22, r20
    2a74:	e0 0d       	add	r30, r0
    2a76:	f1 1d       	adc	r31, r1
    2a78:	92 9f       	mul	r25, r18
    2a7a:	f0 0d       	add	r31, r0
    2a7c:	83 9f       	mul	r24, r19
    2a7e:	f0 0d       	add	r31, r0
    2a80:	74 9f       	mul	r23, r20
    2a82:	f0 0d       	add	r31, r0
    2a84:	65 9f       	mul	r22, r21
    2a86:	f0 0d       	add	r31, r0
    2a88:	99 27       	eor	r25, r25
    2a8a:	72 9f       	mul	r23, r18
    2a8c:	b0 0d       	add	r27, r0
    2a8e:	e1 1d       	adc	r30, r1
    2a90:	f9 1f       	adc	r31, r25
    2a92:	63 9f       	mul	r22, r19
    2a94:	b0 0d       	add	r27, r0
    2a96:	e1 1d       	adc	r30, r1
    2a98:	f9 1f       	adc	r31, r25
    2a9a:	bd 01       	movw	r22, r26
    2a9c:	cf 01       	movw	r24, r30
    2a9e:	11 24       	eor	r1, r1
    2aa0:	08 95       	ret

00002aa2 <__udivmodqi4>:
    2aa2:	99 1b       	sub	r25, r25
    2aa4:	79 e0       	ldi	r23, 0x09	; 9
    2aa6:	04 c0       	rjmp	.+8      	; 0x2ab0 <__udivmodqi4_ep>

00002aa8 <__udivmodqi4_loop>:
    2aa8:	99 1f       	adc	r25, r25
    2aaa:	96 17       	cp	r25, r22
    2aac:	08 f0       	brcs	.+2      	; 0x2ab0 <__udivmodqi4_ep>
    2aae:	96 1b       	sub	r25, r22

00002ab0 <__udivmodqi4_ep>:
    2ab0:	88 1f       	adc	r24, r24
    2ab2:	7a 95       	dec	r23
    2ab4:	c9 f7       	brne	.-14     	; 0x2aa8 <__udivmodqi4_loop>
    2ab6:	80 95       	com	r24
    2ab8:	08 95       	ret

00002aba <__udivmodhi4>:
    2aba:	aa 1b       	sub	r26, r26
    2abc:	bb 1b       	sub	r27, r27
    2abe:	51 e1       	ldi	r21, 0x11	; 17
    2ac0:	07 c0       	rjmp	.+14     	; 0x2ad0 <__udivmodhi4_ep>

00002ac2 <__udivmodhi4_loop>:
    2ac2:	aa 1f       	adc	r26, r26
    2ac4:	bb 1f       	adc	r27, r27
    2ac6:	a6 17       	cp	r26, r22
    2ac8:	b7 07       	cpc	r27, r23
    2aca:	10 f0       	brcs	.+4      	; 0x2ad0 <__udivmodhi4_ep>
    2acc:	a6 1b       	sub	r26, r22
    2ace:	b7 0b       	sbc	r27, r23

00002ad0 <__udivmodhi4_ep>:
    2ad0:	88 1f       	adc	r24, r24
    2ad2:	99 1f       	adc	r25, r25
    2ad4:	5a 95       	dec	r21
    2ad6:	a9 f7       	brne	.-22     	; 0x2ac2 <__udivmodhi4_loop>
    2ad8:	80 95       	com	r24
    2ada:	90 95       	com	r25
    2adc:	bc 01       	movw	r22, r24
    2ade:	cd 01       	movw	r24, r26
    2ae0:	08 95       	ret

00002ae2 <__divmodhi4>:
    2ae2:	97 fb       	bst	r25, 7
    2ae4:	09 2e       	mov	r0, r25
    2ae6:	07 26       	eor	r0, r23
    2ae8:	0a d0       	rcall	.+20     	; 0x2afe <__divmodhi4_neg1>
    2aea:	77 fd       	sbrc	r23, 7
    2aec:	04 d0       	rcall	.+8      	; 0x2af6 <__divmodhi4_neg2>
    2aee:	e5 df       	rcall	.-54     	; 0x2aba <__udivmodhi4>
    2af0:	06 d0       	rcall	.+12     	; 0x2afe <__divmodhi4_neg1>
    2af2:	00 20       	and	r0, r0
    2af4:	1a f4       	brpl	.+6      	; 0x2afc <__divmodhi4_exit>

00002af6 <__divmodhi4_neg2>:
    2af6:	70 95       	com	r23
    2af8:	61 95       	neg	r22
    2afa:	7f 4f       	sbci	r23, 0xFF	; 255

00002afc <__divmodhi4_exit>:
    2afc:	08 95       	ret

00002afe <__divmodhi4_neg1>:
    2afe:	f6 f7       	brtc	.-4      	; 0x2afc <__divmodhi4_exit>
    2b00:	90 95       	com	r25
    2b02:	81 95       	neg	r24
    2b04:	9f 4f       	sbci	r25, 0xFF	; 255
    2b06:	08 95       	ret

00002b08 <__udivmodsi4>:
    2b08:	a1 e2       	ldi	r26, 0x21	; 33
    2b0a:	1a 2e       	mov	r1, r26
    2b0c:	aa 1b       	sub	r26, r26
    2b0e:	bb 1b       	sub	r27, r27
    2b10:	fd 01       	movw	r30, r26
    2b12:	0d c0       	rjmp	.+26     	; 0x2b2e <__udivmodsi4_ep>

00002b14 <__udivmodsi4_loop>:
    2b14:	aa 1f       	adc	r26, r26
    2b16:	bb 1f       	adc	r27, r27
    2b18:	ee 1f       	adc	r30, r30
    2b1a:	ff 1f       	adc	r31, r31
    2b1c:	a2 17       	cp	r26, r18
    2b1e:	b3 07       	cpc	r27, r19
    2b20:	e4 07       	cpc	r30, r20
    2b22:	f5 07       	cpc	r31, r21
    2b24:	20 f0       	brcs	.+8      	; 0x2b2e <__udivmodsi4_ep>
    2b26:	a2 1b       	sub	r26, r18
    2b28:	b3 0b       	sbc	r27, r19
    2b2a:	e4 0b       	sbc	r30, r20
    2b2c:	f5 0b       	sbc	r31, r21

00002b2e <__udivmodsi4_ep>:
    2b2e:	66 1f       	adc	r22, r22
    2b30:	77 1f       	adc	r23, r23
    2b32:	88 1f       	adc	r24, r24
    2b34:	99 1f       	adc	r25, r25
    2b36:	1a 94       	dec	r1
    2b38:	69 f7       	brne	.-38     	; 0x2b14 <__udivmodsi4_loop>
    2b3a:	60 95       	com	r22
    2b3c:	70 95       	com	r23
    2b3e:	80 95       	com	r24
    2b40:	90 95       	com	r25
    2b42:	9b 01       	movw	r18, r22
    2b44:	ac 01       	movw	r20, r24
    2b46:	bd 01       	movw	r22, r26
    2b48:	cf 01       	movw	r24, r30
    2b4a:	08 95       	ret

00002b4c <__divmodsi4>:
    2b4c:	97 fb       	bst	r25, 7
    2b4e:	09 2e       	mov	r0, r25
    2b50:	05 26       	eor	r0, r21
    2b52:	0e d0       	rcall	.+28     	; 0x2b70 <__divmodsi4_neg1>
    2b54:	57 fd       	sbrc	r21, 7
    2b56:	04 d0       	rcall	.+8      	; 0x2b60 <__divmodsi4_neg2>
    2b58:	d7 df       	rcall	.-82     	; 0x2b08 <__udivmodsi4>
    2b5a:	0a d0       	rcall	.+20     	; 0x2b70 <__divmodsi4_neg1>
    2b5c:	00 1c       	adc	r0, r0
    2b5e:	38 f4       	brcc	.+14     	; 0x2b6e <__divmodsi4_exit>

00002b60 <__divmodsi4_neg2>:
    2b60:	50 95       	com	r21
    2b62:	40 95       	com	r20
    2b64:	30 95       	com	r19
    2b66:	21 95       	neg	r18
    2b68:	3f 4f       	sbci	r19, 0xFF	; 255
    2b6a:	4f 4f       	sbci	r20, 0xFF	; 255
    2b6c:	5f 4f       	sbci	r21, 0xFF	; 255

00002b6e <__divmodsi4_exit>:
    2b6e:	08 95       	ret

00002b70 <__divmodsi4_neg1>:
    2b70:	f6 f7       	brtc	.-4      	; 0x2b6e <__divmodsi4_exit>
    2b72:	90 95       	com	r25
    2b74:	80 95       	com	r24
    2b76:	70 95       	com	r23
    2b78:	61 95       	neg	r22
    2b7a:	7f 4f       	sbci	r23, 0xFF	; 255
    2b7c:	8f 4f       	sbci	r24, 0xFF	; 255
    2b7e:	9f 4f       	sbci	r25, 0xFF	; 255
    2b80:	08 95       	ret

00002b82 <__prologue_saves__>:
    2b82:	2f 92       	push	r2
    2b84:	3f 92       	push	r3
    2b86:	4f 92       	push	r4
    2b88:	5f 92       	push	r5
    2b8a:	6f 92       	push	r6
    2b8c:	7f 92       	push	r7
    2b8e:	8f 92       	push	r8
    2b90:	9f 92       	push	r9
    2b92:	af 92       	push	r10
    2b94:	bf 92       	push	r11
    2b96:	cf 92       	push	r12
    2b98:	df 92       	push	r13
    2b9a:	ef 92       	push	r14
    2b9c:	ff 92       	push	r15
    2b9e:	0f 93       	push	r16
    2ba0:	1f 93       	push	r17
    2ba2:	cf 93       	push	r28
    2ba4:	df 93       	push	r29
    2ba6:	cd b7       	in	r28, 0x3d	; 61
    2ba8:	de b7       	in	r29, 0x3e	; 62
    2baa:	ca 1b       	sub	r28, r26
    2bac:	db 0b       	sbc	r29, r27
    2bae:	0f b6       	in	r0, 0x3f	; 63
    2bb0:	f8 94       	cli
    2bb2:	de bf       	out	0x3e, r29	; 62
    2bb4:	0f be       	out	0x3f, r0	; 63
    2bb6:	cd bf       	out	0x3d, r28	; 61
    2bb8:	09 94       	ijmp

00002bba <__epilogue_restores__>:
    2bba:	2a 88       	ldd	r2, Y+18	; 0x12
    2bbc:	39 88       	ldd	r3, Y+17	; 0x11
    2bbe:	48 88       	ldd	r4, Y+16	; 0x10
    2bc0:	5f 84       	ldd	r5, Y+15	; 0x0f
    2bc2:	6e 84       	ldd	r6, Y+14	; 0x0e
    2bc4:	7d 84       	ldd	r7, Y+13	; 0x0d
    2bc6:	8c 84       	ldd	r8, Y+12	; 0x0c
    2bc8:	9b 84       	ldd	r9, Y+11	; 0x0b
    2bca:	aa 84       	ldd	r10, Y+10	; 0x0a
    2bcc:	b9 84       	ldd	r11, Y+9	; 0x09
    2bce:	c8 84       	ldd	r12, Y+8	; 0x08
    2bd0:	df 80       	ldd	r13, Y+7	; 0x07
    2bd2:	ee 80       	ldd	r14, Y+6	; 0x06
    2bd4:	fd 80       	ldd	r15, Y+5	; 0x05
    2bd6:	0c 81       	ldd	r16, Y+4	; 0x04
    2bd8:	1b 81       	ldd	r17, Y+3	; 0x03
    2bda:	aa 81       	ldd	r26, Y+2	; 0x02
    2bdc:	b9 81       	ldd	r27, Y+1	; 0x01
    2bde:	ce 0f       	add	r28, r30
    2be0:	d1 1d       	adc	r29, r1
    2be2:	0f b6       	in	r0, 0x3f	; 63
    2be4:	f8 94       	cli
    2be6:	de bf       	out	0x3e, r29	; 62
    2be8:	0f be       	out	0x3f, r0	; 63
    2bea:	cd bf       	out	0x3d, r28	; 61
    2bec:	ed 01       	movw	r28, r26
    2bee:	08 95       	ret

00002bf0 <__tablejump2__>:
    2bf0:	ee 0f       	add	r30, r30
    2bf2:	ff 1f       	adc	r31, r31

00002bf4 <__tablejump__>:
    2bf4:	05 90       	lpm	r0, Z+
    2bf6:	f4 91       	lpm	r31, Z+
    2bf8:	e0 2d       	mov	r30, r0
    2bfa:	09 94       	ijmp

00002bfc <malloc>:
    2bfc:	cf 93       	push	r28
    2bfe:	df 93       	push	r29
    2c00:	bc 01       	movw	r22, r24
    2c02:	82 30       	cpi	r24, 0x02	; 2
    2c04:	91 05       	cpc	r25, r1
    2c06:	10 f4       	brcc	.+4      	; 0x2c0c <malloc+0x10>
    2c08:	62 e0       	ldi	r22, 0x02	; 2
    2c0a:	70 e0       	ldi	r23, 0x00	; 0
    2c0c:	a0 91 63 02 	lds	r26, 0x0263
    2c10:	b0 91 64 02 	lds	r27, 0x0264
    2c14:	ed 01       	movw	r28, r26
    2c16:	e0 e0       	ldi	r30, 0x00	; 0
    2c18:	f0 e0       	ldi	r31, 0x00	; 0
    2c1a:	40 e0       	ldi	r20, 0x00	; 0
    2c1c:	50 e0       	ldi	r21, 0x00	; 0
    2c1e:	21 c0       	rjmp	.+66     	; 0x2c62 <malloc+0x66>
    2c20:	88 81       	ld	r24, Y
    2c22:	99 81       	ldd	r25, Y+1	; 0x01
    2c24:	86 17       	cp	r24, r22
    2c26:	97 07       	cpc	r25, r23
    2c28:	69 f4       	brne	.+26     	; 0x2c44 <malloc+0x48>
    2c2a:	8a 81       	ldd	r24, Y+2	; 0x02
    2c2c:	9b 81       	ldd	r25, Y+3	; 0x03
    2c2e:	30 97       	sbiw	r30, 0x00	; 0
    2c30:	19 f0       	breq	.+6      	; 0x2c38 <malloc+0x3c>
    2c32:	93 83       	std	Z+3, r25	; 0x03
    2c34:	82 83       	std	Z+2, r24	; 0x02
    2c36:	04 c0       	rjmp	.+8      	; 0x2c40 <malloc+0x44>
    2c38:	90 93 64 02 	sts	0x0264, r25
    2c3c:	80 93 63 02 	sts	0x0263, r24
    2c40:	fe 01       	movw	r30, r28
    2c42:	34 c0       	rjmp	.+104    	; 0x2cac <malloc+0xb0>
    2c44:	68 17       	cp	r22, r24
    2c46:	79 07       	cpc	r23, r25
    2c48:	38 f4       	brcc	.+14     	; 0x2c58 <malloc+0x5c>
    2c4a:	41 15       	cp	r20, r1
    2c4c:	51 05       	cpc	r21, r1
    2c4e:	19 f0       	breq	.+6      	; 0x2c56 <malloc+0x5a>
    2c50:	84 17       	cp	r24, r20
    2c52:	95 07       	cpc	r25, r21
    2c54:	08 f4       	brcc	.+2      	; 0x2c58 <malloc+0x5c>
    2c56:	ac 01       	movw	r20, r24
    2c58:	fe 01       	movw	r30, r28
    2c5a:	8a 81       	ldd	r24, Y+2	; 0x02
    2c5c:	9b 81       	ldd	r25, Y+3	; 0x03
    2c5e:	9c 01       	movw	r18, r24
    2c60:	e9 01       	movw	r28, r18
    2c62:	20 97       	sbiw	r28, 0x00	; 0
    2c64:	e9 f6       	brne	.-70     	; 0x2c20 <malloc+0x24>
    2c66:	41 15       	cp	r20, r1
    2c68:	51 05       	cpc	r21, r1
    2c6a:	a9 f1       	breq	.+106    	; 0x2cd6 <malloc+0xda>
    2c6c:	ca 01       	movw	r24, r20
    2c6e:	86 1b       	sub	r24, r22
    2c70:	97 0b       	sbc	r25, r23
    2c72:	04 97       	sbiw	r24, 0x04	; 4
    2c74:	08 f4       	brcc	.+2      	; 0x2c78 <malloc+0x7c>
    2c76:	ba 01       	movw	r22, r20
    2c78:	e0 e0       	ldi	r30, 0x00	; 0
    2c7a:	f0 e0       	ldi	r31, 0x00	; 0
    2c7c:	2a c0       	rjmp	.+84     	; 0x2cd2 <malloc+0xd6>
    2c7e:	8d 91       	ld	r24, X+
    2c80:	9c 91       	ld	r25, X
    2c82:	11 97       	sbiw	r26, 0x01	; 1
    2c84:	84 17       	cp	r24, r20
    2c86:	95 07       	cpc	r25, r21
    2c88:	f9 f4       	brne	.+62     	; 0x2cc8 <malloc+0xcc>
    2c8a:	64 17       	cp	r22, r20
    2c8c:	75 07       	cpc	r23, r21
    2c8e:	81 f4       	brne	.+32     	; 0x2cb0 <malloc+0xb4>
    2c90:	12 96       	adiw	r26, 0x02	; 2
    2c92:	8d 91       	ld	r24, X+
    2c94:	9c 91       	ld	r25, X
    2c96:	13 97       	sbiw	r26, 0x03	; 3
    2c98:	30 97       	sbiw	r30, 0x00	; 0
    2c9a:	19 f0       	breq	.+6      	; 0x2ca2 <malloc+0xa6>
    2c9c:	93 83       	std	Z+3, r25	; 0x03
    2c9e:	82 83       	std	Z+2, r24	; 0x02
    2ca0:	04 c0       	rjmp	.+8      	; 0x2caa <malloc+0xae>
    2ca2:	90 93 64 02 	sts	0x0264, r25
    2ca6:	80 93 63 02 	sts	0x0263, r24
    2caa:	fd 01       	movw	r30, r26
    2cac:	32 96       	adiw	r30, 0x02	; 2
    2cae:	4f c0       	rjmp	.+158    	; 0x2d4e <malloc+0x152>
    2cb0:	ca 01       	movw	r24, r20
    2cb2:	86 1b       	sub	r24, r22
    2cb4:	97 0b       	sbc	r25, r23
    2cb6:	fd 01       	movw	r30, r26
    2cb8:	e8 0f       	add	r30, r24
    2cba:	f9 1f       	adc	r31, r25
    2cbc:	61 93       	st	Z+, r22
    2cbe:	71 93       	st	Z+, r23
    2cc0:	02 97       	sbiw	r24, 0x02	; 2
    2cc2:	8d 93       	st	X+, r24
    2cc4:	9c 93       	st	X, r25
    2cc6:	43 c0       	rjmp	.+134    	; 0x2d4e <malloc+0x152>
    2cc8:	fd 01       	movw	r30, r26
    2cca:	82 81       	ldd	r24, Z+2	; 0x02
    2ccc:	93 81       	ldd	r25, Z+3	; 0x03
    2cce:	9c 01       	movw	r18, r24
    2cd0:	d9 01       	movw	r26, r18
    2cd2:	10 97       	sbiw	r26, 0x00	; 0
    2cd4:	a1 f6       	brne	.-88     	; 0x2c7e <malloc+0x82>
    2cd6:	80 91 61 02 	lds	r24, 0x0261
    2cda:	90 91 62 02 	lds	r25, 0x0262
    2cde:	89 2b       	or	r24, r25
    2ce0:	41 f4       	brne	.+16     	; 0x2cf2 <malloc+0xf6>
    2ce2:	80 91 32 02 	lds	r24, 0x0232
    2ce6:	90 91 33 02 	lds	r25, 0x0233
    2cea:	90 93 62 02 	sts	0x0262, r25
    2cee:	80 93 61 02 	sts	0x0261, r24
    2cf2:	40 91 34 02 	lds	r20, 0x0234
    2cf6:	50 91 35 02 	lds	r21, 0x0235
    2cfa:	41 15       	cp	r20, r1
    2cfc:	51 05       	cpc	r21, r1
    2cfe:	41 f4       	brne	.+16     	; 0x2d10 <malloc+0x114>
    2d00:	4d b7       	in	r20, 0x3d	; 61
    2d02:	5e b7       	in	r21, 0x3e	; 62
    2d04:	80 91 30 02 	lds	r24, 0x0230
    2d08:	90 91 31 02 	lds	r25, 0x0231
    2d0c:	48 1b       	sub	r20, r24
    2d0e:	59 0b       	sbc	r21, r25
    2d10:	20 91 61 02 	lds	r18, 0x0261
    2d14:	30 91 62 02 	lds	r19, 0x0262
    2d18:	24 17       	cp	r18, r20
    2d1a:	35 07       	cpc	r19, r21
    2d1c:	b0 f4       	brcc	.+44     	; 0x2d4a <malloc+0x14e>
    2d1e:	ca 01       	movw	r24, r20
    2d20:	82 1b       	sub	r24, r18
    2d22:	93 0b       	sbc	r25, r19
    2d24:	86 17       	cp	r24, r22
    2d26:	97 07       	cpc	r25, r23
    2d28:	80 f0       	brcs	.+32     	; 0x2d4a <malloc+0x14e>
    2d2a:	ab 01       	movw	r20, r22
    2d2c:	4e 5f       	subi	r20, 0xFE	; 254
    2d2e:	5f 4f       	sbci	r21, 0xFF	; 255
    2d30:	84 17       	cp	r24, r20
    2d32:	95 07       	cpc	r25, r21
    2d34:	50 f0       	brcs	.+20     	; 0x2d4a <malloc+0x14e>
    2d36:	42 0f       	add	r20, r18
    2d38:	53 1f       	adc	r21, r19
    2d3a:	50 93 62 02 	sts	0x0262, r21
    2d3e:	40 93 61 02 	sts	0x0261, r20
    2d42:	f9 01       	movw	r30, r18
    2d44:	61 93       	st	Z+, r22
    2d46:	71 93       	st	Z+, r23
    2d48:	02 c0       	rjmp	.+4      	; 0x2d4e <malloc+0x152>
    2d4a:	e0 e0       	ldi	r30, 0x00	; 0
    2d4c:	f0 e0       	ldi	r31, 0x00	; 0
    2d4e:	cf 01       	movw	r24, r30
    2d50:	df 91       	pop	r29
    2d52:	cf 91       	pop	r28
    2d54:	08 95       	ret

00002d56 <free>:
    2d56:	cf 93       	push	r28
    2d58:	df 93       	push	r29
    2d5a:	00 97       	sbiw	r24, 0x00	; 0
    2d5c:	09 f4       	brne	.+2      	; 0x2d60 <free+0xa>
    2d5e:	50 c0       	rjmp	.+160    	; 0x2e00 <free+0xaa>
    2d60:	ec 01       	movw	r28, r24
    2d62:	22 97       	sbiw	r28, 0x02	; 2
    2d64:	1b 82       	std	Y+3, r1	; 0x03
    2d66:	1a 82       	std	Y+2, r1	; 0x02
    2d68:	a0 91 63 02 	lds	r26, 0x0263
    2d6c:	b0 91 64 02 	lds	r27, 0x0264
    2d70:	10 97       	sbiw	r26, 0x00	; 0
    2d72:	09 f1       	breq	.+66     	; 0x2db6 <free+0x60>
    2d74:	40 e0       	ldi	r20, 0x00	; 0
    2d76:	50 e0       	ldi	r21, 0x00	; 0
    2d78:	ac 17       	cp	r26, r28
    2d7a:	bd 07       	cpc	r27, r29
    2d7c:	08 f1       	brcs	.+66     	; 0x2dc0 <free+0x6a>
    2d7e:	bb 83       	std	Y+3, r27	; 0x03
    2d80:	aa 83       	std	Y+2, r26	; 0x02
    2d82:	fe 01       	movw	r30, r28
    2d84:	21 91       	ld	r18, Z+
    2d86:	31 91       	ld	r19, Z+
    2d88:	e2 0f       	add	r30, r18
    2d8a:	f3 1f       	adc	r31, r19
    2d8c:	ae 17       	cp	r26, r30
    2d8e:	bf 07       	cpc	r27, r31
    2d90:	79 f4       	brne	.+30     	; 0x2db0 <free+0x5a>
    2d92:	8d 91       	ld	r24, X+
    2d94:	9c 91       	ld	r25, X
    2d96:	11 97       	sbiw	r26, 0x01	; 1
    2d98:	28 0f       	add	r18, r24
    2d9a:	39 1f       	adc	r19, r25
    2d9c:	2e 5f       	subi	r18, 0xFE	; 254
    2d9e:	3f 4f       	sbci	r19, 0xFF	; 255
    2da0:	39 83       	std	Y+1, r19	; 0x01
    2da2:	28 83       	st	Y, r18
    2da4:	12 96       	adiw	r26, 0x02	; 2
    2da6:	8d 91       	ld	r24, X+
    2da8:	9c 91       	ld	r25, X
    2daa:	13 97       	sbiw	r26, 0x03	; 3
    2dac:	9b 83       	std	Y+3, r25	; 0x03
    2dae:	8a 83       	std	Y+2, r24	; 0x02
    2db0:	41 15       	cp	r20, r1
    2db2:	51 05       	cpc	r21, r1
    2db4:	71 f4       	brne	.+28     	; 0x2dd2 <free+0x7c>
    2db6:	d0 93 64 02 	sts	0x0264, r29
    2dba:	c0 93 63 02 	sts	0x0263, r28
    2dbe:	20 c0       	rjmp	.+64     	; 0x2e00 <free+0xaa>
    2dc0:	12 96       	adiw	r26, 0x02	; 2
    2dc2:	8d 91       	ld	r24, X+
    2dc4:	9c 91       	ld	r25, X
    2dc6:	13 97       	sbiw	r26, 0x03	; 3
    2dc8:	ad 01       	movw	r20, r26
    2dca:	00 97       	sbiw	r24, 0x00	; 0
    2dcc:	11 f0       	breq	.+4      	; 0x2dd2 <free+0x7c>
    2dce:	dc 01       	movw	r26, r24
    2dd0:	d3 cf       	rjmp	.-90     	; 0x2d78 <free+0x22>
    2dd2:	fa 01       	movw	r30, r20
    2dd4:	d3 83       	std	Z+3, r29	; 0x03
    2dd6:	c2 83       	std	Z+2, r28	; 0x02
    2dd8:	21 91       	ld	r18, Z+
    2dda:	31 91       	ld	r19, Z+
    2ddc:	e2 0f       	add	r30, r18
    2dde:	f3 1f       	adc	r31, r19
    2de0:	ce 17       	cp	r28, r30
    2de2:	df 07       	cpc	r29, r31
    2de4:	69 f4       	brne	.+26     	; 0x2e00 <free+0xaa>
    2de6:	88 81       	ld	r24, Y
    2de8:	99 81       	ldd	r25, Y+1	; 0x01
    2dea:	28 0f       	add	r18, r24
    2dec:	39 1f       	adc	r19, r25
    2dee:	2e 5f       	subi	r18, 0xFE	; 254
    2df0:	3f 4f       	sbci	r19, 0xFF	; 255
    2df2:	fa 01       	movw	r30, r20
    2df4:	31 83       	std	Z+1, r19	; 0x01
    2df6:	20 83       	st	Z, r18
    2df8:	8a 81       	ldd	r24, Y+2	; 0x02
    2dfa:	9b 81       	ldd	r25, Y+3	; 0x03
    2dfc:	93 83       	std	Z+3, r25	; 0x03
    2dfe:	82 83       	std	Z+2, r24	; 0x02
    2e00:	df 91       	pop	r29
    2e02:	cf 91       	pop	r28
    2e04:	08 95       	ret

00002e06 <fdevopen>:
    2e06:	0f 93       	push	r16
    2e08:	1f 93       	push	r17
    2e0a:	cf 93       	push	r28
    2e0c:	df 93       	push	r29
    2e0e:	8c 01       	movw	r16, r24
    2e10:	eb 01       	movw	r28, r22
    2e12:	00 97       	sbiw	r24, 0x00	; 0
    2e14:	31 f4       	brne	.+12     	; 0x2e22 <fdevopen+0x1c>
    2e16:	61 15       	cp	r22, r1
    2e18:	71 05       	cpc	r23, r1
    2e1a:	19 f4       	brne	.+6      	; 0x2e22 <fdevopen+0x1c>
    2e1c:	20 e0       	ldi	r18, 0x00	; 0
    2e1e:	30 e0       	ldi	r19, 0x00	; 0
    2e20:	38 c0       	rjmp	.+112    	; 0x2e92 <fdevopen+0x8c>
    2e22:	81 e0       	ldi	r24, 0x01	; 1
    2e24:	90 e0       	ldi	r25, 0x00	; 0
    2e26:	6e e0       	ldi	r22, 0x0E	; 14
    2e28:	70 e0       	ldi	r23, 0x00	; 0
    2e2a:	0e 94 4f 17 	call	0x2e9e	; 0x2e9e <calloc>
    2e2e:	fc 01       	movw	r30, r24
    2e30:	9c 01       	movw	r18, r24
    2e32:	00 97       	sbiw	r24, 0x00	; 0
    2e34:	71 f1       	breq	.+92     	; 0x2e92 <fdevopen+0x8c>
    2e36:	80 e8       	ldi	r24, 0x80	; 128
    2e38:	83 83       	std	Z+3, r24	; 0x03
    2e3a:	20 97       	sbiw	r28, 0x00	; 0
    2e3c:	71 f0       	breq	.+28     	; 0x2e5a <fdevopen+0x54>
    2e3e:	d3 87       	std	Z+11, r29	; 0x0b
    2e40:	c2 87       	std	Z+10, r28	; 0x0a
    2e42:	81 e8       	ldi	r24, 0x81	; 129
    2e44:	83 83       	std	Z+3, r24	; 0x03
    2e46:	80 91 65 02 	lds	r24, 0x0265
    2e4a:	90 91 66 02 	lds	r25, 0x0266
    2e4e:	89 2b       	or	r24, r25
    2e50:	21 f4       	brne	.+8      	; 0x2e5a <fdevopen+0x54>
    2e52:	f0 93 66 02 	sts	0x0266, r31
    2e56:	e0 93 65 02 	sts	0x0265, r30
    2e5a:	01 15       	cp	r16, r1
    2e5c:	11 05       	cpc	r17, r1
    2e5e:	c9 f0       	breq	.+50     	; 0x2e92 <fdevopen+0x8c>
    2e60:	11 87       	std	Z+9, r17	; 0x09
    2e62:	00 87       	std	Z+8, r16	; 0x08
    2e64:	83 81       	ldd	r24, Z+3	; 0x03
    2e66:	82 60       	ori	r24, 0x02	; 2
    2e68:	83 83       	std	Z+3, r24	; 0x03
    2e6a:	80 91 67 02 	lds	r24, 0x0267
    2e6e:	90 91 68 02 	lds	r25, 0x0268
    2e72:	89 2b       	or	r24, r25
    2e74:	71 f4       	brne	.+28     	; 0x2e92 <fdevopen+0x8c>
    2e76:	f0 93 68 02 	sts	0x0268, r31
    2e7a:	e0 93 67 02 	sts	0x0267, r30
    2e7e:	80 91 69 02 	lds	r24, 0x0269
    2e82:	90 91 6a 02 	lds	r25, 0x026A
    2e86:	89 2b       	or	r24, r25
    2e88:	21 f4       	brne	.+8      	; 0x2e92 <fdevopen+0x8c>
    2e8a:	f0 93 6a 02 	sts	0x026A, r31
    2e8e:	e0 93 69 02 	sts	0x0269, r30
    2e92:	c9 01       	movw	r24, r18
    2e94:	df 91       	pop	r29
    2e96:	cf 91       	pop	r28
    2e98:	1f 91       	pop	r17
    2e9a:	0f 91       	pop	r16
    2e9c:	08 95       	ret

00002e9e <calloc>:
    2e9e:	0f 93       	push	r16
    2ea0:	1f 93       	push	r17
    2ea2:	cf 93       	push	r28
    2ea4:	df 93       	push	r29
    2ea6:	68 9f       	mul	r22, r24
    2ea8:	80 01       	movw	r16, r0
    2eaa:	69 9f       	mul	r22, r25
    2eac:	10 0d       	add	r17, r0
    2eae:	78 9f       	mul	r23, r24
    2eb0:	10 0d       	add	r17, r0
    2eb2:	11 24       	eor	r1, r1
    2eb4:	c8 01       	movw	r24, r16
    2eb6:	0e 94 fe 15 	call	0x2bfc	; 0x2bfc <malloc>
    2eba:	ec 01       	movw	r28, r24
    2ebc:	00 97       	sbiw	r24, 0x00	; 0
    2ebe:	29 f0       	breq	.+10     	; 0x2eca <calloc+0x2c>
    2ec0:	60 e0       	ldi	r22, 0x00	; 0
    2ec2:	70 e0       	ldi	r23, 0x00	; 0
    2ec4:	a8 01       	movw	r20, r16
    2ec6:	0e 94 6b 17 	call	0x2ed6	; 0x2ed6 <memset>
    2eca:	ce 01       	movw	r24, r28
    2ecc:	df 91       	pop	r29
    2ece:	cf 91       	pop	r28
    2ed0:	1f 91       	pop	r17
    2ed2:	0f 91       	pop	r16
    2ed4:	08 95       	ret

00002ed6 <memset>:
    2ed6:	dc 01       	movw	r26, r24
    2ed8:	01 c0       	rjmp	.+2      	; 0x2edc <memset+0x6>
    2eda:	6d 93       	st	X+, r22
    2edc:	41 50       	subi	r20, 0x01	; 1
    2ede:	50 40       	sbci	r21, 0x00	; 0
    2ee0:	e0 f7       	brcc	.-8      	; 0x2eda <memset+0x4>
    2ee2:	08 95       	ret

00002ee4 <_exit>:
    2ee4:	f8 94       	cli

00002ee6 <__stop_program>:
    2ee6:	ff cf       	rjmp	.-2      	; 0x2ee6 <__stop_program>
